
build/kernel.elf:     file format elf32-littlearm


Disassembly of section .init:

00008000 <_start>:
    8000:	ea000008 	b	8028 <boot_reset>
    8004:	ea000005 	b	8020 <boot_sleep>
    8008:	ea000004 	b	8020 <boot_sleep>
    800c:	ea000003 	b	8020 <boot_sleep>
    8010:	ea000002 	b	8020 <boot_sleep>
    8014:	ea000001 	b	8020 <boot_sleep>
    8018:	ea000000 	b	8020 <boot_sleep>
    801c:	eaffffff 	b	8020 <boot_sleep>

00008020 <boot_sleep>:
    8020:	e320f002 	wfe
    8024:	eafffffd 	b	8020 <boot_sleep>

00008028 <boot_reset>:
    8028:	e321f0d3 	msr	CPSR_c, #211	; 0xd3
    802c:	ee110f10 	mrc	15, 0, r0, cr1, cr0, {0}
    8030:	e3c00a01 	bic	r0, r0, #4096	; 0x1000
    8034:	e3c00b02 	bic	r0, r0, #2048	; 0x800
    8038:	e3c00004 	bic	r0, r0, #4
    803c:	e3c00001 	bic	r0, r0, #1
    8040:	ee010f10 	mcr	15, 0, r0, cr1, cr0, {0}
    8044:	ee110f30 	mrc	15, 0, r0, cr1, cr0, {1}
    8048:	e3800040 	orr	r0, r0, #64	; 0x40
    804c:	ee010f30 	mcr	15, 0, r0, cr1, cr0, {1}
    8050:	e3a00000 	mov	r0, #0
    8054:	ee080f17 	mcr	15, 0, r0, cr8, cr7, {0}
    8058:	ee070fd5 	mcr	15, 0, r0, cr7, cr5, {6}
    805c:	e59f0144 	ldr	r0, [pc, #324]	; 81a8 <mp_continue+0x20>
    8060:	ee0c0f10 	mcr	15, 0, r0, cr12, cr0, {0}
    8064:	ee300f30 	mrc	15, 1, r0, cr0, cr0, {1}
    8068:	e3100003 	tst	r0, #3
    806c:	e3a00000 	mov	r0, #0
    8070:	1e070f15 	mcrne	15, 0, r0, cr7, cr5, {0}
    8074:	ee300f30 	mrc	15, 1, r0, cr0, cr0, {1}
    8078:	e2103407 	ands	r3, r0, #117440512	; 0x7000000
    807c:	e1a03ba3 	lsr	r3, r3, #23
    8080:	0a00001a 	beq	80f0 <finished>
    8084:	e3a0a000 	mov	sl, #0

00008088 <loop1>:
    8088:	e08a20aa 	add	r2, sl, sl, lsr #1
    808c:	e1a01230 	lsr	r1, r0, r2
    8090:	e2011007 	and	r1, r1, #7
    8094:	e3510002 	cmp	r1, #2
    8098:	ba000011 	blt	80e4 <skip>
    809c:	ee40af10 	mcr	15, 2, sl, cr0, cr0, {0}
    80a0:	f57ff06f 	isb	sy
    80a4:	ee301f10 	mrc	15, 1, r1, cr0, cr0, {0}
    80a8:	e2012007 	and	r2, r1, #7
    80ac:	e2822004 	add	r2, r2, #4
    80b0:	e59f40f4 	ldr	r4, [pc, #244]	; 81ac <mp_continue+0x24>
    80b4:	e01441a1 	ands	r4, r4, r1, lsr #3
    80b8:	e16f5f14 	clz	r5, r4
    80bc:	e59f70ec 	ldr	r7, [pc, #236]	; 81b0 <mp_continue+0x28>
    80c0:	e01776a1 	ands	r7, r7, r1, lsr #13

000080c4 <loop2>:
    80c4:	e1a09004 	mov	r9, r4

000080c8 <loop3>:
    80c8:	e18ab519 	orr	fp, sl, r9, lsl r5
    80cc:	e18bb217 	orr	fp, fp, r7, lsl r2
    80d0:	ee07bf56 	mcr	15, 0, fp, cr7, cr6, {2}
    80d4:	e2599001 	subs	r9, r9, #1
    80d8:	aafffffa 	bge	80c8 <loop3>
    80dc:	e2577001 	subs	r7, r7, #1
    80e0:	aafffff7 	bge	80c4 <loop2>

000080e4 <skip>:
    80e4:	e28aa002 	add	sl, sl, #2
    80e8:	e153000a 	cmp	r3, sl
    80ec:	caffffe5 	bgt	8088 <loop1>

000080f0 <finished>:
    80f0:	e3a00000 	mov	r0, #0
    80f4:	ee020f50 	mcr	15, 0, r0, cr2, cr0, {2}
    80f8:	e3a00901 	mov	r0, #16384	; 0x4000
    80fc:	e3a01008 	mov	r1, #8
    8100:	e3811040 	orr	r1, r1, #64	; 0x40
    8104:	e1800001 	orr	r0, r0, r1
    8108:	ee020f10 	mcr	15, 0, r0, cr2, cr0, {0}
    810c:	ee130f10 	mrc	15, 0, r0, cr3, cr0, {0}
    8110:	e59f009c 	ldr	r0, [pc, #156]	; 81b4 <mp_continue+0x2c>
    8114:	ee030f10 	mcr	15, 0, r0, cr3, cr0, {0}
    8118:	ee100fb0 	mrc	15, 0, r0, cr0, cr0, {5}
    811c:	e2100003 	ands	r0, r0, #3
    8120:	1320f002 	wfene
    8124:	1a000017 	bne	8188 <mp_continue>

00008128 <mmu_phase1>:
    8128:	e3a00901 	mov	r0, #16384	; 0x4000
    812c:	e59f1084 	ldr	r1, [pc, #132]	; 81b8 <mp_continue+0x30>
    8130:	e3a02000 	mov	r2, #0

00008134 <pagetable_invalidate>:
    8134:	e7802101 	str	r2, [r0, r1, lsl #2]
    8138:	e2511001 	subs	r1, r1, #1
    813c:	5afffffc 	bpl	8134 <pagetable_invalidate>
    8140:	e59f2074 	ldr	r2, [pc, #116]	; 81bc <mp_continue+0x34>
    8144:	e3a01000 	mov	r1, #0
    8148:	e1a01a21 	lsr	r1, r1, #20
    814c:	e1823a01 	orr	r3, r2, r1, lsl #20
    8150:	e7803101 	str	r3, [r0, r1, lsl #2]
    8154:	e3a01000 	mov	r1, #0
    8158:	e1a01a21 	lsr	r1, r1, #20
    815c:	e1823a01 	orr	r3, r2, r1, lsl #20
    8160:	e3a01102 	mov	r1, #-2147483648	; 0x80000000
    8164:	e1a01a21 	lsr	r1, r1, #20
    8168:	e7803101 	str	r3, [r0, r1, lsl #2]
    816c:	e59f204c 	ldr	r2, [pc, #76]	; 81c0 <mp_continue+0x38>
    8170:	e59f104c 	ldr	r1, [pc, #76]	; 81c4 <mp_continue+0x3c>
    8174:	e1a01a21 	lsr	r1, r1, #20
    8178:	e1823a01 	orr	r3, r2, r1, lsl #20
    817c:	e59f1044 	ldr	r1, [pc, #68]	; 81c8 <mp_continue+0x40>
    8180:	e1a01a21 	lsr	r1, r1, #20
    8184:	e7803101 	str	r3, [r0, r1, lsl #2]

00008188 <mp_continue>:
    8188:	e59fd03c 	ldr	sp, [pc, #60]	; 81cc <mp_continue+0x44>
    818c:	f57ff04f 	dsb	sy
    8190:	e59f1038 	ldr	r1, [pc, #56]	; 81d0 <mp_continue+0x48>
    8194:	ee110f10 	mrc	15, 0, r0, cr1, cr0, {0}
    8198:	e3800a02 	orr	r0, r0, #8192	; 0x2000
    819c:	e3800001 	orr	r0, r0, #1
    81a0:	ee010f10 	mcr	15, 0, r0, cr1, cr0, {0}
    81a4:	e12fff11 	bx	r1
    81a8:	00008000 	.word	0x00008000
    81ac:	000003ff 	.word	0x000003ff
    81b0:	00007fff 	.word	0x00007fff
    81b4:	55555555 	.word	0x55555555
    81b8:	00000fff 	.word	0x00000fff
    81bc:	00014406 	.word	0x00014406
    81c0:	00000c16 	.word	0x00000c16
    81c4:	3f200000 	.word	0x3f200000
    81c8:	d0200000 	.word	0xd0200000
    81cc:	80003000 	.word	0x80003000
    81d0:	80008200 	.word	0x80008200

Disassembly of section .text:

80008200 <_pagingstart>:
80008200:	eb00134a 	bl	8000cf30 <cmain>
80008204:	eb001296 	bl	8000cc64 <NotOkLoop>

80008208 <acknowledge>:
80008208:	e3a0220d 	mov	r2, #-805306368	; 0xd0000000
8000820c:	e2822602 	add	r2, r2, #2097152	; 0x200000
80008210:	e3a03001 	mov	r3, #1
80008214:	e1a03a83 	lsl	r3, r3, #21
80008218:	e5823010 	str	r3, [r2, #16]
8000821c:	e3a03001 	mov	r3, #1
80008220:	e1a03783 	lsl	r3, r3, #15
80008224:	e5823020 	str	r3, [r2, #32]
80008228:	e12fff1e 	bx	lr

8000822c <dsb_barrier>:
8000822c:	f57ff04f 	dsb	sy
80008230:	f57ff06f 	isb	sy
80008234:	e12fff1e 	bx	lr

80008238 <flush_dcache_all>:
80008238:	f57ff04f 	dsb	sy
8000823c:	f57ff06f 	isb	sy
80008240:	e12fff1e 	bx	lr

80008244 <flush_idcache>:
80008244:	f57ff04f 	dsb	sy
80008248:	f57ff06f 	isb	sy
8000824c:	e12fff1e 	bx	lr

80008250 <flush_tlb>:
80008250:	f57ff04f 	dsb	sy
80008254:	f57ff06f 	isb	sy
80008258:	e3a00000 	mov	r0, #0
8000825c:	ee080f17 	mcr	15, 0, r0, cr8, cr7, {0}
80008260:	ee070fd5 	mcr	15, 0, r0, cr7, cr5, {6}
80008264:	f57ff04f 	dsb	sy
80008268:	f57ff06f 	isb	sy
8000826c:	e12fff1e 	bx	lr

80008270 <flush_dcache>:
80008270:	f57ff04f 	dsb	sy
80008274:	f57ff06f 	isb	sy
80008278:	e12fff1e 	bx	lr

8000827c <set_pgtbase>:
8000827c:	ee020f10 	mcr	15, 0, r0, cr2, cr0, {0}
80008280:	e12fff1e 	bx	lr

80008284 <getsystemtime>:
80008284:	e59f0004 	ldr	r0, [pc, #4]	; 80008290 <getsystemtime+0xc>
80008288:	e1c000d0 	ldrd	r0, [r0]
8000828c:	e12fff1e 	bx	lr
80008290:	d0003004 	.word	0xd0003004
	...

800082a0 <vectors>:
800082a0:	e59ff018 	ldr	pc, [pc, #24]	; 800082c0 <reset_handler>
800082a4:	e59ff018 	ldr	pc, [pc, #24]	; 800082c4 <undefintr_handler>
800082a8:	e59ff018 	ldr	pc, [pc, #24]	; 800082c8 <swi_handler>
800082ac:	e59ff018 	ldr	pc, [pc, #24]	; 800082cc <prefetch_handler>
800082b0:	e59ff018 	ldr	pc, [pc, #24]	; 800082d0 <data_handler>
800082b4:	e59ff018 	ldr	pc, [pc, #24]	; 800082d4 <unused_handler>
800082b8:	e59ff018 	ldr	pc, [pc, #24]	; 800082d8 <irq_handler>
800082bc:	e59ff018 	ldr	pc, [pc, #24]	; 800082dc <fiq_handler>

800082c0 <reset_handler>:
800082c0:	800082e0 	.word	0x800082e0

800082c4 <undefintr_handler>:
800082c4:	8000836c 	.word	0x8000836c

800082c8 <swi_handler>:
800082c8:	800082e8 	.word	0x800082e8

800082cc <prefetch_handler>:
800082cc:	80008378 	.word	0x80008378

800082d0 <data_handler>:
800082d0:	80008384 	.word	0x80008384

800082d4 <unused_handler>:
800082d4:	800082e0 	.word	0x800082e0

800082d8 <irq_handler>:
800082d8:	80008390 	.word	0x80008390

800082dc <fiq_handler>:
800082dc:	800082e0 	.word	0x800082e0

800082e0 <hang>:
800082e0:	eb00125f 	bl	8000cc64 <NotOkLoop>
800082e4:	eafffffd 	b	800082e0 <hang>

800082e8 <do_svc>:
800082e8:	e52de004 	push	{lr}		; (str lr, [sp, #-4]!)
800082ec:	e14fe000 	mrs	lr, SPSR
800082f0:	e52de004 	push	{lr}		; (str lr, [sp, #-4]!)
800082f4:	e10fe000 	mrs	lr, CPSR
800082f8:	e52de004 	push	{lr}		; (str lr, [sp, #-4]!)
800082fc:	ee16ef50 	mrc	15, 0, lr, cr6, cr0, {2}
80008300:	e52de004 	push	{lr}		; (str lr, [sp, #-4]!)
80008304:	e3a0e040 	mov	lr, #64	; 0x40
80008308:	e52de004 	push	{lr}		; (str lr, [sp, #-4]!)
8000830c:	e90d7fff 	stmdb	sp, {r0, r1, r2, r3, r4, r5, r6, r7, r8, r9, sl, fp, ip, sp, lr}
80008310:	e24dd03c 	sub	sp, sp, #60	; 0x3c
80008314:	e1a0000d 	mov	r0, sp
80008318:	e9402000 	stmdb	r0, {sp}^
8000831c:	e1a01001 	mov	r1, r1
80008320:	e1a01001 	mov	r1, r1
80008324:	e1a01001 	mov	r1, r1
80008328:	e1a0d000 	mov	sp, r0
8000832c:	e24dd004 	sub	sp, sp, #4
80008330:	e1a0000d 	mov	r0, sp
80008334:	eb0001fc 	bl	80008b2c <trap>

80008338 <trapret>:
80008338:	e1a0000d 	mov	r0, sp
8000833c:	e8d02000 	ldm	r0, {sp}^
80008340:	e1a01001 	mov	r1, r1
80008344:	e1a01001 	mov	r1, r1
80008348:	e1a01001 	mov	r1, r1
8000834c:	e1a0d000 	mov	sp, r0
80008350:	e28dd004 	add	sp, sp, #4
80008354:	e89d1fff 	ldm	sp, {r0, r1, r2, r3, r4, r5, r6, r7, r8, r9, sl, fp, ip}
80008358:	e28dd048 	add	sp, sp, #72	; 0x48
8000835c:	e49de004 	pop	{lr}		; (ldr lr, [sp], #4)
80008360:	e169f00e 	msr	SPSR_fc, lr
80008364:	e49de004 	pop	{lr}		; (ldr lr, [sp], #4)
80008368:	e1b0f00e 	movs	pc, lr

8000836c <do_und>:
8000836c:	e90d001f 	stmdb	sp, {r0, r1, r2, r3, r4}
80008370:	e3a00001 	mov	r0, #1
80008374:	ea000008 	b	8000839c <_switchtosvc>

80008378 <do_pabt>:
80008378:	e90d001f 	stmdb	sp, {r0, r1, r2, r3, r4}
8000837c:	e3a00002 	mov	r0, #2
80008380:	ea000005 	b	8000839c <_switchtosvc>

80008384 <do_dabt>:
80008384:	e90d001f 	stmdb	sp, {r0, r1, r2, r3, r4}
80008388:	e3a00004 	mov	r0, #4
8000838c:	ea000002 	b	8000839c <_switchtosvc>

80008390 <do_irq>:
80008390:	e90d001f 	stmdb	sp, {r0, r1, r2, r3, r4}
80008394:	e3a00080 	mov	r0, #128	; 0x80
80008398:	eaffffff 	b	8000839c <_switchtosvc>

8000839c <_switchtosvc>:
8000839c:	e14f1000 	mrs	r1, SPSR
800083a0:	e24e2004 	sub	r2, lr, #4
800083a4:	e1a0300d 	mov	r3, sp
800083a8:	e10fe000 	mrs	lr, CPSR
800083ac:	e3cee01f 	bic	lr, lr, #31
800083b0:	e38ee080 	orr	lr, lr, #128	; 0x80
800083b4:	e38ee013 	orr	lr, lr, #19
800083b8:	e129f00e 	msr	CPSR_fc, lr
800083bc:	e52d2004 	push	{r2}		; (str r2, [sp, #-4]!)
800083c0:	e52d1004 	push	{r1}		; (str r1, [sp, #-4]!)
800083c4:	e10f1000 	mrs	r1, CPSR
800083c8:	e52d1004 	push	{r1}		; (str r1, [sp, #-4]!)
800083cc:	ee161f50 	mrc	15, 0, r1, cr6, cr0, {2}
800083d0:	e52d1004 	push	{r1}		; (str r1, [sp, #-4]!)
800083d4:	e52d0004 	push	{r0}		; (str r0, [sp, #-4]!)
800083d8:	e2431014 	sub	r1, r3, #20
800083dc:	e891001f 	ldm	r1, {r0, r1, r2, r3, r4}
800083e0:	e90d7fff 	stmdb	sp, {r0, r1, r2, r3, r4, r5, r6, r7, r8, r9, sl, fp, ip, sp, lr}
800083e4:	e24dd03c 	sub	sp, sp, #60	; 0x3c
800083e8:	e1a0000d 	mov	r0, sp
800083ec:	e9402000 	stmdb	r0, {sp}^
800083f0:	e1a01001 	mov	r1, r1
800083f4:	e1a01001 	mov	r1, r1
800083f8:	e1a01001 	mov	r1, r1
800083fc:	e1a0d000 	mov	sp, r0
80008400:	e24dd004 	sub	sp, sp, #4
80008404:	e1a0000d 	mov	r0, sp
80008408:	eb0001c7 	bl	80008b2c <trap>
8000840c:	e1a0000d 	mov	r0, sp
80008410:	e280004c 	add	r0, r0, #76	; 0x4c
80008414:	e8900002 	ldm	r0, {r1}
80008418:	e1a02001 	mov	r2, r1
8000841c:	e202200f 	and	r2, r2, #15
80008420:	e3520000 	cmp	r2, #0
80008424:	0a000006 	beq	80008444 <_backtouser>
80008428:	e129f001 	msr	CPSR_fc, r1
8000842c:	e28dd004 	add	sp, sp, #4
80008430:	e89d1fff 	ldm	sp, {r0, r1, r2, r3, r4, r5, r6, r7, r8, r9, sl, fp, ip}
80008434:	e28dd038 	add	sp, sp, #56	; 0x38
80008438:	e49de004 	pop	{lr}		; (ldr lr, [sp], #4)
8000843c:	e28dd010 	add	sp, sp, #16
80008440:	e49df004 	pop	{pc}		; (ldr pc, [sp], #4)

80008444 <_backtouser>:
80008444:	e1a0000d 	mov	r0, sp
80008448:	e8d02000 	ldm	r0, {sp}^
8000844c:	e1a01001 	mov	r1, r1
80008450:	e1a01001 	mov	r1, r1
80008454:	e1a01001 	mov	r1, r1
80008458:	e1a0d000 	mov	sp, r0
8000845c:	e28dd004 	add	sp, sp, #4
80008460:	e89d1fff 	ldm	sp, {r0, r1, r2, r3, r4, r5, r6, r7, r8, r9, sl, fp, ip}
80008464:	e28dd048 	add	sp, sp, #72	; 0x48
80008468:	e49de004 	pop	{lr}		; (ldr lr, [sp], #4)
8000846c:	e169f00e 	msr	SPSR_fc, lr
80008470:	e49de004 	pop	{lr}		; (ldr lr, [sp], #4)
80008474:	e1b0f00e 	movs	pc, lr

80008478 <set_mode_sp>:
80008478:	e10f2000 	mrs	r2, CPSR
8000847c:	e121f001 	msr	CPSR_c, r1
80008480:	e1a0d000 	mov	sp, r0
80008484:	e10f0000 	mrs	r0, CPSR
80008488:	e3800080 	orr	r0, r0, #128	; 0x80
8000848c:	e3800040 	orr	r0, r0, #64	; 0x40
80008490:	e129f000 	msr	CPSR_fc, r0
80008494:	e121f002 	msr	CPSR_c, r2
80008498:	e12fff1e 	bx	lr

8000849c <readcpsr>:
8000849c:	e10f0000 	mrs	r0, CPSR
800084a0:	e12fff1e 	bx	lr

800084a4 <cli>:
800084a4:	e10f0000 	mrs	r0, CPSR
800084a8:	e3800080 	orr	r0, r0, #128	; 0x80
800084ac:	e129f000 	msr	CPSR_fc, r0
800084b0:	e12fff1e 	bx	lr

800084b4 <sti>:
800084b4:	e10f0000 	mrs	r0, CPSR
800084b8:	e3c00080 	bic	r0, r0, #128	; 0x80
800084bc:	e129f000 	msr	CPSR_fc, r0
800084c0:	e12fff1e 	bx	lr

800084c4 <swtch>:
800084c4:	e52de004 	push	{lr}		; (str lr, [sp, #-4]!)
800084c8:	e52de004 	push	{lr}		; (str lr, [sp, #-4]!)
800084cc:	e52dc004 	push	{ip}		; (str ip, [sp, #-4]!)
800084d0:	e52db004 	push	{fp}		; (str fp, [sp, #-4]!)
800084d4:	e52da004 	push	{sl}		; (str sl, [sp, #-4]!)
800084d8:	e52d9004 	push	{r9}		; (str r9, [sp, #-4]!)
800084dc:	e52d8004 	push	{r8}		; (str r8, [sp, #-4]!)
800084e0:	e52d7004 	push	{r7}		; (str r7, [sp, #-4]!)
800084e4:	e52d6004 	push	{r6}		; (str r6, [sp, #-4]!)
800084e8:	e52d5004 	push	{r5}		; (str r5, [sp, #-4]!)
800084ec:	e52d4004 	push	{r4}		; (str r4, [sp, #-4]!)
800084f0:	e580d000 	str	sp, [r0]
800084f4:	e1a0d001 	mov	sp, r1
800084f8:	e49d4004 	pop	{r4}		; (ldr r4, [sp], #4)
800084fc:	e49d5004 	pop	{r5}		; (ldr r5, [sp], #4)
80008500:	e49d6004 	pop	{r6}		; (ldr r6, [sp], #4)
80008504:	e49d7004 	pop	{r7}		; (ldr r7, [sp], #4)
80008508:	e49d8004 	pop	{r8}		; (ldr r8, [sp], #4)
8000850c:	e49d9004 	pop	{r9}		; (ldr r9, [sp], #4)
80008510:	e49da004 	pop	{sl}		; (ldr sl, [sp], #4)
80008514:	e49db004 	pop	{fp}		; (ldr fp, [sp], #4)
80008518:	e49dc004 	pop	{ip}		; (ldr ip, [sp], #4)
8000851c:	e49de004 	pop	{lr}		; (ldr lr, [sp], #4)
80008520:	e49df004 	pop	{pc}		; (ldr pc, [sp], #4)
80008524:	00000000 	andeq	r0, r0, r0

80008528 <DelayLoop>:
80008528:	e2500001 	subs	r0, r0, #1
8000852c:	8afffffd 	bhi	80008528 <DelayLoop>
80008530:	e1a0f00e 	mov	pc, lr

80008534 <DWHCIFrameSchedulerNoSplitStartSplit>:
80008534:	e12fff1e 	bx	lr

80008538 <DWHCIFrameSchedulerNoSplitCompleteSplit>:
80008538:	e3a00000 	mov	r0, #0
8000853c:	e12fff1e 	bx	lr

80008540 <DWHCIFrameSchedulerNoSplitTransactionComplete>:
80008540:	e12fff1e 	bx	lr

80008544 <DWHCIFrameSchedulerNoSplitIsOddFrame>:
80008544:	e590001c 	ldr	r0, [r0, #28]
80008548:	e2000001 	and	r0, r0, #1
8000854c:	e12fff1e 	bx	lr

80008550 <DWHCIFrameSchedulerNoSplitWaitForFrame>:
80008550:	e92d4010 	push	{r4, lr}
80008554:	e3001408 	movw	r1, #1032	; 0x408
80008558:	e34d1098 	movt	r1, #53400	; 0xd098
8000855c:	e24dd010 	sub	sp, sp, #16
80008560:	e1a04000 	mov	r4, r0
80008564:	e28d0004 	add	r0, sp, #4
80008568:	eb00356b 	bl	80015b1c <DWHCIRegister>
8000856c:	e28d0004 	add	r0, sp, #4
80008570:	eb003574 	bl	80015b48 <DWHCIRegisterRead>
80008574:	e5943018 	ldr	r3, [r4, #24]
80008578:	e2800001 	add	r0, r0, #1
8000857c:	e7ed0050 	ubfx	r0, r0, #0, #14
80008580:	e584001c 	str	r0, [r4, #28]
80008584:	e3530000 	cmp	r3, #0
80008588:	1a000005 	bne	800085a4 <DWHCIFrameSchedulerNoSplitWaitForFrame+0x54>
8000858c:	e28d0004 	add	r0, sp, #4
80008590:	eb00356c 	bl	80015b48 <DWHCIRegisterRead>
80008594:	e594301c 	ldr	r3, [r4, #28]
80008598:	e7ed0050 	ubfx	r0, r0, #0, #14
8000859c:	e1500003 	cmp	r0, r3
800085a0:	1afffff9 	bne	8000858c <DWHCIFrameSchedulerNoSplitWaitForFrame+0x3c>
800085a4:	e28d0004 	add	r0, sp, #4
800085a8:	eb003563 	bl	80015b3c <_DWHCIRegister>
800085ac:	e28dd010 	add	sp, sp, #16
800085b0:	e8bd8010 	pop	{r4, pc}

800085b4 <_DWHCIFrameSchedulerNoSplit>:
800085b4:	e12fff1e 	bx	lr

800085b8 <DWHCIFrameSchedulerNoSplit>:
800085b8:	e92d4070 	push	{r4, r5, r6, lr}
800085bc:	e308c540 	movw	ip, #34112	; 0x8540
800085c0:	e348c000 	movt	ip, #32768	; 0x8000
800085c4:	e30855b4 	movw	r5, #34228	; 0x85b4
800085c8:	e3485000 	movt	r5, #32768	; 0x8000
800085cc:	e3084534 	movw	r4, #34100	; 0x8534
800085d0:	e3484000 	movt	r4, #32768	; 0x8000
800085d4:	e308e538 	movw	lr, #34104	; 0x8538
800085d8:	e348e000 	movt	lr, #32768	; 0x8000
800085dc:	e3082550 	movw	r2, #34128	; 0x8550
800085e0:	e3482000 	movt	r2, #32768	; 0x8000
800085e4:	e3083544 	movw	r3, #34116	; 0x8544
800085e8:	e3483000 	movt	r3, #32768	; 0x8000
800085ec:	e3a06901 	mov	r6, #16384	; 0x4000
800085f0:	e5801018 	str	r1, [r0, #24]
800085f4:	e5805000 	str	r5, [r0]
800085f8:	e9804010 	stmib	r0, {r4, lr}
800085fc:	e580c00c 	str	ip, [r0, #12]
80008600:	e5802010 	str	r2, [r0, #16]
80008604:	e5803014 	str	r3, [r0, #20]
80008608:	e580601c 	str	r6, [r0, #28]
8000860c:	e8bd8070 	pop	{r4, r5, r6, pc}

80008610 <exec>:
80008610:	e92d4ff0 	push	{r4, r5, r6, r7, r8, r9, sl, fp, lr}
80008614:	e24dd0f4 	sub	sp, sp, #244	; 0xf4
80008618:	e1a07001 	mov	r7, r1
8000861c:	eb000d02 	bl	8000ba2c <namei>
80008620:	e2504000 	subs	r4, r0, #0
80008624:	0a000009 	beq	80008650 <exec+0x40>
80008628:	eb000ae7 	bl	8000b1cc <ilock>
8000862c:	e3a03034 	mov	r3, #52	; 0x34
80008630:	e3a02000 	mov	r2, #0
80008634:	e28d102c 	add	r1, sp, #44	; 0x2c
80008638:	e1a00004 	mov	r0, r4
8000863c:	eb000ba0 	bl	8000b4c4 <readi>
80008640:	e3500033 	cmp	r0, #51	; 0x33
80008644:	8a000004 	bhi	8000865c <exec+0x4c>
80008648:	e1a00004 	mov	r0, r4
8000864c:	eb000b8c 	bl	8000b484 <iunlockput>
80008650:	e3e00000 	mvn	r0, #0
80008654:	e28dd0f4 	add	sp, sp, #244	; 0xf4
80008658:	e8bd8ff0 	pop	{r4, r5, r6, r7, r8, r9, sl, fp, pc}
8000865c:	e59d202c 	ldr	r2, [sp, #44]	; 0x2c
80008660:	e304357f 	movw	r3, #17791	; 0x457f
80008664:	e344364c 	movt	r3, #17996	; 0x464c
80008668:	e1520003 	cmp	r2, r3
8000866c:	1afffff5 	bne	80008648 <exec+0x38>
80008670:	eb001307 	bl	8000d294 <setupkvm>
80008674:	e2508000 	subs	r8, r0, #0
80008678:	0afffff2 	beq	80008648 <exec+0x38>
8000867c:	e1dd35b8 	ldrh	r3, [sp, #88]	; 0x58
80008680:	e59d5048 	ldr	r5, [sp, #72]	; 0x48
80008684:	e3530000 	cmp	r3, #0
80008688:	0a000087 	beq	800088ac <exec+0x29c>
8000868c:	e3a09000 	mov	r9, #0
80008690:	e1a06009 	mov	r6, r9
80008694:	ea000002 	b	800086a4 <exec+0x94>
80008698:	e1dd35b8 	ldrh	r3, [sp, #88]	; 0x58
8000869c:	e1530006 	cmp	r3, r6
800086a0:	da000022 	ble	80008730 <exec+0x120>
800086a4:	e1a02005 	mov	r2, r5
800086a8:	e3a03020 	mov	r3, #32
800086ac:	e28d100c 	add	r1, sp, #12
800086b0:	e1a00004 	mov	r0, r4
800086b4:	e2866001 	add	r6, r6, #1
800086b8:	eb000b81 	bl	8000b4c4 <readi>
800086bc:	e3500020 	cmp	r0, #32
800086c0:	e2855020 	add	r5, r5, #32
800086c4:	1a000016 	bne	80008724 <exec+0x114>
800086c8:	e59d300c 	ldr	r3, [sp, #12]
800086cc:	e3530001 	cmp	r3, #1
800086d0:	1afffff0 	bne	80008698 <exec+0x88>
800086d4:	e59d3020 	ldr	r3, [sp, #32]
800086d8:	e1a01009 	mov	r1, r9
800086dc:	e59d201c 	ldr	r2, [sp, #28]
800086e0:	e1a00008 	mov	r0, r8
800086e4:	e1530002 	cmp	r3, r2
800086e8:	3a00000d 	bcc	80008724 <exec+0x114>
800086ec:	e59d2014 	ldr	r2, [sp, #20]
800086f0:	e0832002 	add	r2, r3, r2
800086f4:	eb001393 	bl	8000d548 <allocuvm>
800086f8:	e2509000 	subs	r9, r0, #0
800086fc:	e1a02004 	mov	r2, r4
80008700:	e1a00008 	mov	r0, r8
80008704:	0a000006 	beq	80008724 <exec+0x114>
80008708:	e59dc01c 	ldr	ip, [sp, #28]
8000870c:	e59d3010 	ldr	r3, [sp, #16]
80008710:	e59d1014 	ldr	r1, [sp, #20]
80008714:	e58dc000 	str	ip, [sp]
80008718:	eb001351 	bl	8000d464 <loaduvm>
8000871c:	e3500000 	cmp	r0, #0
80008720:	aaffffdc 	bge	80008698 <exec+0x88>
80008724:	e1a00008 	mov	r0, r8
80008728:	eb0013c8 	bl	8000d650 <freevm>
8000872c:	eaffffc5 	b	80008648 <exec+0x38>
80008730:	e2899eff 	add	r9, r9, #4080	; 0xff0
80008734:	e289900f 	add	r9, r9, #15
80008738:	e3c99eff 	bic	r9, r9, #4080	; 0xff0
8000873c:	e3c9900f 	bic	r9, r9, #15
80008740:	e2895a02 	add	r5, r9, #8192	; 0x2000
80008744:	e1a00004 	mov	r0, r4
80008748:	eb000b4d 	bl	8000b484 <iunlockput>
8000874c:	e1a01009 	mov	r1, r9
80008750:	e1a02005 	mov	r2, r5
80008754:	e1a00008 	mov	r0, r8
80008758:	eb00137a 	bl	8000d548 <allocuvm>
8000875c:	e2509000 	subs	r9, r0, #0
80008760:	1a000002 	bne	80008770 <exec+0x160>
80008764:	e1a00008 	mov	r0, r8
80008768:	eb0013b8 	bl	8000d650 <freevm>
8000876c:	eaffffb7 	b	80008650 <exec+0x40>
80008770:	e1a00008 	mov	r0, r8
80008774:	e2491a02 	sub	r1, r9, #8192	; 0x2000
80008778:	eb0013d0 	bl	8000d6c0 <clearpteu>
8000877c:	e5970000 	ldr	r0, [r7]
80008780:	e3500000 	cmp	r0, #0
80008784:	01a06000 	moveq	r6, r0
80008788:	01a05009 	moveq	r5, r9
8000878c:	0a000019 	beq	800087f8 <exec+0x1e8>
80008790:	e1a04007 	mov	r4, r7
80008794:	e28da068 	add	sl, sp, #104	; 0x68
80008798:	e1a05009 	mov	r5, r9
8000879c:	e3a06000 	mov	r6, #0
800087a0:	ea000001 	b	800087ac <exec+0x19c>
800087a4:	e3560020 	cmp	r6, #32
800087a8:	0affffed 	beq	80008764 <exec+0x154>
800087ac:	e2866001 	add	r6, r6, #1
800087b0:	eb00284f 	bl	800128f4 <strlen>
800087b4:	e494b004 	ldr	fp, [r4], #4
800087b8:	e1e00000 	mvn	r0, r0
800087bc:	e0805005 	add	r5, r0, r5
800087c0:	e1a0000b 	mov	r0, fp
800087c4:	e3c55003 	bic	r5, r5, #3
800087c8:	eb002849 	bl	800128f4 <strlen>
800087cc:	e2803001 	add	r3, r0, #1
800087d0:	e1a0200b 	mov	r2, fp
800087d4:	e1a01005 	mov	r1, r5
800087d8:	e1a00008 	mov	r0, r8
800087dc:	eb001409 	bl	8000d808 <copyout>
800087e0:	e3500000 	cmp	r0, #0
800087e4:	baffffde 	blt	80008764 <exec+0x154>
800087e8:	e5940000 	ldr	r0, [r4]
800087ec:	e5aa5004 	str	r5, [sl, #4]!
800087f0:	e3500000 	cmp	r0, #0
800087f4:	1affffea 	bne	800087a4 <exec+0x194>
800087f8:	e2863001 	add	r3, r6, #1
800087fc:	e2862003 	add	r2, r6, #3
80008800:	e28d10f0 	add	r1, sp, #240	; 0xf0
80008804:	e3a04000 	mov	r4, #0
80008808:	e1a03103 	lsl	r3, r3, #2
8000880c:	e3e0c000 	mvn	ip, #0
80008810:	e0450003 	sub	r0, r5, r3
80008814:	e283300c 	add	r3, r3, #12
80008818:	e0812102 	add	r2, r1, r2, lsl #2
8000881c:	e0455003 	sub	r5, r5, r3
80008820:	e5024090 	str	r4, [r2, #-144]	; 0xffffff70
80008824:	e1a01005 	mov	r1, r5
80008828:	e58d0068 	str	r0, [sp, #104]	; 0x68
8000882c:	e28d2060 	add	r2, sp, #96	; 0x60
80008830:	e58d6064 	str	r6, [sp, #100]	; 0x64
80008834:	e1a00008 	mov	r0, r8
80008838:	e58dc060 	str	ip, [sp, #96]	; 0x60
8000883c:	eb0013f1 	bl	8000d808 <copyout>
80008840:	e1500004 	cmp	r0, r4
80008844:	baffffc6 	blt	80008764 <exec+0x154>
80008848:	e5971000 	ldr	r1, [r7]
8000884c:	e30a6af4 	movw	r6, #43764	; 0xaaf4
80008850:	e3486009 	movt	r6, #32777	; 0x8009
80008854:	e3a02010 	mov	r2, #16
80008858:	e5960018 	ldr	r0, [r6, #24]
8000885c:	e280006c 	add	r0, r0, #108	; 0x6c
80008860:	eb002814 	bl	800128b8 <safestrcpy>
80008864:	e5963018 	ldr	r3, [r6, #24]
80008868:	e59d1044 	ldr	r1, [sp, #68]	; 0x44
8000886c:	e5932018 	ldr	r2, [r3, #24]
80008870:	e1a00003 	mov	r0, r3
80008874:	e5936004 	ldr	r6, [r3, #4]
80008878:	e5839000 	str	r9, [r3]
8000887c:	e5838004 	str	r8, [r3, #4]
80008880:	e5821050 	str	r1, [r2, #80]	; 0x50
80008884:	e5825000 	str	r5, [r2]
80008888:	e59d3064 	ldr	r3, [sp, #100]	; 0x64
8000888c:	e5823004 	str	r3, [r2, #4]
80008890:	e59d3068 	ldr	r3, [sp, #104]	; 0x68
80008894:	e5823008 	str	r3, [r2, #8]
80008898:	eb0012c1 	bl	8000d3a4 <switchuvm>
8000889c:	e1a00006 	mov	r0, r6
800088a0:	eb00136a 	bl	8000d650 <freevm>
800088a4:	e1a00004 	mov	r0, r4
800088a8:	eaffff69 	b	80008654 <exec+0x44>
800088ac:	e1a09003 	mov	r9, r3
800088b0:	e3a05a02 	mov	r5, #8192	; 0x2000
800088b4:	eaffffa2 	b	80008744 <exec+0x134>

800088b8 <led25_on>:
800088b8:	e92d4010 	push	{r4, lr}
800088bc:	e3a01001 	mov	r1, #1
800088c0:	e3a00019 	mov	r0, #25
800088c4:	eb002088 	bl	80010aec <setgpiofunc>
800088c8:	e3a01001 	mov	r1, #1
800088cc:	e3a00019 	mov	r0, #25
800088d0:	e8bd4010 	pop	{r4, lr}
800088d4:	ea00206b 	b	80010a88 <setgpioval>

800088d8 <led25_off>:
800088d8:	e92d4010 	push	{r4, lr}
800088dc:	e3a01001 	mov	r1, #1
800088e0:	e3a00019 	mov	r0, #25
800088e4:	eb002080 	bl	80010aec <setgpiofunc>
800088e8:	e3a01000 	mov	r1, #0
800088ec:	e3a00019 	mov	r0, #25
800088f0:	e8bd4010 	pop	{r4, lr}
800088f4:	ea002063 	b	80010a88 <setgpioval>

800088f8 <enable_intrs>:
800088f8:	e3a03cb2 	mov	r3, #45568	; 0xb200
800088fc:	e34d3000 	movt	r3, #53248	; 0xd000
80008900:	e5932010 	ldr	r2, [r3, #16]
80008904:	e3822202 	orr	r2, r2, #536870912	; 0x20000000
80008908:	e5832010 	str	r2, [r3, #16]
8000890c:	e5932018 	ldr	r2, [r3, #24]
80008910:	e3822001 	orr	r2, r2, #1
80008914:	e5832018 	str	r2, [r3, #24]
80008918:	e12fff1e 	bx	lr

8000891c <disable_intrs>:
8000891c:	e3a03cb2 	mov	r3, #45568	; 0xb200
80008920:	e3e02000 	mvn	r2, #0
80008924:	e34d3000 	movt	r3, #53248	; 0xd000
80008928:	e3a01000 	mov	r1, #0
8000892c:	e583201c 	str	r2, [r3, #28]
80008930:	e5832020 	str	r2, [r3, #32]
80008934:	e5832024 	str	r2, [r3, #36]	; 0x24
80008938:	e583100c 	str	r1, [r3, #12]
8000893c:	e12fff1e 	bx	lr

80008940 <tvinit>:
80008940:	e30812a0 	movw	r1, #33440	; 0x82a0
80008944:	e3a00000 	mov	r0, #0
80008948:	e92d4010 	push	{r4, lr}
8000894c:	e3a02040 	mov	r2, #64	; 0x40
80008950:	e3481000 	movt	r1, #32768	; 0x8000
80008954:	e34f0fff 	movt	r0, #65535	; 0xffff
80008958:	eb00278c 	bl	80012790 <memmove>
8000895c:	ebfffe32 	bl	8000822c <dsb_barrier>
80008960:	ebfffe37 	bl	80008244 <flush_idcache>
80008964:	eb002d35 	bl	80013e40 <kalloc>
80008968:	e1a04000 	mov	r4, r0
8000896c:	e3a02a01 	mov	r2, #4096	; 0x1000
80008970:	e3a01000 	mov	r1, #0
80008974:	eb002757 	bl	800126d8 <memset>
80008978:	e2840a01 	add	r0, r4, #4096	; 0x1000
8000897c:	e3a010d1 	mov	r1, #209	; 0xd1
80008980:	ebfffebc 	bl	80008478 <set_mode_sp>
80008984:	eb002d2d 	bl	80013e40 <kalloc>
80008988:	e1a04000 	mov	r4, r0
8000898c:	e3a02a01 	mov	r2, #4096	; 0x1000
80008990:	e3a01000 	mov	r1, #0
80008994:	eb00274f 	bl	800126d8 <memset>
80008998:	e2840a01 	add	r0, r4, #4096	; 0x1000
8000899c:	e3a010d2 	mov	r1, #210	; 0xd2
800089a0:	ebfffeb4 	bl	80008478 <set_mode_sp>
800089a4:	eb002d25 	bl	80013e40 <kalloc>
800089a8:	e1a04000 	mov	r4, r0
800089ac:	e3a02a01 	mov	r2, #4096	; 0x1000
800089b0:	e3a01000 	mov	r1, #0
800089b4:	eb002747 	bl	800126d8 <memset>
800089b8:	e2840a01 	add	r0, r4, #4096	; 0x1000
800089bc:	e3a010db 	mov	r1, #219	; 0xdb
800089c0:	ebfffeac 	bl	80008478 <set_mode_sp>
800089c4:	eb002d1d 	bl	80013e40 <kalloc>
800089c8:	e1a04000 	mov	r4, r0
800089cc:	e3a02a01 	mov	r2, #4096	; 0x1000
800089d0:	e3a01000 	mov	r1, #0
800089d4:	eb00273f 	bl	800126d8 <memset>
800089d8:	e2840a01 	add	r0, r4, #4096	; 0x1000
800089dc:	e3a010d7 	mov	r1, #215	; 0xd7
800089e0:	ebfffea4 	bl	80008478 <set_mode_sp>
800089e4:	eb002d15 	bl	80013e40 <kalloc>
800089e8:	e1a04000 	mov	r4, r0
800089ec:	e3a02a01 	mov	r2, #4096	; 0x1000
800089f0:	e3a01000 	mov	r1, #0
800089f4:	eb002737 	bl	800126d8 <memset>
800089f8:	e2840a01 	add	r0, r4, #4096	; 0x1000
800089fc:	e3a010d6 	mov	r1, #214	; 0xd6
80008a00:	ebfffe9c 	bl	80008478 <set_mode_sp>
80008a04:	eb002d0d 	bl	80013e40 <kalloc>
80008a08:	e1a04000 	mov	r4, r0
80008a0c:	e3a02a01 	mov	r2, #4096	; 0x1000
80008a10:	e3a01000 	mov	r1, #0
80008a14:	eb00272f 	bl	800126d8 <memset>
80008a18:	e2840a01 	add	r0, r4, #4096	; 0x1000
80008a1c:	e3a010df 	mov	r1, #223	; 0xdf
80008a20:	ebfffe94 	bl	80008478 <set_mode_sp>
80008a24:	e8bd4010 	pop	{r4, lr}
80008a28:	eafffdff 	b	8000822c <dsb_barrier>

80008a2c <trap_oops>:
80008a2c:	e92d4070 	push	{r4, r5, r6, lr}
80008a30:	e1a04000 	mov	r4, r0
80008a34:	e2841040 	add	r1, r4, #64	; 0x40
80008a38:	e24dd010 	sub	sp, sp, #16
80008a3c:	e594c050 	ldr	ip, [r4, #80]	; 0x50
80008a40:	e3070a04 	movw	r0, #31236	; 0x7a04
80008a44:	e8914022 	ldm	r1, {r1, r5, lr}
80008a48:	e5943000 	ldr	r3, [r4]
80008a4c:	e594204c 	ldr	r2, [r4, #76]	; 0x4c
80008a50:	e3480001 	movt	r0, #32769	; 0x8001
80008a54:	e88d5000 	stm	sp, {ip, lr}
80008a58:	e58d5008 	str	r5, [sp, #8]
80008a5c:	eb000d85 	bl	8000c078 <cprintf>
80008a60:	e5945018 	ldr	r5, [r4, #24]
80008a64:	e3070a3c 	movw	r0, #31292	; 0x7a3c
80008a68:	e594e014 	ldr	lr, [r4, #20]
80008a6c:	e594c010 	ldr	ip, [r4, #16]
80008a70:	e9940006 	ldmib	r4, {r1, r2}
80008a74:	e594300c 	ldr	r3, [r4, #12]
80008a78:	e3480001 	movt	r0, #32769	; 0x8001
80008a7c:	e88d5000 	stm	sp, {ip, lr}
80008a80:	e58d5008 	str	r5, [sp, #8]
80008a84:	eb000d7b 	bl	8000c078 <cprintf>
80008a88:	e5946034 	ldr	r6, [r4, #52]	; 0x34
80008a8c:	e3070a80 	movw	r0, #31360	; 0x7a80
80008a90:	e5945030 	ldr	r5, [r4, #48]	; 0x30
80008a94:	e594e02c 	ldr	lr, [r4, #44]	; 0x2c
80008a98:	e594c028 	ldr	ip, [r4, #40]	; 0x28
80008a9c:	e5943024 	ldr	r3, [r4, #36]	; 0x24
80008aa0:	e5942020 	ldr	r2, [r4, #32]
80008aa4:	e594101c 	ldr	r1, [r4, #28]
80008aa8:	e3480001 	movt	r0, #32769	; 0x8001
80008aac:	e58d600c 	str	r6, [sp, #12]
80008ab0:	e58d5008 	str	r5, [sp, #8]
80008ab4:	e88d5000 	stm	sp, {ip, lr}
80008ab8:	eb000d6e 	bl	8000c078 <cprintf>
80008abc:	e28dd010 	add	sp, sp, #16
80008ac0:	e8bd8070 	pop	{r4, r5, r6, pc}

80008ac4 <handle_irq>:
80008ac4:	e92d4010 	push	{r4, lr}
80008ac8:	e3a04cb2 	mov	r4, #45568	; 0xb200
80008acc:	e34d4000 	movt	r4, #53248	; 0xd000
80008ad0:	ea000002 	b	80008ae0 <handle_irq+0x1c>
80008ad4:	e5943004 	ldr	r3, [r4, #4]
80008ad8:	e3130202 	tst	r3, #536870912	; 0x20000000
80008adc:	1a00000f 	bne	80008b20 <handle_irq+0x5c>
80008ae0:	e5943004 	ldr	r3, [r4, #4]
80008ae4:	e3530000 	cmp	r3, #0
80008ae8:	1a000005 	bne	80008b04 <handle_irq+0x40>
80008aec:	e5943008 	ldr	r3, [r4, #8]
80008af0:	e3530000 	cmp	r3, #0
80008af4:	1a000002 	bne	80008b04 <handle_irq+0x40>
80008af8:	e5943000 	ldr	r3, [r4]
80008afc:	e3530000 	cmp	r3, #0
80008b00:	0a000008 	beq	80008b28 <handle_irq+0x64>
80008b04:	e5943004 	ldr	r3, [r4, #4]
80008b08:	e3130008 	tst	r3, #8
80008b0c:	0afffff0 	beq	80008ad4 <handle_irq+0x10>
80008b10:	eb0037cd 	bl	80016a4c <timer3intr>
80008b14:	e5943004 	ldr	r3, [r4, #4]
80008b18:	e3130202 	tst	r3, #536870912	; 0x20000000
80008b1c:	0affffef 	beq	80008ae0 <handle_irq+0x1c>
80008b20:	eb002025 	bl	80010bbc <miniuartintr>
80008b24:	eaffffed 	b	80008ae0 <handle_irq+0x1c>
80008b28:	e8bd8010 	pop	{r4, pc}

80008b2c <trap>:
80008b2c:	e5903040 	ldr	r3, [r0, #64]	; 0x40
80008b30:	e92d41f0 	push	{r4, r5, r6, r7, r8, lr}
80008b34:	e3530040 	cmp	r3, #64	; 0x40
80008b38:	e24dd018 	sub	sp, sp, #24
80008b3c:	e1a08000 	mov	r8, r0
80008b40:	0a000074 	beq	80008d18 <trap+0x1ec>
80008b44:	e3530080 	cmp	r3, #128	; 0x80
80008b48:	1a000029 	bne	80008bf4 <trap+0xc8>
80008b4c:	e3a04cb2 	mov	r4, #45568	; 0xb200
80008b50:	e30a5bdc 	movw	r5, #43996	; 0xabdc
80008b54:	e34d4000 	movt	r4, #53248	; 0xd000
80008b58:	e30a7bd8 	movw	r7, #43992	; 0xabd8
80008b5c:	e3485009 	movt	r5, #32777	; 0x8009
80008b60:	e3a06000 	mov	r6, #0
80008b64:	e3487009 	movt	r7, #32777	; 0x8009
80008b68:	e5943004 	ldr	r3, [r4, #4]
80008b6c:	e3530000 	cmp	r3, #0
80008b70:	1a000005 	bne	80008b8c <trap+0x60>
80008b74:	e5943008 	ldr	r3, [r4, #8]
80008b78:	e3530000 	cmp	r3, #0
80008b7c:	1a000002 	bne	80008b8c <trap+0x60>
80008b80:	e5943000 	ldr	r3, [r4]
80008b84:	e3530000 	cmp	r3, #0
80008b88:	0a000049 	beq	80008cb4 <trap+0x188>
80008b8c:	e5943004 	ldr	r3, [r4, #4]
80008b90:	e3130008 	tst	r3, #8
80008b94:	1a000041 	bne	80008ca0 <trap+0x174>
80008b98:	e5943004 	ldr	r3, [r4, #4]
80008b9c:	e3a01001 	mov	r1, #1
80008ba0:	e5952000 	ldr	r2, [r5]
80008ba4:	e0133211 	ands	r3, r3, r1, lsl r2
80008ba8:	1a000036 	bne	80008c88 <trap+0x15c>
80008bac:	e5942004 	ldr	r2, [r4, #4]
80008bb0:	e30a3c20 	movw	r3, #44064	; 0xac20
80008bb4:	e3483009 	movt	r3, #32777	; 0x8009
80008bb8:	e3a01001 	mov	r1, #1
80008bbc:	e5933000 	ldr	r3, [r3]
80008bc0:	e0123311 	ands	r3, r2, r1, lsl r3
80008bc4:	1a000027 	bne	80008c68 <trap+0x13c>
80008bc8:	e5943004 	ldr	r3, [r4, #4]
80008bcc:	e3130202 	tst	r3, #536870912	; 0x20000000
80008bd0:	0affffe4 	beq	80008b68 <trap+0x3c>
80008bd4:	ebffff37 	bl	800088b8 <led25_on>
80008bd8:	e30d349c 	movw	r3, #54428	; 0xd49c
80008bdc:	e3483009 	movt	r3, #32777	; 0x8009
80008be0:	e5933000 	ldr	r3, [r3]
80008be4:	e3530000 	cmp	r3, #0
80008be8:	0a00002f 	beq	80008cac <trap+0x180>
80008bec:	ebffff39 	bl	800088d8 <led25_off>
80008bf0:	eaffffdc 	b	80008b68 <trap+0x3c>
80008bf4:	e590c04c 	ldr	ip, [r0, #76]	; 0x4c
80008bf8:	e30a4af4 	movw	r4, #43764	; 0xaaf4
80008bfc:	e3484009 	movt	r4, #32777	; 0x8009
80008c00:	e5942018 	ldr	r2, [r4, #24]
80008c04:	e3520000 	cmp	r2, #0
80008c08:	0a000056 	beq	80008d68 <trap+0x23c>
80008c0c:	e31c000f 	tst	ip, #15
80008c10:	1a000054 	bne	80008d68 <trap+0x23c>
80008c14:	e5921010 	ldr	r1, [r2, #16]
80008c18:	e3070b14 	movw	r0, #31508	; 0x7b14
80008c1c:	e598e044 	ldr	lr, [r8, #68]	; 0x44
80008c20:	e282206c 	add	r2, r2, #108	; 0x6c
80008c24:	e58dc008 	str	ip, [sp, #8]
80008c28:	e598c048 	ldr	ip, [r8, #72]	; 0x48
80008c2c:	e58de010 	str	lr, [sp, #16]
80008c30:	e598e050 	ldr	lr, [r8, #80]	; 0x50
80008c34:	e58dc00c 	str	ip, [sp, #12]
80008c38:	e5d4c000 	ldrb	ip, [r4]
80008c3c:	e3480001 	movt	r0, #32769	; 0x8001
80008c40:	e88d5000 	stm	sp, {ip, lr}
80008c44:	eb000d0b 	bl	8000c078 <cprintf>
80008c48:	e598304c 	ldr	r3, [r8, #76]	; 0x4c
80008c4c:	e3a01001 	mov	r1, #1
80008c50:	e5942018 	ldr	r2, [r4, #24]
80008c54:	e313000f 	tst	r3, #15
80008c58:	e5821024 	str	r1, [r2, #36]	; 0x24
80008c5c:	0a00003e 	beq	80008d5c <trap+0x230>
80008c60:	e28dd018 	add	sp, sp, #24
80008c64:	e8bd81f0 	pop	{r4, r5, r6, r7, r8, pc}
80008c68:	e30a2bd4 	movw	r2, #43988	; 0xabd4
80008c6c:	e30a3c1c 	movw	r3, #44060	; 0xac1c
80008c70:	e3482009 	movt	r2, #32777	; 0x8009
80008c74:	e3483009 	movt	r3, #32777	; 0x8009
80008c78:	e5920000 	ldr	r0, [r2]
80008c7c:	e5933000 	ldr	r3, [r3]
80008c80:	e12fff33 	blx	r3
80008c84:	eaffffcf 	b	80008bc8 <trap+0x9c>
80008c88:	e5970000 	ldr	r0, [r7]
80008c8c:	e30a3c14 	movw	r3, #44052	; 0xac14
80008c90:	e3483009 	movt	r3, #32777	; 0x8009
80008c94:	e5933000 	ldr	r3, [r3]
80008c98:	e12fff33 	blx	r3
80008c9c:	eaffffc2 	b	80008bac <trap+0x80>
80008ca0:	e3a06001 	mov	r6, #1
80008ca4:	eb003768 	bl	80016a4c <timer3intr>
80008ca8:	eaffffba 	b	80008b98 <trap+0x6c>
80008cac:	eb001fc2 	bl	80010bbc <miniuartintr>
80008cb0:	eaffffcd 	b	80008bec <trap+0xc0>
80008cb4:	e30a4af4 	movw	r4, #43764	; 0xaaf4
80008cb8:	e3484009 	movt	r4, #32777	; 0x8009
80008cbc:	e5943018 	ldr	r3, [r4, #24]
80008cc0:	e3530000 	cmp	r3, #0
80008cc4:	0affffe5 	beq	80008c60 <trap+0x134>
80008cc8:	e5932024 	ldr	r2, [r3, #36]	; 0x24
80008ccc:	e3520000 	cmp	r2, #0
80008cd0:	1a000033 	bne	80008da4 <trap+0x278>
80008cd4:	e593300c 	ldr	r3, [r3, #12]
80008cd8:	e3530004 	cmp	r3, #4
80008cdc:	13a06000 	movne	r6, #0
80008ce0:	02066001 	andeq	r6, r6, #1
80008ce4:	e3560000 	cmp	r6, #0
80008ce8:	0affffdc 	beq	80008c60 <trap+0x134>
80008cec:	eb003542 	bl	800161fc <yield>
80008cf0:	e5943018 	ldr	r3, [r4, #24]
80008cf4:	e5933024 	ldr	r3, [r3, #36]	; 0x24
80008cf8:	e3530000 	cmp	r3, #0
80008cfc:	0affffd7 	beq	80008c60 <trap+0x134>
80008d00:	e598304c 	ldr	r3, [r8, #76]	; 0x4c
80008d04:	e313000f 	tst	r3, #15
80008d08:	1affffd4 	bne	80008c60 <trap+0x134>
80008d0c:	e28dd018 	add	sp, sp, #24
80008d10:	e8bd41f0 	pop	{r4, r5, r6, r7, r8, lr}
80008d14:	ea0034e5 	b	800160b0 <exit>
80008d18:	e30a4af4 	movw	r4, #43764	; 0xaaf4
80008d1c:	e3484009 	movt	r4, #32777	; 0x8009
80008d20:	e5943018 	ldr	r3, [r4, #24]
80008d24:	e5932024 	ldr	r2, [r3, #36]	; 0x24
80008d28:	e3520000 	cmp	r2, #0
80008d2c:	1a000007 	bne	80008d50 <trap+0x224>
80008d30:	e5838018 	str	r8, [r3, #24]
80008d34:	eb002083 	bl	80010f48 <syscall>
80008d38:	e5943018 	ldr	r3, [r4, #24]
80008d3c:	e5933024 	ldr	r3, [r3, #36]	; 0x24
80008d40:	e3530000 	cmp	r3, #0
80008d44:	1afffff0 	bne	80008d0c <trap+0x1e0>
80008d48:	e28dd018 	add	sp, sp, #24
80008d4c:	e8bd81f0 	pop	{r4, r5, r6, r7, r8, pc}
80008d50:	eb0034d6 	bl	800160b0 <exit>
80008d54:	e5943018 	ldr	r3, [r4, #24]
80008d58:	eafffff4 	b	80008d30 <trap+0x204>
80008d5c:	eb0034d3 	bl	800160b0 <exit>
80008d60:	e5943018 	ldr	r3, [r4, #24]
80008d64:	eaffffe2 	b	80008cf4 <trap+0x1c8>
80008d68:	e5d42000 	ldrb	r2, [r4]
80008d6c:	e3070acc 	movw	r0, #31436	; 0x7acc
80008d70:	e5985050 	ldr	r5, [r8, #80]	; 0x50
80008d74:	e1a01003 	mov	r1, r3
80008d78:	e5984044 	ldr	r4, [r8, #68]	; 0x44
80008d7c:	e598e048 	ldr	lr, [r8, #72]	; 0x48
80008d80:	e1a03005 	mov	r3, r5
80008d84:	e3480001 	movt	r0, #32769	; 0x8001
80008d88:	e58dc000 	str	ip, [sp]
80008d8c:	e58d4008 	str	r4, [sp, #8]
80008d90:	e58de004 	str	lr, [sp, #4]
80008d94:	eb000cb7 	bl	8000c078 <cprintf>
80008d98:	e3070b0c 	movw	r0, #31500	; 0x7b0c
80008d9c:	e3480001 	movt	r0, #32769	; 0x8001
80008da0:	eb000c97 	bl	8000c004 <panic>
80008da4:	e598204c 	ldr	r2, [r8, #76]	; 0x4c
80008da8:	e312000f 	tst	r2, #15
80008dac:	1affffc8 	bne	80008cd4 <trap+0x1a8>
80008db0:	eb0034be 	bl	800160b0 <exit>
80008db4:	e5943018 	ldr	r3, [r4, #24]
80008db8:	e593200c 	ldr	r2, [r3, #12]
80008dbc:	e3520004 	cmp	r2, #4
80008dc0:	13a06000 	movne	r6, #0
80008dc4:	02066001 	andeq	r6, r6, #1
80008dc8:	e3560000 	cmp	r6, #0
80008dcc:	1affffc6 	bne	80008cec <trap+0x1c0>
80008dd0:	eaffffc7 	b	80008cf4 <trap+0x1c8>

80008dd4 <ConnectInterrupt>:
80008dd4:	e30a3bd4 	movw	r3, #43988	; 0xabd4
80008dd8:	e30acc20 	movw	ip, #44064	; 0xac20
80008ddc:	e52de004 	push	{lr}		; (str lr, [sp, #-4]!)
80008de0:	e30aec1c 	movw	lr, #44060	; 0xac1c
80008de4:	e3483009 	movt	r3, #32777	; 0x8009
80008de8:	e350001f 	cmp	r0, #31
80008dec:	e348c009 	movt	ip, #32777	; 0x8009
80008df0:	e348e009 	movt	lr, #32777	; 0x8009
80008df4:	e5832000 	str	r2, [r3]
80008df8:	930b2210 	movwls	r2, #45584	; 0xb210
80008dfc:	e58c0000 	str	r0, [ip]
80008e00:	e58e1000 	str	r1, [lr]
80008e04:	934d2000 	movtls	r2, #53248	; 0xd000
80008e08:	9a000005 	bls	80008e24 <ConnectInterrupt+0x50>
80008e0c:	e30b3218 	movw	r3, #45592	; 0xb218
80008e10:	e30b2214 	movw	r2, #45588	; 0xb214
80008e14:	e34d3000 	movt	r3, #53248	; 0xd000
80008e18:	e350003f 	cmp	r0, #63	; 0x3f
80008e1c:	e34d2000 	movt	r2, #53248	; 0xd000
80008e20:	81a02003 	movhi	r2, r3
80008e24:	e49de004 	pop	{lr}		; (ldr lr, [sp], #4)
80008e28:	e200301f 	and	r3, r0, #31
80008e2c:	e3a01001 	mov	r1, #1
80008e30:	e3070b68 	movw	r0, #31592	; 0x7b68
80008e34:	e3480001 	movt	r0, #32769	; 0x8001
80008e38:	e1a03311 	lsl	r3, r1, r3
80008e3c:	e5823000 	str	r3, [r2]
80008e40:	e59c1000 	ldr	r1, [ip]
80008e44:	ea000c8b 	b	8000c078 <cprintf>

80008e48 <ConnectTimerInterrupt>:
80008e48:	e30a3bd8 	movw	r3, #43992	; 0xabd8
80008e4c:	e30acbdc 	movw	ip, #43996	; 0xabdc
80008e50:	e52de004 	push	{lr}		; (str lr, [sp, #-4]!)
80008e54:	e30aec14 	movw	lr, #44052	; 0xac14
80008e58:	e3483009 	movt	r3, #32777	; 0x8009
80008e5c:	e350001f 	cmp	r0, #31
80008e60:	e348c009 	movt	ip, #32777	; 0x8009
80008e64:	e348e009 	movt	lr, #32777	; 0x8009
80008e68:	e5832000 	str	r2, [r3]
80008e6c:	930b2210 	movwls	r2, #45584	; 0xb210
80008e70:	e58c0000 	str	r0, [ip]
80008e74:	e58e1000 	str	r1, [lr]
80008e78:	934d2000 	movtls	r2, #53248	; 0xd000
80008e7c:	9a000005 	bls	80008e98 <ConnectTimerInterrupt+0x50>
80008e80:	e30b3218 	movw	r3, #45592	; 0xb218
80008e84:	e30b2214 	movw	r2, #45588	; 0xb214
80008e88:	e34d3000 	movt	r3, #53248	; 0xd000
80008e8c:	e350003f 	cmp	r0, #63	; 0x3f
80008e90:	e34d2000 	movt	r2, #53248	; 0xd000
80008e94:	81a02003 	movhi	r2, r3
80008e98:	e49de004 	pop	{lr}		; (ldr lr, [sp], #4)
80008e9c:	e200301f 	and	r3, r0, #31
80008ea0:	e3a01001 	mov	r1, #1
80008ea4:	e3070b88 	movw	r0, #31624	; 0x7b88
80008ea8:	e3480001 	movt	r0, #32769	; 0x8001
80008eac:	e1a03311 	lsl	r3, r1, r3
80008eb0:	e5823000 	str	r3, [r2]
80008eb4:	e59c1000 	ldr	r1, [ip]
80008eb8:	ea000c6e 	b	8000c078 <cprintf>

80008ebc <StringReserveSpace.part.0>:
80008ebc:	e92d41f0 	push	{r4, r5, r6, r7, r8, lr}
80008ec0:	e890002c 	ldm	r0, {r2, r3, r5}
80008ec4:	e0455002 	sub	r5, r5, r2
80008ec8:	e0851001 	add	r1, r5, r1
80008ecc:	e2812001 	add	r2, r1, #1
80008ed0:	e1520003 	cmp	r2, r3
80008ed4:	98bd81f0 	popls	{r4, r5, r6, r7, r8, pc}
80008ed8:	e1a04000 	mov	r4, r0
80008edc:	e2816041 	add	r6, r1, #65	; 0x41
80008ee0:	e1a00006 	mov	r0, r6
80008ee4:	eb0024db 	bl	80012258 <malloc>
80008ee8:	e5943008 	ldr	r3, [r4, #8]
80008eec:	e3a02000 	mov	r2, #0
80008ef0:	e1a07000 	mov	r7, r0
80008ef4:	e5c32000 	strb	r2, [r3]
80008ef8:	e5941000 	ldr	r1, [r4]
80008efc:	e0875005 	add	r5, r7, r5
80008f00:	eb002c38 	bl	80013fe8 <uspi_strcpy>
80008f04:	e5940000 	ldr	r0, [r4]
80008f08:	eb0024d9 	bl	80012274 <free>
80008f0c:	e5846004 	str	r6, [r4, #4]
80008f10:	e5845008 	str	r5, [r4, #8]
80008f14:	e5847000 	str	r7, [r4]
80008f18:	e8bd81f0 	pop	{r4, r5, r6, r7, r8, pc}

80008f1c <String>:
80008f1c:	e3a03000 	mov	r3, #0
80008f20:	e5803000 	str	r3, [r0]
80008f24:	e5803004 	str	r3, [r0, #4]
80008f28:	e12fff1e 	bx	lr

80008f2c <String2>:
80008f2c:	e92d4070 	push	{r4, r5, r6, lr}
80008f30:	e1a05000 	mov	r5, r0
80008f34:	e1a00001 	mov	r0, r1
80008f38:	e1a04001 	mov	r4, r1
80008f3c:	eb002c01 	bl	80013f48 <uspi_strlen>
80008f40:	e2800001 	add	r0, r0, #1
80008f44:	e5850004 	str	r0, [r5, #4]
80008f48:	eb0024c2 	bl	80012258 <malloc>
80008f4c:	e5850000 	str	r0, [r5]
80008f50:	e1a01004 	mov	r1, r4
80008f54:	e8bd4070 	pop	{r4, r5, r6, lr}
80008f58:	ea002c22 	b	80013fe8 <uspi_strcpy>

80008f5c <_String>:
80008f5c:	e5903000 	ldr	r3, [r0]
80008f60:	e3530000 	cmp	r3, #0
80008f64:	012fff1e 	bxeq	lr
80008f68:	e92d4010 	push	{r4, lr}
80008f6c:	e1a04000 	mov	r4, r0
80008f70:	e1a00003 	mov	r0, r3
80008f74:	eb0024be 	bl	80012274 <free>
80008f78:	e3a03000 	mov	r3, #0
80008f7c:	e5843000 	str	r3, [r4]
80008f80:	e8bd8010 	pop	{r4, pc}

80008f84 <StringGet>:
80008f84:	e5900000 	ldr	r0, [r0]
80008f88:	e3073f88 	movw	r3, #32648	; 0x7f88
80008f8c:	e3483001 	movt	r3, #32769	; 0x8001
80008f90:	e3500000 	cmp	r0, #0
80008f94:	01a00003 	moveq	r0, r3
80008f98:	e12fff1e 	bx	lr

80008f9c <StringSet>:
80008f9c:	e92d4070 	push	{r4, r5, r6, lr}
80008fa0:	e1a04000 	mov	r4, r0
80008fa4:	e5900000 	ldr	r0, [r0]
80008fa8:	e1a05001 	mov	r5, r1
80008fac:	e3500000 	cmp	r0, #0
80008fb0:	0a000000 	beq	80008fb8 <StringSet+0x1c>
80008fb4:	eb0024ae 	bl	80012274 <free>
80008fb8:	e1a00005 	mov	r0, r5
80008fbc:	eb002be1 	bl	80013f48 <uspi_strlen>
80008fc0:	e2800001 	add	r0, r0, #1
80008fc4:	e5840004 	str	r0, [r4, #4]
80008fc8:	eb0024a2 	bl	80012258 <malloc>
80008fcc:	e5840000 	str	r0, [r4]
80008fd0:	e1a01005 	mov	r1, r5
80008fd4:	eb002c03 	bl	80013fe8 <uspi_strcpy>
80008fd8:	e5940000 	ldr	r0, [r4]
80008fdc:	e8bd8070 	pop	{r4, r5, r6, pc}

80008fe0 <StringGetLength>:
80008fe0:	e5900000 	ldr	r0, [r0]
80008fe4:	e3500000 	cmp	r0, #0
80008fe8:	012fff1e 	bxeq	lr
80008fec:	ea002bd5 	b	80013f48 <uspi_strlen>

80008ff0 <StringAppend>:
80008ff0:	e92d4070 	push	{r4, r5, r6, lr}
80008ff4:	e1a04000 	mov	r4, r0
80008ff8:	e5900000 	ldr	r0, [r0]
80008ffc:	e3a03001 	mov	r3, #1
80009000:	e5843004 	str	r3, [r4, #4]
80009004:	e1a06001 	mov	r6, r1
80009008:	e3500000 	cmp	r0, #0
8000900c:	0a000003 	beq	80009020 <StringAppend+0x30>
80009010:	eb002bcc 	bl	80013f48 <uspi_strlen>
80009014:	e5943004 	ldr	r3, [r4, #4]
80009018:	e0830000 	add	r0, r3, r0
8000901c:	e5840004 	str	r0, [r4, #4]
80009020:	e1a00006 	mov	r0, r6
80009024:	eb002bc7 	bl	80013f48 <uspi_strlen>
80009028:	e5943004 	ldr	r3, [r4, #4]
8000902c:	e0800003 	add	r0, r0, r3
80009030:	e5840004 	str	r0, [r4, #4]
80009034:	eb002487 	bl	80012258 <malloc>
80009038:	e5941000 	ldr	r1, [r4]
8000903c:	e1a05000 	mov	r5, r0
80009040:	e3510000 	cmp	r1, #0
80009044:	05c01000 	strbeq	r1, [r0]
80009048:	0a000002 	beq	80009058 <StringAppend+0x68>
8000904c:	eb002be5 	bl	80013fe8 <uspi_strcpy>
80009050:	e5940000 	ldr	r0, [r4]
80009054:	eb002486 	bl	80012274 <free>
80009058:	e1a01006 	mov	r1, r6
8000905c:	e1a00005 	mov	r0, r5
80009060:	eb002bfe 	bl	80014060 <uspi_strcat>
80009064:	e5845000 	str	r5, [r4]
80009068:	e8bd8070 	pop	{r4, r5, r6, pc}

8000906c <StringCompare>:
8000906c:	e5900000 	ldr	r0, [r0]
80009070:	ea002bbe 	b	80013f70 <uspi_strcmp>

80009074 <StringFind>:
80009074:	e5902000 	ldr	r2, [r0]
80009078:	e5d23000 	ldrb	r3, [r2]
8000907c:	e3530000 	cmp	r3, #0
80009080:	0a000009 	beq	800090ac <StringFind+0x38>
80009084:	e1510003 	cmp	r1, r3
80009088:	e3a00000 	mov	r0, #0
8000908c:	1a000002 	bne	8000909c <StringFind+0x28>
80009090:	ea000007 	b	800090b4 <StringFind+0x40>
80009094:	e1530001 	cmp	r3, r1
80009098:	012fff1e 	bxeq	lr
8000909c:	e5f23001 	ldrb	r3, [r2, #1]!
800090a0:	e2800001 	add	r0, r0, #1
800090a4:	e3530000 	cmp	r3, #0
800090a8:	1afffff9 	bne	80009094 <StringFind+0x20>
800090ac:	e3e00000 	mvn	r0, #0
800090b0:	e12fff1e 	bx	lr
800090b4:	e12fff1e 	bx	lr

800090b8 <StringPutChar>:
800090b8:	e92d4070 	push	{r4, r5, r6, lr}
800090bc:	e2524000 	subs	r4, r2, #0
800090c0:	08bd8070 	popeq	{r4, r5, r6, pc}
800090c4:	e1a06001 	mov	r6, r1
800090c8:	e1a01004 	mov	r1, r4
800090cc:	e1a05000 	mov	r5, r0
800090d0:	ebffff79 	bl	80008ebc <StringReserveSpace.part.0>
800090d4:	e2443001 	sub	r3, r4, #1
800090d8:	e5952008 	ldr	r2, [r5, #8]
800090dc:	e2433001 	sub	r3, r3, #1
800090e0:	e3730001 	cmn	r3, #1
800090e4:	e2820001 	add	r0, r2, #1
800090e8:	e5850008 	str	r0, [r5, #8]
800090ec:	e5c26000 	strb	r6, [r2]
800090f0:	1afffff8 	bne	800090d8 <StringPutChar+0x20>
800090f4:	e8bd8070 	pop	{r4, r5, r6, pc}

800090f8 <StringPutString>:
800090f8:	e92d4070 	push	{r4, r5, r6, lr}
800090fc:	e1a04000 	mov	r4, r0
80009100:	e1a00001 	mov	r0, r1
80009104:	e1a05001 	mov	r5, r1
80009108:	eb002b8e 	bl	80013f48 <uspi_strlen>
8000910c:	e2506000 	subs	r6, r0, #0
80009110:	0a000002 	beq	80009120 <StringPutString+0x28>
80009114:	e1a01006 	mov	r1, r6
80009118:	e1a00004 	mov	r0, r4
8000911c:	ebffff66 	bl	80008ebc <StringReserveSpace.part.0>
80009120:	e5940008 	ldr	r0, [r4, #8]
80009124:	e1a01005 	mov	r1, r5
80009128:	eb002bae 	bl	80013fe8 <uspi_strcpy>
8000912c:	e5941008 	ldr	r1, [r4, #8]
80009130:	e0811006 	add	r1, r1, r6
80009134:	e5841008 	str	r1, [r4, #8]
80009138:	e8bd8070 	pop	{r4, r5, r6, pc}

8000913c <StringFormatV>:
8000913c:	e92d4ff0 	push	{r4, r5, r6, r7, r8, r9, sl, fp, lr}
80009140:	e1a06000 	mov	r6, r0
80009144:	e5900000 	ldr	r0, [r0]
80009148:	e24dd01c 	sub	sp, sp, #28
8000914c:	e1a05001 	mov	r5, r1
80009150:	e58d2000 	str	r2, [sp]
80009154:	e3500000 	cmp	r0, #0
80009158:	0a000000 	beq	80009160 <StringFormatV+0x24>
8000915c:	eb002444 	bl	80012274 <free>
80009160:	e3a00040 	mov	r0, #64	; 0x40
80009164:	e30c9ccd 	movw	r9, #52429	; 0xcccd
80009168:	e5860004 	str	r0, [r6, #4]
8000916c:	e34c9ccc 	movt	r9, #52428	; 0xcccc
80009170:	eb002438 	bl	80012258 <malloc>
80009174:	e5860000 	str	r0, [r6]
80009178:	e5860008 	str	r0, [r6, #8]
8000917c:	e5d54000 	ldrb	r4, [r5]
80009180:	e3540000 	cmp	r4, #0
80009184:	0a000085 	beq	800093a0 <StringFormatV+0x264>
80009188:	e3540025 	cmp	r4, #37	; 0x25
8000918c:	13a01001 	movne	r1, #1
80009190:	11a00006 	movne	r0, r6
80009194:	1a00010a 	bne	800095c4 <StringFormatV+0x488>
80009198:	e5d57001 	ldrb	r7, [r5, #1]
8000919c:	e3570025 	cmp	r7, #37	; 0x25
800091a0:	0a00010d 	beq	800095dc <StringFormatV+0x4a0>
800091a4:	e357002d 	cmp	r7, #45	; 0x2d
800091a8:	e3a04000 	mov	r4, #0
800091ac:	12855001 	addne	r5, r5, #1
800091b0:	13a08000 	movne	r8, #0
800091b4:	05d57002 	ldrbeq	r7, [r5, #2]
800091b8:	03a08001 	moveq	r8, #1
800091bc:	02855002 	addeq	r5, r5, #2
800091c0:	e3570030 	cmp	r7, #48	; 0x30
800091c4:	03a03001 	moveq	r3, #1
800091c8:	13a03000 	movne	r3, #0
800091cc:	05d57001 	ldrbeq	r7, [r5, #1]
800091d0:	058d3004 	streq	r3, [sp, #4]
800091d4:	00855003 	addeq	r5, r5, r3
800091d8:	158d3004 	strne	r3, [sp, #4]
800091dc:	e2473030 	sub	r3, r7, #48	; 0x30
800091e0:	e3530009 	cmp	r3, #9
800091e4:	8a000006 	bhi	80009204 <StringFormatV+0xc8>
800091e8:	e3a0200a 	mov	r2, #10
800091ec:	e0247492 	mla	r4, r2, r4, r7
800091f0:	e5f57001 	ldrb	r7, [r5, #1]!
800091f4:	e2444030 	sub	r4, r4, #48	; 0x30
800091f8:	e2473030 	sub	r3, r7, #48	; 0x30
800091fc:	e3530009 	cmp	r3, #9
80009200:	9afffff9 	bls	800091ec <StringFormatV+0xb0>
80009204:	e357006c 	cmp	r7, #108	; 0x6c
80009208:	02855001 	addeq	r5, r5, #1
8000920c:	e5d50000 	ldrb	r0, [r5]
80009210:	e2403058 	sub	r3, r0, #88	; 0x58
80009214:	e3530020 	cmp	r3, #32
80009218:	979ff103 	ldrls	pc, [pc, r3, lsl #2]
8000921c:	ea0000dd 	b	80009598 <StringFormatV+0x45c>
80009220:	80009590 	.word	0x80009590
80009224:	80009598 	.word	0x80009598
80009228:	80009598 	.word	0x80009598
8000922c:	80009598 	.word	0x80009598
80009230:	80009598 	.word	0x80009598
80009234:	80009598 	.word	0x80009598
80009238:	80009598 	.word	0x80009598
8000923c:	80009598 	.word	0x80009598
80009240:	80009598 	.word	0x80009598
80009244:	80009598 	.word	0x80009598
80009248:	80009598 	.word	0x80009598
8000924c:	800094a8 	.word	0x800094a8
80009250:	800093b0 	.word	0x800093b0
80009254:	80009598 	.word	0x80009598
80009258:	80009598 	.word	0x80009598
8000925c:	80009598 	.word	0x80009598
80009260:	80009598 	.word	0x80009598
80009264:	80009598 	.word	0x80009598
80009268:	80009598 	.word	0x80009598
8000926c:	80009598 	.word	0x80009598
80009270:	80009598 	.word	0x80009598
80009274:	80009598 	.word	0x80009598
80009278:	80009598 	.word	0x80009598
8000927c:	800092a4 	.word	0x800092a4
80009280:	80009598 	.word	0x80009598
80009284:	80009598 	.word	0x80009598
80009288:	80009598 	.word	0x80009598
8000928c:	80009520 	.word	0x80009520
80009290:	80009598 	.word	0x80009598
80009294:	80009518 	.word	0x80009518
80009298:	80009598 	.word	0x80009598
8000929c:	80009598 	.word	0x80009598
800092a0:	80009590 	.word	0x80009590
800092a4:	e3a0a008 	mov	sl, #8
800092a8:	e59d3000 	ldr	r3, [sp]
800092ac:	e593c000 	ldr	ip, [r3]
800092b0:	e2833004 	add	r3, r3, #4
800092b4:	e58d3000 	str	r3, [sp]
800092b8:	e15c000a 	cmp	ip, sl
800092bc:	23a03001 	movcs	r3, #1
800092c0:	3a000126 	bcc	80009760 <StringFormatV+0x624>
800092c4:	e003039a 	mul	r3, sl, r3
800092c8:	e731f31c 	udiv	r1, ip, r3
800092cc:	e15a0001 	cmp	sl, r1
800092d0:	e1a02001 	mov	r2, r1
800092d4:	9afffffa 	bls	800092c4 <StringFormatV+0x188>
800092d8:	e3500058 	cmp	r0, #88	; 0x58
800092dc:	e28d700c 	add	r7, sp, #12
800092e0:	e1a0e007 	mov	lr, r7
800092e4:	13a0b057 	movne	fp, #87	; 0x57
800092e8:	03a0b037 	moveq	fp, #55	; 0x37
800092ec:	ea000001 	b	800092f8 <StringFormatV+0x1bc>
800092f0:	e731f31c 	udiv	r1, ip, r3
800092f4:	e1a02001 	mov	r2, r1
800092f8:	e06cc193 	mls	ip, r3, r1, ip
800092fc:	e733fa13 	udiv	r3, r3, sl
80009300:	e08b0002 	add	r0, fp, r2
80009304:	e3520009 	cmp	r2, #9
80009308:	e2822030 	add	r2, r2, #48	; 0x30
8000930c:	e6ef0070 	uxtb	r0, r0
80009310:	e28ee001 	add	lr, lr, #1
80009314:	96ef0072 	uxtbls	r0, r2
80009318:	e3530000 	cmp	r3, #0
8000931c:	e54e0001 	strb	r0, [lr, #-1]
80009320:	1afffff2 	bne	800092f0 <StringFormatV+0x1b4>
80009324:	e5ce3000 	strb	r3, [lr]
80009328:	e1a00007 	mov	r0, r7
8000932c:	eb002b05 	bl	80013f48 <uspi_strlen>
80009330:	e3580000 	cmp	r8, #0
80009334:	e1a0a000 	mov	sl, r0
80009338:	1a0000b0 	bne	80009600 <StringFormatV+0x4c4>
8000933c:	e1500004 	cmp	r0, r4
80009340:	2a00000f 	bcs	80009384 <StringFormatV+0x248>
80009344:	e59d3004 	ldr	r3, [sp, #4]
80009348:	e0444000 	sub	r4, r4, r0
8000934c:	e1a00006 	mov	r0, r6
80009350:	e3530000 	cmp	r3, #0
80009354:	e1a01004 	mov	r1, r4
80009358:	03a08020 	moveq	r8, #32
8000935c:	13a08030 	movne	r8, #48	; 0x30
80009360:	ebfffed5 	bl	80008ebc <StringReserveSpace.part.0>
80009364:	e2443001 	sub	r3, r4, #1
80009368:	e5962008 	ldr	r2, [r6, #8]
8000936c:	e2433001 	sub	r3, r3, #1
80009370:	e3730001 	cmn	r3, #1
80009374:	e2821001 	add	r1, r2, #1
80009378:	e5861008 	str	r1, [r6, #8]
8000937c:	e5c28000 	strb	r8, [r2]
80009380:	1afffff8 	bne	80009368 <StringFormatV+0x22c>
80009384:	e1a01007 	mov	r1, r7
80009388:	e1a00006 	mov	r0, r6
8000938c:	ebffff59 	bl	800090f8 <StringPutString>
80009390:	e5d54001 	ldrb	r4, [r5, #1]
80009394:	e2855001 	add	r5, r5, #1
80009398:	e3540000 	cmp	r4, #0
8000939c:	1affff79 	bne	80009188 <StringFormatV+0x4c>
800093a0:	e5963008 	ldr	r3, [r6, #8]
800093a4:	e5c34000 	strb	r4, [r3]
800093a8:	e28dd01c 	add	sp, sp, #28
800093ac:	e8bd8ff0 	pop	{r4, r5, r6, r7, r8, r9, sl, fp, pc}
800093b0:	e59d3000 	ldr	r3, [sp]
800093b4:	e5930000 	ldr	r0, [r3]
800093b8:	e2833004 	add	r3, r3, #4
800093bc:	e58d3000 	str	r3, [sp]
800093c0:	e3500000 	cmp	r0, #0
800093c4:	b2600000 	rsblt	r0, r0, #0
800093c8:	b3a0b001 	movlt	fp, #1
800093cc:	a3a0b000 	movge	fp, #0
800093d0:	e3500009 	cmp	r0, #9
800093d4:	e1a0a00b 	mov	sl, fp
800093d8:	e1a0c000 	mov	ip, r0
800093dc:	c3a03001 	movgt	r3, #1
800093e0:	c3a0100a 	movgt	r1, #10
800093e4:	da0000ea 	ble	80009794 <StringFormatV+0x658>
800093e8:	e0030391 	mul	r3, r1, r3
800093ec:	e732f310 	udiv	r2, r0, r3
800093f0:	e3520009 	cmp	r2, #9
800093f4:	8afffffb 	bhi	800093e8 <StringFormatV+0x2ac>
800093f8:	e28d700c 	add	r7, sp, #12
800093fc:	e730f310 	udiv	r0, r0, r3
80009400:	e1a0e007 	mov	lr, r7
80009404:	ea000001 	b	80009410 <StringFormatV+0x2d4>
80009408:	e730f31c 	udiv	r0, ip, r3
8000940c:	e1a02000 	mov	r2, r0
80009410:	e3520009 	cmp	r2, #9
80009414:	e2821057 	add	r1, r2, #87	; 0x57
80009418:	e2822030 	add	r2, r2, #48	; 0x30
8000941c:	e6ef1071 	uxtb	r1, r1
80009420:	e06cc093 	mls	ip, r3, r0, ip
80009424:	96ef1072 	uxtbls	r1, r2
80009428:	e28ee001 	add	lr, lr, #1
8000942c:	e0832399 	umull	r2, r3, r9, r3
80009430:	e54e1001 	strb	r1, [lr, #-1]
80009434:	e1b031a3 	lsrs	r3, r3, #3
80009438:	1afffff2 	bne	80009408 <StringFormatV+0x2cc>
8000943c:	e5ce3000 	strb	r3, [lr]
80009440:	e1a00007 	mov	r0, r7
80009444:	eb002abf 	bl	80013f48 <uspi_strlen>
80009448:	e08bb000 	add	fp, fp, r0
8000944c:	e3580000 	cmp	r8, #0
80009450:	0a00007d 	beq	8000964c <StringFormatV+0x510>
80009454:	e35a0000 	cmp	sl, #0
80009458:	1a0000c4 	bne	80009770 <StringFormatV+0x634>
8000945c:	e1a01007 	mov	r1, r7
80009460:	e1a00006 	mov	r0, r6
80009464:	ebffff23 	bl	800090f8 <StringPutString>
80009468:	e15b0004 	cmp	fp, r4
8000946c:	2affffc7 	bcs	80009390 <StringFormatV+0x254>
80009470:	e044400b 	sub	r4, r4, fp
80009474:	e1a00006 	mov	r0, r6
80009478:	e1a01004 	mov	r1, r4
8000947c:	ebfffe8e 	bl	80008ebc <StringReserveSpace.part.0>
80009480:	e2443001 	sub	r3, r4, #1
80009484:	e3a00020 	mov	r0, #32
80009488:	e5962008 	ldr	r2, [r6, #8]
8000948c:	e2433001 	sub	r3, r3, #1
80009490:	e3730001 	cmn	r3, #1
80009494:	e2821001 	add	r1, r2, #1
80009498:	e5861008 	str	r1, [r6, #8]
8000949c:	e5c20000 	strb	r0, [r2]
800094a0:	1afffff8 	bne	80009488 <StringFormatV+0x34c>
800094a4:	eaffffb9 	b	80009390 <StringFormatV+0x254>
800094a8:	e59d3000 	ldr	r3, [sp]
800094ac:	e3580000 	cmp	r8, #0
800094b0:	e5d3a000 	ldrb	sl, [r3]
800094b4:	e2837004 	add	r7, r3, #4
800094b8:	1a000091 	bne	80009704 <StringFormatV+0x5c8>
800094bc:	e3540001 	cmp	r4, #1
800094c0:	9a00000b 	bls	800094f4 <StringFormatV+0x3b8>
800094c4:	e2441001 	sub	r1, r4, #1
800094c8:	e1a00006 	mov	r0, r6
800094cc:	e2444002 	sub	r4, r4, #2
800094d0:	ebfffe79 	bl	80008ebc <StringReserveSpace.part.0>
800094d4:	e3a01020 	mov	r1, #32
800094d8:	e5963008 	ldr	r3, [r6, #8]
800094dc:	e2444001 	sub	r4, r4, #1
800094e0:	e3740001 	cmn	r4, #1
800094e4:	e2832001 	add	r2, r3, #1
800094e8:	e5862008 	str	r2, [r6, #8]
800094ec:	e5c31000 	strb	r1, [r3]
800094f0:	1afffff8 	bne	800094d8 <StringFormatV+0x39c>
800094f4:	e3a01001 	mov	r1, #1
800094f8:	e1a00006 	mov	r0, r6
800094fc:	ebfffe6e 	bl	80008ebc <StringReserveSpace.part.0>
80009500:	e5963008 	ldr	r3, [r6, #8]
80009504:	e58d7000 	str	r7, [sp]
80009508:	e2832001 	add	r2, r3, #1
8000950c:	e5862008 	str	r2, [r6, #8]
80009510:	e5c3a000 	strb	sl, [r3]
80009514:	eaffff9d 	b	80009390 <StringFormatV+0x254>
80009518:	e3a0a00a 	mov	sl, #10
8000951c:	eaffff61 	b	800092a8 <StringFormatV+0x16c>
80009520:	e59d3000 	ldr	r3, [sp]
80009524:	e593b000 	ldr	fp, [r3]
80009528:	e2837004 	add	r7, r3, #4
8000952c:	e1a0000b 	mov	r0, fp
80009530:	eb002a84 	bl	80013f48 <uspi_strlen>
80009534:	e3580000 	cmp	r8, #0
80009538:	e1a0a000 	mov	sl, r0
8000953c:	1a00005c 	bne	800096b4 <StringFormatV+0x578>
80009540:	e1500004 	cmp	r0, r4
80009544:	2a00000c 	bcs	8000957c <StringFormatV+0x440>
80009548:	e0444000 	sub	r4, r4, r0
8000954c:	e1a00006 	mov	r0, r6
80009550:	e1a01004 	mov	r1, r4
80009554:	ebfffe58 	bl	80008ebc <StringReserveSpace.part.0>
80009558:	e2443001 	sub	r3, r4, #1
8000955c:	e3a00020 	mov	r0, #32
80009560:	e5962008 	ldr	r2, [r6, #8]
80009564:	e2433001 	sub	r3, r3, #1
80009568:	e3730001 	cmn	r3, #1
8000956c:	e2821001 	add	r1, r2, #1
80009570:	e5861008 	str	r1, [r6, #8]
80009574:	e5c20000 	strb	r0, [r2]
80009578:	1afffff8 	bne	80009560 <StringFormatV+0x424>
8000957c:	e58d7000 	str	r7, [sp]
80009580:	e1a0100b 	mov	r1, fp
80009584:	e1a00006 	mov	r0, r6
80009588:	ebfffeda 	bl	800090f8 <StringPutString>
8000958c:	eaffff7f 	b	80009390 <StringFormatV+0x254>
80009590:	e3a0a010 	mov	sl, #16
80009594:	eaffff43 	b	800092a8 <StringFormatV+0x16c>
80009598:	e3a01001 	mov	r1, #1
8000959c:	e1a00006 	mov	r0, r6
800095a0:	ebfffe45 	bl	80008ebc <StringReserveSpace.part.0>
800095a4:	e5963008 	ldr	r3, [r6, #8]
800095a8:	e3a01001 	mov	r1, #1
800095ac:	e3a02025 	mov	r2, #37	; 0x25
800095b0:	e0830001 	add	r0, r3, r1
800095b4:	e5860008 	str	r0, [r6, #8]
800095b8:	e1a00006 	mov	r0, r6
800095bc:	e5c32000 	strb	r2, [r3]
800095c0:	e5d54000 	ldrb	r4, [r5]
800095c4:	ebfffe3c 	bl	80008ebc <StringReserveSpace.part.0>
800095c8:	e5963008 	ldr	r3, [r6, #8]
800095cc:	e2832001 	add	r2, r3, #1
800095d0:	e5862008 	str	r2, [r6, #8]
800095d4:	e5c34000 	strb	r4, [r3]
800095d8:	eaffff6c 	b	80009390 <StringFormatV+0x254>
800095dc:	e3a01001 	mov	r1, #1
800095e0:	e1a00006 	mov	r0, r6
800095e4:	e2855002 	add	r5, r5, #2
800095e8:	ebfffe33 	bl	80008ebc <StringReserveSpace.part.0>
800095ec:	e5963008 	ldr	r3, [r6, #8]
800095f0:	e2832001 	add	r2, r3, #1
800095f4:	e5862008 	str	r2, [r6, #8]
800095f8:	e5c37000 	strb	r7, [r3]
800095fc:	eafffede 	b	8000917c <StringFormatV+0x40>
80009600:	e1a01007 	mov	r1, r7
80009604:	e1a00006 	mov	r0, r6
80009608:	ebfffeba 	bl	800090f8 <StringPutString>
8000960c:	e15a0004 	cmp	sl, r4
80009610:	2affff5e 	bcs	80009390 <StringFormatV+0x254>
80009614:	e044400a 	sub	r4, r4, sl
80009618:	e1a00006 	mov	r0, r6
8000961c:	e1a01004 	mov	r1, r4
80009620:	ebfffe25 	bl	80008ebc <StringReserveSpace.part.0>
80009624:	e2443001 	sub	r3, r4, #1
80009628:	e3a00020 	mov	r0, #32
8000962c:	e5962008 	ldr	r2, [r6, #8]
80009630:	e2433001 	sub	r3, r3, #1
80009634:	e3730001 	cmn	r3, #1
80009638:	e2821001 	add	r1, r2, #1
8000963c:	e5861008 	str	r1, [r6, #8]
80009640:	e5c20000 	strb	r0, [r2]
80009644:	1afffff8 	bne	8000962c <StringFormatV+0x4f0>
80009648:	eaffff50 	b	80009390 <StringFormatV+0x254>
8000964c:	e15b0004 	cmp	fp, r4
80009650:	2a00000c 	bcs	80009688 <StringFormatV+0x54c>
80009654:	e044400b 	sub	r4, r4, fp
80009658:	e1a00006 	mov	r0, r6
8000965c:	e1a01004 	mov	r1, r4
80009660:	ebfffe15 	bl	80008ebc <StringReserveSpace.part.0>
80009664:	e2443001 	sub	r3, r4, #1
80009668:	e3a00020 	mov	r0, #32
8000966c:	e5962008 	ldr	r2, [r6, #8]
80009670:	e2433001 	sub	r3, r3, #1
80009674:	e3730001 	cmn	r3, #1
80009678:	e2821001 	add	r1, r2, #1
8000967c:	e5861008 	str	r1, [r6, #8]
80009680:	e5c20000 	strb	r0, [r2]
80009684:	1afffff8 	bne	8000966c <StringFormatV+0x530>
80009688:	e35a0000 	cmp	sl, #0
8000968c:	0affff3c 	beq	80009384 <StringFormatV+0x248>
80009690:	e3a01001 	mov	r1, #1
80009694:	e1a00006 	mov	r0, r6
80009698:	ebfffe07 	bl	80008ebc <StringReserveSpace.part.0>
8000969c:	e5963008 	ldr	r3, [r6, #8]
800096a0:	e3a0202d 	mov	r2, #45	; 0x2d
800096a4:	e2831001 	add	r1, r3, #1
800096a8:	e5861008 	str	r1, [r6, #8]
800096ac:	e5c32000 	strb	r2, [r3]
800096b0:	eaffff33 	b	80009384 <StringFormatV+0x248>
800096b4:	e1a0100b 	mov	r1, fp
800096b8:	e1a00006 	mov	r0, r6
800096bc:	ebfffe8d 	bl	800090f8 <StringPutString>
800096c0:	e15a0004 	cmp	sl, r4
800096c4:	2a00000c 	bcs	800096fc <StringFormatV+0x5c0>
800096c8:	e044400a 	sub	r4, r4, sl
800096cc:	e1a00006 	mov	r0, r6
800096d0:	e1a01004 	mov	r1, r4
800096d4:	ebfffdf8 	bl	80008ebc <StringReserveSpace.part.0>
800096d8:	e2443001 	sub	r3, r4, #1
800096dc:	e3a00020 	mov	r0, #32
800096e0:	e5962008 	ldr	r2, [r6, #8]
800096e4:	e2433001 	sub	r3, r3, #1
800096e8:	e3730001 	cmn	r3, #1
800096ec:	e2821001 	add	r1, r2, #1
800096f0:	e5861008 	str	r1, [r6, #8]
800096f4:	e5c20000 	strb	r0, [r2]
800096f8:	1afffff8 	bne	800096e0 <StringFormatV+0x5a4>
800096fc:	e58d7000 	str	r7, [sp]
80009700:	eaffff22 	b	80009390 <StringFormatV+0x254>
80009704:	e3a01001 	mov	r1, #1
80009708:	e1a00006 	mov	r0, r6
8000970c:	ebfffdea 	bl	80008ebc <StringReserveSpace.part.0>
80009710:	e5963008 	ldr	r3, [r6, #8]
80009714:	e3540001 	cmp	r4, #1
80009718:	e2832001 	add	r2, r3, #1
8000971c:	e5862008 	str	r2, [r6, #8]
80009720:	e5c3a000 	strb	sl, [r3]
80009724:	9afffff4 	bls	800096fc <StringFormatV+0x5c0>
80009728:	e2441001 	sub	r1, r4, #1
8000972c:	e1a00006 	mov	r0, r6
80009730:	e2444002 	sub	r4, r4, #2
80009734:	ebfffde0 	bl	80008ebc <StringReserveSpace.part.0>
80009738:	e3a01020 	mov	r1, #32
8000973c:	e5963008 	ldr	r3, [r6, #8]
80009740:	e2444001 	sub	r4, r4, #1
80009744:	e3740001 	cmn	r4, #1
80009748:	e2832001 	add	r2, r3, #1
8000974c:	e5862008 	str	r2, [r6, #8]
80009750:	e5c31000 	strb	r1, [r3]
80009754:	1afffff8 	bne	8000973c <StringFormatV+0x600>
80009758:	e58d7000 	str	r7, [sp]
8000975c:	eaffff0b 	b	80009390 <StringFormatV+0x254>
80009760:	e1a0200c 	mov	r2, ip
80009764:	e3a03001 	mov	r3, #1
80009768:	e1a0100c 	mov	r1, ip
8000976c:	eafffed9 	b	800092d8 <StringFormatV+0x19c>
80009770:	e3a01001 	mov	r1, #1
80009774:	e1a00006 	mov	r0, r6
80009778:	ebfffdcf 	bl	80008ebc <StringReserveSpace.part.0>
8000977c:	e5963008 	ldr	r3, [r6, #8]
80009780:	e3a0202d 	mov	r2, #45	; 0x2d
80009784:	e2831001 	add	r1, r3, #1
80009788:	e5861008 	str	r1, [r6, #8]
8000978c:	e5c32000 	strb	r2, [r3]
80009790:	eaffff31 	b	8000945c <StringFormatV+0x320>
80009794:	e1a02000 	mov	r2, r0
80009798:	e3a03001 	mov	r3, #1
8000979c:	eaffff15 	b	800093f8 <StringFormatV+0x2bc>

800097a0 <StringFormat>:
800097a0:	e92d000e 	push	{r1, r2, r3}
800097a4:	e52de004 	push	{lr}		; (str lr, [sp, #-4]!)
800097a8:	e24dd008 	sub	sp, sp, #8
800097ac:	e28d2010 	add	r2, sp, #16
800097b0:	e59d100c 	ldr	r1, [sp, #12]
800097b4:	e58d2004 	str	r2, [sp, #4]
800097b8:	ebfffe5f 	bl	8000913c <StringFormatV>
800097bc:	e28dd008 	add	sp, sp, #8
800097c0:	e49de004 	pop	{lr}		; (ldr lr, [sp], #4)
800097c4:	e28dd00c 	add	sp, sp, #12
800097c8:	e12fff1e 	bx	lr

800097cc <StringReserveSpace>:
800097cc:	e3510000 	cmp	r1, #0
800097d0:	012fff1e 	bxeq	lr
800097d4:	eafffdb8 	b	80008ebc <StringReserveSpace.part.0>

800097d8 <ntoa>:
800097d8:	e1510002 	cmp	r1, r2
800097dc:	e92d4070 	push	{r4, r5, r6, lr}
800097e0:	23a0c001 	movcs	ip, #1
800097e4:	3a000018 	bcc	8000984c <ntoa+0x74>
800097e8:	e00c0c92 	mul	ip, r2, ip
800097ec:	e734fc11 	udiv	r4, r1, ip
800097f0:	e1540002 	cmp	r4, r2
800097f4:	e1a0e004 	mov	lr, r4
800097f8:	2afffffa 	bcs	800097e8 <ntoa+0x10>
800097fc:	e3530000 	cmp	r3, #0
80009800:	e1a05000 	mov	r5, r0
80009804:	13a06037 	movne	r6, #55	; 0x37
80009808:	03a06057 	moveq	r6, #87	; 0x57
8000980c:	ea000001 	b	80009818 <ntoa+0x40>
80009810:	e734fc11 	udiv	r4, r1, ip
80009814:	e1a0e004 	mov	lr, r4
80009818:	e061149c 	mls	r1, ip, r4, r1
8000981c:	e73cf21c 	udiv	ip, ip, r2
80009820:	e086300e 	add	r3, r6, lr
80009824:	e35e0009 	cmp	lr, #9
80009828:	e28ee030 	add	lr, lr, #48	; 0x30
8000982c:	e6ef3073 	uxtb	r3, r3
80009830:	e2855001 	add	r5, r5, #1
80009834:	96ef307e 	uxtbls	r3, lr
80009838:	e35c0000 	cmp	ip, #0
8000983c:	e5453001 	strb	r3, [r5, #-1]
80009840:	1afffff2 	bne	80009810 <ntoa+0x38>
80009844:	e5c5c000 	strb	ip, [r5]
80009848:	e8bd8070 	pop	{r4, r5, r6, pc}
8000984c:	e1a0e001 	mov	lr, r1
80009850:	e3a0c001 	mov	ip, #1
80009854:	e1a04001 	mov	r4, r1
80009858:	eaffffe7 	b	800097fc <ntoa+0x24>

8000985c <create>:
8000985c:	e92d41f0 	push	{r4, r5, r6, r7, r8, lr}
80009860:	e24dd018 	sub	sp, sp, #24
80009864:	e1a06001 	mov	r6, r1
80009868:	e28d1008 	add	r1, sp, #8
8000986c:	e1a08002 	mov	r8, r2
80009870:	e1a07003 	mov	r7, r3
80009874:	eb000873 	bl	8000ba48 <nameiparent>
80009878:	e2505000 	subs	r5, r0, #0
8000987c:	0a000031 	beq	80009948 <create+0xec>
80009880:	eb000651 	bl	8000b1cc <ilock>
80009884:	e28d2004 	add	r2, sp, #4
80009888:	e28d1008 	add	r1, sp, #8
8000988c:	e1a00005 	mov	r0, r5
80009890:	eb00078f 	bl	8000b6d4 <dirlookup>
80009894:	e2504000 	subs	r4, r0, #0
80009898:	0a000011 	beq	800098e4 <create+0x88>
8000989c:	e1a00005 	mov	r0, r5
800098a0:	eb0006f7 	bl	8000b484 <iunlockput>
800098a4:	e1a00004 	mov	r0, r4
800098a8:	eb000647 	bl	8000b1cc <ilock>
800098ac:	e3560002 	cmp	r6, #2
800098b0:	1a000005 	bne	800098cc <create+0x70>
800098b4:	e1d431f0 	ldrsh	r3, [r4, #16]
800098b8:	e3530002 	cmp	r3, #2
800098bc:	1a000002 	bne	800098cc <create+0x70>
800098c0:	e1a00004 	mov	r0, r4
800098c4:	e28dd018 	add	sp, sp, #24
800098c8:	e8bd81f0 	pop	{r4, r5, r6, r7, r8, pc}
800098cc:	e1a00004 	mov	r0, r4
800098d0:	e3a04000 	mov	r4, #0
800098d4:	eb0006ea 	bl	8000b484 <iunlockput>
800098d8:	e1a00004 	mov	r0, r4
800098dc:	e28dd018 	add	sp, sp, #24
800098e0:	e8bd81f0 	pop	{r4, r5, r6, r7, r8, pc}
800098e4:	e5950000 	ldr	r0, [r5]
800098e8:	e1a01006 	mov	r1, r6
800098ec:	eb0005de 	bl	8000b06c <ialloc>
800098f0:	e2504000 	subs	r4, r0, #0
800098f4:	0a00002e 	beq	800099b4 <create+0x158>
800098f8:	eb000633 	bl	8000b1cc <ilock>
800098fc:	e1c481b2 	strh	r8, [r4, #18]
80009900:	e3a03001 	mov	r3, #1
80009904:	e1c471b4 	strh	r7, [r4, #20]
80009908:	e1a00004 	mov	r0, r4
8000990c:	e1c431b6 	strh	r3, [r4, #22]
80009910:	eb000601 	bl	8000b11c <iupdate>
80009914:	e3560001 	cmp	r6, #1
80009918:	0a00000c 	beq	80009950 <create+0xf4>
8000991c:	e5942004 	ldr	r2, [r4, #4]
80009920:	e28d1008 	add	r1, sp, #8
80009924:	e1a00005 	mov	r0, r5
80009928:	eb000809 	bl	8000b954 <dirlink>
8000992c:	e3500000 	cmp	r0, #0
80009930:	ba00001c 	blt	800099a8 <create+0x14c>
80009934:	e1a00005 	mov	r0, r5
80009938:	eb0006d1 	bl	8000b484 <iunlockput>
8000993c:	e1a00004 	mov	r0, r4
80009940:	e28dd018 	add	sp, sp, #24
80009944:	e8bd81f0 	pop	{r4, r5, r6, r7, r8, pc}
80009948:	e1a04005 	mov	r4, r5
8000994c:	eaffffdb 	b	800098c0 <create+0x64>
80009950:	e1d531b6 	ldrh	r3, [r5, #22]
80009954:	e1a00005 	mov	r0, r5
80009958:	e2833001 	add	r3, r3, #1
8000995c:	e1c531b6 	strh	r3, [r5, #22]
80009960:	eb0005ed 	bl	8000b11c <iupdate>
80009964:	e5942004 	ldr	r2, [r4, #4]
80009968:	e3071bc0 	movw	r1, #31680	; 0x7bc0
8000996c:	e3481001 	movt	r1, #32769	; 0x8001
80009970:	e1a00004 	mov	r0, r4
80009974:	eb0007f6 	bl	8000b954 <dirlink>
80009978:	e3500000 	cmp	r0, #0
8000997c:	ba000006 	blt	8000999c <create+0x140>
80009980:	e5952004 	ldr	r2, [r5, #4]
80009984:	e3071bd0 	movw	r1, #31696	; 0x7bd0
80009988:	e3481001 	movt	r1, #32769	; 0x8001
8000998c:	e1a00004 	mov	r0, r4
80009990:	eb0007ef 	bl	8000b954 <dirlink>
80009994:	e3500000 	cmp	r0, #0
80009998:	aaffffdf 	bge	8000991c <create+0xc0>
8000999c:	e3070bc4 	movw	r0, #31684	; 0x7bc4
800099a0:	e3480001 	movt	r0, #32769	; 0x8001
800099a4:	eb000996 	bl	8000c004 <panic>
800099a8:	e3070bd4 	movw	r0, #31700	; 0x7bd4
800099ac:	e3480001 	movt	r0, #32769	; 0x8001
800099b0:	eb000993 	bl	8000c004 <panic>
800099b4:	e3070bb0 	movw	r0, #31664	; 0x7bb0
800099b8:	e3480001 	movt	r0, #32769	; 0x8001
800099bc:	eb000990 	bl	8000c004 <panic>

800099c0 <argfd.constprop.0>:
800099c0:	e92d4030 	push	{r4, r5, lr}
800099c4:	e24dd00c 	sub	sp, sp, #12
800099c8:	e1a05000 	mov	r5, r0
800099cc:	e1a04001 	mov	r4, r1
800099d0:	e3a00000 	mov	r0, #0
800099d4:	e28d1004 	add	r1, sp, #4
800099d8:	eb001d0d 	bl	80010e14 <argint>
800099dc:	e3500000 	cmp	r0, #0
800099e0:	ba000013 	blt	80009a34 <argfd.constprop.0+0x74>
800099e4:	e59d1004 	ldr	r1, [sp, #4]
800099e8:	e351000f 	cmp	r1, #15
800099ec:	8a000010 	bhi	80009a34 <argfd.constprop.0+0x74>
800099f0:	e30a2af4 	movw	r2, #43764	; 0xaaf4
800099f4:	e281300a 	add	r3, r1, #10
800099f8:	e3482009 	movt	r2, #32777	; 0x8009
800099fc:	e5922018 	ldr	r2, [r2, #24]
80009a00:	e7923103 	ldr	r3, [r2, r3, lsl #2]
80009a04:	e3530000 	cmp	r3, #0
80009a08:	0a000009 	beq	80009a34 <argfd.constprop.0+0x74>
80009a0c:	e3550000 	cmp	r5, #0
80009a10:	15851000 	strne	r1, [r5]
80009a14:	e3540000 	cmp	r4, #0
80009a18:	0a000003 	beq	80009a2c <argfd.constprop.0+0x6c>
80009a1c:	e5843000 	str	r3, [r4]
80009a20:	e3a00000 	mov	r0, #0
80009a24:	e28dd00c 	add	sp, sp, #12
80009a28:	e8bd8030 	pop	{r4, r5, pc}
80009a2c:	e1a00004 	mov	r0, r4
80009a30:	eafffffb 	b	80009a24 <argfd.constprop.0+0x64>
80009a34:	e3e00000 	mvn	r0, #0
80009a38:	eafffff9 	b	80009a24 <argfd.constprop.0+0x64>

80009a3c <sys_dup>:
80009a3c:	e92d4010 	push	{r4, lr}
80009a40:	e24dd008 	sub	sp, sp, #8
80009a44:	e28d1004 	add	r1, sp, #4
80009a48:	e3a00000 	mov	r0, #0
80009a4c:	ebffffdb 	bl	800099c0 <argfd.constprop.0>
80009a50:	e3500000 	cmp	r0, #0
80009a54:	ba00000b 	blt	80009a88 <sys_dup+0x4c>
80009a58:	e59dc004 	ldr	ip, [sp, #4]
80009a5c:	e30a3af4 	movw	r3, #43764	; 0xaaf4
80009a60:	e3483009 	movt	r3, #32777	; 0x8009
80009a64:	e3a04000 	mov	r4, #0
80009a68:	e5931018 	ldr	r1, [r3, #24]
80009a6c:	e2813024 	add	r3, r1, #36	; 0x24
80009a70:	e5b32004 	ldr	r2, [r3, #4]!
80009a74:	e3520000 	cmp	r2, #0
80009a78:	0a000006 	beq	80009a98 <sys_dup+0x5c>
80009a7c:	e2844001 	add	r4, r4, #1
80009a80:	e3540010 	cmp	r4, #16
80009a84:	1afffff9 	bne	80009a70 <sys_dup+0x34>
80009a88:	e3e04000 	mvn	r4, #0
80009a8c:	e1a00004 	mov	r0, r4
80009a90:	e28dd008 	add	sp, sp, #8
80009a94:	e8bd8010 	pop	{r4, pc}
80009a98:	e284300a 	add	r3, r4, #10
80009a9c:	e1a0000c 	mov	r0, ip
80009aa0:	e781c103 	str	ip, [r1, r3, lsl #2]
80009aa4:	eb00202a 	bl	80011b54 <filedup>
80009aa8:	e1a00004 	mov	r0, r4
80009aac:	e28dd008 	add	sp, sp, #8
80009ab0:	e8bd8010 	pop	{r4, pc}

80009ab4 <sys_read>:
80009ab4:	e52de004 	push	{lr}		; (str lr, [sp, #-4]!)
80009ab8:	e24dd014 	sub	sp, sp, #20
80009abc:	e28d1004 	add	r1, sp, #4
80009ac0:	e3a00000 	mov	r0, #0
80009ac4:	ebffffbd 	bl	800099c0 <argfd.constprop.0>
80009ac8:	e3500000 	cmp	r0, #0
80009acc:	ba000010 	blt	80009b14 <sys_read+0x60>
80009ad0:	e28d1008 	add	r1, sp, #8
80009ad4:	e3a00002 	mov	r0, #2
80009ad8:	eb001ccd 	bl	80010e14 <argint>
80009adc:	e3500000 	cmp	r0, #0
80009ae0:	ba00000b 	blt	80009b14 <sys_read+0x60>
80009ae4:	e59d2008 	ldr	r2, [sp, #8]
80009ae8:	e28d100c 	add	r1, sp, #12
80009aec:	e3a00001 	mov	r0, #1
80009af0:	eb001cd9 	bl	80010e5c <argptr>
80009af4:	e3500000 	cmp	r0, #0
80009af8:	ba000005 	blt	80009b14 <sys_read+0x60>
80009afc:	e59d2008 	ldr	r2, [sp, #8]
80009b00:	e59d100c 	ldr	r1, [sp, #12]
80009b04:	e59d0004 	ldr	r0, [sp, #4]
80009b08:	eb00205c 	bl	80011c80 <fileread>
80009b0c:	e28dd014 	add	sp, sp, #20
80009b10:	e49df004 	pop	{pc}		; (ldr pc, [sp], #4)
80009b14:	e3e00000 	mvn	r0, #0
80009b18:	e28dd014 	add	sp, sp, #20
80009b1c:	e49df004 	pop	{pc}		; (ldr pc, [sp], #4)

80009b20 <sys_write>:
80009b20:	e52de004 	push	{lr}		; (str lr, [sp, #-4]!)
80009b24:	e24dd014 	sub	sp, sp, #20
80009b28:	e28d1004 	add	r1, sp, #4
80009b2c:	e3a00000 	mov	r0, #0
80009b30:	ebffffa2 	bl	800099c0 <argfd.constprop.0>
80009b34:	e3500000 	cmp	r0, #0
80009b38:	ba000010 	blt	80009b80 <sys_write+0x60>
80009b3c:	e28d1008 	add	r1, sp, #8
80009b40:	e3a00002 	mov	r0, #2
80009b44:	eb001cb2 	bl	80010e14 <argint>
80009b48:	e3500000 	cmp	r0, #0
80009b4c:	ba00000b 	blt	80009b80 <sys_write+0x60>
80009b50:	e59d2008 	ldr	r2, [sp, #8]
80009b54:	e28d100c 	add	r1, sp, #12
80009b58:	e3a00001 	mov	r0, #1
80009b5c:	eb001cbe 	bl	80010e5c <argptr>
80009b60:	e3500000 	cmp	r0, #0
80009b64:	ba000005 	blt	80009b80 <sys_write+0x60>
80009b68:	e59d2008 	ldr	r2, [sp, #8]
80009b6c:	e59d100c 	ldr	r1, [sp, #12]
80009b70:	e59d0004 	ldr	r0, [sp, #4]
80009b74:	eb002064 	bl	80011d0c <filewrite>
80009b78:	e28dd014 	add	sp, sp, #20
80009b7c:	e49df004 	pop	{pc}		; (ldr pc, [sp], #4)
80009b80:	e3e00000 	mvn	r0, #0
80009b84:	e28dd014 	add	sp, sp, #20
80009b88:	e49df004 	pop	{pc}		; (ldr pc, [sp], #4)

80009b8c <sys_close>:
80009b8c:	e92d4010 	push	{r4, lr}
80009b90:	e24dd008 	sub	sp, sp, #8
80009b94:	e28d1004 	add	r1, sp, #4
80009b98:	e1a0000d 	mov	r0, sp
80009b9c:	ebffff87 	bl	800099c0 <argfd.constprop.0>
80009ba0:	e3500000 	cmp	r0, #0
80009ba4:	ba00000b 	blt	80009bd8 <sys_close+0x4c>
80009ba8:	e59d3000 	ldr	r3, [sp]
80009bac:	e30a2af4 	movw	r2, #43764	; 0xaaf4
80009bb0:	e3482009 	movt	r2, #32777	; 0x8009
80009bb4:	e3a04000 	mov	r4, #0
80009bb8:	e59d0004 	ldr	r0, [sp, #4]
80009bbc:	e283300a 	add	r3, r3, #10
80009bc0:	e5922018 	ldr	r2, [r2, #24]
80009bc4:	e7824103 	str	r4, [r2, r3, lsl #2]
80009bc8:	eb001ff3 	bl	80011b9c <fileclose>
80009bcc:	e1a00004 	mov	r0, r4
80009bd0:	e28dd008 	add	sp, sp, #8
80009bd4:	e8bd8010 	pop	{r4, pc}
80009bd8:	e3e00000 	mvn	r0, #0
80009bdc:	eafffffb 	b	80009bd0 <sys_close+0x44>

80009be0 <sys_fstat>:
80009be0:	e52de004 	push	{lr}		; (str lr, [sp, #-4]!)
80009be4:	e24dd00c 	sub	sp, sp, #12
80009be8:	e1a0100d 	mov	r1, sp
80009bec:	e3a00000 	mov	r0, #0
80009bf0:	ebffff72 	bl	800099c0 <argfd.constprop.0>
80009bf4:	e3500000 	cmp	r0, #0
80009bf8:	ba000009 	blt	80009c24 <sys_fstat+0x44>
80009bfc:	e3a02014 	mov	r2, #20
80009c00:	e28d1004 	add	r1, sp, #4
80009c04:	e3a00001 	mov	r0, #1
80009c08:	eb001c93 	bl	80010e5c <argptr>
80009c0c:	e3500000 	cmp	r0, #0
80009c10:	ba000003 	blt	80009c24 <sys_fstat+0x44>
80009c14:	e89d0003 	ldm	sp, {r0, r1}
80009c18:	eb002007 	bl	80011c3c <filestat>
80009c1c:	e28dd00c 	add	sp, sp, #12
80009c20:	e49df004 	pop	{pc}		; (ldr pc, [sp], #4)
80009c24:	e3e00000 	mvn	r0, #0
80009c28:	eafffffb 	b	80009c1c <sys_fstat+0x3c>

80009c2c <sys_link>:
80009c2c:	e92d4030 	push	{r4, r5, lr}
80009c30:	e24dd01c 	sub	sp, sp, #28
80009c34:	e28d1004 	add	r1, sp, #4
80009c38:	e3a00000 	mov	r0, #0
80009c3c:	eb001c9e 	bl	80010ebc <argstr>
80009c40:	e3500000 	cmp	r0, #0
80009c44:	ba000039 	blt	80009d30 <sys_link+0x104>
80009c48:	e1a0100d 	mov	r1, sp
80009c4c:	e3a00001 	mov	r0, #1
80009c50:	eb001c99 	bl	80010ebc <argstr>
80009c54:	e3500000 	cmp	r0, #0
80009c58:	ba000034 	blt	80009d30 <sys_link+0x104>
80009c5c:	e59d0004 	ldr	r0, [sp, #4]
80009c60:	eb000771 	bl	8000ba2c <namei>
80009c64:	e2504000 	subs	r4, r0, #0
80009c68:	0a000030 	beq	80009d30 <sys_link+0x104>
80009c6c:	eb001a97 	bl	800106d0 <begin_trans>
80009c70:	e1a00004 	mov	r0, r4
80009c74:	eb000554 	bl	8000b1cc <ilock>
80009c78:	e1d431f0 	ldrsh	r3, [r4, #16]
80009c7c:	e3530001 	cmp	r3, #1
80009c80:	0a000027 	beq	80009d24 <sys_link+0xf8>
80009c84:	e1d431b6 	ldrh	r3, [r4, #22]
80009c88:	e1a00004 	mov	r0, r4
80009c8c:	e2833001 	add	r3, r3, #1
80009c90:	e1c431b6 	strh	r3, [r4, #22]
80009c94:	eb000520 	bl	8000b11c <iupdate>
80009c98:	e1a00004 	mov	r0, r4
80009c9c:	eb00058c 	bl	8000b2d4 <iunlock>
80009ca0:	e59d0000 	ldr	r0, [sp]
80009ca4:	e28d1008 	add	r1, sp, #8
80009ca8:	eb000766 	bl	8000ba48 <nameiparent>
80009cac:	e2505000 	subs	r5, r0, #0
80009cb0:	0a000014 	beq	80009d08 <sys_link+0xdc>
80009cb4:	eb000544 	bl	8000b1cc <ilock>
80009cb8:	e5952000 	ldr	r2, [r5]
80009cbc:	e5943000 	ldr	r3, [r4]
80009cc0:	e1520003 	cmp	r2, r3
80009cc4:	1a00000d 	bne	80009d00 <sys_link+0xd4>
80009cc8:	e5942004 	ldr	r2, [r4, #4]
80009ccc:	e28d1008 	add	r1, sp, #8
80009cd0:	e1a00005 	mov	r0, r5
80009cd4:	eb00071e 	bl	8000b954 <dirlink>
80009cd8:	e3500000 	cmp	r0, #0
80009cdc:	ba000007 	blt	80009d00 <sys_link+0xd4>
80009ce0:	e1a00005 	mov	r0, r5
80009ce4:	eb0005e6 	bl	8000b484 <iunlockput>
80009ce8:	e1a00004 	mov	r0, r4
80009cec:	eb000590 	bl	8000b334 <iput>
80009cf0:	eb001a8c 	bl	80010728 <commit_trans>
80009cf4:	e3a00000 	mov	r0, #0
80009cf8:	e28dd01c 	add	sp, sp, #28
80009cfc:	e8bd8030 	pop	{r4, r5, pc}
80009d00:	e1a00005 	mov	r0, r5
80009d04:	eb0005de 	bl	8000b484 <iunlockput>
80009d08:	e1a00004 	mov	r0, r4
80009d0c:	eb00052e 	bl	8000b1cc <ilock>
80009d10:	e1d431b6 	ldrh	r3, [r4, #22]
80009d14:	e1a00004 	mov	r0, r4
80009d18:	e2433001 	sub	r3, r3, #1
80009d1c:	e1c431b6 	strh	r3, [r4, #22]
80009d20:	eb0004fd 	bl	8000b11c <iupdate>
80009d24:	e1a00004 	mov	r0, r4
80009d28:	eb0005d5 	bl	8000b484 <iunlockput>
80009d2c:	eb001a7d 	bl	80010728 <commit_trans>
80009d30:	e3e00000 	mvn	r0, #0
80009d34:	e28dd01c 	add	sp, sp, #28
80009d38:	e8bd8030 	pop	{r4, r5, pc}

80009d3c <sys_unlink>:
80009d3c:	e92d40f0 	push	{r4, r5, r6, r7, lr}
80009d40:	e24dd02c 	sub	sp, sp, #44	; 0x2c
80009d44:	e1a0100d 	mov	r1, sp
80009d48:	e3a00000 	mov	r0, #0
80009d4c:	eb001c5a 	bl	80010ebc <argstr>
80009d50:	e3500000 	cmp	r0, #0
80009d54:	ba000055 	blt	80009eb0 <sys_unlink+0x174>
80009d58:	e59d0000 	ldr	r0, [sp]
80009d5c:	e28d1008 	add	r1, sp, #8
80009d60:	eb000738 	bl	8000ba48 <nameiparent>
80009d64:	e2507000 	subs	r7, r0, #0
80009d68:	0a000050 	beq	80009eb0 <sys_unlink+0x174>
80009d6c:	eb001a57 	bl	800106d0 <begin_trans>
80009d70:	e1a00007 	mov	r0, r7
80009d74:	eb000514 	bl	8000b1cc <ilock>
80009d78:	e3071bc0 	movw	r1, #31680	; 0x7bc0
80009d7c:	e28d0008 	add	r0, sp, #8
80009d80:	e3481001 	movt	r1, #32769	; 0x8001
80009d84:	eb000650 	bl	8000b6cc <namecmp>
80009d88:	e3500000 	cmp	r0, #0
80009d8c:	0a000044 	beq	80009ea4 <sys_unlink+0x168>
80009d90:	e3071bd0 	movw	r1, #31696	; 0x7bd0
80009d94:	e28d0008 	add	r0, sp, #8
80009d98:	e3481001 	movt	r1, #32769	; 0x8001
80009d9c:	eb00064a 	bl	8000b6cc <namecmp>
80009da0:	e3500000 	cmp	r0, #0
80009da4:	0a00003e 	beq	80009ea4 <sys_unlink+0x168>
80009da8:	e28d1008 	add	r1, sp, #8
80009dac:	e28d2004 	add	r2, sp, #4
80009db0:	e1a00007 	mov	r0, r7
80009db4:	eb000646 	bl	8000b6d4 <dirlookup>
80009db8:	e2505000 	subs	r5, r0, #0
80009dbc:	0a000038 	beq	80009ea4 <sys_unlink+0x168>
80009dc0:	eb000501 	bl	8000b1cc <ilock>
80009dc4:	e1d531f6 	ldrsh	r3, [r5, #22]
80009dc8:	e3530000 	cmp	r3, #0
80009dcc:	da000043 	ble	80009ee0 <sys_unlink+0x1a4>
80009dd0:	e1d531f0 	ldrsh	r3, [r5, #16]
80009dd4:	e3530001 	cmp	r3, #1
80009dd8:	0a00001b 	beq	80009e4c <sys_unlink+0x110>
80009ddc:	e28d6018 	add	r6, sp, #24
80009de0:	e3a02010 	mov	r2, #16
80009de4:	e3a01000 	mov	r1, #0
80009de8:	e1a00006 	mov	r0, r6
80009dec:	eb002239 	bl	800126d8 <memset>
80009df0:	e59d2004 	ldr	r2, [sp, #4]
80009df4:	e1a01006 	mov	r1, r6
80009df8:	e3a03010 	mov	r3, #16
80009dfc:	e1a00007 	mov	r0, r7
80009e00:	eb0005ea 	bl	8000b5b0 <writei>
80009e04:	e3500010 	cmp	r0, #16
80009e08:	1a000037 	bne	80009eec <sys_unlink+0x1b0>
80009e0c:	e1d531f0 	ldrsh	r3, [r5, #16]
80009e10:	e3530001 	cmp	r3, #1
80009e14:	0a000028 	beq	80009ebc <sys_unlink+0x180>
80009e18:	e1a00007 	mov	r0, r7
80009e1c:	eb000598 	bl	8000b484 <iunlockput>
80009e20:	e1d531b6 	ldrh	r3, [r5, #22]
80009e24:	e1a00005 	mov	r0, r5
80009e28:	e2433001 	sub	r3, r3, #1
80009e2c:	e1c531b6 	strh	r3, [r5, #22]
80009e30:	eb0004b9 	bl	8000b11c <iupdate>
80009e34:	e1a00005 	mov	r0, r5
80009e38:	eb000591 	bl	8000b484 <iunlockput>
80009e3c:	eb001a39 	bl	80010728 <commit_trans>
80009e40:	e3a00000 	mov	r0, #0
80009e44:	e28dd02c 	add	sp, sp, #44	; 0x2c
80009e48:	e8bd80f0 	pop	{r4, r5, r6, r7, pc}
80009e4c:	e5953018 	ldr	r3, [r5, #24]
80009e50:	e3530020 	cmp	r3, #32
80009e54:	83a04020 	movhi	r4, #32
80009e58:	828d6018 	addhi	r6, sp, #24
80009e5c:	8a000004 	bhi	80009e74 <sys_unlink+0x138>
80009e60:	eaffffdd 	b	80009ddc <sys_unlink+0xa0>
80009e64:	e5953018 	ldr	r3, [r5, #24]
80009e68:	e2844010 	add	r4, r4, #16
80009e6c:	e1540003 	cmp	r4, r3
80009e70:	2affffda 	bcs	80009de0 <sys_unlink+0xa4>
80009e74:	e3a03010 	mov	r3, #16
80009e78:	e1a02004 	mov	r2, r4
80009e7c:	e1a01006 	mov	r1, r6
80009e80:	e1a00005 	mov	r0, r5
80009e84:	eb00058e 	bl	8000b4c4 <readi>
80009e88:	e3500010 	cmp	r0, #16
80009e8c:	1a000010 	bne	80009ed4 <sys_unlink+0x198>
80009e90:	e1dd31b8 	ldrh	r3, [sp, #24]
80009e94:	e3530000 	cmp	r3, #0
80009e98:	0afffff1 	beq	80009e64 <sys_unlink+0x128>
80009e9c:	e1a00005 	mov	r0, r5
80009ea0:	eb000577 	bl	8000b484 <iunlockput>
80009ea4:	e1a00007 	mov	r0, r7
80009ea8:	eb000575 	bl	8000b484 <iunlockput>
80009eac:	eb001a1d 	bl	80010728 <commit_trans>
80009eb0:	e3e00000 	mvn	r0, #0
80009eb4:	e28dd02c 	add	sp, sp, #44	; 0x2c
80009eb8:	e8bd80f0 	pop	{r4, r5, r6, r7, pc}
80009ebc:	e1d731b6 	ldrh	r3, [r7, #22]
80009ec0:	e1a00007 	mov	r0, r7
80009ec4:	e2433001 	sub	r3, r3, #1
80009ec8:	e1c731b6 	strh	r3, [r7, #22]
80009ecc:	eb000492 	bl	8000b11c <iupdate>
80009ed0:	eaffffd0 	b	80009e18 <sys_unlink+0xdc>
80009ed4:	e3070bf8 	movw	r0, #31736	; 0x7bf8
80009ed8:	e3480001 	movt	r0, #32769	; 0x8001
80009edc:	eb000848 	bl	8000c004 <panic>
80009ee0:	e3070be4 	movw	r0, #31716	; 0x7be4
80009ee4:	e3480001 	movt	r0, #32769	; 0x8001
80009ee8:	eb000845 	bl	8000c004 <panic>
80009eec:	e3070c0c 	movw	r0, #31756	; 0x7c0c
80009ef0:	e3480001 	movt	r0, #32769	; 0x8001
80009ef4:	eb000842 	bl	8000c004 <panic>

80009ef8 <sys_open>:
80009ef8:	e92d40f0 	push	{r4, r5, r6, r7, lr}
80009efc:	e24dd00c 	sub	sp, sp, #12
80009f00:	e1a0100d 	mov	r1, sp
80009f04:	e3a00000 	mov	r0, #0
80009f08:	eb001beb 	bl	80010ebc <argstr>
80009f0c:	e3500000 	cmp	r0, #0
80009f10:	ba00002d 	blt	80009fcc <sys_open+0xd4>
80009f14:	e28d1004 	add	r1, sp, #4
80009f18:	e3a00001 	mov	r0, #1
80009f1c:	eb001bbc 	bl	80010e14 <argint>
80009f20:	e3500000 	cmp	r0, #0
80009f24:	ba000028 	blt	80009fcc <sys_open+0xd4>
80009f28:	e59d3004 	ldr	r3, [sp, #4]
80009f2c:	e3130c02 	tst	r3, #512	; 0x200
80009f30:	1a00001b 	bne	80009fa4 <sys_open+0xac>
80009f34:	e59d0000 	ldr	r0, [sp]
80009f38:	eb0006bb 	bl	8000ba2c <namei>
80009f3c:	e2507000 	subs	r7, r0, #0
80009f40:	0a000021 	beq	80009fcc <sys_open+0xd4>
80009f44:	eb0004a0 	bl	8000b1cc <ilock>
80009f48:	e1d731f0 	ldrsh	r3, [r7, #16]
80009f4c:	e3530001 	cmp	r3, #1
80009f50:	0a000031 	beq	8000a01c <sys_open+0x124>
80009f54:	eb001ee3 	bl	80011ae8 <filealloc>
80009f58:	e2506000 	subs	r6, r0, #0
80009f5c:	0a00000c 	beq	80009f94 <sys_open+0x9c>
80009f60:	e30a3af4 	movw	r3, #43764	; 0xaaf4
80009f64:	e3a04000 	mov	r4, #0
80009f68:	e3483009 	movt	r3, #32777	; 0x8009
80009f6c:	e5932018 	ldr	r2, [r3, #24]
80009f70:	e2823024 	add	r3, r2, #36	; 0x24
80009f74:	e5b35004 	ldr	r5, [r3, #4]!
80009f78:	e3550000 	cmp	r5, #0
80009f7c:	0a000014 	beq	80009fd4 <sys_open+0xdc>
80009f80:	e2844001 	add	r4, r4, #1
80009f84:	e3540010 	cmp	r4, #16
80009f88:	1afffff9 	bne	80009f74 <sys_open+0x7c>
80009f8c:	e1a00006 	mov	r0, r6
80009f90:	eb001f01 	bl	80011b9c <fileclose>
80009f94:	e1a00007 	mov	r0, r7
80009f98:	e3e04000 	mvn	r4, #0
80009f9c:	eb000538 	bl	8000b484 <iunlockput>
80009fa0:	ea00001a 	b	8000a010 <sys_open+0x118>
80009fa4:	eb0019c9 	bl	800106d0 <begin_trans>
80009fa8:	e59d0000 	ldr	r0, [sp]
80009fac:	e3a03000 	mov	r3, #0
80009fb0:	e1a02003 	mov	r2, r3
80009fb4:	e3a01002 	mov	r1, #2
80009fb8:	ebfffe27 	bl	8000985c <create>
80009fbc:	e1a07000 	mov	r7, r0
80009fc0:	eb0019d8 	bl	80010728 <commit_trans>
80009fc4:	e3570000 	cmp	r7, #0
80009fc8:	1affffe1 	bne	80009f54 <sys_open+0x5c>
80009fcc:	e3e04000 	mvn	r4, #0
80009fd0:	ea00000e 	b	8000a010 <sys_open+0x118>
80009fd4:	e284300a 	add	r3, r4, #10
80009fd8:	e1a00007 	mov	r0, r7
80009fdc:	e7826103 	str	r6, [r2, r3, lsl #2]
80009fe0:	eb0004bb 	bl	8000b2d4 <iunlock>
80009fe4:	e59d3004 	ldr	r3, [sp, #4]
80009fe8:	e3a01002 	mov	r1, #2
80009fec:	e5867010 	str	r7, [r6, #16]
80009ff0:	e1e02003 	mvn	r2, r3
80009ff4:	e2133003 	ands	r3, r3, #3
80009ff8:	e5865014 	str	r5, [r6, #20]
80009ffc:	e2022001 	and	r2, r2, #1
8000a000:	e5c62008 	strb	r2, [r6, #8]
8000a004:	13a03001 	movne	r3, #1
8000a008:	e5c63009 	strb	r3, [r6, #9]
8000a00c:	e5861000 	str	r1, [r6]
8000a010:	e1a00004 	mov	r0, r4
8000a014:	e28dd00c 	add	sp, sp, #12
8000a018:	e8bd80f0 	pop	{r4, r5, r6, r7, pc}
8000a01c:	e59d3004 	ldr	r3, [sp, #4]
8000a020:	e3530000 	cmp	r3, #0
8000a024:	0affffca 	beq	80009f54 <sys_open+0x5c>
8000a028:	eaffffd9 	b	80009f94 <sys_open+0x9c>

8000a02c <sys_mkdir>:
8000a02c:	e52de004 	push	{lr}		; (str lr, [sp, #-4]!)
8000a030:	e24dd00c 	sub	sp, sp, #12
8000a034:	eb0019a5 	bl	800106d0 <begin_trans>
8000a038:	e28d1004 	add	r1, sp, #4
8000a03c:	e3a00000 	mov	r0, #0
8000a040:	eb001b9d 	bl	80010ebc <argstr>
8000a044:	e3500000 	cmp	r0, #0
8000a048:	ba00000b 	blt	8000a07c <sys_mkdir+0x50>
8000a04c:	e59d0004 	ldr	r0, [sp, #4]
8000a050:	e3a03000 	mov	r3, #0
8000a054:	e1a02003 	mov	r2, r3
8000a058:	e3a01001 	mov	r1, #1
8000a05c:	ebfffdfe 	bl	8000985c <create>
8000a060:	e3500000 	cmp	r0, #0
8000a064:	0a000004 	beq	8000a07c <sys_mkdir+0x50>
8000a068:	eb000505 	bl	8000b484 <iunlockput>
8000a06c:	eb0019ad 	bl	80010728 <commit_trans>
8000a070:	e3a00000 	mov	r0, #0
8000a074:	e28dd00c 	add	sp, sp, #12
8000a078:	e49df004 	pop	{pc}		; (ldr pc, [sp], #4)
8000a07c:	eb0019a9 	bl	80010728 <commit_trans>
8000a080:	e3e00000 	mvn	r0, #0
8000a084:	eafffffa 	b	8000a074 <sys_mkdir+0x48>

8000a088 <sys_mknod>:
8000a088:	e52de004 	push	{lr}		; (str lr, [sp, #-4]!)
8000a08c:	e24dd014 	sub	sp, sp, #20
8000a090:	eb00198e 	bl	800106d0 <begin_trans>
8000a094:	e28d1004 	add	r1, sp, #4
8000a098:	e3a00000 	mov	r0, #0
8000a09c:	eb001b86 	bl	80010ebc <argstr>
8000a0a0:	e3500000 	cmp	r0, #0
8000a0a4:	ba000015 	blt	8000a100 <sys_mknod+0x78>
8000a0a8:	e28d1008 	add	r1, sp, #8
8000a0ac:	e3a00001 	mov	r0, #1
8000a0b0:	eb001b57 	bl	80010e14 <argint>
8000a0b4:	e3500000 	cmp	r0, #0
8000a0b8:	ba000010 	blt	8000a100 <sys_mknod+0x78>
8000a0bc:	e28d100c 	add	r1, sp, #12
8000a0c0:	e3a00002 	mov	r0, #2
8000a0c4:	eb001b52 	bl	80010e14 <argint>
8000a0c8:	e3500000 	cmp	r0, #0
8000a0cc:	ba00000b 	blt	8000a100 <sys_mknod+0x78>
8000a0d0:	e1dd30fc 	ldrsh	r3, [sp, #12]
8000a0d4:	e3a01003 	mov	r1, #3
8000a0d8:	e1dd20f8 	ldrsh	r2, [sp, #8]
8000a0dc:	e59d0004 	ldr	r0, [sp, #4]
8000a0e0:	ebfffddd 	bl	8000985c <create>
8000a0e4:	e3500000 	cmp	r0, #0
8000a0e8:	0a000004 	beq	8000a100 <sys_mknod+0x78>
8000a0ec:	eb0004e4 	bl	8000b484 <iunlockput>
8000a0f0:	eb00198c 	bl	80010728 <commit_trans>
8000a0f4:	e3a00000 	mov	r0, #0
8000a0f8:	e28dd014 	add	sp, sp, #20
8000a0fc:	e49df004 	pop	{pc}		; (ldr pc, [sp], #4)
8000a100:	eb001988 	bl	80010728 <commit_trans>
8000a104:	e3e00000 	mvn	r0, #0
8000a108:	e28dd014 	add	sp, sp, #20
8000a10c:	e49df004 	pop	{pc}		; (ldr pc, [sp], #4)

8000a110 <sys_chdir>:
8000a110:	e92d4030 	push	{r4, r5, lr}
8000a114:	e24dd00c 	sub	sp, sp, #12
8000a118:	e28d1004 	add	r1, sp, #4
8000a11c:	e3a00000 	mov	r0, #0
8000a120:	eb001b65 	bl	80010ebc <argstr>
8000a124:	e3500000 	cmp	r0, #0
8000a128:	ba000015 	blt	8000a184 <sys_chdir+0x74>
8000a12c:	e59d0004 	ldr	r0, [sp, #4]
8000a130:	eb00063d 	bl	8000ba2c <namei>
8000a134:	e2505000 	subs	r5, r0, #0
8000a138:	0a000011 	beq	8000a184 <sys_chdir+0x74>
8000a13c:	eb000422 	bl	8000b1cc <ilock>
8000a140:	e1d531f0 	ldrsh	r3, [r5, #16]
8000a144:	e3530001 	cmp	r3, #1
8000a148:	1a00000b 	bne	8000a17c <sys_chdir+0x6c>
8000a14c:	e30a4af4 	movw	r4, #43764	; 0xaaf4
8000a150:	e1a00005 	mov	r0, r5
8000a154:	e3484009 	movt	r4, #32777	; 0x8009
8000a158:	eb00045d 	bl	8000b2d4 <iunlock>
8000a15c:	e5943018 	ldr	r3, [r4, #24]
8000a160:	e5930068 	ldr	r0, [r3, #104]	; 0x68
8000a164:	eb000472 	bl	8000b334 <iput>
8000a168:	e5943018 	ldr	r3, [r4, #24]
8000a16c:	e3a00000 	mov	r0, #0
8000a170:	e5835068 	str	r5, [r3, #104]	; 0x68
8000a174:	e28dd00c 	add	sp, sp, #12
8000a178:	e8bd8030 	pop	{r4, r5, pc}
8000a17c:	e1a00005 	mov	r0, r5
8000a180:	eb0004bf 	bl	8000b484 <iunlockput>
8000a184:	e3e00000 	mvn	r0, #0
8000a188:	e28dd00c 	add	sp, sp, #12
8000a18c:	e8bd8030 	pop	{r4, r5, pc}

8000a190 <sys_exec>:
8000a190:	e92d4030 	push	{r4, r5, lr}
8000a194:	e24dd094 	sub	sp, sp, #148	; 0x94
8000a198:	e28d1004 	add	r1, sp, #4
8000a19c:	e3a00000 	mov	r0, #0
8000a1a0:	eb001b45 	bl	80010ebc <argstr>
8000a1a4:	e3500000 	cmp	r0, #0
8000a1a8:	ba00001c 	blt	8000a220 <sys_exec+0x90>
8000a1ac:	e28d1008 	add	r1, sp, #8
8000a1b0:	e3a00001 	mov	r0, #1
8000a1b4:	eb001b16 	bl	80010e14 <argint>
8000a1b8:	e3500000 	cmp	r0, #0
8000a1bc:	ba000017 	blt	8000a220 <sys_exec+0x90>
8000a1c0:	e3a04000 	mov	r4, #0
8000a1c4:	e28d0010 	add	r0, sp, #16
8000a1c8:	e3a02080 	mov	r2, #128	; 0x80
8000a1cc:	e1a01004 	mov	r1, r4
8000a1d0:	e1a05004 	mov	r5, r4
8000a1d4:	eb00213f 	bl	800126d8 <memset>
8000a1d8:	e59d0008 	ldr	r0, [sp, #8]
8000a1dc:	e28d100c 	add	r1, sp, #12
8000a1e0:	e0840000 	add	r0, r4, r0
8000a1e4:	eb001ae1 	bl	80010d70 <fetchint>
8000a1e8:	e3500000 	cmp	r0, #0
8000a1ec:	e28d3010 	add	r3, sp, #16
8000a1f0:	e0831004 	add	r1, r3, r4
8000a1f4:	e2844004 	add	r4, r4, #4
8000a1f8:	ba000008 	blt	8000a220 <sys_exec+0x90>
8000a1fc:	e59d300c 	ldr	r3, [sp, #12]
8000a200:	e2530000 	subs	r0, r3, #0
8000a204:	0a000008 	beq	8000a22c <sys_exec+0x9c>
8000a208:	e2855001 	add	r5, r5, #1
8000a20c:	eb001ae6 	bl	80010dac <fetchstr>
8000a210:	e3500000 	cmp	r0, #0
8000a214:	ba000001 	blt	8000a220 <sys_exec+0x90>
8000a218:	e3550020 	cmp	r5, #32
8000a21c:	1affffed 	bne	8000a1d8 <sys_exec+0x48>
8000a220:	e3e00000 	mvn	r0, #0
8000a224:	e28dd094 	add	sp, sp, #148	; 0x94
8000a228:	e8bd8030 	pop	{r4, r5, pc}
8000a22c:	e59d0004 	ldr	r0, [sp, #4]
8000a230:	e28d2090 	add	r2, sp, #144	; 0x90
8000a234:	e0825105 	add	r5, r2, r5, lsl #2
8000a238:	e28d1010 	add	r1, sp, #16
8000a23c:	e5053080 	str	r3, [r5, #-128]	; 0xffffff80
8000a240:	ebfff8f2 	bl	80008610 <exec>
8000a244:	e28dd094 	add	sp, sp, #148	; 0x94
8000a248:	e8bd8030 	pop	{r4, r5, pc}

8000a24c <sys_pipe>:
8000a24c:	e92d4030 	push	{r4, r5, lr}
8000a250:	e24dd014 	sub	sp, sp, #20
8000a254:	e3a02008 	mov	r2, #8
8000a258:	e28d1004 	add	r1, sp, #4
8000a25c:	e3a00000 	mov	r0, #0
8000a260:	eb001afd 	bl	80010e5c <argptr>
8000a264:	e3500000 	cmp	r0, #0
8000a268:	ba000015 	blt	8000a2c4 <sys_pipe+0x78>
8000a26c:	e28d100c 	add	r1, sp, #12
8000a270:	e28d0008 	add	r0, sp, #8
8000a274:	eb0021b9 	bl	80012960 <pipealloc>
8000a278:	e3500000 	cmp	r0, #0
8000a27c:	ba000010 	blt	8000a2c4 <sys_pipe+0x78>
8000a280:	e59d4008 	ldr	r4, [sp, #8]
8000a284:	e30a3af4 	movw	r3, #43764	; 0xaaf4
8000a288:	e3483009 	movt	r3, #32777	; 0x8009
8000a28c:	e3a02000 	mov	r2, #0
8000a290:	e593e018 	ldr	lr, [r3, #24]
8000a294:	e28e1024 	add	r1, lr, #36	; 0x24
8000a298:	e1a0c001 	mov	ip, r1
8000a29c:	e5bc3004 	ldr	r3, [ip, #4]!
8000a2a0:	e3530000 	cmp	r3, #0
8000a2a4:	0a000008 	beq	8000a2cc <sys_pipe+0x80>
8000a2a8:	e2822001 	add	r2, r2, #1
8000a2ac:	e3520010 	cmp	r2, #16
8000a2b0:	1afffff9 	bne	8000a29c <sys_pipe+0x50>
8000a2b4:	e1a00004 	mov	r0, r4
8000a2b8:	eb001e37 	bl	80011b9c <fileclose>
8000a2bc:	e59d000c 	ldr	r0, [sp, #12]
8000a2c0:	eb001e35 	bl	80011b9c <fileclose>
8000a2c4:	e3e00000 	mvn	r0, #0
8000a2c8:	ea00000f 	b	8000a30c <sys_pipe+0xc0>
8000a2cc:	e08ec102 	add	ip, lr, r2, lsl #2
8000a2d0:	e59d500c 	ldr	r5, [sp, #12]
8000a2d4:	e58c4028 	str	r4, [ip, #40]	; 0x28
8000a2d8:	e5b10004 	ldr	r0, [r1, #4]!
8000a2dc:	e3500000 	cmp	r0, #0
8000a2e0:	0a000005 	beq	8000a2fc <sys_pipe+0xb0>
8000a2e4:	e2833001 	add	r3, r3, #1
8000a2e8:	e3530010 	cmp	r3, #16
8000a2ec:	1afffff9 	bne	8000a2d8 <sys_pipe+0x8c>
8000a2f0:	e3a03000 	mov	r3, #0
8000a2f4:	e58c3028 	str	r3, [ip, #40]	; 0x28
8000a2f8:	eaffffed 	b	8000a2b4 <sys_pipe+0x68>
8000a2fc:	e59d1004 	ldr	r1, [sp, #4]
8000a300:	e283c00a 	add	ip, r3, #10
8000a304:	e78e510c 	str	r5, [lr, ip, lsl #2]
8000a308:	e881000c 	stm	r1, {r2, r3}
8000a30c:	e28dd014 	add	sp, sp, #20
8000a310:	e8bd8030 	pop	{r4, r5, pc}

8000a314 <USBEndpoint>:
8000a314:	e5801000 	str	r1, [r0]
8000a318:	e3a03008 	mov	r3, #8
8000a31c:	e5803010 	str	r3, [r0, #16]
8000a320:	e3a02001 	mov	r2, #1
8000a324:	e5802014 	str	r2, [r0, #20]
8000a328:	e3a03000 	mov	r3, #0
8000a32c:	e5c03004 	strb	r3, [r0, #4]
8000a330:	e5803008 	str	r3, [r0, #8]
8000a334:	e580300c 	str	r3, [r0, #12]
8000a338:	e5803018 	str	r3, [r0, #24]
8000a33c:	e12fff1e 	bx	lr

8000a340 <USBEndpoint2>:
8000a340:	e92d4070 	push	{r4, r5, r6, lr}
8000a344:	e3a05001 	mov	r5, #1
8000a348:	e5801000 	str	r1, [r0]
8000a34c:	e5805014 	str	r5, [r0, #20]
8000a350:	e5d23003 	ldrb	r3, [r2, #3]
8000a354:	e2033003 	and	r3, r3, #3
8000a358:	e3530002 	cmp	r3, #2
8000a35c:	0a000017 	beq	8000a3c0 <USBEndpoint2+0x80>
8000a360:	e3530003 	cmp	r3, #3
8000a364:	1a000014 	bne	8000a3bc <USBEndpoint2+0x7c>
8000a368:	e5805018 	str	r5, [r0, #24]
8000a36c:	e3a03002 	mov	r3, #2
8000a370:	e5803008 	str	r3, [r0, #8]
8000a374:	e1a04000 	mov	r4, r0
8000a378:	e5d23002 	ldrb	r3, [r2, #2]
8000a37c:	e203000f 	and	r0, r3, #15
8000a380:	e1a033a3 	lsr	r3, r3, #7
8000a384:	e5c40004 	strb	r0, [r4, #4]
8000a388:	e1a00001 	mov	r0, r1
8000a38c:	e584300c 	str	r3, [r4, #12]
8000a390:	e1d230b4 	ldrh	r3, [r2, #4]
8000a394:	e5843010 	str	r3, [r4, #16]
8000a398:	e5d26006 	ldrb	r6, [r2, #6]
8000a39c:	e3560000 	cmp	r6, #0
8000a3a0:	0a000010 	beq	8000a3e8 <USBEndpoint2+0xa8>
8000a3a4:	eb00180e 	bl	800103e4 <USBDeviceGetSpeed>
8000a3a8:	e3500002 	cmp	r0, #2
8000a3ac:	0a000013 	beq	8000a400 <USBEndpoint2+0xc0>
8000a3b0:	e1a05006 	mov	r5, r6
8000a3b4:	e5845014 	str	r5, [r4, #20]
8000a3b8:	e8bd8070 	pop	{r4, r5, r6, pc}
8000a3bc:	e8bd8070 	pop	{r4, r5, r6, pc}
8000a3c0:	e5805008 	str	r5, [r0, #8]
8000a3c4:	e5805018 	str	r5, [r0, #24]
8000a3c8:	e5d23002 	ldrb	r3, [r2, #2]
8000a3cc:	e203100f 	and	r1, r3, #15
8000a3d0:	e1a033a3 	lsr	r3, r3, #7
8000a3d4:	e5c01004 	strb	r1, [r0, #4]
8000a3d8:	e580300c 	str	r3, [r0, #12]
8000a3dc:	e1d230b4 	ldrh	r3, [r2, #4]
8000a3e0:	e5803010 	str	r3, [r0, #16]
8000a3e4:	e8bd8070 	pop	{r4, r5, r6, pc}
8000a3e8:	eb0017fd 	bl	800103e4 <USBDeviceGetSpeed>
8000a3ec:	e3500002 	cmp	r0, #2
8000a3f0:	1affffef 	bne	8000a3b4 <USBEndpoint2+0x74>
8000a3f4:	e3a03001 	mov	r3, #1
8000a3f8:	e5843014 	str	r3, [r4, #20]
8000a3fc:	e8bd8070 	pop	{r4, r5, r6, pc}
8000a400:	e3560010 	cmp	r6, #16
8000a404:	9a000002 	bls	8000a414 <USBEndpoint2+0xd4>
8000a408:	e3a03a01 	mov	r3, #4096	; 0x1000
8000a40c:	e5843014 	str	r3, [r4, #20]
8000a410:	e8bd8070 	pop	{r4, r5, r6, pc}
8000a414:	e2463001 	sub	r3, r6, #1
8000a418:	e1a03315 	lsl	r3, r5, r3
8000a41c:	e1a031a3 	lsr	r3, r3, #3
8000a420:	e5843014 	str	r3, [r4, #20]
8000a424:	e3530000 	cmp	r3, #0
8000a428:	0afffff1 	beq	8000a3f4 <USBEndpoint2+0xb4>
8000a42c:	e8bd8070 	pop	{r4, r5, r6, pc}

8000a430 <USBEndpointCopy>:
8000a430:	e5802000 	str	r2, [r0]
8000a434:	e5d13004 	ldrb	r3, [r1, #4]
8000a438:	e92d4010 	push	{r4, lr}
8000a43c:	e5c03004 	strb	r3, [r0, #4]
8000a440:	e5914008 	ldr	r4, [r1, #8]
8000a444:	e591e00c 	ldr	lr, [r1, #12]
8000a448:	e591c010 	ldr	ip, [r1, #16]
8000a44c:	e5912014 	ldr	r2, [r1, #20]
8000a450:	e5913018 	ldr	r3, [r1, #24]
8000a454:	e5804008 	str	r4, [r0, #8]
8000a458:	e580e00c 	str	lr, [r0, #12]
8000a45c:	e580c010 	str	ip, [r0, #16]
8000a460:	e5802014 	str	r2, [r0, #20]
8000a464:	e5803018 	str	r3, [r0, #24]
8000a468:	e8bd8010 	pop	{r4, pc}

8000a46c <_USBEndpoint>:
8000a46c:	e3a03000 	mov	r3, #0
8000a470:	e5803000 	str	r3, [r0]
8000a474:	e12fff1e 	bx	lr

8000a478 <USBEndpointGetDevice>:
8000a478:	e5900000 	ldr	r0, [r0]
8000a47c:	e12fff1e 	bx	lr

8000a480 <USBEndpointGetNumber>:
8000a480:	e5d00004 	ldrb	r0, [r0, #4]
8000a484:	e12fff1e 	bx	lr

8000a488 <USBEndpointGetType>:
8000a488:	e5900008 	ldr	r0, [r0, #8]
8000a48c:	e12fff1e 	bx	lr

8000a490 <USBEndpointIsDirectionIn>:
8000a490:	e590000c 	ldr	r0, [r0, #12]
8000a494:	e12fff1e 	bx	lr

8000a498 <USBEndpointSetMaxPacketSize>:
8000a498:	e5801010 	str	r1, [r0, #16]
8000a49c:	e12fff1e 	bx	lr

8000a4a0 <USBEndpointGetMaxPacketSize>:
8000a4a0:	e5900010 	ldr	r0, [r0, #16]
8000a4a4:	e12fff1e 	bx	lr

8000a4a8 <USBEndpointGetInterval>:
8000a4a8:	e5900014 	ldr	r0, [r0, #20]
8000a4ac:	e12fff1e 	bx	lr

8000a4b0 <USBEndpointGetNextPID>:
8000a4b0:	e3510000 	cmp	r1, #0
8000a4b4:	05900018 	ldreq	r0, [r0, #24]
8000a4b8:	13a00002 	movne	r0, #2
8000a4bc:	e12fff1e 	bx	lr

8000a4c0 <USBEndpointSkipPID>:
8000a4c0:	e3520000 	cmp	r2, #0
8000a4c4:	1a000009 	bne	8000a4f0 <USBEndpointSkipPID+0x30>
8000a4c8:	e5903018 	ldr	r3, [r0, #24]
8000a4cc:	e3530001 	cmp	r3, #1
8000a4d0:	0a00000a 	beq	8000a500 <USBEndpointSkipPID+0x40>
8000a4d4:	3a00000b 	bcc	8000a508 <USBEndpointSkipPID+0x48>
8000a4d8:	e3530002 	cmp	r3, #2
8000a4dc:	1a000006 	bne	8000a4fc <USBEndpointSkipPID+0x3c>
8000a4e0:	e3110001 	tst	r1, #1
8000a4e4:	13a03001 	movne	r3, #1
8000a4e8:	15803018 	strne	r3, [r0, #24]
8000a4ec:	e12fff1e 	bx	lr
8000a4f0:	e3a03000 	mov	r3, #0
8000a4f4:	e5803018 	str	r3, [r0, #24]
8000a4f8:	e12fff1e 	bx	lr
8000a4fc:	e12fff1e 	bx	lr
8000a500:	e3110001 	tst	r1, #1
8000a504:	012fff1e 	bxeq	lr
8000a508:	e3a03002 	mov	r3, #2
8000a50c:	e5803018 	str	r3, [r0, #24]
8000a510:	e12fff1e 	bx	lr

8000a514 <USBEndpointResetPID>:
8000a514:	e3a03001 	mov	r3, #1
8000a518:	e5803018 	str	r3, [r0, #24]
8000a51c:	e12fff1e 	bx	lr

8000a520 <binit>:
8000a520:	e30a0c24 	movw	r0, #44068	; 0xac24
8000a524:	e301273c 	movw	r2, #5948	; 0x173c
8000a528:	e92d4010 	push	{r4, lr}
8000a52c:	e3a01000 	mov	r1, #0
8000a530:	e3480009 	movt	r0, #32777	; 0x8009
8000a534:	e3e04000 	mvn	r4, #0
8000a538:	eb002066 	bl	800126d8 <memset>
8000a53c:	e3071c1c 	movw	r1, #31772	; 0x7c1c
8000a540:	e30a0c24 	movw	r0, #44068	; 0xac24
8000a544:	e3481001 	movt	r1, #32769	; 0x8001
8000a548:	e3480009 	movt	r0, #32777	; 0x8009
8000a54c:	eb0007ea 	bl	8000c4fc <initlock>
8000a550:	e59f2044 	ldr	r2, [pc, #68]	; 8000a59c <binit+0x7c>
8000a554:	e59f1044 	ldr	r1, [pc, #68]	; 8000a5a0 <binit+0x80>
8000a558:	e59f3044 	ldr	r3, [pc, #68]	; 8000a5a4 <binit+0x84>
8000a55c:	e1a00002 	mov	r0, r2
8000a560:	e5812530 	str	r2, [r1, #1328]	; 0x530
8000a564:	e1a0c002 	mov	ip, r2
8000a568:	e5812534 	str	r2, [r1, #1332]	; 0x534
8000a56c:	e583c010 	str	ip, [r3, #16]
8000a570:	e2832f86 	add	r2, r3, #536	; 0x218
8000a574:	e583000c 	str	r0, [r3, #12]
8000a578:	e1a0c003 	mov	ip, r3
8000a57c:	e591e534 	ldr	lr, [r1, #1332]	; 0x534
8000a580:	e1520000 	cmp	r2, r0
8000a584:	e5834004 	str	r4, [r3, #4]
8000a588:	e58e300c 	str	r3, [lr, #12]
8000a58c:	e5813534 	str	r3, [r1, #1332]	; 0x534
8000a590:	e1a03002 	mov	r3, r2
8000a594:	3afffff4 	bcc	8000a56c <binit+0x4c>
8000a598:	e8bd8010 	pop	{r4, pc}
8000a59c:	8009c148 	.word	0x8009c148
8000a5a0:	8009bc24 	.word	0x8009bc24
8000a5a4:	8009ac58 	.word	0x8009ac58

8000a5a8 <bread>:
8000a5a8:	e92d47f0 	push	{r4, r5, r6, r7, r8, r9, sl, lr}
8000a5ac:	e1a06000 	mov	r6, r0
8000a5b0:	e59f80e8 	ldr	r8, [pc, #232]	; 8000a6a0 <bread+0xf8>
8000a5b4:	e30a0c24 	movw	r0, #44068	; 0xac24
8000a5b8:	e3480009 	movt	r0, #32777	; 0x8009
8000a5bc:	e1a07001 	mov	r7, r1
8000a5c0:	e59f50dc 	ldr	r5, [pc, #220]	; 8000a6a4 <bread+0xfc>
8000a5c4:	e2489a01 	sub	r9, r8, #4096	; 0x1000
8000a5c8:	eb0007e9 	bl	8000c574 <acquire>
8000a5cc:	e5984534 	ldr	r4, [r8, #1332]	; 0x534
8000a5d0:	e1540005 	cmp	r4, r5
8000a5d4:	1a000003 	bne	8000a5e8 <bread+0x40>
8000a5d8:	ea00000f 	b	8000a61c <bread+0x74>
8000a5dc:	e5944010 	ldr	r4, [r4, #16]
8000a5e0:	e1540005 	cmp	r4, r5
8000a5e4:	0a00000c 	beq	8000a61c <bread+0x74>
8000a5e8:	e5943004 	ldr	r3, [r4, #4]
8000a5ec:	e1560003 	cmp	r6, r3
8000a5f0:	1afffff9 	bne	8000a5dc <bread+0x34>
8000a5f4:	e5943008 	ldr	r3, [r4, #8]
8000a5f8:	e1570003 	cmp	r7, r3
8000a5fc:	1afffff6 	bne	8000a5dc <bread+0x34>
8000a600:	e5943000 	ldr	r3, [r4]
8000a604:	e3130001 	tst	r3, #1
8000a608:	0a00001b 	beq	8000a67c <bread+0xd4>
8000a60c:	e1a00004 	mov	r0, r4
8000a610:	e1a01009 	mov	r1, r9
8000a614:	eb002f06 	bl	80016234 <sleep>
8000a618:	eaffffeb 	b	8000a5cc <bread+0x24>
8000a61c:	e5984530 	ldr	r4, [r8, #1328]	; 0x530
8000a620:	e1540005 	cmp	r4, r5
8000a624:	1a000003 	bne	8000a638 <bread+0x90>
8000a628:	ea000019 	b	8000a694 <bread+0xec>
8000a62c:	e594400c 	ldr	r4, [r4, #12]
8000a630:	e1540005 	cmp	r4, r5
8000a634:	0a000016 	beq	8000a694 <bread+0xec>
8000a638:	e5943000 	ldr	r3, [r4]
8000a63c:	e3130005 	tst	r3, #5
8000a640:	1afffff9 	bne	8000a62c <bread+0x84>
8000a644:	e5846004 	str	r6, [r4, #4]
8000a648:	e3a03001 	mov	r3, #1
8000a64c:	e5847008 	str	r7, [r4, #8]
8000a650:	e30a0c24 	movw	r0, #44068	; 0xac24
8000a654:	e5843000 	str	r3, [r4]
8000a658:	e3480009 	movt	r0, #32777	; 0x8009
8000a65c:	eb0007fa 	bl	8000c64c <release>
8000a660:	e5943000 	ldr	r3, [r4]
8000a664:	e3130002 	tst	r3, #2
8000a668:	1a000001 	bne	8000a674 <bread+0xcc>
8000a66c:	e1a00004 	mov	r0, r4
8000a670:	eb001356 	bl	8000f3d0 <iderw>
8000a674:	e1a00004 	mov	r0, r4
8000a678:	e8bd87f0 	pop	{r4, r5, r6, r7, r8, r9, sl, pc}
8000a67c:	e3833001 	orr	r3, r3, #1
8000a680:	e30a0c24 	movw	r0, #44068	; 0xac24
8000a684:	e5843000 	str	r3, [r4]
8000a688:	e3480009 	movt	r0, #32777	; 0x8009
8000a68c:	eb0007ee 	bl	8000c64c <release>
8000a690:	eafffff2 	b	8000a660 <bread+0xb8>
8000a694:	e3070c24 	movw	r0, #31780	; 0x7c24
8000a698:	e3480001 	movt	r0, #32769	; 0x8001
8000a69c:	eb000658 	bl	8000c004 <panic>
8000a6a0:	8009bc24 	.word	0x8009bc24
8000a6a4:	8009c148 	.word	0x8009c148

8000a6a8 <bwrite>:
8000a6a8:	e5903000 	ldr	r3, [r0]
8000a6ac:	e3130001 	tst	r3, #1
8000a6b0:	0a000002 	beq	8000a6c0 <bwrite+0x18>
8000a6b4:	e3833004 	orr	r3, r3, #4
8000a6b8:	e5803000 	str	r3, [r0]
8000a6bc:	ea001343 	b	8000f3d0 <iderw>
8000a6c0:	e3070c38 	movw	r0, #31800	; 0x7c38
8000a6c4:	e92d4010 	push	{r4, lr}
8000a6c8:	e3480001 	movt	r0, #32769	; 0x8001
8000a6cc:	eb00064c 	bl	8000c004 <panic>

8000a6d0 <brelse>:
8000a6d0:	e5903000 	ldr	r3, [r0]
8000a6d4:	e92d4070 	push	{r4, r5, r6, lr}
8000a6d8:	e3130001 	tst	r3, #1
8000a6dc:	0a000018 	beq	8000a744 <brelse+0x74>
8000a6e0:	e59f5068 	ldr	r5, [pc, #104]	; 8000a750 <brelse+0x80>
8000a6e4:	e1a04000 	mov	r4, r0
8000a6e8:	e30a0c24 	movw	r0, #44068	; 0xac24
8000a6ec:	e3480009 	movt	r0, #32777	; 0x8009
8000a6f0:	eb00079f 	bl	8000c574 <acquire>
8000a6f4:	e5942010 	ldr	r2, [r4, #16]
8000a6f8:	e1a00004 	mov	r0, r4
8000a6fc:	e594100c 	ldr	r1, [r4, #12]
8000a700:	e5943000 	ldr	r3, [r4]
8000a704:	e582100c 	str	r1, [r2, #12]
8000a708:	e594c00c 	ldr	ip, [r4, #12]
8000a70c:	e59f1040 	ldr	r1, [pc, #64]	; 8000a754 <brelse+0x84>
8000a710:	e58c2010 	str	r2, [ip, #16]
8000a714:	e5952534 	ldr	r2, [r5, #1332]	; 0x534
8000a718:	e3c33001 	bic	r3, r3, #1
8000a71c:	e5842010 	str	r2, [r4, #16]
8000a720:	e5952534 	ldr	r2, [r5, #1332]	; 0x534
8000a724:	e584100c 	str	r1, [r4, #12]
8000a728:	e582400c 	str	r4, [r2, #12]
8000a72c:	e5854534 	str	r4, [r5, #1332]	; 0x534
8000a730:	e5843000 	str	r3, [r4]
8000a734:	eb002f22 	bl	800163c4 <wakeup>
8000a738:	e2450a01 	sub	r0, r5, #4096	; 0x1000
8000a73c:	e8bd4070 	pop	{r4, r5, r6, lr}
8000a740:	ea0007c1 	b	8000c64c <release>
8000a744:	e3070c40 	movw	r0, #31808	; 0x7c40
8000a748:	e3480001 	movt	r0, #32769	; 0x8001
8000a74c:	eb00062c 	bl	8000c004 <panic>
8000a750:	8009bc24 	.word	0x8009bc24
8000a754:	8009c148 	.word	0x8009c148

8000a758 <USBMIDIDeviceStartRequest>:
8000a758:	e92d4030 	push	{r4, r5, lr}
8000a75c:	e1a04000 	mov	r4, r0
8000a760:	e24dd00c 	sub	sp, sp, #12
8000a764:	e3a00024 	mov	r0, #36	; 0x24
8000a768:	e3a05000 	mov	r5, #0
8000a76c:	eb001eb9 	bl	80012258 <malloc>
8000a770:	e5840044 	str	r0, [r4, #68]	; 0x44
8000a774:	e1d434b8 	ldrh	r3, [r4, #72]	; 0x48
8000a778:	e594204c 	ldr	r2, [r4, #76]	; 0x4c
8000a77c:	e594103c 	ldr	r1, [r4, #60]	; 0x3c
8000a780:	e58d5000 	str	r5, [sp]
8000a784:	eb00213a 	bl	80012c74 <USBRequest>
8000a788:	e5940044 	ldr	r0, [r4, #68]	; 0x44
8000a78c:	e30a1994 	movw	r1, #43412	; 0xa994
8000a790:	e3481000 	movt	r1, #32768	; 0x8000
8000a794:	e1a03004 	mov	r3, r4
8000a798:	e1a02005 	mov	r2, r5
8000a79c:	eb002156 	bl	80012cfc <USBRequestSetCompletionRoutine>
8000a7a0:	e1a00004 	mov	r0, r4
8000a7a4:	eb001716 	bl	80010404 <USBDeviceGetHost>
8000a7a8:	e5941044 	ldr	r1, [r4, #68]	; 0x44
8000a7ac:	e28dd00c 	add	sp, sp, #12
8000a7b0:	e8bd4030 	pop	{r4, r5, lr}
8000a7b4:	ea002991 	b	80014e00 <DWHCIDeviceSubmitAsyncRequest>

8000a7b8 <USBMIDIDeviceConfigure>:
8000a7b8:	e92d4070 	push	{r4, r5, r6, lr}
8000a7bc:	e3a01002 	mov	r1, #2
8000a7c0:	e24dd010 	sub	sp, sp, #16
8000a7c4:	e1a05000 	mov	r5, r0
8000a7c8:	eb001713 	bl	8001041c <USBDeviceGetDescriptor>
8000a7cc:	e3500000 	cmp	r0, #0
8000a7d0:	0a000062 	beq	8000a960 <USBMIDIDeviceConfigure+0x1a8>
8000a7d4:	e5d03004 	ldrb	r3, [r0, #4]
8000a7d8:	e3530000 	cmp	r3, #0
8000a7dc:	0a00005f 	beq	8000a960 <USBMIDIDeviceConfigure+0x1a8>
8000a7e0:	e3a01004 	mov	r1, #4
8000a7e4:	e1a00005 	mov	r0, r5
8000a7e8:	eb00170b 	bl	8001041c <USBDeviceGetDescriptor>
8000a7ec:	e2504000 	subs	r4, r0, #0
8000a7f0:	0a00002e 	beq	8000a8b0 <USBMIDIDeviceConfigure+0xf8>
8000a7f4:	e5d43004 	ldrb	r3, [r4, #4]
8000a7f8:	e3530000 	cmp	r3, #0
8000a7fc:	0afffff7 	beq	8000a7e0 <USBMIDIDeviceConfigure+0x28>
8000a800:	e5d43005 	ldrb	r3, [r4, #5]
8000a804:	e3530001 	cmp	r3, #1
8000a808:	1afffff4 	bne	8000a7e0 <USBMIDIDeviceConfigure+0x28>
8000a80c:	e5d43006 	ldrb	r3, [r4, #6]
8000a810:	e3530003 	cmp	r3, #3
8000a814:	1afffff1 	bne	8000a7e0 <USBMIDIDeviceConfigure+0x28>
8000a818:	e5d43007 	ldrb	r3, [r4, #7]
8000a81c:	e3530000 	cmp	r3, #0
8000a820:	1affffee 	bne	8000a7e0 <USBMIDIDeviceConfigure+0x28>
8000a824:	e3a01005 	mov	r1, #5
8000a828:	e1a00005 	mov	r0, r5
8000a82c:	eb0016fa 	bl	8001041c <USBDeviceGetDescriptor>
8000a830:	e2504000 	subs	r4, r0, #0
8000a834:	0affffe9 	beq	8000a7e0 <USBMIDIDeviceConfigure+0x28>
8000a838:	e1d430d2 	ldrsb	r3, [r4, #2]
8000a83c:	e3530000 	cmp	r3, #0
8000a840:	aafffff7 	bge	8000a824 <USBMIDIDeviceConfigure+0x6c>
8000a844:	e5d43003 	ldrb	r3, [r4, #3]
8000a848:	e203303f 	and	r3, r3, #63	; 0x3f
8000a84c:	e3530002 	cmp	r3, #2
8000a850:	1afffff3 	bne	8000a824 <USBMIDIDeviceConfigure+0x6c>
8000a854:	e3a01025 	mov	r1, #37	; 0x25
8000a858:	e1a00005 	mov	r0, r5
8000a85c:	eb0016ee 	bl	8001041c <USBDeviceGetDescriptor>
8000a860:	e3500000 	cmp	r0, #0
8000a864:	0affffee 	beq	8000a824 <USBMIDIDeviceConfigure+0x6c>
8000a868:	e5d43000 	ldrb	r3, [r4]
8000a86c:	e0843003 	add	r3, r4, r3
8000a870:	e1500003 	cmp	r0, r3
8000a874:	1affffea 	bne	8000a824 <USBMIDIDeviceConfigure+0x6c>
8000a878:	e3a0001c 	mov	r0, #28
8000a87c:	eb001e75 	bl	80012258 <malloc>
8000a880:	e585003c 	str	r0, [r5, #60]	; 0x3c
8000a884:	e30f0ffc 	movw	r0, #65532	; 0xfffc
8000a888:	e1d430b4 	ldrh	r3, [r4, #4]
8000a88c:	e0000003 	and	r0, r0, r3
8000a890:	e1c504b8 	strh	r0, [r5, #72]	; 0x48
8000a894:	eb001e6f 	bl	80012258 <malloc>
8000a898:	e585004c 	str	r0, [r5, #76]	; 0x4c
8000a89c:	e1a02004 	mov	r2, r4
8000a8a0:	e595003c 	ldr	r0, [r5, #60]	; 0x3c
8000a8a4:	e1a01005 	mov	r1, r5
8000a8a8:	ebfffea4 	bl	8000a340 <USBEndpoint2>
8000a8ac:	eaffffdc 	b	8000a824 <USBMIDIDeviceConfigure+0x6c>
8000a8b0:	e595603c 	ldr	r6, [r5, #60]	; 0x3c
8000a8b4:	e3560000 	cmp	r6, #0
8000a8b8:	0a000030 	beq	8000a980 <USBMIDIDeviceConfigure+0x1c8>
8000a8bc:	e1a00005 	mov	r0, r5
8000a8c0:	eb00152e 	bl	8000fd80 <USBDeviceConfigure>
8000a8c4:	e2506000 	subs	r6, r0, #0
8000a8c8:	0a00001b 	beq	8000a93c <USBMIDIDeviceConfigure+0x184>
8000a8cc:	e28d0004 	add	r0, sp, #4
8000a8d0:	ebfff991 	bl	80008f1c <String>
8000a8d4:	e30a3850 	movw	r3, #43088	; 0xa850
8000a8d8:	e3071cac 	movw	r1, #31916	; 0x7cac
8000a8dc:	e3483009 	movt	r3, #32777	; 0x8009
8000a8e0:	e28d0004 	add	r0, sp, #4
8000a8e4:	e3481001 	movt	r1, #32769	; 0x8001
8000a8e8:	e5932000 	ldr	r2, [r3]
8000a8ec:	e282c001 	add	ip, r2, #1
8000a8f0:	e583c000 	str	ip, [r3]
8000a8f4:	ebfffba9 	bl	800097a0 <StringFormat>
8000a8f8:	eb0030c9 	bl	80016c24 <DeviceNameServiceGet>
8000a8fc:	e1a06000 	mov	r6, r0
8000a900:	e28d0004 	add	r0, sp, #4
8000a904:	ebfff99e 	bl	80008f84 <StringGet>
8000a908:	e1a01000 	mov	r1, r0
8000a90c:	e1a03004 	mov	r3, r4
8000a910:	e1a02005 	mov	r2, r5
8000a914:	e1a00006 	mov	r0, r6
8000a918:	eb003097 	bl	80016b7c <DeviceNameServiceAddDevice>
8000a91c:	e28d0004 	add	r0, sp, #4
8000a920:	ebfff98d 	bl	80008f5c <_String>
8000a924:	e1a00005 	mov	r0, r5
8000a928:	ebffff8a 	bl	8000a758 <USBMIDIDeviceStartRequest>
8000a92c:	e1a06000 	mov	r6, r0
8000a930:	e1a00006 	mov	r0, r6
8000a934:	e28dd010 	add	sp, sp, #16
8000a938:	e8bd8070 	pop	{r4, r5, r6, pc}
8000a93c:	e3072c90 	movw	r2, #31888	; 0x7c90
8000a940:	e3070c48 	movw	r0, #31816	; 0x7c48
8000a944:	e3482001 	movt	r2, #32769	; 0x8001
8000a948:	e3a01001 	mov	r1, #1
8000a94c:	e3480001 	movt	r0, #32769	; 0x8001
8000a950:	eb001e9a 	bl	800123c0 <LogWrite>
8000a954:	e1a00006 	mov	r0, r6
8000a958:	e28dd010 	add	sp, sp, #16
8000a95c:	e8bd8070 	pop	{r4, r5, r6, pc}
8000a960:	e3071c48 	movw	r1, #31816	; 0x7c48
8000a964:	e1a00005 	mov	r0, r5
8000a968:	e3481001 	movt	r1, #32769	; 0x8001
8000a96c:	e3a06000 	mov	r6, #0
8000a970:	eb0016ab 	bl	80010424 <USBDeviceConfigurationError>
8000a974:	e1a00006 	mov	r0, r6
8000a978:	e28dd010 	add	sp, sp, #16
8000a97c:	e8bd8070 	pop	{r4, r5, r6, pc}
8000a980:	e3071c48 	movw	r1, #31816	; 0x7c48
8000a984:	e1a00005 	mov	r0, r5
8000a988:	e3481001 	movt	r1, #32769	; 0x8001
8000a98c:	eb0016a4 	bl	80010424 <USBDeviceConfigurationError>
8000a990:	eaffffe6 	b	8000a930 <USBMIDIDeviceConfigure+0x178>

8000a994 <USBMIDIDeviceCompletionRoutine>:
8000a994:	e92d41f0 	push	{r4, r5, r6, r7, r8, lr}
8000a998:	e1a05002 	mov	r5, r2
8000a99c:	e1a04000 	mov	r4, r0
8000a9a0:	eb0020cb 	bl	80012cd4 <USBRequestGetStatus>
8000a9a4:	e3500000 	cmp	r0, #0
8000a9a8:	1a000008 	bne	8000a9d0 <USBMIDIDeviceCompletionRoutine+0x3c>
8000a9ac:	e5950044 	ldr	r0, [r5, #68]	; 0x44
8000a9b0:	eb0020bb 	bl	80012ca4 <_USBRequest>
8000a9b4:	e5950044 	ldr	r0, [r5, #68]	; 0x44
8000a9b8:	eb001e2d 	bl	80012274 <free>
8000a9bc:	e3a03000 	mov	r3, #0
8000a9c0:	e1a00005 	mov	r0, r5
8000a9c4:	e5853044 	str	r3, [r5, #68]	; 0x44
8000a9c8:	e8bd41f0 	pop	{r4, r5, r6, r7, r8, lr}
8000a9cc:	eaffff61 	b	8000a758 <USBMIDIDeviceStartRequest>
8000a9d0:	e1a00004 	mov	r0, r4
8000a9d4:	eb0020c0 	bl	80012cdc <USBRequestGetResultLength>
8000a9d8:	e3100003 	tst	r0, #3
8000a9dc:	1afffff2 	bne	8000a9ac <USBMIDIDeviceCompletionRoutine+0x18>
8000a9e0:	e595604c 	ldr	r6, [r5, #76]	; 0x4c
8000a9e4:	e1a00004 	mov	r0, r4
8000a9e8:	eb0020bb 	bl	80012cdc <USBRequestGetResultLength>
8000a9ec:	e595404c 	ldr	r4, [r5, #76]	; 0x4c
8000a9f0:	e0866000 	add	r6, r6, r0
8000a9f4:	e1560004 	cmp	r6, r4
8000a9f8:	9affffeb 	bls	8000a9ac <USBMIDIDeviceCompletionRoutine+0x18>
8000a9fc:	e3077c48 	movw	r7, #31816	; 0x7c48
8000aa00:	e2844001 	add	r4, r4, #1
8000aa04:	e3487001 	movt	r7, #32769	; 0x8001
8000aa08:	e5540001 	ldrb	r0, [r4, #-1]
8000aa0c:	e3500000 	cmp	r0, #0
8000aa10:	0a000008 	beq	8000aa38 <USBMIDIDeviceCompletionRoutine+0xa4>
8000aa14:	e5958040 	ldr	r8, [r5, #64]	; 0x40
8000aa18:	e200300f 	and	r3, r0, #15
8000aa1c:	e1a00220 	lsr	r0, r0, #4
8000aa20:	e1a02004 	mov	r2, r4
8000aa24:	e0873103 	add	r3, r7, r3, lsl #2
8000aa28:	e3580000 	cmp	r8, #0
8000aa2c:	0a000001 	beq	8000aa38 <USBMIDIDeviceCompletionRoutine+0xa4>
8000aa30:	e5931008 	ldr	r1, [r3, #8]
8000aa34:	e12fff38 	blx	r8
8000aa38:	e2843003 	add	r3, r4, #3
8000aa3c:	e2844004 	add	r4, r4, #4
8000aa40:	e1560003 	cmp	r6, r3
8000aa44:	8affffef 	bhi	8000aa08 <USBMIDIDeviceCompletionRoutine+0x74>
8000aa48:	eaffffd7 	b	8000a9ac <USBMIDIDeviceCompletionRoutine+0x18>

8000aa4c <USBMIDIDevice>:
8000aa4c:	e92d4010 	push	{r4, lr}
8000aa50:	e1a04000 	mov	r4, r0
8000aa54:	eb0014fe 	bl	8000fe54 <USBDeviceCopy>
8000aa58:	e30a27b8 	movw	r2, #42936	; 0xa7b8
8000aa5c:	e3a03000 	mov	r3, #0
8000aa60:	e3482000 	movt	r2, #32768	; 0x8000
8000aa64:	e5842000 	str	r2, [r4]
8000aa68:	e584303c 	str	r3, [r4, #60]	; 0x3c
8000aa6c:	e5843040 	str	r3, [r4, #64]	; 0x40
8000aa70:	e5843044 	str	r3, [r4, #68]	; 0x44
8000aa74:	e584304c 	str	r3, [r4, #76]	; 0x4c
8000aa78:	e8bd8010 	pop	{r4, pc}

8000aa7c <_CUSBMIDIDevice>:
8000aa7c:	e92d4010 	push	{r4, lr}
8000aa80:	e1a04000 	mov	r4, r0
8000aa84:	e590004c 	ldr	r0, [r0, #76]	; 0x4c
8000aa88:	e3500000 	cmp	r0, #0
8000aa8c:	0a000002 	beq	8000aa9c <_CUSBMIDIDevice+0x20>
8000aa90:	eb001df7 	bl	80012274 <free>
8000aa94:	e3a03000 	mov	r3, #0
8000aa98:	e584304c 	str	r3, [r4, #76]	; 0x4c
8000aa9c:	e594003c 	ldr	r0, [r4, #60]	; 0x3c
8000aaa0:	e3500000 	cmp	r0, #0
8000aaa4:	0a000004 	beq	8000aabc <_CUSBMIDIDevice+0x40>
8000aaa8:	ebfffe6f 	bl	8000a46c <_USBEndpoint>
8000aaac:	e594003c 	ldr	r0, [r4, #60]	; 0x3c
8000aab0:	eb001def 	bl	80012274 <free>
8000aab4:	e3a03000 	mov	r3, #0
8000aab8:	e584303c 	str	r3, [r4, #60]	; 0x3c
8000aabc:	e1a00004 	mov	r0, r4
8000aac0:	e8bd4010 	pop	{r4, lr}
8000aac4:	ea00151f 	b	8000ff48 <_USBDevice>

8000aac8 <USBMIDIDeviceRegisterPacketHandler>:
8000aac8:	e5801040 	str	r1, [r0, #64]	; 0x40
8000aacc:	e12fff1e 	bx	lr

8000aad0 <GetDevice>:
8000aad0:	e92d4070 	push	{r4, r5, r6, lr}
8000aad4:	e1a04001 	mov	r4, r1
8000aad8:	e3071cb4 	movw	r1, #31924	; 0x7cb4
8000aadc:	e1a06000 	mov	r6, r0
8000aae0:	e3481001 	movt	r1, #32769	; 0x8001
8000aae4:	e1a00004 	mov	r0, r4
8000aae8:	ebfff95f 	bl	8000906c <StringCompare>
8000aaec:	e3500000 	cmp	r0, #0
8000aaf0:	1a000015 	bne	8000ab4c <GetDevice+0x7c>
8000aaf4:	e3a00084 	mov	r0, #132	; 0x84
8000aaf8:	eb001dd6 	bl	80012258 <malloc>
8000aafc:	e1a01006 	mov	r1, r6
8000ab00:	e1a05000 	mov	r5, r0
8000ab04:	eb000be6 	bl	8000daa4 <USBStandardHub>
8000ab08:	e3550000 	cmp	r5, #0
8000ab0c:	0a000008 	beq	8000ab34 <GetDevice+0x64>
8000ab10:	e1a00004 	mov	r0, r4
8000ab14:	ebfff91a 	bl	80008f84 <StringGet>
8000ab18:	e1a03000 	mov	r3, r0
8000ab1c:	e3072d14 	movw	r2, #32020	; 0x7d14
8000ab20:	e3482001 	movt	r2, #32769	; 0x8001
8000ab24:	e3070d24 	movw	r0, #32036	; 0x7d24
8000ab28:	e3480001 	movt	r0, #32769	; 0x8001
8000ab2c:	e3a01003 	mov	r1, #3
8000ab30:	eb001e22 	bl	800123c0 <LogWrite>
8000ab34:	e1a00004 	mov	r0, r4
8000ab38:	ebfff907 	bl	80008f5c <_String>
8000ab3c:	e1a00004 	mov	r0, r4
8000ab40:	eb001dcb 	bl	80012274 <free>
8000ab44:	e1a00005 	mov	r0, r5
8000ab48:	e8bd8070 	pop	{r4, r5, r6, pc}
8000ab4c:	e3071cc0 	movw	r1, #31936	; 0x7cc0
8000ab50:	e1a00004 	mov	r0, r4
8000ab54:	e3481001 	movt	r1, #32769	; 0x8001
8000ab58:	ebfff943 	bl	8000906c <StringCompare>
8000ab5c:	e3500000 	cmp	r0, #0
8000ab60:	1a000005 	bne	8000ab7c <GetDevice+0xac>
8000ab64:	e3a00058 	mov	r0, #88	; 0x58
8000ab68:	eb001dba 	bl	80012258 <malloc>
8000ab6c:	e1a01006 	mov	r1, r6
8000ab70:	e1a05000 	mov	r5, r0
8000ab74:	eb001916 	bl	80010fd4 <USBBulkOnlyMassStorageDevice>
8000ab78:	eaffffe2 	b	8000ab08 <GetDevice+0x38>
8000ab7c:	e3071ccc 	movw	r1, #31948	; 0x7ccc
8000ab80:	e1a00004 	mov	r0, r4
8000ab84:	e3481001 	movt	r1, #32769	; 0x8001
8000ab88:	ebfff937 	bl	8000906c <StringCompare>
8000ab8c:	e3500000 	cmp	r0, #0
8000ab90:	0a00000b 	beq	8000abc4 <GetDevice+0xf4>
8000ab94:	e3071cd8 	movw	r1, #31960	; 0x7cd8
8000ab98:	e1a00004 	mov	r0, r4
8000ab9c:	e3481001 	movt	r1, #32769	; 0x8001
8000aba0:	ebfff931 	bl	8000906c <StringCompare>
8000aba4:	e3500000 	cmp	r0, #0
8000aba8:	1a00000b 	bne	8000abdc <GetDevice+0x10c>
8000abac:	e3a00050 	mov	r0, #80	; 0x50
8000abb0:	eb001da8 	bl	80012258 <malloc>
8000abb4:	e1a01006 	mov	r1, r6
8000abb8:	e1a05000 	mov	r5, r0
8000abbc:	eb002162 	bl	8001314c <USBMouseDevice>
8000abc0:	eaffffd0 	b	8000ab08 <GetDevice+0x38>
8000abc4:	e3a00e47 	mov	r0, #1136	; 0x470
8000abc8:	eb001da2 	bl	80012258 <malloc>
8000abcc:	e1a01006 	mov	r1, r6
8000abd0:	e1a05000 	mov	r5, r0
8000abd4:	eb002f51 	bl	80016920 <USBKeyboardDevice>
8000abd8:	eaffffca 	b	8000ab08 <GetDevice+0x38>
8000abdc:	e3071ce4 	movw	r1, #31972	; 0x7ce4
8000abe0:	e1a00004 	mov	r0, r4
8000abe4:	e3481001 	movt	r1, #32769	; 0x8001
8000abe8:	ebfff91f 	bl	8000906c <StringCompare>
8000abec:	e3500000 	cmp	r0, #0
8000abf0:	0a00000b 	beq	8000ac24 <GetDevice+0x154>
8000abf4:	e3071cf0 	movw	r1, #31984	; 0x7cf0
8000abf8:	e1a00004 	mov	r0, r4
8000abfc:	e3481001 	movt	r1, #32769	; 0x8001
8000ac00:	ebfff919 	bl	8000906c <StringCompare>
8000ac04:	e3500000 	cmp	r0, #0
8000ac08:	1a00000b 	bne	8000ac3c <GetDevice+0x16c>
8000ac0c:	e3a00054 	mov	r0, #84	; 0x54
8000ac10:	eb001d90 	bl	80012258 <malloc>
8000ac14:	e1a01006 	mov	r1, r6
8000ac18:	e1a05000 	mov	r5, r0
8000ac1c:	eb00216e 	bl	800131dc <LAN7800Device>
8000ac20:	eaffffb8 	b	8000ab08 <GetDevice+0x38>
8000ac24:	e3a00054 	mov	r0, #84	; 0x54
8000ac28:	eb001d8a 	bl	80012258 <malloc>
8000ac2c:	e1a01006 	mov	r1, r6
8000ac30:	e1a05000 	mov	r5, r0
8000ac34:	eb000e27 	bl	8000e4d8 <SMSC951xDevice>
8000ac38:	eaffffb2 	b	8000ab08 <GetDevice+0x38>
8000ac3c:	e3071cfc 	movw	r1, #31996	; 0x7cfc
8000ac40:	e1a00004 	mov	r0, r4
8000ac44:	e3481001 	movt	r1, #32769	; 0x8001
8000ac48:	ebfff907 	bl	8000906c <StringCompare>
8000ac4c:	e3500000 	cmp	r0, #0
8000ac50:	1a000005 	bne	8000ac6c <GetDevice+0x19c>
8000ac54:	e3a000d4 	mov	r0, #212	; 0xd4
8000ac58:	eb001d7e 	bl	80012258 <malloc>
8000ac5c:	e1a01006 	mov	r1, r6
8000ac60:	e1a05000 	mov	r5, r0
8000ac64:	eb003280 	bl	8001766c <USBGamePadDevice>
8000ac68:	eaffffa6 	b	8000ab08 <GetDevice+0x38>
8000ac6c:	e3071d08 	movw	r1, #32008	; 0x7d08
8000ac70:	e1a00004 	mov	r0, r4
8000ac74:	e3481001 	movt	r1, #32769	; 0x8001
8000ac78:	ebfff8fb 	bl	8000906c <StringCompare>
8000ac7c:	e3500000 	cmp	r0, #0
8000ac80:	13a05000 	movne	r5, #0
8000ac84:	1affffaa 	bne	8000ab34 <GetDevice+0x64>
8000ac88:	e3a00050 	mov	r0, #80	; 0x50
8000ac8c:	eb001d71 	bl	80012258 <malloc>
8000ac90:	e1a01006 	mov	r1, r6
8000ac94:	e1a05000 	mov	r5, r0
8000ac98:	ebffff6b 	bl	8000aa4c <USBMIDIDevice>
8000ac9c:	eaffff99 	b	8000ab08 <GetDevice+0x38>

8000aca0 <USBDeviceFactoryGetDevice>:
8000aca0:	e92d4010 	push	{r4, lr}
8000aca4:	e3a01000 	mov	r1, #0
8000aca8:	e1a04000 	mov	r4, r0
8000acac:	eb00158d 	bl	800102e8 <USBDeviceGetName>
8000acb0:	e1a01000 	mov	r1, r0
8000acb4:	e1a00004 	mov	r0, r4
8000acb8:	ebffff84 	bl	8000aad0 <GetDevice>
8000acbc:	e3500000 	cmp	r0, #0
8000acc0:	18bd8010 	popne	{r4, pc}
8000acc4:	e3a01001 	mov	r1, #1
8000acc8:	e1a00004 	mov	r0, r4
8000accc:	eb001585 	bl	800102e8 <USBDeviceGetName>
8000acd0:	e1a01000 	mov	r1, r0
8000acd4:	e1a00004 	mov	r0, r4
8000acd8:	ebffff7c 	bl	8000aad0 <GetDevice>
8000acdc:	e3500000 	cmp	r0, #0
8000ace0:	18bd8010 	popne	{r4, pc}
8000ace4:	e3a01002 	mov	r1, #2
8000ace8:	e1a00004 	mov	r0, r4
8000acec:	eb00157d 	bl	800102e8 <USBDeviceGetName>
8000acf0:	e1a01000 	mov	r1, r0
8000acf4:	e1a00004 	mov	r0, r4
8000acf8:	e8bd4010 	pop	{r4, lr}
8000acfc:	eaffff73 	b	8000aad0 <GetDevice>

8000ad00 <iget>:
8000ad00:	e92d41f0 	push	{r4, r5, r6, r7, r8, lr}
8000ad04:	e1a06000 	mov	r6, r0
8000ad08:	e59f40c4 	ldr	r4, [pc, #196]	; 8000add4 <iget+0xd4>
8000ad0c:	e30c0360 	movw	r0, #50016	; 0xc360
8000ad10:	e3480009 	movt	r0, #32777	; 0x8009
8000ad14:	e1a07001 	mov	r7, r1
8000ad18:	e3a05000 	mov	r5, #0
8000ad1c:	eb000614 	bl	8000c574 <acquire>
8000ad20:	e2840efa 	add	r0, r4, #4000	; 0xfa0
8000ad24:	ea000004 	b	8000ad3c <iget+0x3c>
8000ad28:	e3550000 	cmp	r5, #0
8000ad2c:	0a000013 	beq	8000ad80 <iget+0x80>
8000ad30:	e2844050 	add	r4, r4, #80	; 0x50
8000ad34:	e1540000 	cmp	r4, r0
8000ad38:	2a000015 	bcs	8000ad94 <iget+0x94>
8000ad3c:	e5943008 	ldr	r3, [r4, #8]
8000ad40:	e3530000 	cmp	r3, #0
8000ad44:	dafffff7 	ble	8000ad28 <iget+0x28>
8000ad48:	e5942000 	ldr	r2, [r4]
8000ad4c:	e1520006 	cmp	r2, r6
8000ad50:	1afffff4 	bne	8000ad28 <iget+0x28>
8000ad54:	e5942004 	ldr	r2, [r4, #4]
8000ad58:	e1520007 	cmp	r2, r7
8000ad5c:	1afffff1 	bne	8000ad28 <iget+0x28>
8000ad60:	e30c0360 	movw	r0, #50016	; 0xc360
8000ad64:	e2833001 	add	r3, r3, #1
8000ad68:	e3480009 	movt	r0, #32777	; 0x8009
8000ad6c:	e1a05004 	mov	r5, r4
8000ad70:	e5843008 	str	r3, [r4, #8]
8000ad74:	eb000634 	bl	8000c64c <release>
8000ad78:	e1a00005 	mov	r0, r5
8000ad7c:	e8bd81f0 	pop	{r4, r5, r6, r7, r8, pc}
8000ad80:	e3530000 	cmp	r3, #0
8000ad84:	01a05004 	moveq	r5, r4
8000ad88:	e2844050 	add	r4, r4, #80	; 0x50
8000ad8c:	e1540000 	cmp	r4, r0
8000ad90:	3affffe9 	bcc	8000ad3c <iget+0x3c>
8000ad94:	e3550000 	cmp	r5, #0
8000ad98:	0a00000a 	beq	8000adc8 <iget+0xc8>
8000ad9c:	e5856000 	str	r6, [r5]
8000ada0:	e3a02001 	mov	r2, #1
8000ada4:	e5857004 	str	r7, [r5, #4]
8000ada8:	e3a03000 	mov	r3, #0
8000adac:	e5852008 	str	r2, [r5, #8]
8000adb0:	e30c0360 	movw	r0, #50016	; 0xc360
8000adb4:	e585300c 	str	r3, [r5, #12]
8000adb8:	e3480009 	movt	r0, #32777	; 0x8009
8000adbc:	eb000622 	bl	8000c64c <release>
8000adc0:	e1a00005 	mov	r0, r5
8000adc4:	e8bd81f0 	pop	{r4, r5, r6, r7, r8, pc}
8000adc8:	e3070d2c 	movw	r0, #32044	; 0x7d2c
8000adcc:	e3480001 	movt	r0, #32769	; 0x8001
8000add0:	eb00048b 	bl	8000c004 <panic>
8000add4:	8009c394 	.word	0x8009c394

8000add8 <readsb>:
8000add8:	e92d4070 	push	{r4, r5, r6, lr}
8000addc:	e1a05001 	mov	r5, r1
8000ade0:	e3a01001 	mov	r1, #1
8000ade4:	ebfffdef 	bl	8000a5a8 <bread>
8000ade8:	e1a04000 	mov	r4, r0
8000adec:	e3a02010 	mov	r2, #16
8000adf0:	e1a00005 	mov	r0, r5
8000adf4:	e2841018 	add	r1, r4, #24
8000adf8:	eb001e64 	bl	80012790 <memmove>
8000adfc:	e1a00004 	mov	r0, r4
8000ae00:	e8bd4070 	pop	{r4, r5, r6, lr}
8000ae04:	eafffe31 	b	8000a6d0 <brelse>

8000ae08 <bfree>:
8000ae08:	e92d4030 	push	{r4, r5, lr}
8000ae0c:	e24dd014 	sub	sp, sp, #20
8000ae10:	e1a04001 	mov	r4, r1
8000ae14:	e1a0100d 	mov	r1, sp
8000ae18:	e1a05000 	mov	r5, r0
8000ae1c:	ebffffed 	bl	8000add8 <readsb>
8000ae20:	e59d1008 	ldr	r1, [sp, #8]
8000ae24:	e1a00005 	mov	r0, r5
8000ae28:	e1a011a1 	lsr	r1, r1, #3
8000ae2c:	e2811003 	add	r1, r1, #3
8000ae30:	e0811624 	add	r1, r1, r4, lsr #12
8000ae34:	ebfffddb 	bl	8000a5a8 <bread>
8000ae38:	e7e831d4 	ubfx	r3, r4, #3, #9
8000ae3c:	e3a02001 	mov	r2, #1
8000ae40:	e0803003 	add	r3, r0, r3
8000ae44:	e2044007 	and	r4, r4, #7
8000ae48:	e5d31018 	ldrb	r1, [r3, #24]
8000ae4c:	e1a04412 	lsl	r4, r2, r4
8000ae50:	e1110004 	tst	r1, r4
8000ae54:	0a000007 	beq	8000ae78 <bfree+0x70>
8000ae58:	e1c14004 	bic	r4, r1, r4
8000ae5c:	e1a05000 	mov	r5, r0
8000ae60:	e5c34018 	strb	r4, [r3, #24]
8000ae64:	eb001646 	bl	80010784 <log_write>
8000ae68:	e1a00005 	mov	r0, r5
8000ae6c:	ebfffe17 	bl	8000a6d0 <brelse>
8000ae70:	e28dd014 	add	sp, sp, #20
8000ae74:	e8bd8030 	pop	{r4, r5, pc}
8000ae78:	e3070d3c 	movw	r0, #32060	; 0x7d3c
8000ae7c:	e3480001 	movt	r0, #32769	; 0x8001
8000ae80:	eb00045f 	bl	8000c004 <panic>

8000ae84 <balloc>:
8000ae84:	e92d43f0 	push	{r4, r5, r6, r7, r8, r9, lr}
8000ae88:	e24dd014 	sub	sp, sp, #20
8000ae8c:	e1a0100d 	mov	r1, sp
8000ae90:	e1a06000 	mov	r6, r0
8000ae94:	ebffffcf 	bl	8000add8 <readsb>
8000ae98:	e59d3000 	ldr	r3, [sp]
8000ae9c:	e3530000 	cmp	r3, #0
8000aea0:	13a09000 	movne	r9, #0
8000aea4:	13a08001 	movne	r8, #1
8000aea8:	0a00001c 	beq	8000af20 <balloc+0x9c>
8000aeac:	e59d1008 	ldr	r1, [sp, #8]
8000aeb0:	e1a00006 	mov	r0, r6
8000aeb4:	e1a04009 	mov	r4, r9
8000aeb8:	e1a011a1 	lsr	r1, r1, #3
8000aebc:	e2811003 	add	r1, r1, #3
8000aec0:	e0811649 	add	r1, r1, r9, asr #12
8000aec4:	ebfffdb7 	bl	8000a5a8 <bread>
8000aec8:	e1a05000 	mov	r5, r0
8000aecc:	e3a02000 	mov	r2, #0
8000aed0:	e59d0000 	ldr	r0, [sp]
8000aed4:	ea000009 	b	8000af00 <balloc+0x7c>
8000aed8:	e085c1c2 	add	ip, r5, r2, asr #3
8000aedc:	e2023007 	and	r3, r2, #7
8000aee0:	e5dc1018 	ldrb	r1, [ip, #24]
8000aee4:	e1a03318 	lsl	r3, r8, r3
8000aee8:	e0117003 	ands	r7, r1, r3
8000aeec:	0a00000e 	beq	8000af2c <balloc+0xa8>
8000aef0:	e2822001 	add	r2, r2, #1
8000aef4:	e2844001 	add	r4, r4, #1
8000aef8:	e3520a01 	cmp	r2, #4096	; 0x1000
8000aefc:	0a000001 	beq	8000af08 <balloc+0x84>
8000af00:	e1540000 	cmp	r4, r0
8000af04:	3afffff3 	bcc	8000aed8 <balloc+0x54>
8000af08:	e1a00005 	mov	r0, r5
8000af0c:	e2899a01 	add	r9, r9, #4096	; 0x1000
8000af10:	ebfffdee 	bl	8000a6d0 <brelse>
8000af14:	e59d3000 	ldr	r3, [sp]
8000af18:	e1530009 	cmp	r3, r9
8000af1c:	8affffe2 	bhi	8000aeac <balloc+0x28>
8000af20:	e3070d50 	movw	r0, #32080	; 0x7d50
8000af24:	e3480001 	movt	r0, #32769	; 0x8001
8000af28:	eb000435 	bl	8000c004 <panic>
8000af2c:	e1813003 	orr	r3, r1, r3
8000af30:	e1a00005 	mov	r0, r5
8000af34:	e5cc3018 	strb	r3, [ip, #24]
8000af38:	eb001611 	bl	80010784 <log_write>
8000af3c:	e1a00005 	mov	r0, r5
8000af40:	ebfffde2 	bl	8000a6d0 <brelse>
8000af44:	e1a01004 	mov	r1, r4
8000af48:	e1a00006 	mov	r0, r6
8000af4c:	ebfffd95 	bl	8000a5a8 <bread>
8000af50:	e1a05000 	mov	r5, r0
8000af54:	e1a01007 	mov	r1, r7
8000af58:	e3a02c02 	mov	r2, #512	; 0x200
8000af5c:	e2800018 	add	r0, r0, #24
8000af60:	eb001ddc 	bl	800126d8 <memset>
8000af64:	e1a00005 	mov	r0, r5
8000af68:	eb001605 	bl	80010784 <log_write>
8000af6c:	e1a00005 	mov	r0, r5
8000af70:	ebfffdd6 	bl	8000a6d0 <brelse>
8000af74:	e1a00004 	mov	r0, r4
8000af78:	e28dd014 	add	sp, sp, #20
8000af7c:	e8bd83f0 	pop	{r4, r5, r6, r7, r8, r9, pc}

8000af80 <bmap>:
8000af80:	e351000b 	cmp	r1, #11
8000af84:	e92d41f0 	push	{r4, r5, r6, r7, r8, lr}
8000af88:	e1a06000 	mov	r6, r0
8000af8c:	8a000005 	bhi	8000afa8 <bmap+0x28>
8000af90:	e0804101 	add	r4, r0, r1, lsl #2
8000af94:	e594501c 	ldr	r5, [r4, #28]
8000af98:	e3550000 	cmp	r5, #0
8000af9c:	0a000018 	beq	8000b004 <bmap+0x84>
8000afa0:	e1a00005 	mov	r0, r5
8000afa4:	e8bd81f0 	pop	{r4, r5, r6, r7, r8, pc}
8000afa8:	e241400c 	sub	r4, r1, #12
8000afac:	e354007f 	cmp	r4, #127	; 0x7f
8000afb0:	8a00001e 	bhi	8000b030 <bmap+0xb0>
8000afb4:	e590104c 	ldr	r1, [r0, #76]	; 0x4c
8000afb8:	e3510000 	cmp	r1, #0
8000afbc:	0a000016 	beq	8000b01c <bmap+0x9c>
8000afc0:	e5960000 	ldr	r0, [r6]
8000afc4:	ebfffd77 	bl	8000a5a8 <bread>
8000afc8:	e2808018 	add	r8, r0, #24
8000afcc:	e1a07000 	mov	r7, r0
8000afd0:	e7985104 	ldr	r5, [r8, r4, lsl #2]
8000afd4:	e3550000 	cmp	r5, #0
8000afd8:	1a000005 	bne	8000aff4 <bmap+0x74>
8000afdc:	e5960000 	ldr	r0, [r6]
8000afe0:	ebffffa7 	bl	8000ae84 <balloc>
8000afe4:	e1a05000 	mov	r5, r0
8000afe8:	e1a00007 	mov	r0, r7
8000afec:	e7885104 	str	r5, [r8, r4, lsl #2]
8000aff0:	eb0015e3 	bl	80010784 <log_write>
8000aff4:	e1a00007 	mov	r0, r7
8000aff8:	ebfffdb4 	bl	8000a6d0 <brelse>
8000affc:	e1a00005 	mov	r0, r5
8000b000:	e8bd81f0 	pop	{r4, r5, r6, r7, r8, pc}
8000b004:	e5900000 	ldr	r0, [r0]
8000b008:	ebffff9d 	bl	8000ae84 <balloc>
8000b00c:	e584001c 	str	r0, [r4, #28]
8000b010:	e1a05000 	mov	r5, r0
8000b014:	e1a00005 	mov	r0, r5
8000b018:	e8bd81f0 	pop	{r4, r5, r6, r7, r8, pc}
8000b01c:	e5900000 	ldr	r0, [r0]
8000b020:	ebffff97 	bl	8000ae84 <balloc>
8000b024:	e586004c 	str	r0, [r6, #76]	; 0x4c
8000b028:	e1a01000 	mov	r1, r0
8000b02c:	eaffffe3 	b	8000afc0 <bmap+0x40>
8000b030:	e3070d68 	movw	r0, #32104	; 0x7d68
8000b034:	e3480001 	movt	r0, #32769	; 0x8001
8000b038:	eb0003f1 	bl	8000c004 <panic>

8000b03c <iinit>:
8000b03c:	e92d4010 	push	{r4, lr}
8000b040:	e30c4360 	movw	r4, #50016	; 0xc360
8000b044:	e3484009 	movt	r4, #32777	; 0x8009
8000b048:	e3a01000 	mov	r1, #0
8000b04c:	e1a00004 	mov	r0, r4
8000b050:	e3002fd4 	movw	r2, #4052	; 0xfd4
8000b054:	eb001d9f 	bl	800126d8 <memset>
8000b058:	e3071d7c 	movw	r1, #32124	; 0x7d7c
8000b05c:	e1a00004 	mov	r0, r4
8000b060:	e3481001 	movt	r1, #32769	; 0x8001
8000b064:	e8bd4010 	pop	{r4, lr}
8000b068:	ea000523 	b	8000c4fc <initlock>

8000b06c <ialloc>:
8000b06c:	e92d41f0 	push	{r4, r5, r6, r7, r8, lr}
8000b070:	e24dd010 	sub	sp, sp, #16
8000b074:	e1a06001 	mov	r6, r1
8000b078:	e1a0100d 	mov	r1, sp
8000b07c:	e1a05000 	mov	r5, r0
8000b080:	ebffff54 	bl	8000add8 <readsb>
8000b084:	e59d3008 	ldr	r3, [sp, #8]
8000b088:	e3530001 	cmp	r3, #1
8000b08c:	83a04001 	movhi	r4, #1
8000b090:	8a000005 	bhi	8000b0ac <ialloc+0x40>
8000b094:	ea00001d 	b	8000b110 <ialloc+0xa4>
8000b098:	e2844001 	add	r4, r4, #1
8000b09c:	ebfffd8b 	bl	8000a6d0 <brelse>
8000b0a0:	e59d3008 	ldr	r3, [sp, #8]
8000b0a4:	e1530004 	cmp	r3, r4
8000b0a8:	9a000018 	bls	8000b110 <ialloc+0xa4>
8000b0ac:	e1a011a4 	lsr	r1, r4, #3
8000b0b0:	e1a00005 	mov	r0, r5
8000b0b4:	e2811002 	add	r1, r1, #2
8000b0b8:	ebfffd3a 	bl	8000a5a8 <bread>
8000b0bc:	e2043007 	and	r3, r4, #7
8000b0c0:	e2802018 	add	r2, r0, #24
8000b0c4:	e1a07000 	mov	r7, r0
8000b0c8:	e1a03303 	lsl	r3, r3, #6
8000b0cc:	e0828003 	add	r8, r2, r3
8000b0d0:	e19210f3 	ldrsh	r1, [r2, r3]
8000b0d4:	e3510000 	cmp	r1, #0
8000b0d8:	1affffee 	bne	8000b098 <ialloc+0x2c>
8000b0dc:	e3a02040 	mov	r2, #64	; 0x40
8000b0e0:	e1a00008 	mov	r0, r8
8000b0e4:	eb001d7b 	bl	800126d8 <memset>
8000b0e8:	e1c860b0 	strh	r6, [r8]
8000b0ec:	e1a00007 	mov	r0, r7
8000b0f0:	eb0015a3 	bl	80010784 <log_write>
8000b0f4:	e1a00007 	mov	r0, r7
8000b0f8:	ebfffd74 	bl	8000a6d0 <brelse>
8000b0fc:	e1a01004 	mov	r1, r4
8000b100:	e1a00005 	mov	r0, r5
8000b104:	ebfffefd 	bl	8000ad00 <iget>
8000b108:	e28dd010 	add	sp, sp, #16
8000b10c:	e8bd81f0 	pop	{r4, r5, r6, r7, r8, pc}
8000b110:	e3070d84 	movw	r0, #32132	; 0x7d84
8000b114:	e3480001 	movt	r0, #32769	; 0x8001
8000b118:	eb0003b9 	bl	8000c004 <panic>

8000b11c <iupdate>:
8000b11c:	e92d41f0 	push	{r4, r5, r6, r7, r8, lr}
8000b120:	e1a04000 	mov	r4, r0
8000b124:	e8900003 	ldm	r0, {r0, r1}
8000b128:	e1a011a1 	lsr	r1, r1, #3
8000b12c:	e2811002 	add	r1, r1, #2
8000b130:	ebfffd1c 	bl	8000a5a8 <bread>
8000b134:	e5943004 	ldr	r3, [r4, #4]
8000b138:	e1a05000 	mov	r5, r0
8000b13c:	e1d4e1b2 	ldrh	lr, [r4, #18]
8000b140:	e2800018 	add	r0, r0, #24
8000b144:	e1d471b0 	ldrh	r7, [r4, #16]
8000b148:	e2033007 	and	r3, r3, #7
8000b14c:	e1d461b4 	ldrh	r6, [r4, #20]
8000b150:	e284101c 	add	r1, r4, #28
8000b154:	e1a03303 	lsl	r3, r3, #6
8000b158:	e3a02034 	mov	r2, #52	; 0x34
8000b15c:	e080c003 	add	ip, r0, r3
8000b160:	e18070b3 	strh	r7, [r0, r3]
8000b164:	e28c000c 	add	r0, ip, #12
8000b168:	e5943018 	ldr	r3, [r4, #24]
8000b16c:	e1cce0b2 	strh	lr, [ip, #2]
8000b170:	e1d4e1b6 	ldrh	lr, [r4, #22]
8000b174:	e1cc60b4 	strh	r6, [ip, #4]
8000b178:	e1cce0b6 	strh	lr, [ip, #6]
8000b17c:	e58c3008 	str	r3, [ip, #8]
8000b180:	eb001d82 	bl	80012790 <memmove>
8000b184:	e1a00005 	mov	r0, r5
8000b188:	eb00157d 	bl	80010784 <log_write>
8000b18c:	e1a00005 	mov	r0, r5
8000b190:	e8bd41f0 	pop	{r4, r5, r6, r7, r8, lr}
8000b194:	eafffd4d 	b	8000a6d0 <brelse>

8000b198 <idup>:
8000b198:	e92d4070 	push	{r4, r5, r6, lr}
8000b19c:	e30c4360 	movw	r4, #50016	; 0xc360
8000b1a0:	e3484009 	movt	r4, #32777	; 0x8009
8000b1a4:	e1a05000 	mov	r5, r0
8000b1a8:	e1a00004 	mov	r0, r4
8000b1ac:	eb0004f0 	bl	8000c574 <acquire>
8000b1b0:	e5953008 	ldr	r3, [r5, #8]
8000b1b4:	e1a00004 	mov	r0, r4
8000b1b8:	e2833001 	add	r3, r3, #1
8000b1bc:	e5853008 	str	r3, [r5, #8]
8000b1c0:	eb000521 	bl	8000c64c <release>
8000b1c4:	e1a00005 	mov	r0, r5
8000b1c8:	e8bd8070 	pop	{r4, r5, r6, pc}

8000b1cc <ilock>:
8000b1cc:	e92d4070 	push	{r4, r5, r6, lr}
8000b1d0:	e2504000 	subs	r4, r0, #0
8000b1d4:	0a00003b 	beq	8000b2c8 <ilock+0xfc>
8000b1d8:	e5943008 	ldr	r3, [r4, #8]
8000b1dc:	e3530000 	cmp	r3, #0
8000b1e0:	da000038 	ble	8000b2c8 <ilock+0xfc>
8000b1e4:	e30c0360 	movw	r0, #50016	; 0xc360
8000b1e8:	e3480009 	movt	r0, #32777	; 0x8009
8000b1ec:	eb0004e0 	bl	8000c574 <acquire>
8000b1f0:	e594300c 	ldr	r3, [r4, #12]
8000b1f4:	e3130001 	tst	r3, #1
8000b1f8:	0a000007 	beq	8000b21c <ilock+0x50>
8000b1fc:	e30c5360 	movw	r5, #50016	; 0xc360
8000b200:	e3485009 	movt	r5, #32777	; 0x8009
8000b204:	e1a01005 	mov	r1, r5
8000b208:	e1a00004 	mov	r0, r4
8000b20c:	eb002c08 	bl	80016234 <sleep>
8000b210:	e594300c 	ldr	r3, [r4, #12]
8000b214:	e3130001 	tst	r3, #1
8000b218:	1afffff9 	bne	8000b204 <ilock+0x38>
8000b21c:	e3833001 	orr	r3, r3, #1
8000b220:	e30c0360 	movw	r0, #50016	; 0xc360
8000b224:	e584300c 	str	r3, [r4, #12]
8000b228:	e3480009 	movt	r0, #32777	; 0x8009
8000b22c:	eb000506 	bl	8000c64c <release>
8000b230:	e594300c 	ldr	r3, [r4, #12]
8000b234:	e3130002 	tst	r3, #2
8000b238:	18bd8070 	popne	{r4, r5, r6, pc}
8000b23c:	e8940003 	ldm	r4, {r0, r1}
8000b240:	e1a011a1 	lsr	r1, r1, #3
8000b244:	e2811002 	add	r1, r1, #2
8000b248:	ebfffcd6 	bl	8000a5a8 <bread>
8000b24c:	e5943004 	ldr	r3, [r4, #4]
8000b250:	e1a05000 	mov	r5, r0
8000b254:	e2851018 	add	r1, r5, #24
8000b258:	e3a02034 	mov	r2, #52	; 0x34
8000b25c:	e2033007 	and	r3, r3, #7
8000b260:	e284001c 	add	r0, r4, #28
8000b264:	e1a03303 	lsl	r3, r3, #6
8000b268:	e081c003 	add	ip, r1, r3
8000b26c:	e191e0b3 	ldrh	lr, [r1, r3]
8000b270:	e28c100c 	add	r1, ip, #12
8000b274:	e1dc30b2 	ldrh	r3, [ip, #2]
8000b278:	e1dc60b4 	ldrh	r6, [ip, #4]
8000b27c:	e1c4e1b0 	strh	lr, [r4, #16]
8000b280:	e1c431b2 	strh	r3, [r4, #18]
8000b284:	e1dce0b6 	ldrh	lr, [ip, #6]
8000b288:	e59c3008 	ldr	r3, [ip, #8]
8000b28c:	e1c4e1b6 	strh	lr, [r4, #22]
8000b290:	e5843018 	str	r3, [r4, #24]
8000b294:	e1c461b4 	strh	r6, [r4, #20]
8000b298:	eb001d3c 	bl	80012790 <memmove>
8000b29c:	e1a00005 	mov	r0, r5
8000b2a0:	ebfffd0a 	bl	8000a6d0 <brelse>
8000b2a4:	e1d421f0 	ldrsh	r2, [r4, #16]
8000b2a8:	e594300c 	ldr	r3, [r4, #12]
8000b2ac:	e3520000 	cmp	r2, #0
8000b2b0:	e3833002 	orr	r3, r3, #2
8000b2b4:	e584300c 	str	r3, [r4, #12]
8000b2b8:	18bd8070 	popne	{r4, r5, r6, pc}
8000b2bc:	e3070da0 	movw	r0, #32160	; 0x7da0
8000b2c0:	e3480001 	movt	r0, #32769	; 0x8001
8000b2c4:	eb00034e 	bl	8000c004 <panic>
8000b2c8:	e3070d98 	movw	r0, #32152	; 0x7d98
8000b2cc:	e3480001 	movt	r0, #32769	; 0x8001
8000b2d0:	eb00034b 	bl	8000c004 <panic>

8000b2d4 <iunlock>:
8000b2d4:	e92d4010 	push	{r4, lr}
8000b2d8:	e2504000 	subs	r4, r0, #0
8000b2dc:	0a000011 	beq	8000b328 <iunlock+0x54>
8000b2e0:	e594300c 	ldr	r3, [r4, #12]
8000b2e4:	e3130001 	tst	r3, #1
8000b2e8:	0a00000e 	beq	8000b328 <iunlock+0x54>
8000b2ec:	e5943008 	ldr	r3, [r4, #8]
8000b2f0:	e3530000 	cmp	r3, #0
8000b2f4:	da00000b 	ble	8000b328 <iunlock+0x54>
8000b2f8:	e30c0360 	movw	r0, #50016	; 0xc360
8000b2fc:	e3480009 	movt	r0, #32777	; 0x8009
8000b300:	eb00049b 	bl	8000c574 <acquire>
8000b304:	e594300c 	ldr	r3, [r4, #12]
8000b308:	e1a00004 	mov	r0, r4
8000b30c:	e3c33001 	bic	r3, r3, #1
8000b310:	e584300c 	str	r3, [r4, #12]
8000b314:	eb002c2a 	bl	800163c4 <wakeup>
8000b318:	e30c0360 	movw	r0, #50016	; 0xc360
8000b31c:	e3480009 	movt	r0, #32777	; 0x8009
8000b320:	e8bd4010 	pop	{r4, lr}
8000b324:	ea0004c8 	b	8000c64c <release>
8000b328:	e3070db0 	movw	r0, #32176	; 0x7db0
8000b32c:	e3480001 	movt	r0, #32769	; 0x8001
8000b330:	eb000333 	bl	8000c004 <panic>

8000b334 <iput>:
8000b334:	e92d41f0 	push	{r4, r5, r6, r7, r8, lr}
8000b338:	e1a05000 	mov	r5, r0
8000b33c:	e30c0360 	movw	r0, #50016	; 0xc360
8000b340:	e3480009 	movt	r0, #32777	; 0x8009
8000b344:	eb00048a 	bl	8000c574 <acquire>
8000b348:	e5953008 	ldr	r3, [r5, #8]
8000b34c:	e3530001 	cmp	r3, #1
8000b350:	1a00002c 	bne	8000b408 <iput+0xd4>
8000b354:	e595200c 	ldr	r2, [r5, #12]
8000b358:	e3120002 	tst	r2, #2
8000b35c:	0a000029 	beq	8000b408 <iput+0xd4>
8000b360:	e1d511f6 	ldrsh	r1, [r5, #22]
8000b364:	e3510000 	cmp	r1, #0
8000b368:	1a000026 	bne	8000b408 <iput+0xd4>
8000b36c:	e2127001 	ands	r7, r2, #1
8000b370:	1a000040 	bne	8000b478 <iput+0x144>
8000b374:	e3822001 	orr	r2, r2, #1
8000b378:	e30c0360 	movw	r0, #50016	; 0xc360
8000b37c:	e585200c 	str	r2, [r5, #12]
8000b380:	e285401c 	add	r4, r5, #28
8000b384:	e3480009 	movt	r0, #32777	; 0x8009
8000b388:	e285604c 	add	r6, r5, #76	; 0x4c
8000b38c:	eb0004ae 	bl	8000c64c <release>
8000b390:	ea000002 	b	8000b3a0 <iput+0x6c>
8000b394:	e2844004 	add	r4, r4, #4
8000b398:	e1540006 	cmp	r4, r6
8000b39c:	0a000008 	beq	8000b3c4 <iput+0x90>
8000b3a0:	e5941000 	ldr	r1, [r4]
8000b3a4:	e3510000 	cmp	r1, #0
8000b3a8:	0afffff9 	beq	8000b394 <iput+0x60>
8000b3ac:	e5950000 	ldr	r0, [r5]
8000b3b0:	e2844004 	add	r4, r4, #4
8000b3b4:	ebfffe93 	bl	8000ae08 <bfree>
8000b3b8:	e5047004 	str	r7, [r4, #-4]
8000b3bc:	e1540006 	cmp	r4, r6
8000b3c0:	1afffff6 	bne	8000b3a0 <iput+0x6c>
8000b3c4:	e595104c 	ldr	r1, [r5, #76]	; 0x4c
8000b3c8:	e3510000 	cmp	r1, #0
8000b3cc:	1a000013 	bne	8000b420 <iput+0xec>
8000b3d0:	e3a04000 	mov	r4, #0
8000b3d4:	e1a00005 	mov	r0, r5
8000b3d8:	e5854018 	str	r4, [r5, #24]
8000b3dc:	ebffff4e 	bl	8000b11c <iupdate>
8000b3e0:	e1c541b0 	strh	r4, [r5, #16]
8000b3e4:	e1a00005 	mov	r0, r5
8000b3e8:	ebffff4b 	bl	8000b11c <iupdate>
8000b3ec:	e30c0360 	movw	r0, #50016	; 0xc360
8000b3f0:	e3480009 	movt	r0, #32777	; 0x8009
8000b3f4:	eb00045e 	bl	8000c574 <acquire>
8000b3f8:	e585400c 	str	r4, [r5, #12]
8000b3fc:	e1a00005 	mov	r0, r5
8000b400:	eb002bef 	bl	800163c4 <wakeup>
8000b404:	e5953008 	ldr	r3, [r5, #8]
8000b408:	e2433001 	sub	r3, r3, #1
8000b40c:	e30c0360 	movw	r0, #50016	; 0xc360
8000b410:	e5853008 	str	r3, [r5, #8]
8000b414:	e3480009 	movt	r0, #32777	; 0x8009
8000b418:	e8bd41f0 	pop	{r4, r5, r6, r7, r8, lr}
8000b41c:	ea00048a 	b	8000c64c <release>
8000b420:	e5950000 	ldr	r0, [r5]
8000b424:	ebfffc5f 	bl	8000a5a8 <bread>
8000b428:	e1a07000 	mov	r7, r0
8000b42c:	e2804014 	add	r4, r0, #20
8000b430:	e2806f85 	add	r6, r0, #532	; 0x214
8000b434:	ea000001 	b	8000b440 <iput+0x10c>
8000b438:	e1560004 	cmp	r6, r4
8000b43c:	0a000005 	beq	8000b458 <iput+0x124>
8000b440:	e5b41004 	ldr	r1, [r4, #4]!
8000b444:	e3510000 	cmp	r1, #0
8000b448:	0afffffa 	beq	8000b438 <iput+0x104>
8000b44c:	e5950000 	ldr	r0, [r5]
8000b450:	ebfffe6c 	bl	8000ae08 <bfree>
8000b454:	eafffff7 	b	8000b438 <iput+0x104>
8000b458:	e1a00007 	mov	r0, r7
8000b45c:	ebfffc9b 	bl	8000a6d0 <brelse>
8000b460:	e595104c 	ldr	r1, [r5, #76]	; 0x4c
8000b464:	e5950000 	ldr	r0, [r5]
8000b468:	ebfffe66 	bl	8000ae08 <bfree>
8000b46c:	e3a03000 	mov	r3, #0
8000b470:	e585304c 	str	r3, [r5, #76]	; 0x4c
8000b474:	eaffffd5 	b	8000b3d0 <iput+0x9c>
8000b478:	e3070db8 	movw	r0, #32184	; 0x7db8
8000b47c:	e3480001 	movt	r0, #32769	; 0x8001
8000b480:	eb0002df 	bl	8000c004 <panic>

8000b484 <iunlockput>:
8000b484:	e92d4010 	push	{r4, lr}
8000b488:	e1a04000 	mov	r4, r0
8000b48c:	ebffff90 	bl	8000b2d4 <iunlock>
8000b490:	e1a00004 	mov	r0, r4
8000b494:	e8bd4010 	pop	{r4, lr}
8000b498:	eaffffa5 	b	8000b334 <iput>

8000b49c <stati>:
8000b49c:	e1d0c1b0 	ldrh	ip, [r0, #16]
8000b4a0:	e1d021b6 	ldrh	r2, [r0, #22]
8000b4a4:	e5903018 	ldr	r3, [r0, #24]
8000b4a8:	e92d4010 	push	{r4, lr}
8000b4ac:	e8904010 	ldm	r0, {r4, lr}
8000b4b0:	e1c1c0b0 	strh	ip, [r1]
8000b4b4:	e9814010 	stmib	r1, {r4, lr}
8000b4b8:	e1c120bc 	strh	r2, [r1, #12]
8000b4bc:	e5813010 	str	r3, [r1, #16]
8000b4c0:	e8bd8010 	pop	{r4, pc}

8000b4c4 <readi>:
8000b4c4:	e92d47f0 	push	{r4, r5, r6, r7, r8, r9, sl, lr}
8000b4c8:	e1a05002 	mov	r5, r2
8000b4cc:	e1d021f0 	ldrsh	r2, [r0, #16]
8000b4d0:	e1a0a000 	mov	sl, r0
8000b4d4:	e1a09003 	mov	r9, r3
8000b4d8:	e3520003 	cmp	r2, #3
8000b4dc:	0a000025 	beq	8000b578 <readi+0xb4>
8000b4e0:	e5903018 	ldr	r3, [r0, #24]
8000b4e4:	e1530005 	cmp	r3, r5
8000b4e8:	3a00002e 	bcc	8000b5a8 <readi+0xe4>
8000b4ec:	e0992005 	adds	r2, r9, r5
8000b4f0:	2a00002c 	bcs	8000b5a8 <readi+0xe4>
8000b4f4:	e1530002 	cmp	r3, r2
8000b4f8:	e1a07001 	mov	r7, r1
8000b4fc:	30439005 	subcc	r9, r3, r5
8000b500:	e3590000 	cmp	r9, #0
8000b504:	13a06000 	movne	r6, #0
8000b508:	0a000018 	beq	8000b570 <readi+0xac>
8000b50c:	e59a4000 	ldr	r4, [sl]
8000b510:	e1a0000a 	mov	r0, sl
8000b514:	e1a014a5 	lsr	r1, r5, #9
8000b518:	ebfffe98 	bl	8000af80 <bmap>
8000b51c:	e1a01000 	mov	r1, r0
8000b520:	e1a00004 	mov	r0, r4
8000b524:	ebfffc1f 	bl	8000a5a8 <bread>
8000b528:	e7e82055 	ubfx	r2, r5, #0, #9
8000b52c:	e1a08000 	mov	r8, r0
8000b530:	e0493006 	sub	r3, r9, r6
8000b534:	e2624c02 	rsb	r4, r2, #512	; 0x200
8000b538:	e1540003 	cmp	r4, r3
8000b53c:	e2881018 	add	r1, r8, #24
8000b540:	e0811002 	add	r1, r1, r2
8000b544:	21a04003 	movcs	r4, r3
8000b548:	e0866004 	add	r6, r6, r4
8000b54c:	e1a00007 	mov	r0, r7
8000b550:	e0855004 	add	r5, r5, r4
8000b554:	e1a02004 	mov	r2, r4
8000b558:	e0877004 	add	r7, r7, r4
8000b55c:	eb001c8b 	bl	80012790 <memmove>
8000b560:	e1a00008 	mov	r0, r8
8000b564:	ebfffc59 	bl	8000a6d0 <brelse>
8000b568:	e1590006 	cmp	r9, r6
8000b56c:	8affffe6 	bhi	8000b50c <readi+0x48>
8000b570:	e1a00009 	mov	r0, r9
8000b574:	e8bd87f0 	pop	{r4, r5, r6, r7, r8, r9, sl, pc}
8000b578:	e1d021f2 	ldrsh	r2, [r0, #18]
8000b57c:	e6ff3072 	uxth	r3, r2
8000b580:	e3530009 	cmp	r3, #9
8000b584:	8a000007 	bhi	8000b5a8 <readi+0xe4>
8000b588:	e30d3e34 	movw	r3, #56884	; 0xde34
8000b58c:	e3483009 	movt	r3, #32777	; 0x8009
8000b590:	e7933182 	ldr	r3, [r3, r2, lsl #3]
8000b594:	e3530000 	cmp	r3, #0
8000b598:	0a000002 	beq	8000b5a8 <readi+0xe4>
8000b59c:	e1a02009 	mov	r2, r9
8000b5a0:	e8bd47f0 	pop	{r4, r5, r6, r7, r8, r9, sl, lr}
8000b5a4:	e12fff13 	bx	r3
8000b5a8:	e3e00000 	mvn	r0, #0
8000b5ac:	e8bd87f0 	pop	{r4, r5, r6, r7, r8, r9, sl, pc}

8000b5b0 <writei>:
8000b5b0:	e92d47f0 	push	{r4, r5, r6, r7, r8, r9, sl, lr}
8000b5b4:	e1a06002 	mov	r6, r2
8000b5b8:	e1d021f0 	ldrsh	r2, [r0, #16]
8000b5bc:	e1a0a000 	mov	sl, r0
8000b5c0:	e1a09003 	mov	r9, r3
8000b5c4:	e3520003 	cmp	r2, #3
8000b5c8:	0a00002c 	beq	8000b680 <writei+0xd0>
8000b5cc:	e5903018 	ldr	r3, [r0, #24]
8000b5d0:	e1530006 	cmp	r3, r6
8000b5d4:	3a00003a 	bcc	8000b6c4 <writei+0x114>
8000b5d8:	e0993006 	adds	r3, r9, r6
8000b5dc:	23a05001 	movcs	r5, #1
8000b5e0:	33a05000 	movcc	r5, #0
8000b5e4:	e3530b46 	cmp	r3, #71680	; 0x11800
8000b5e8:	83855001 	orrhi	r5, r5, #1
8000b5ec:	e3550000 	cmp	r5, #0
8000b5f0:	1a000033 	bne	8000b6c4 <writei+0x114>
8000b5f4:	e3590000 	cmp	r9, #0
8000b5f8:	e1a08001 	mov	r8, r1
8000b5fc:	0a00001d 	beq	8000b678 <writei+0xc8>
8000b600:	e59a4000 	ldr	r4, [sl]
8000b604:	e1a0000a 	mov	r0, sl
8000b608:	e1a014a6 	lsr	r1, r6, #9
8000b60c:	ebfffe5b 	bl	8000af80 <bmap>
8000b610:	e1a01000 	mov	r1, r0
8000b614:	e1a00004 	mov	r0, r4
8000b618:	ebfffbe2 	bl	8000a5a8 <bread>
8000b61c:	e7e82056 	ubfx	r2, r6, #0, #9
8000b620:	e1a07000 	mov	r7, r0
8000b624:	e0493005 	sub	r3, r9, r5
8000b628:	e2624c02 	rsb	r4, r2, #512	; 0x200
8000b62c:	e1540003 	cmp	r4, r3
8000b630:	e2800018 	add	r0, r0, #24
8000b634:	e0800002 	add	r0, r0, r2
8000b638:	21a04003 	movcs	r4, r3
8000b63c:	e0855004 	add	r5, r5, r4
8000b640:	e1a01008 	mov	r1, r8
8000b644:	e0866004 	add	r6, r6, r4
8000b648:	e1a02004 	mov	r2, r4
8000b64c:	e0888004 	add	r8, r8, r4
8000b650:	eb001c4e 	bl	80012790 <memmove>
8000b654:	e1a00007 	mov	r0, r7
8000b658:	eb001449 	bl	80010784 <log_write>
8000b65c:	e1a00007 	mov	r0, r7
8000b660:	ebfffc1a 	bl	8000a6d0 <brelse>
8000b664:	e1590005 	cmp	r9, r5
8000b668:	8affffe4 	bhi	8000b600 <writei+0x50>
8000b66c:	e59a3018 	ldr	r3, [sl, #24]
8000b670:	e1560003 	cmp	r6, r3
8000b674:	8a00000e 	bhi	8000b6b4 <writei+0x104>
8000b678:	e1a00009 	mov	r0, r9
8000b67c:	e8bd87f0 	pop	{r4, r5, r6, r7, r8, r9, sl, pc}
8000b680:	e1d021f2 	ldrsh	r2, [r0, #18]
8000b684:	e6ff3072 	uxth	r3, r2
8000b688:	e3530009 	cmp	r3, #9
8000b68c:	8a00000c 	bhi	8000b6c4 <writei+0x114>
8000b690:	e30d3e34 	movw	r3, #56884	; 0xde34
8000b694:	e3483009 	movt	r3, #32777	; 0x8009
8000b698:	e0833182 	add	r3, r3, r2, lsl #3
8000b69c:	e5933004 	ldr	r3, [r3, #4]
8000b6a0:	e3530000 	cmp	r3, #0
8000b6a4:	0a000006 	beq	8000b6c4 <writei+0x114>
8000b6a8:	e1a02009 	mov	r2, r9
8000b6ac:	e8bd47f0 	pop	{r4, r5, r6, r7, r8, r9, sl, lr}
8000b6b0:	e12fff13 	bx	r3
8000b6b4:	e58a6018 	str	r6, [sl, #24]
8000b6b8:	e1a0000a 	mov	r0, sl
8000b6bc:	ebfffe96 	bl	8000b11c <iupdate>
8000b6c0:	eaffffec 	b	8000b678 <writei+0xc8>
8000b6c4:	e3e00000 	mvn	r0, #0
8000b6c8:	e8bd87f0 	pop	{r4, r5, r6, r7, r8, r9, sl, pc}

8000b6cc <namecmp>:
8000b6cc:	e3a0200e 	mov	r2, #14
8000b6d0:	ea001c47 	b	800127f4 <strncmp>

8000b6d4 <dirlookup>:
8000b6d4:	e1d031f0 	ldrsh	r3, [r0, #16]
8000b6d8:	e92d40f0 	push	{r4, r5, r6, r7, lr}
8000b6dc:	e3530001 	cmp	r3, #1
8000b6e0:	e24dd014 	sub	sp, sp, #20
8000b6e4:	1a000028 	bne	8000b78c <dirlookup+0xb8>
8000b6e8:	e5903018 	ldr	r3, [r0, #24]
8000b6ec:	e1a05000 	mov	r5, r0
8000b6f0:	e3530000 	cmp	r3, #0
8000b6f4:	11a06001 	movne	r6, r1
8000b6f8:	11a07002 	movne	r7, r2
8000b6fc:	13a04000 	movne	r4, #0
8000b700:	1a000004 	bne	8000b718 <dirlookup+0x44>
8000b704:	ea00001a 	b	8000b774 <dirlookup+0xa0>
8000b708:	e5953018 	ldr	r3, [r5, #24]
8000b70c:	e2844010 	add	r4, r4, #16
8000b710:	e1530004 	cmp	r3, r4
8000b714:	9a000016 	bls	8000b774 <dirlookup+0xa0>
8000b718:	e3a03010 	mov	r3, #16
8000b71c:	e1a02004 	mov	r2, r4
8000b720:	e1a0100d 	mov	r1, sp
8000b724:	e1a00005 	mov	r0, r5
8000b728:	ebffff65 	bl	8000b4c4 <readi>
8000b72c:	e3500010 	cmp	r0, #16
8000b730:	1a000012 	bne	8000b780 <dirlookup+0xac>
8000b734:	e1dd30b0 	ldrh	r3, [sp]
8000b738:	e3530000 	cmp	r3, #0
8000b73c:	0afffff1 	beq	8000b708 <dirlookup+0x34>
8000b740:	e3a0200e 	mov	r2, #14
8000b744:	e28d1002 	add	r1, sp, #2
8000b748:	e1a00006 	mov	r0, r6
8000b74c:	eb001c28 	bl	800127f4 <strncmp>
8000b750:	e3500000 	cmp	r0, #0
8000b754:	1affffeb 	bne	8000b708 <dirlookup+0x34>
8000b758:	e1dd10b0 	ldrh	r1, [sp]
8000b75c:	e3570000 	cmp	r7, #0
8000b760:	15874000 	strne	r4, [r7]
8000b764:	e5950000 	ldr	r0, [r5]
8000b768:	ebfffd64 	bl	8000ad00 <iget>
8000b76c:	e28dd014 	add	sp, sp, #20
8000b770:	e8bd80f0 	pop	{r4, r5, r6, r7, pc}
8000b774:	e3a00000 	mov	r0, #0
8000b778:	e28dd014 	add	sp, sp, #20
8000b77c:	e8bd80f0 	pop	{r4, r5, r6, r7, pc}
8000b780:	e3070dd8 	movw	r0, #32216	; 0x7dd8
8000b784:	e3480001 	movt	r0, #32769	; 0x8001
8000b788:	eb00021d 	bl	8000c004 <panic>
8000b78c:	e3070dc4 	movw	r0, #32196	; 0x7dc4
8000b790:	e3480001 	movt	r0, #32769	; 0x8001
8000b794:	eb00021a 	bl	8000c004 <panic>

8000b798 <namex>:
8000b798:	e92d47f0 	push	{r4, r5, r6, r7, r8, r9, sl, lr}
8000b79c:	e1a04000 	mov	r4, r0
8000b7a0:	e5d03000 	ldrb	r3, [r0]
8000b7a4:	e1a08001 	mov	r8, r1
8000b7a8:	e1a07002 	mov	r7, r2
8000b7ac:	e353002f 	cmp	r3, #47	; 0x2f
8000b7b0:	0a000058 	beq	8000b918 <namex+0x180>
8000b7b4:	e30a3af4 	movw	r3, #43764	; 0xaaf4
8000b7b8:	e30c0360 	movw	r0, #50016	; 0xc360
8000b7bc:	e3483009 	movt	r3, #32777	; 0x8009
8000b7c0:	e3480009 	movt	r0, #32777	; 0x8009
8000b7c4:	e5933018 	ldr	r3, [r3, #24]
8000b7c8:	e5936068 	ldr	r6, [r3, #104]	; 0x68
8000b7cc:	eb000368 	bl	8000c574 <acquire>
8000b7d0:	e30c0360 	movw	r0, #50016	; 0xc360
8000b7d4:	e5963008 	ldr	r3, [r6, #8]
8000b7d8:	e3480009 	movt	r0, #32777	; 0x8009
8000b7dc:	e2833001 	add	r3, r3, #1
8000b7e0:	e5863008 	str	r3, [r6, #8]
8000b7e4:	eb000398 	bl	8000c64c <release>
8000b7e8:	e3a09000 	mov	r9, #0
8000b7ec:	e5d43000 	ldrb	r3, [r4]
8000b7f0:	e353002f 	cmp	r3, #47	; 0x2f
8000b7f4:	1a000002 	bne	8000b804 <namex+0x6c>
8000b7f8:	e5f43001 	ldrb	r3, [r4, #1]!
8000b7fc:	e353002f 	cmp	r3, #47	; 0x2f
8000b800:	0afffffc 	beq	8000b7f8 <namex+0x60>
8000b804:	e3530000 	cmp	r3, #0
8000b808:	0a000037 	beq	8000b8ec <namex+0x154>
8000b80c:	e5d43000 	ldrb	r3, [r4]
8000b810:	e3530000 	cmp	r3, #0
8000b814:	1353002f 	cmpne	r3, #47	; 0x2f
8000b818:	13a03001 	movne	r3, #1
8000b81c:	03a03000 	moveq	r3, #0
8000b820:	0a000028 	beq	8000b8c8 <namex+0x130>
8000b824:	e1a05004 	mov	r5, r4
8000b828:	e5f53001 	ldrb	r3, [r5, #1]!
8000b82c:	e353002f 	cmp	r3, #47	; 0x2f
8000b830:	13530000 	cmpne	r3, #0
8000b834:	1afffffb 	bne	8000b828 <namex+0x90>
8000b838:	e045a004 	sub	sl, r5, r4
8000b83c:	e35a000d 	cmp	sl, #13
8000b840:	da000022 	ble	8000b8d0 <namex+0x138>
8000b844:	e1a01004 	mov	r1, r4
8000b848:	e3a0200e 	mov	r2, #14
8000b84c:	e1a00007 	mov	r0, r7
8000b850:	e1a04005 	mov	r4, r5
8000b854:	eb001bcd 	bl	80012790 <memmove>
8000b858:	e5d53000 	ldrb	r3, [r5]
8000b85c:	e353002f 	cmp	r3, #47	; 0x2f
8000b860:	1a000002 	bne	8000b870 <namex+0xd8>
8000b864:	e5f43001 	ldrb	r3, [r4, #1]!
8000b868:	e353002f 	cmp	r3, #47	; 0x2f
8000b86c:	0afffffc 	beq	8000b864 <namex+0xcc>
8000b870:	e1a00006 	mov	r0, r6
8000b874:	ebfffe54 	bl	8000b1cc <ilock>
8000b878:	e1d631f0 	ldrsh	r3, [r6, #16]
8000b87c:	e3530001 	cmp	r3, #1
8000b880:	1a00001d 	bne	8000b8fc <namex+0x164>
8000b884:	e3580000 	cmp	r8, #0
8000b888:	0a000002 	beq	8000b898 <namex+0x100>
8000b88c:	e5d43000 	ldrb	r3, [r4]
8000b890:	e3530000 	cmp	r3, #0
8000b894:	0a00002a 	beq	8000b944 <namex+0x1ac>
8000b898:	e3a02000 	mov	r2, #0
8000b89c:	e1a01007 	mov	r1, r7
8000b8a0:	e1a00006 	mov	r0, r6
8000b8a4:	ebffff8a 	bl	8000b6d4 <dirlookup>
8000b8a8:	e2505000 	subs	r5, r0, #0
8000b8ac:	e1a00006 	mov	r0, r6
8000b8b0:	0a00001d 	beq	8000b92c <namex+0x194>
8000b8b4:	ebfffe86 	bl	8000b2d4 <iunlock>
8000b8b8:	e1a00006 	mov	r0, r6
8000b8bc:	e1a06005 	mov	r6, r5
8000b8c0:	ebfffe9b 	bl	8000b334 <iput>
8000b8c4:	eaffffc8 	b	8000b7ec <namex+0x54>
8000b8c8:	e1a0a003 	mov	sl, r3
8000b8cc:	e1a05004 	mov	r5, r4
8000b8d0:	e1a01004 	mov	r1, r4
8000b8d4:	e1a0200a 	mov	r2, sl
8000b8d8:	e1a00007 	mov	r0, r7
8000b8dc:	e1a04005 	mov	r4, r5
8000b8e0:	eb001baa 	bl	80012790 <memmove>
8000b8e4:	e7c7900a 	strb	r9, [r7, sl]
8000b8e8:	eaffffda 	b	8000b858 <namex+0xc0>
8000b8ec:	e3580000 	cmp	r8, #0
8000b8f0:	1a000003 	bne	8000b904 <namex+0x16c>
8000b8f4:	e1a00006 	mov	r0, r6
8000b8f8:	e8bd87f0 	pop	{r4, r5, r6, r7, r8, r9, sl, pc}
8000b8fc:	e1a00006 	mov	r0, r6
8000b900:	ebfffe73 	bl	8000b2d4 <iunlock>
8000b904:	e1a00006 	mov	r0, r6
8000b908:	e3a06000 	mov	r6, #0
8000b90c:	ebfffe88 	bl	8000b334 <iput>
8000b910:	e1a00006 	mov	r0, r6
8000b914:	e8bd87f0 	pop	{r4, r5, r6, r7, r8, r9, sl, pc}
8000b918:	e3a01001 	mov	r1, #1
8000b91c:	e1a00001 	mov	r0, r1
8000b920:	ebfffcf6 	bl	8000ad00 <iget>
8000b924:	e1a06000 	mov	r6, r0
8000b928:	eaffffae 	b	8000b7e8 <namex+0x50>
8000b92c:	ebfffe68 	bl	8000b2d4 <iunlock>
8000b930:	e1a00006 	mov	r0, r6
8000b934:	e1a06005 	mov	r6, r5
8000b938:	ebfffe7d 	bl	8000b334 <iput>
8000b93c:	e1a00006 	mov	r0, r6
8000b940:	e8bd87f0 	pop	{r4, r5, r6, r7, r8, r9, sl, pc}
8000b944:	e1a00006 	mov	r0, r6
8000b948:	ebfffe61 	bl	8000b2d4 <iunlock>
8000b94c:	e1a00006 	mov	r0, r6
8000b950:	e8bd87f0 	pop	{r4, r5, r6, r7, r8, r9, sl, pc}

8000b954 <dirlink>:
8000b954:	e92d41f0 	push	{r4, r5, r6, r7, r8, lr}
8000b958:	e1a07002 	mov	r7, r2
8000b95c:	e24dd010 	sub	sp, sp, #16
8000b960:	e3a02000 	mov	r2, #0
8000b964:	e1a05000 	mov	r5, r0
8000b968:	e1a08001 	mov	r8, r1
8000b96c:	ebffff58 	bl	8000b6d4 <dirlookup>
8000b970:	e2503000 	subs	r3, r0, #0
8000b974:	1a000023 	bne	8000ba08 <dirlink+0xb4>
8000b978:	e5954018 	ldr	r4, [r5, #24]
8000b97c:	e3540000 	cmp	r4, #0
8000b980:	01a0600d 	moveq	r6, sp
8000b984:	0a000010 	beq	8000b9cc <dirlink+0x78>
8000b988:	e1a04003 	mov	r4, r3
8000b98c:	e1a0600d 	mov	r6, sp
8000b990:	ea000003 	b	8000b9a4 <dirlink+0x50>
8000b994:	e5953018 	ldr	r3, [r5, #24]
8000b998:	e2844010 	add	r4, r4, #16
8000b99c:	e1530004 	cmp	r3, r4
8000b9a0:	9a000009 	bls	8000b9cc <dirlink+0x78>
8000b9a4:	e3a03010 	mov	r3, #16
8000b9a8:	e1a02004 	mov	r2, r4
8000b9ac:	e1a01006 	mov	r1, r6
8000b9b0:	e1a00005 	mov	r0, r5
8000b9b4:	ebfffec2 	bl	8000b4c4 <readi>
8000b9b8:	e3500010 	cmp	r0, #16
8000b9bc:	1a000014 	bne	8000ba14 <dirlink+0xc0>
8000b9c0:	e1dd30b0 	ldrh	r3, [sp]
8000b9c4:	e3530000 	cmp	r3, #0
8000b9c8:	1afffff1 	bne	8000b994 <dirlink+0x40>
8000b9cc:	e1a01008 	mov	r1, r8
8000b9d0:	e3a0200e 	mov	r2, #14
8000b9d4:	e28d0002 	add	r0, sp, #2
8000b9d8:	eb001ba0 	bl	80012860 <strncpy>
8000b9dc:	e1cd70b0 	strh	r7, [sp]
8000b9e0:	e1a02004 	mov	r2, r4
8000b9e4:	e1a01006 	mov	r1, r6
8000b9e8:	e1a00005 	mov	r0, r5
8000b9ec:	e3a03010 	mov	r3, #16
8000b9f0:	ebfffeee 	bl	8000b5b0 <writei>
8000b9f4:	e3500010 	cmp	r0, #16
8000b9f8:	03a00000 	moveq	r0, #0
8000b9fc:	1a000007 	bne	8000ba20 <dirlink+0xcc>
8000ba00:	e28dd010 	add	sp, sp, #16
8000ba04:	e8bd81f0 	pop	{r4, r5, r6, r7, r8, pc}
8000ba08:	ebfffe49 	bl	8000b334 <iput>
8000ba0c:	e3e00000 	mvn	r0, #0
8000ba10:	eafffffa 	b	8000ba00 <dirlink+0xac>
8000ba14:	e3070dd8 	movw	r0, #32216	; 0x7dd8
8000ba18:	e3480001 	movt	r0, #32769	; 0x8001
8000ba1c:	eb000178 	bl	8000c004 <panic>
8000ba20:	e3070bdc 	movw	r0, #31708	; 0x7bdc
8000ba24:	e3480001 	movt	r0, #32769	; 0x8001
8000ba28:	eb000175 	bl	8000c004 <panic>

8000ba2c <namei>:
8000ba2c:	e52de004 	push	{lr}		; (str lr, [sp, #-4]!)
8000ba30:	e24dd014 	sub	sp, sp, #20
8000ba34:	e1a0200d 	mov	r2, sp
8000ba38:	e3a01000 	mov	r1, #0
8000ba3c:	ebffff55 	bl	8000b798 <namex>
8000ba40:	e28dd014 	add	sp, sp, #20
8000ba44:	e49df004 	pop	{pc}		; (ldr pc, [sp], #4)

8000ba48 <nameiparent>:
8000ba48:	e1a02001 	mov	r2, r1
8000ba4c:	e3a01001 	mov	r1, #1
8000ba50:	eaffff50 	b	8000b798 <namex>

8000ba54 <consoleread>:
8000ba54:	e92d47f0 	push	{r4, r5, r6, r7, r8, r9, sl, lr}
8000ba58:	e1a06002 	mov	r6, r2
8000ba5c:	e1a08001 	mov	r8, r1
8000ba60:	e1a09000 	mov	r9, r0
8000ba64:	ebfffe1a 	bl	8000b2d4 <iunlock>
8000ba68:	e30d0334 	movw	r0, #54068	; 0xd334
8000ba6c:	e3480009 	movt	r0, #32777	; 0x8009
8000ba70:	eb0002bf 	bl	8000c574 <acquire>
8000ba74:	e3560000 	cmp	r6, #0
8000ba78:	d3a06000 	movle	r6, #0
8000ba7c:	da00001e 	ble	8000bafc <consoleread+0xa8>
8000ba80:	e30d4334 	movw	r4, #54068	; 0xd334
8000ba84:	e30aaaf4 	movw	sl, #43764	; 0xaaf4
8000ba88:	e3484009 	movt	r4, #32777	; 0x8009
8000ba8c:	e1a07006 	mov	r7, r6
8000ba90:	e348a009 	movt	sl, #32777	; 0x8009
8000ba94:	e1a05004 	mov	r5, r4
8000ba98:	ea000006 	b	8000bab8 <consoleread+0x64>
8000ba9c:	e59a3018 	ldr	r3, [sl, #24]
8000baa0:	e5933024 	ldr	r3, [r3, #36]	; 0x24
8000baa4:	e3530000 	cmp	r3, #0
8000baa8:	1a000019 	bne	8000bb14 <consoleread+0xc0>
8000baac:	e59f0090 	ldr	r0, [pc, #144]	; 8000bb44 <consoleread+0xf0>
8000bab0:	e1a01005 	mov	r1, r5
8000bab4:	eb0029de 	bl	80016234 <sleep>
8000bab8:	e59430b4 	ldr	r3, [r4, #180]	; 0xb4
8000babc:	e59420b8 	ldr	r2, [r4, #184]	; 0xb8
8000bac0:	e1530002 	cmp	r3, r2
8000bac4:	0afffff4 	beq	8000ba9c <consoleread+0x48>
8000bac8:	e203207f 	and	r2, r3, #127	; 0x7f
8000bacc:	e2831001 	add	r1, r3, #1
8000bad0:	e0842002 	add	r2, r4, r2
8000bad4:	e58410b4 	str	r1, [r4, #180]	; 0xb4
8000bad8:	e5d22034 	ldrb	r2, [r2, #52]	; 0x34
8000badc:	e3520004 	cmp	r2, #4
8000bae0:	0a000013 	beq	8000bb34 <consoleread+0xe0>
8000bae4:	e4c82001 	strb	r2, [r8], #1
8000bae8:	e352000a 	cmp	r2, #10
8000baec:	e2477001 	sub	r7, r7, #1
8000baf0:	0a000011 	beq	8000bb3c <consoleread+0xe8>
8000baf4:	e3570000 	cmp	r7, #0
8000baf8:	1affffee 	bne	8000bab8 <consoleread+0x64>
8000bafc:	e30d0334 	movw	r0, #54068	; 0xd334
8000bb00:	e3480009 	movt	r0, #32777	; 0x8009
8000bb04:	eb0002d0 	bl	8000c64c <release>
8000bb08:	e1a00009 	mov	r0, r9
8000bb0c:	ebfffdae 	bl	8000b1cc <ilock>
8000bb10:	ea000005 	b	8000bb2c <consoleread+0xd8>
8000bb14:	e30d0334 	movw	r0, #54068	; 0xd334
8000bb18:	e3e06000 	mvn	r6, #0
8000bb1c:	e3480009 	movt	r0, #32777	; 0x8009
8000bb20:	eb0002c9 	bl	8000c64c <release>
8000bb24:	e1a00009 	mov	r0, r9
8000bb28:	ebfffda7 	bl	8000b1cc <ilock>
8000bb2c:	e1a00006 	mov	r0, r6
8000bb30:	e8bd87f0 	pop	{r4, r5, r6, r7, r8, r9, sl, pc}
8000bb34:	e1560007 	cmp	r6, r7
8000bb38:	858430b4 	strhi	r3, [r4, #180]	; 0xb4
8000bb3c:	e0466007 	sub	r6, r6, r7
8000bb40:	eaffffed 	b	8000bafc <consoleread+0xa8>
8000bb44:	8009d3e8 	.word	0x8009d3e8

8000bb48 <setgpucolour>:
8000bb48:	e30a3854 	movw	r3, #43092	; 0xa854
8000bb4c:	e3483009 	movt	r3, #32777	; 0x8009
8000bb50:	e5830000 	str	r0, [r3]
8000bb54:	e12fff1e 	bx	lr

8000bb58 <initframebuf>:
8000bb58:	e30a3920 	movw	r3, #43296	; 0xa920
8000bb5c:	e3a0c000 	mov	ip, #0
8000bb60:	e3483009 	movt	r3, #32777	; 0x8009
8000bb64:	e92d4010 	push	{r4, lr}
8000bb68:	e1a0e001 	mov	lr, r1
8000bb6c:	e5830000 	str	r0, [r3]
8000bb70:	e1a04000 	mov	r4, r0
8000bb74:	e5831004 	str	r1, [r3, #4]
8000bb78:	e1a00003 	mov	r0, r3
8000bb7c:	e5834008 	str	r4, [r3, #8]
8000bb80:	e3a01001 	mov	r1, #1
8000bb84:	e583e00c 	str	lr, [r3, #12]
8000bb88:	e5832014 	str	r2, [r3, #20]
8000bb8c:	e583c010 	str	ip, [r3, #16]
8000bb90:	e583c018 	str	ip, [r3, #24]
8000bb94:	e583c01c 	str	ip, [r3, #28]
8000bb98:	e583c020 	str	ip, [r3, #32]
8000bb9c:	e583c024 	str	ip, [r3, #36]	; 0x24
8000bba0:	eb001042 	bl	8000fcb0 <writemailbox>
8000bba4:	e3a00001 	mov	r0, #1
8000bba8:	e8bd4010 	pop	{r4, lr}
8000bbac:	ea001031 	b	8000fc78 <readmailbox>

8000bbb0 <drawpixel>:
8000bbb0:	e30a3854 	movw	r3, #43092	; 0xa854
8000bbb4:	e3483009 	movt	r3, #32777	; 0x8009
8000bbb8:	e5932004 	ldr	r2, [r3, #4]
8000bbbc:	e1520000 	cmp	r2, r0
8000bbc0:	912fff1e 	bxls	lr
8000bbc4:	e593c008 	ldr	ip, [r3, #8]
8000bbc8:	e15c0001 	cmp	ip, r1
8000bbcc:	912fff1e 	bxls	lr
8000bbd0:	e593c000 	ldr	ip, [r3]
8000bbd4:	e30a3920 	movw	r3, #43296	; 0xa920
8000bbd8:	e0220291 	mla	r2, r1, r2, r0
8000bbdc:	e3483009 	movt	r3, #32777	; 0x8009
8000bbe0:	e1a02082 	lsl	r2, r2, #1
8000bbe4:	e5933020 	ldr	r3, [r3, #32]
8000bbe8:	e183c0b2 	strh	ip, [r3, r2]
8000bbec:	e12fff1e 	bx	lr

8000bbf0 <drawcursor>:
8000bbf0:	e30a3854 	movw	r3, #43092	; 0xa854
8000bbf4:	e30a2920 	movw	r2, #43296	; 0xa920
8000bbf8:	e3483009 	movt	r3, #32777	; 0x8009
8000bbfc:	e3482009 	movt	r2, #32777	; 0x8009
8000bc00:	e593c004 	ldr	ip, [r3, #4]
8000bc04:	e92d41f0 	push	{r4, r5, r6, r7, r8, lr}
8000bc08:	e281800f 	add	r8, r1, #15
8000bc0c:	e5925020 	ldr	r5, [r2, #32]
8000bc10:	e280e008 	add	lr, r0, #8
8000bc14:	e022019c 	mla	r2, ip, r1, r0
8000bc18:	e1a0708c 	lsl	r7, ip, #1
8000bc1c:	e0855082 	add	r5, r5, r2, lsl #1
8000bc20:	e5934008 	ldr	r4, [r3, #8]
8000bc24:	e1d360b0 	ldrh	r6, [r3]
8000bc28:	e1a02005 	mov	r2, r5
8000bc2c:	e1a03000 	mov	r3, r0
8000bc30:	e153000c 	cmp	r3, ip
8000bc34:	e2833001 	add	r3, r3, #1
8000bc38:	2a000001 	bcs	8000bc44 <drawcursor+0x54>
8000bc3c:	e1540001 	cmp	r4, r1
8000bc40:	81c260b0 	strhhi	r6, [r2]
8000bc44:	e153000e 	cmp	r3, lr
8000bc48:	e2822002 	add	r2, r2, #2
8000bc4c:	1afffff7 	bne	8000bc30 <drawcursor+0x40>
8000bc50:	e0855007 	add	r5, r5, r7
8000bc54:	e2811001 	add	r1, r1, #1
8000bc58:	e1510008 	cmp	r1, r8
8000bc5c:	1afffff1 	bne	8000bc28 <drawcursor+0x38>
8000bc60:	e8bd81f0 	pop	{r4, r5, r6, r7, r8, pc}

8000bc64 <drawcharacter>:
8000bc64:	e3100080 	tst	r0, #128	; 0x80
8000bc68:	112fff1e 	bxne	lr
8000bc6c:	e30a3854 	movw	r3, #43092	; 0xa854
8000bc70:	e30ac920 	movw	ip, #43296	; 0xa920
8000bc74:	e3483009 	movt	r3, #32777	; 0x8009
8000bc78:	e92d4ff0 	push	{r4, r5, r6, r7, r8, r9, sl, fp, lr}
8000bc7c:	e30a7000 	movw	r7, #40960	; 0xa000
8000bc80:	e348c009 	movt	ip, #32777	; 0x8009
8000bc84:	e282b00f 	add	fp, r2, #15
8000bc88:	e5935004 	ldr	r5, [r3, #4]
8000bc8c:	e59c6020 	ldr	r6, [ip, #32]
8000bc90:	e02c1295 	mla	ip, r5, r2, r1
8000bc94:	e3487001 	movt	r7, #32769	; 0x8001
8000bc98:	e086608c 	add	r6, r6, ip, lsl #1
8000bc9c:	e1a0a085 	lsl	sl, r5, #1
8000bca0:	e5938008 	ldr	r8, [r3, #8]
8000bca4:	e1d390b0 	ldrh	r9, [r3]
8000bca8:	e0877200 	add	r7, r7, r0, lsl #4
8000bcac:	e4d74001 	ldrb	r4, [r7], #1
8000bcb0:	e1a0c006 	mov	ip, r6
8000bcb4:	e3a03000 	mov	r3, #0
8000bcb8:	e1a00354 	asr	r0, r4, r3
8000bcbc:	e081e003 	add	lr, r1, r3
8000bcc0:	e3100001 	tst	r0, #1
8000bcc4:	e2833001 	add	r3, r3, #1
8000bcc8:	0a000003 	beq	8000bcdc <drawcharacter+0x78>
8000bccc:	e15e0005 	cmp	lr, r5
8000bcd0:	2a000001 	bcs	8000bcdc <drawcharacter+0x78>
8000bcd4:	e1580002 	cmp	r8, r2
8000bcd8:	81cc90b0 	strhhi	r9, [ip]
8000bcdc:	e3530008 	cmp	r3, #8
8000bce0:	e28cc002 	add	ip, ip, #2
8000bce4:	1afffff3 	bne	8000bcb8 <drawcharacter+0x54>
8000bce8:	e086600a 	add	r6, r6, sl
8000bcec:	e2822001 	add	r2, r2, #1
8000bcf0:	e152000b 	cmp	r2, fp
8000bcf4:	1affffec 	bne	8000bcac <drawcharacter+0x48>
8000bcf8:	e8bd8ff0 	pop	{r4, r5, r6, r7, r8, r9, sl, fp, pc}

8000bcfc <gpuputc>:
8000bcfc:	e92d4070 	push	{r4, r5, r6, lr}
8000bd00:	e30a5920 	movw	r5, #43296	; 0xa920
8000bd04:	e3485009 	movt	r5, #32777	; 0x8009
8000bd08:	e5953020 	ldr	r3, [r5, #32]
8000bd0c:	e3530000 	cmp	r3, #0
8000bd10:	08bd8070 	popeq	{r4, r5, r6, pc}
8000bd14:	e350000a 	cmp	r0, #10
8000bd18:	e1a06000 	mov	r6, r0
8000bd1c:	e30a4854 	movw	r4, #43092	; 0xa854
8000bd20:	0a000043 	beq	8000be34 <gpuputc+0x138>
8000bd24:	e3500c01 	cmp	r0, #256	; 0x100
8000bd28:	1a00000d 	bne	8000bd64 <gpuputc+0x68>
8000bd2c:	e3484009 	movt	r4, #32777	; 0x8009
8000bd30:	e594000c 	ldr	r0, [r4, #12]
8000bd34:	e3500000 	cmp	r0, #0
8000bd38:	08bd8070 	popeq	{r4, r5, r6, pc}
8000bd3c:	e5942018 	ldr	r2, [r4, #24]
8000bd40:	e3a03000 	mov	r3, #0
8000bd44:	e5941014 	ldr	r1, [r4, #20]
8000bd48:	e0400002 	sub	r0, r0, r2
8000bd4c:	e5843000 	str	r3, [r4]
8000bd50:	e584000c 	str	r0, [r4, #12]
8000bd54:	ebffffa5 	bl	8000bbf0 <drawcursor>
8000bd58:	e30f3fff 	movw	r3, #65535	; 0xffff
8000bd5c:	e5843000 	str	r3, [r4]
8000bd60:	e8bd8070 	pop	{r4, r5, r6, pc}
8000bd64:	e3484009 	movt	r4, #32777	; 0x8009
8000bd68:	e3a03000 	mov	r3, #0
8000bd6c:	e5941014 	ldr	r1, [r4, #20]
8000bd70:	e594000c 	ldr	r0, [r4, #12]
8000bd74:	e5843000 	str	r3, [r4]
8000bd78:	ebffff9c 	bl	8000bbf0 <drawcursor>
8000bd7c:	e3560020 	cmp	r6, #32
8000bd80:	e30f3fff 	movw	r3, #65535	; 0xffff
8000bd84:	e5843000 	str	r3, [r4]
8000bd88:	0a000003 	beq	8000bd9c <gpuputc+0xa0>
8000bd8c:	e5942014 	ldr	r2, [r4, #20]
8000bd90:	e6ef0076 	uxtb	r0, r6
8000bd94:	e594100c 	ldr	r1, [r4, #12]
8000bd98:	ebffffb1 	bl	8000bc64 <drawcharacter>
8000bd9c:	e594300c 	ldr	r3, [r4, #12]
8000bda0:	e5942018 	ldr	r2, [r4, #24]
8000bda4:	e594c004 	ldr	ip, [r4, #4]
8000bda8:	e0833002 	add	r3, r3, r2
8000bdac:	e153000c 	cmp	r3, ip
8000bdb0:	e584300c 	str	r3, [r4, #12]
8000bdb4:	38bd8070 	popcc	{r4, r5, r6, pc}
8000bdb8:	e5943014 	ldr	r3, [r4, #20]
8000bdbc:	e3a06000 	mov	r6, #0
8000bdc0:	e5940010 	ldr	r0, [r4, #16]
8000bdc4:	e5942008 	ldr	r2, [r4, #8]
8000bdc8:	e0803003 	add	r3, r0, r3
8000bdcc:	e1530002 	cmp	r3, r2
8000bdd0:	e5843014 	str	r3, [r4, #20]
8000bdd4:	e584600c 	str	r6, [r4, #12]
8000bdd8:	38bd8070 	popcc	{r4, r5, r6, pc}
8000bddc:	e5953020 	ldr	r3, [r5, #32]
8000bde0:	e0010c90 	mul	r1, r0, ip
8000bde4:	e0422000 	sub	r2, r2, r0
8000bde8:	e1a00003 	mov	r0, r3
8000bdec:	e1a0c08c 	lsl	ip, ip, #1
8000bdf0:	e0831081 	add	r1, r3, r1, lsl #1
8000bdf4:	e002029c 	mul	r2, ip, r2
8000bdf8:	eb001a64 	bl	80012790 <memmove>
8000bdfc:	e594000c 	ldr	r0, [r4, #12]
8000be00:	e5942004 	ldr	r2, [r4, #4]
8000be04:	e5941008 	ldr	r1, [r4, #8]
8000be08:	e5943010 	ldr	r3, [r4, #16]
8000be0c:	e1500002 	cmp	r0, r2
8000be10:	e0411003 	sub	r1, r1, r3
8000be14:	e5846000 	str	r6, [r4]
8000be18:	e5841014 	str	r1, [r4, #20]
8000be1c:	3a00002b 	bcc	8000bed0 <gpuputc+0x1d4>
8000be20:	e30f2fff 	movw	r2, #65535	; 0xffff
8000be24:	e3a03000 	mov	r3, #0
8000be28:	e5842000 	str	r2, [r4]
8000be2c:	e584300c 	str	r3, [r4, #12]
8000be30:	e8bd8070 	pop	{r4, r5, r6, pc}
8000be34:	e3484009 	movt	r4, #32777	; 0x8009
8000be38:	e3a05000 	mov	r5, #0
8000be3c:	e5940014 	ldr	r0, [r4, #20]
8000be40:	e5941010 	ldr	r1, [r4, #16]
8000be44:	e5942008 	ldr	r2, [r4, #8]
8000be48:	e0810000 	add	r0, r1, r0
8000be4c:	e1500002 	cmp	r0, r2
8000be50:	e5840014 	str	r0, [r4, #20]
8000be54:	e584500c 	str	r5, [r4, #12]
8000be58:	38bd8070 	popcc	{r4, r5, r6, pc}
8000be5c:	e594c004 	ldr	ip, [r4, #4]
8000be60:	e1a00003 	mov	r0, r3
8000be64:	e0422001 	sub	r2, r2, r1
8000be68:	e001019c 	mul	r1, ip, r1
8000be6c:	e1a0c08c 	lsl	ip, ip, #1
8000be70:	e0831081 	add	r1, r3, r1, lsl #1
8000be74:	e0020c92 	mul	r2, r2, ip
8000be78:	eb001a44 	bl	80012790 <memmove>
8000be7c:	e594000c 	ldr	r0, [r4, #12]
8000be80:	e5942004 	ldr	r2, [r4, #4]
8000be84:	e5941008 	ldr	r1, [r4, #8]
8000be88:	e5943010 	ldr	r3, [r4, #16]
8000be8c:	e1520000 	cmp	r2, r0
8000be90:	e0411003 	sub	r1, r1, r3
8000be94:	e5845000 	str	r5, [r4]
8000be98:	e5841014 	str	r1, [r4, #20]
8000be9c:	8a000001 	bhi	8000bea8 <gpuputc+0x1ac>
8000bea0:	eaffffde 	b	8000be20 <gpuputc+0x124>
8000bea4:	e5941014 	ldr	r1, [r4, #20]
8000bea8:	ebffff50 	bl	8000bbf0 <drawcursor>
8000beac:	e594000c 	ldr	r0, [r4, #12]
8000beb0:	e5942018 	ldr	r2, [r4, #24]
8000beb4:	e5943004 	ldr	r3, [r4, #4]
8000beb8:	e0800002 	add	r0, r0, r2
8000bebc:	e1530000 	cmp	r3, r0
8000bec0:	e584000c 	str	r0, [r4, #12]
8000bec4:	8afffff6 	bhi	8000bea4 <gpuputc+0x1a8>
8000bec8:	eaffffd4 	b	8000be20 <gpuputc+0x124>
8000becc:	e5941014 	ldr	r1, [r4, #20]
8000bed0:	ebffff46 	bl	8000bbf0 <drawcursor>
8000bed4:	e594000c 	ldr	r0, [r4, #12]
8000bed8:	e5942018 	ldr	r2, [r4, #24]
8000bedc:	e5943004 	ldr	r3, [r4, #4]
8000bee0:	e0800002 	add	r0, r0, r2
8000bee4:	e1530000 	cmp	r3, r0
8000bee8:	e584000c 	str	r0, [r4, #12]
8000beec:	8afffff6 	bhi	8000becc <gpuputc+0x1d0>
8000bef0:	eaffffca 	b	8000be20 <gpuputc+0x124>

8000bef4 <consolewrite>:
8000bef4:	e92d41f0 	push	{r4, r5, r6, r7, r8, lr}
8000bef8:	e1a07002 	mov	r7, r2
8000befc:	e1a04001 	mov	r4, r1
8000bf00:	e1a08000 	mov	r8, r0
8000bf04:	ebfffcf2 	bl	8000b2d4 <iunlock>
8000bf08:	e59f0040 	ldr	r0, [pc, #64]	; 8000bf50 <consolewrite+0x5c>
8000bf0c:	eb000198 	bl	8000c574 <acquire>
8000bf10:	e3570000 	cmp	r7, #0
8000bf14:	da000007 	ble	8000bf38 <consolewrite+0x44>
8000bf18:	e0846007 	add	r6, r4, r7
8000bf1c:	e1a05004 	mov	r5, r4
8000bf20:	e4d40001 	ldrb	r0, [r4], #1
8000bf24:	ebffff74 	bl	8000bcfc <gpuputc>
8000bf28:	e5d50000 	ldrb	r0, [r5]
8000bf2c:	eb0012fd 	bl	80010b28 <uartputc>
8000bf30:	e1540006 	cmp	r4, r6
8000bf34:	1afffff8 	bne	8000bf1c <consolewrite+0x28>
8000bf38:	e59f0010 	ldr	r0, [pc, #16]	; 8000bf50 <consolewrite+0x5c>
8000bf3c:	eb0001c2 	bl	8000c64c <release>
8000bf40:	e1a00008 	mov	r0, r8
8000bf44:	ebfffca0 	bl	8000b1cc <ilock>
8000bf48:	e1a00007 	mov	r0, r7
8000bf4c:	e8bd81f0 	pop	{r4, r5, r6, r7, r8, pc}
8000bf50:	8009a948 	.word	0x8009a948

8000bf54 <printint>:
8000bf54:	e3520000 	cmp	r2, #0
8000bf58:	e92d43f0 	push	{r4, r5, r6, r7, r8, r9, lr}
8000bf5c:	e1a06001 	mov	r6, r1
8000bf60:	e24dd014 	sub	sp, sp, #20
8000bf64:	0a000003 	beq	8000bf78 <printint+0x24>
8000bf68:	e3500000 	cmp	r0, #0
8000bf6c:	b2604000 	rsblt	r4, r0, #0
8000bf70:	b3a08001 	movlt	r8, #1
8000bf74:	ba000001 	blt	8000bf80 <printint+0x2c>
8000bf78:	e1a04000 	mov	r4, r0
8000bf7c:	e3a08000 	mov	r8, #0
8000bf80:	e3077de8 	movw	r7, #32232	; 0x7de8
8000bf84:	e24d5001 	sub	r5, sp, #1
8000bf88:	e3487001 	movt	r7, #32769	; 0x8001
8000bf8c:	e3a09000 	mov	r9, #0
8000bf90:	ea000000 	b	8000bf98 <printint+0x44>
8000bf94:	e1a09003 	mov	r9, r3
8000bf98:	e1a00004 	mov	r0, r4
8000bf9c:	e1a01006 	mov	r1, r6
8000bfa0:	eb001a5f 	bl	80012924 <div>
8000bfa4:	e0644690 	mls	r4, r0, r6, r4
8000bfa8:	e7d73004 	ldrb	r3, [r7, r4]
8000bfac:	e2504000 	subs	r4, r0, #0
8000bfb0:	e5e53001 	strb	r3, [r5, #1]!
8000bfb4:	e2893001 	add	r3, r9, #1
8000bfb8:	1afffff5 	bne	8000bf94 <printint+0x40>
8000bfbc:	e3580000 	cmp	r8, #0
8000bfc0:	128d2010 	addne	r2, sp, #16
8000bfc4:	13a0102d 	movne	r1, #45	; 0x2d
8000bfc8:	10822003 	addne	r2, r2, r3
8000bfcc:	12893002 	addne	r3, r9, #2
8000bfd0:	e08d6003 	add	r6, sp, r3
8000bfd4:	e2434001 	sub	r4, r3, #1
8000bfd8:	15421010 	strbne	r1, [r2, #-16]
8000bfdc:	e5765001 	ldrb	r5, [r6, #-1]!
8000bfe0:	e2444001 	sub	r4, r4, #1
8000bfe4:	e1a00005 	mov	r0, r5
8000bfe8:	ebffff43 	bl	8000bcfc <gpuputc>
8000bfec:	e1a00005 	mov	r0, r5
8000bff0:	eb0012cc 	bl	80010b28 <uartputc>
8000bff4:	e3740001 	cmn	r4, #1
8000bff8:	1afffff7 	bne	8000bfdc <printint+0x88>
8000bffc:	e28dd014 	add	sp, sp, #20
8000c000:	e8bd83f0 	pop	{r4, r5, r6, r7, r8, r9, pc}

8000c004 <panic>:
8000c004:	e52de004 	push	{lr}		; (str lr, [sp, #-4]!)
8000c008:	e24dd034 	sub	sp, sp, #52	; 0x34
8000c00c:	e3a01000 	mov	r1, #0
8000c010:	e3074e0c 	movw	r4, #32268	; 0x7e0c
8000c014:	e58d0004 	str	r0, [sp, #4]
8000c018:	e3070dfc 	movw	r0, #32252	; 0x7dfc
8000c01c:	e3480001 	movt	r0, #32769	; 0x8001
8000c020:	e28d5008 	add	r5, sp, #8
8000c024:	e3484001 	movt	r4, #32769	; 0x8001
8000c028:	eb000012 	bl	8000c078 <cprintf>
8000c02c:	e59d0004 	ldr	r0, [sp, #4]
8000c030:	e28d6030 	add	r6, sp, #48	; 0x30
8000c034:	eb00000f 	bl	8000c078 <cprintf>
8000c038:	e3070fc0 	movw	r0, #32704	; 0x7fc0
8000c03c:	e3480001 	movt	r0, #32769	; 0x8001
8000c040:	eb00000c 	bl	8000c078 <cprintf>
8000c044:	e28d1008 	add	r1, sp, #8
8000c048:	e28d0004 	add	r0, sp, #4
8000c04c:	eb00012f 	bl	8000c510 <getcallerpcs>
8000c050:	e4951004 	ldr	r1, [r5], #4
8000c054:	e1a00004 	mov	r0, r4
8000c058:	eb000006 	bl	8000c078 <cprintf>
8000c05c:	e1550006 	cmp	r5, r6
8000c060:	1afffffa 	bne	8000c050 <panic+0x4c>
8000c064:	e30a3854 	movw	r3, #43092	; 0xa854
8000c068:	e3a02001 	mov	r2, #1
8000c06c:	e3483009 	movt	r3, #32777	; 0x8009
8000c070:	e583201c 	str	r2, [r3, #28]
8000c074:	eafffffe 	b	8000c074 <panic+0x70>

8000c078 <cprintf>:
8000c078:	e92d000f 	push	{r0, r1, r2, r3}
8000c07c:	e30a0920 	movw	r0, #43296	; 0xa920
8000c080:	e3480009 	movt	r0, #32777	; 0x8009
8000c084:	e92d47f0 	push	{r4, r5, r6, r7, r8, r9, sl, lr}
8000c088:	e590905c 	ldr	r9, [r0, #92]	; 0x5c
8000c08c:	e3590000 	cmp	r9, #0
8000c090:	1a00004e 	bne	8000c1d0 <cprintf+0x158>
8000c094:	e59d7020 	ldr	r7, [sp, #32]
8000c098:	e3570000 	cmp	r7, #0
8000c09c:	0a000052 	beq	8000c1ec <cprintf+0x174>
8000c0a0:	e5d75000 	ldrb	r5, [r7]
8000c0a4:	e3550000 	cmp	r5, #0
8000c0a8:	128d8024 	addne	r8, sp, #36	; 0x24
8000c0ac:	13a04000 	movne	r4, #0
8000c0b0:	1a000014 	bne	8000c108 <cprintf+0x90>
8000c0b4:	ea00001d 	b	8000c130 <cprintf+0xb8>
8000c0b8:	e2844001 	add	r4, r4, #1
8000c0bc:	e7d76004 	ldrb	r6, [r7, r4]
8000c0c0:	e3560000 	cmp	r6, #0
8000c0c4:	0a000019 	beq	8000c130 <cprintf+0xb8>
8000c0c8:	e3560070 	cmp	r6, #112	; 0x70
8000c0cc:	0a000022 	beq	8000c15c <cprintf+0xe4>
8000c0d0:	8a00001d 	bhi	8000c14c <cprintf+0xd4>
8000c0d4:	e3560025 	cmp	r6, #37	; 0x25
8000c0d8:	0a00000c 	beq	8000c110 <cprintf+0x98>
8000c0dc:	e3560064 	cmp	r6, #100	; 0x64
8000c0e0:	1a000031 	bne	8000c1ac <cprintf+0x134>
8000c0e4:	e5980000 	ldr	r0, [r8]
8000c0e8:	e3a02001 	mov	r2, #1
8000c0ec:	e3a0100a 	mov	r1, #10
8000c0f0:	e2888004 	add	r8, r8, #4
8000c0f4:	ebffff96 	bl	8000bf54 <printint>
8000c0f8:	e2844001 	add	r4, r4, #1
8000c0fc:	e7d75004 	ldrb	r5, [r7, r4]
8000c100:	e3550000 	cmp	r5, #0
8000c104:	0a000009 	beq	8000c130 <cprintf+0xb8>
8000c108:	e3550025 	cmp	r5, #37	; 0x25
8000c10c:	0affffe9 	beq	8000c0b8 <cprintf+0x40>
8000c110:	e1a00005 	mov	r0, r5
8000c114:	e2844001 	add	r4, r4, #1
8000c118:	ebfffef7 	bl	8000bcfc <gpuputc>
8000c11c:	e1a00005 	mov	r0, r5
8000c120:	eb001280 	bl	80010b28 <uartputc>
8000c124:	e7d75004 	ldrb	r5, [r7, r4]
8000c128:	e3550000 	cmp	r5, #0
8000c12c:	1afffff5 	bne	8000c108 <cprintf+0x90>
8000c130:	e3590000 	cmp	r9, #0
8000c134:	0a000001 	beq	8000c140 <cprintf+0xc8>
8000c138:	e59f00b8 	ldr	r0, [pc, #184]	; 8000c1f8 <cprintf+0x180>
8000c13c:	eb000142 	bl	8000c64c <release>
8000c140:	e8bd47f0 	pop	{r4, r5, r6, r7, r8, r9, sl, lr}
8000c144:	e28dd010 	add	sp, sp, #16
8000c148:	e12fff1e 	bx	lr
8000c14c:	e3560073 	cmp	r6, #115	; 0x73
8000c150:	0a000007 	beq	8000c174 <cprintf+0xfc>
8000c154:	e3560078 	cmp	r6, #120	; 0x78
8000c158:	1a000013 	bne	8000c1ac <cprintf+0x134>
8000c15c:	e5980000 	ldr	r0, [r8]
8000c160:	e3a02000 	mov	r2, #0
8000c164:	e3a01010 	mov	r1, #16
8000c168:	e2888004 	add	r8, r8, #4
8000c16c:	ebffff78 	bl	8000bf54 <printint>
8000c170:	eaffffe0 	b	8000c0f8 <cprintf+0x80>
8000c174:	e5985000 	ldr	r5, [r8]
8000c178:	e2888004 	add	r8, r8, #4
8000c17c:	e3550000 	cmp	r5, #0
8000c180:	0a000015 	beq	8000c1dc <cprintf+0x164>
8000c184:	e5d50000 	ldrb	r0, [r5]
8000c188:	e3500000 	cmp	r0, #0
8000c18c:	0affffd9 	beq	8000c0f8 <cprintf+0x80>
8000c190:	ebfffed9 	bl	8000bcfc <gpuputc>
8000c194:	e5d50000 	ldrb	r0, [r5]
8000c198:	eb001262 	bl	80010b28 <uartputc>
8000c19c:	e5f50001 	ldrb	r0, [r5, #1]!
8000c1a0:	e3500000 	cmp	r0, #0
8000c1a4:	1afffff9 	bne	8000c190 <cprintf+0x118>
8000c1a8:	eaffffd2 	b	8000c0f8 <cprintf+0x80>
8000c1ac:	e3a00025 	mov	r0, #37	; 0x25
8000c1b0:	ebfffed1 	bl	8000bcfc <gpuputc>
8000c1b4:	e3a00025 	mov	r0, #37	; 0x25
8000c1b8:	eb00125a 	bl	80010b28 <uartputc>
8000c1bc:	e1a00006 	mov	r0, r6
8000c1c0:	ebfffecd 	bl	8000bcfc <gpuputc>
8000c1c4:	e1a00006 	mov	r0, r6
8000c1c8:	eb001256 	bl	80010b28 <uartputc>
8000c1cc:	eaffffc9 	b	8000c0f8 <cprintf+0x80>
8000c1d0:	e2800028 	add	r0, r0, #40	; 0x28
8000c1d4:	eb0000e6 	bl	8000c574 <acquire>
8000c1d8:	eaffffad 	b	8000c094 <cprintf+0x1c>
8000c1dc:	e3075e10 	movw	r5, #32272	; 0x7e10
8000c1e0:	e3a00028 	mov	r0, #40	; 0x28
8000c1e4:	e3485001 	movt	r5, #32769	; 0x8001
8000c1e8:	eaffffe8 	b	8000c190 <cprintf+0x118>
8000c1ec:	e3070e18 	movw	r0, #32280	; 0x7e18
8000c1f0:	e3480001 	movt	r0, #32769	; 0x8001
8000c1f4:	ebffff82 	bl	8000c004 <panic>
8000c1f8:	8009a948 	.word	0x8009a948

8000c1fc <consputc>:
8000c1fc:	e30a3854 	movw	r3, #43092	; 0xa854
8000c200:	e3483009 	movt	r3, #32777	; 0x8009
8000c204:	e92d4010 	push	{r4, lr}
8000c208:	e593301c 	ldr	r3, [r3, #28]
8000c20c:	e3530000 	cmp	r3, #0
8000c210:	1a000008 	bne	8000c238 <consputc+0x3c>
8000c214:	e3500c01 	cmp	r0, #256	; 0x100
8000c218:	e1a04000 	mov	r4, r0
8000c21c:	0a000007 	beq	8000c240 <consputc+0x44>
8000c220:	e3500004 	cmp	r0, #4
8000c224:	0a000012 	beq	8000c274 <consputc+0x78>
8000c228:	ebfffeb3 	bl	8000bcfc <gpuputc>
8000c22c:	e1a00004 	mov	r0, r4
8000c230:	e8bd4010 	pop	{r4, lr}
8000c234:	ea00123b 	b	80010b28 <uartputc>
8000c238:	ebfff099 	bl	800084a4 <cli>
8000c23c:	eafffffe 	b	8000c23c <consputc+0x40>
8000c240:	e3a00008 	mov	r0, #8
8000c244:	ebfffeac 	bl	8000bcfc <gpuputc>
8000c248:	e3a00020 	mov	r0, #32
8000c24c:	ebfffeaa 	bl	8000bcfc <gpuputc>
8000c250:	e3a00008 	mov	r0, #8
8000c254:	ebfffea8 	bl	8000bcfc <gpuputc>
8000c258:	e3a00008 	mov	r0, #8
8000c25c:	eb001231 	bl	80010b28 <uartputc>
8000c260:	e3a00020 	mov	r0, #32
8000c264:	eb00122f 	bl	80010b28 <uartputc>
8000c268:	e3a00008 	mov	r0, #8
8000c26c:	e8bd4010 	pop	{r4, lr}
8000c270:	ea00122c 	b	80010b28 <uartputc>
8000c274:	e3a0005e 	mov	r0, #94	; 0x5e
8000c278:	ebfffe9f 	bl	8000bcfc <gpuputc>
8000c27c:	e3a00044 	mov	r0, #68	; 0x44
8000c280:	ebfffe9d 	bl	8000bcfc <gpuputc>
8000c284:	e3a0005e 	mov	r0, #94	; 0x5e
8000c288:	eb001226 	bl	80010b28 <uartputc>
8000c28c:	e3a00044 	mov	r0, #68	; 0x44
8000c290:	e8bd4010 	pop	{r4, lr}
8000c294:	ea001223 	b	80010b28 <uartputc>

8000c298 <consoleintr>:
8000c298:	e92d41f0 	push	{r4, r5, r6, r7, r8, lr}
8000c29c:	e30d4334 	movw	r4, #54068	; 0xd334
8000c2a0:	e3484009 	movt	r4, #32777	; 0x8009
8000c2a4:	e1a05000 	mov	r5, r0
8000c2a8:	e1a00004 	mov	r0, r4
8000c2ac:	e28460b4 	add	r6, r4, #180	; 0xb4
8000c2b0:	eb0000af 	bl	8000c574 <acquire>
8000c2b4:	e12fff35 	blx	r5
8000c2b8:	e2507000 	subs	r7, r0, #0
8000c2bc:	da000011 	ble	8000c308 <consoleintr+0x70>
8000c2c0:	e3570010 	cmp	r7, #16
8000c2c4:	0a00004c 	beq	8000c3fc <consoleintr+0x164>
8000c2c8:	da000012 	ble	8000c318 <consoleintr+0x80>
8000c2cc:	e3570015 	cmp	r7, #21
8000c2d0:	0a000030 	beq	8000c398 <consoleintr+0x100>
8000c2d4:	e357007f 	cmp	r7, #127	; 0x7f
8000c2d8:	1a000010 	bne	8000c320 <consoleintr+0x88>
8000c2dc:	e59430bc 	ldr	r3, [r4, #188]	; 0xbc
8000c2e0:	e59420b8 	ldr	r2, [r4, #184]	; 0xb8
8000c2e4:	e1530002 	cmp	r3, r2
8000c2e8:	0afffff1 	beq	8000c2b4 <consoleintr+0x1c>
8000c2ec:	e2433001 	sub	r3, r3, #1
8000c2f0:	e3a00c01 	mov	r0, #256	; 0x100
8000c2f4:	e58430bc 	str	r3, [r4, #188]	; 0xbc
8000c2f8:	ebffffbf 	bl	8000c1fc <consputc>
8000c2fc:	e12fff35 	blx	r5
8000c300:	e2507000 	subs	r7, r0, #0
8000c304:	caffffed 	bgt	8000c2c0 <consoleintr+0x28>
8000c308:	e30d0334 	movw	r0, #54068	; 0xd334
8000c30c:	e3480009 	movt	r0, #32777	; 0x8009
8000c310:	e8bd41f0 	pop	{r4, r5, r6, r7, r8, lr}
8000c314:	ea0000cc 	b	8000c64c <release>
8000c318:	e3570008 	cmp	r7, #8
8000c31c:	0affffee 	beq	8000c2dc <consoleintr+0x44>
8000c320:	e59410bc 	ldr	r1, [r4, #188]	; 0xbc
8000c324:	e247300d 	sub	r3, r7, #13
8000c328:	e59420b4 	ldr	r2, [r4, #180]	; 0xb4
8000c32c:	e16f3f13 	clz	r3, r3
8000c330:	e0412002 	sub	r2, r1, r2
8000c334:	e1a032a3 	lsr	r3, r3, #5
8000c338:	e352007f 	cmp	r2, #127	; 0x7f
8000c33c:	83833001 	orrhi	r3, r3, #1
8000c340:	e3530000 	cmp	r3, #0
8000c344:	1affffda 	bne	8000c2b4 <consoleintr+0x1c>
8000c348:	e201307f 	and	r3, r1, #127	; 0x7f
8000c34c:	e1a00007 	mov	r0, r7
8000c350:	e0843003 	add	r3, r4, r3
8000c354:	e2811001 	add	r1, r1, #1
8000c358:	e58410bc 	str	r1, [r4, #188]	; 0xbc
8000c35c:	e5c37034 	strb	r7, [r3, #52]	; 0x34
8000c360:	ebffffa5 	bl	8000c1fc <consputc>
8000c364:	e3570004 	cmp	r7, #4
8000c368:	1357000a 	cmpne	r7, #10
8000c36c:	059430bc 	ldreq	r3, [r4, #188]	; 0xbc
8000c370:	0a000004 	beq	8000c388 <consoleintr+0xf0>
8000c374:	e59430b4 	ldr	r3, [r4, #180]	; 0xb4
8000c378:	e59420bc 	ldr	r2, [r4, #188]	; 0xbc
8000c37c:	e2833080 	add	r3, r3, #128	; 0x80
8000c380:	e1520003 	cmp	r2, r3
8000c384:	1affffca 	bne	8000c2b4 <consoleintr+0x1c>
8000c388:	e58430b8 	str	r3, [r4, #184]	; 0xb8
8000c38c:	e1a00006 	mov	r0, r6
8000c390:	eb00280b 	bl	800163c4 <wakeup>
8000c394:	eaffffc6 	b	8000c2b4 <consoleintr+0x1c>
8000c398:	e59430bc 	ldr	r3, [r4, #188]	; 0xbc
8000c39c:	e59420b8 	ldr	r2, [r4, #184]	; 0xb8
8000c3a0:	e1530002 	cmp	r3, r2
8000c3a4:	0affffc2 	beq	8000c2b4 <consoleintr+0x1c>
8000c3a8:	e2433001 	sub	r3, r3, #1
8000c3ac:	e203207f 	and	r2, r3, #127	; 0x7f
8000c3b0:	e0842002 	add	r2, r4, r2
8000c3b4:	e5d22034 	ldrb	r2, [r2, #52]	; 0x34
8000c3b8:	e352000a 	cmp	r2, #10
8000c3bc:	1a000003 	bne	8000c3d0 <consoleintr+0x138>
8000c3c0:	eaffffbb 	b	8000c2b4 <consoleintr+0x1c>
8000c3c4:	e5d22034 	ldrb	r2, [r2, #52]	; 0x34
8000c3c8:	e352000a 	cmp	r2, #10
8000c3cc:	0affffb8 	beq	8000c2b4 <consoleintr+0x1c>
8000c3d0:	e58430bc 	str	r3, [r4, #188]	; 0xbc
8000c3d4:	e3a00c01 	mov	r0, #256	; 0x100
8000c3d8:	ebffff87 	bl	8000c1fc <consputc>
8000c3dc:	e59430bc 	ldr	r3, [r4, #188]	; 0xbc
8000c3e0:	e59420b8 	ldr	r2, [r4, #184]	; 0xb8
8000c3e4:	e1530002 	cmp	r3, r2
8000c3e8:	e2433001 	sub	r3, r3, #1
8000c3ec:	e203207f 	and	r2, r3, #127	; 0x7f
8000c3f0:	e0842002 	add	r2, r4, r2
8000c3f4:	1afffff2 	bne	8000c3c4 <consoleintr+0x12c>
8000c3f8:	eaffffad 	b	8000c2b4 <consoleintr+0x1c>
8000c3fc:	eb002829 	bl	800164a8 <procdump>
8000c400:	eaffffab 	b	8000c2b4 <consoleintr+0x1c>

8000c404 <gpuinit>:
8000c404:	e30a3854 	movw	r3, #43092	; 0xa854
8000c408:	e3483009 	movt	r3, #32777	; 0x8009
8000c40c:	e92d4010 	push	{r4, lr}
8000c410:	e5932020 	ldr	r2, [r3, #32]
8000c414:	e9930003 	ldmib	r3, {r0, r1}
8000c418:	ebfffdce 	bl	8000bb58 <initframebuf>
8000c41c:	e3500000 	cmp	r0, #0
8000c420:	1a000006 	bne	8000c440 <gpuinit+0x3c>
8000c424:	e30a2920 	movw	r2, #43296	; 0xa920
8000c428:	e3482009 	movt	r2, #32777	; 0x8009
8000c42c:	e5923020 	ldr	r3, [r2, #32]
8000c430:	e3c33103 	bic	r3, r3, #-1073741824	; 0xc0000000
8000c434:	e2833101 	add	r3, r3, #1073741824	; 0x40000000
8000c438:	e5823020 	str	r3, [r2, #32]
8000c43c:	e8bd8010 	pop	{r4, pc}
8000c440:	e30a3920 	movw	r3, #43296	; 0xa920
8000c444:	e3070e24 	movw	r0, #32292	; 0x7e24
8000c448:	e3483009 	movt	r3, #32777	; 0x8009
8000c44c:	e3a02000 	mov	r2, #0
8000c450:	e3480001 	movt	r0, #32769	; 0x8001
8000c454:	e8bd4010 	pop	{r4, lr}
8000c458:	e5832020 	str	r2, [r3, #32]
8000c45c:	eaffff05 	b	8000c078 <cprintf>

8000c460 <consoleinit>:
8000c460:	e92d41f0 	push	{r4, r5, r6, r7, r8, lr}
8000c464:	e30a6920 	movw	r6, #43296	; 0xa920
8000c468:	e3486009 	movt	r6, #32777	; 0x8009
8000c46c:	e3071e4c 	movw	r1, #32332	; 0x7e4c
8000c470:	e3481001 	movt	r1, #32769	; 0x8001
8000c474:	e30d7334 	movw	r7, #54068	; 0xd334
8000c478:	e3487009 	movt	r7, #32777	; 0x8009
8000c47c:	e3a04000 	mov	r4, #0
8000c480:	e5864020 	str	r4, [r6, #32]
8000c484:	e2860028 	add	r0, r6, #40	; 0x28
8000c488:	e30d5e34 	movw	r5, #56884	; 0xde34
8000c48c:	eb00001a 	bl	8000c4fc <initlock>
8000c490:	e3485009 	movt	r5, #32777	; 0x8009
8000c494:	e3a020c0 	mov	r2, #192	; 0xc0
8000c498:	e1a01004 	mov	r1, r4
8000c49c:	e1a00007 	mov	r0, r7
8000c4a0:	eb00188c 	bl	800126d8 <memset>
8000c4a4:	e3071e54 	movw	r1, #32340	; 0x7e54
8000c4a8:	e1a00007 	mov	r0, r7
8000c4ac:	e3481001 	movt	r1, #32769	; 0x8001
8000c4b0:	eb000011 	bl	8000c4fc <initlock>
8000c4b4:	e1a01004 	mov	r1, r4
8000c4b8:	e3a02050 	mov	r2, #80	; 0x50
8000c4bc:	e1a00005 	mov	r0, r5
8000c4c0:	eb001884 	bl	800126d8 <memset>
8000c4c4:	e30a3854 	movw	r3, #43092	; 0xa854
8000c4c8:	e30b1ef4 	movw	r1, #48884	; 0xbef4
8000c4cc:	e3483009 	movt	r3, #32777	; 0x8009
8000c4d0:	e30b2a54 	movw	r2, #47700	; 0xba54
8000c4d4:	e3481000 	movt	r1, #32768	; 0x8000
8000c4d8:	e3a00001 	mov	r0, #1
8000c4dc:	e3482000 	movt	r2, #32768	; 0x8000
8000c4e0:	e585100c 	str	r1, [r5, #12]
8000c4e4:	e5852008 	str	r2, [r5, #8]
8000c4e8:	e586005c 	str	r0, [r6, #92]	; 0x5c
8000c4ec:	e583401c 	str	r4, [r3, #28]
8000c4f0:	e5834014 	str	r4, [r3, #20]
8000c4f4:	e583400c 	str	r4, [r3, #12]
8000c4f8:	e8bd81f0 	pop	{r4, r5, r6, r7, r8, pc}

8000c4fc <initlock>:
8000c4fc:	e5801004 	str	r1, [r0, #4]
8000c500:	e3a03000 	mov	r3, #0
8000c504:	e5803000 	str	r3, [r0]
8000c508:	e5803008 	str	r3, [r0, #8]
8000c50c:	e12fff1e 	bx	lr

8000c510 <getcallerpcs>:
8000c510:	e12fff1e 	bx	lr

8000c514 <holding>:
8000c514:	e5903000 	ldr	r3, [r0]
8000c518:	e3530000 	cmp	r3, #0
8000c51c:	130a3af4 	movwne	r3, #43764	; 0xaaf4
8000c520:	15900008 	ldrne	r0, [r0, #8]
8000c524:	13483009 	movtne	r3, #32777	; 0x8009
8000c528:	10400003 	subne	r0, r0, r3
8000c52c:	116f0f10 	clzne	r0, r0
8000c530:	11a002a0 	lsrne	r0, r0, #5
8000c534:	01a00003 	moveq	r0, r3
8000c538:	e12fff1e 	bx	lr

8000c53c <pushcli>:
8000c53c:	e92d4010 	push	{r4, lr}
8000c540:	ebffefd5 	bl	8000849c <readcpsr>
8000c544:	e1a04000 	mov	r4, r0
8000c548:	ebffefd5 	bl	800084a4 <cli>
8000c54c:	e30a3af4 	movw	r3, #43764	; 0xaaf4
8000c550:	e3483009 	movt	r3, #32777	; 0x8009
8000c554:	e593200c 	ldr	r2, [r3, #12]
8000c558:	e3520000 	cmp	r2, #0
8000c55c:	e2822001 	add	r2, r2, #1
8000c560:	e583200c 	str	r2, [r3, #12]
8000c564:	02244080 	eoreq	r4, r4, #128	; 0x80
8000c568:	07e043d4 	ubfxeq	r4, r4, #7, #1
8000c56c:	05834010 	streq	r4, [r3, #16]
8000c570:	e8bd8010 	pop	{r4, pc}

8000c574 <acquire>:
8000c574:	e92d4070 	push	{r4, r5, r6, lr}
8000c578:	e1a04000 	mov	r4, r0
8000c57c:	e24dd008 	sub	sp, sp, #8
8000c580:	ebffffed 	bl	8000c53c <pushcli>
8000c584:	e5945000 	ldr	r5, [r4]
8000c588:	e3550000 	cmp	r5, #0
8000c58c:	030a1af4 	movweq	r1, #43764	; 0xaaf4
8000c590:	03481009 	movteq	r1, #32777	; 0x8009
8000c594:	0a000004 	beq	8000c5ac <acquire+0x38>
8000c598:	e5946008 	ldr	r6, [r4, #8]
8000c59c:	e30a1af4 	movw	r1, #43764	; 0xaaf4
8000c5a0:	e3481009 	movt	r1, #32777	; 0x8009
8000c5a4:	e1560001 	cmp	r6, r1
8000c5a8:	0a000004 	beq	8000c5c0 <acquire+0x4c>
8000c5ac:	e5841008 	str	r1, [r4, #8]
8000c5b0:	e3a03001 	mov	r3, #1
8000c5b4:	e5843000 	str	r3, [r4]
8000c5b8:	e28dd008 	add	sp, sp, #8
8000c5bc:	e8bd8070 	pop	{r4, r5, r6, pc}
8000c5c0:	e5944004 	ldr	r4, [r4, #4]
8000c5c4:	ebffefb4 	bl	8000849c <readcpsr>
8000c5c8:	e58d0000 	str	r0, [sp]
8000c5cc:	e3070e5c 	movw	r0, #32348	; 0x7e5c
8000c5d0:	e3480001 	movt	r0, #32769	; 0x8001
8000c5d4:	e1a01004 	mov	r1, r4
8000c5d8:	e1a03006 	mov	r3, r6
8000c5dc:	e1a02005 	mov	r2, r5
8000c5e0:	ebfffea4 	bl	8000c078 <cprintf>
8000c5e4:	e3070e8c 	movw	r0, #32396	; 0x7e8c
8000c5e8:	e3480001 	movt	r0, #32769	; 0x8001
8000c5ec:	ebfffe84 	bl	8000c004 <panic>

8000c5f0 <popcli>:
8000c5f0:	e92d4010 	push	{r4, lr}
8000c5f4:	ebffefa8 	bl	8000849c <readcpsr>
8000c5f8:	e3100080 	tst	r0, #128	; 0x80
8000c5fc:	0a00000f 	beq	8000c640 <popcli+0x50>
8000c600:	e30a3af4 	movw	r3, #43764	; 0xaaf4
8000c604:	e3483009 	movt	r3, #32777	; 0x8009
8000c608:	e593200c 	ldr	r2, [r3, #12]
8000c60c:	e2422001 	sub	r2, r2, #1
8000c610:	e583200c 	str	r2, [r3, #12]
8000c614:	e3520000 	cmp	r2, #0
8000c618:	ba000005 	blt	8000c634 <popcli+0x44>
8000c61c:	18bd8010 	popne	{r4, pc}
8000c620:	e5933010 	ldr	r3, [r3, #16]
8000c624:	e3530000 	cmp	r3, #0
8000c628:	08bd8010 	popeq	{r4, pc}
8000c62c:	e8bd4010 	pop	{r4, lr}
8000c630:	eaffef9f 	b	800084b4 <sti>
8000c634:	e3070eac 	movw	r0, #32428	; 0x7eac
8000c638:	e3480001 	movt	r0, #32769	; 0x8001
8000c63c:	ebfffe70 	bl	8000c004 <panic>
8000c640:	e3070e94 	movw	r0, #32404	; 0x7e94
8000c644:	e3480001 	movt	r0, #32769	; 0x8001
8000c648:	ebfffe6d 	bl	8000c004 <panic>

8000c64c <release>:
8000c64c:	e5903000 	ldr	r3, [r0]
8000c650:	e3530000 	cmp	r3, #0
8000c654:	0a000004 	beq	8000c66c <release+0x20>
8000c658:	e5902008 	ldr	r2, [r0, #8]
8000c65c:	e30a3af4 	movw	r3, #43764	; 0xaaf4
8000c660:	e3483009 	movt	r3, #32777	; 0x8009
8000c664:	e1520003 	cmp	r2, r3
8000c668:	0a000003 	beq	8000c67c <release+0x30>
8000c66c:	e3070eb4 	movw	r0, #32436	; 0x7eb4
8000c670:	e92d4010 	push	{r4, lr}
8000c674:	e3480001 	movt	r0, #32769	; 0x8001
8000c678:	ebfffe61 	bl	8000c004 <panic>
8000c67c:	e3a03000 	mov	r3, #0
8000c680:	e580300c 	str	r3, [r0, #12]
8000c684:	e5803008 	str	r3, [r0, #8]
8000c688:	e5803000 	str	r3, [r0]
8000c68c:	eaffffd7 	b	8000c5f0 <popcli>

8000c690 <USBConfigurationParser>:
8000c690:	e0813002 	add	r3, r1, r2
8000c694:	e242c004 	sub	ip, r2, #4
8000c698:	e5801000 	str	r1, [r0]
8000c69c:	e35c0f7f 	cmp	ip, #508	; 0x1fc
8000c6a0:	e5802004 	str	r2, [r0, #4]
8000c6a4:	e3a0c000 	mov	ip, #0
8000c6a8:	e5801010 	str	r1, [r0, #16]
8000c6ac:	e5801014 	str	r1, [r0, #20]
8000c6b0:	e580c008 	str	ip, [r0, #8]
8000c6b4:	e580300c 	str	r3, [r0, #12]
8000c6b8:	812fff1e 	bxhi	lr
8000c6bc:	e5d1c000 	ldrb	ip, [r1]
8000c6c0:	e35c0009 	cmp	ip, #9
8000c6c4:	112fff1e 	bxne	lr
8000c6c8:	e5d1c001 	ldrb	ip, [r1, #1]
8000c6cc:	e35c0002 	cmp	ip, #2
8000c6d0:	112fff1e 	bxne	lr
8000c6d4:	e1d1c0b2 	ldrh	ip, [r1, #2]
8000c6d8:	e152000c 	cmp	r2, ip
8000c6dc:	312fff1e 	bxcc	lr
8000c6e0:	e92d4030 	push	{r4, r5, lr}
8000c6e4:	e3a05000 	mov	r5, #0
8000c6e8:	8081300c 	addhi	r3, r1, ip
8000c6ec:	e1a04005 	mov	r4, r5
8000c6f0:	8580300c 	strhi	r3, [r0, #12]
8000c6f4:	ea000005 	b	8000c710 <USBConfigurationParser+0x80>
8000c6f8:	e3520005 	cmp	r2, #5
8000c6fc:	0a00001c 	beq	8000c774 <USBConfigurationParser+0xe4>
8000c700:	e3520002 	cmp	r2, #2
8000c704:	0a000016 	beq	8000c764 <USBConfigurationParser+0xd4>
8000c708:	e1a0100c 	mov	r1, ip
8000c70c:	e1a04002 	mov	r4, r2
8000c710:	e2812002 	add	r2, r1, #2
8000c714:	e1530002 	cmp	r3, r2
8000c718:	9a00001b 	bls	8000c78c <USBConfigurationParser+0xfc>
8000c71c:	e5d1e000 	ldrb	lr, [r1]
8000c720:	e5d12001 	ldrb	r2, [r1, #1]
8000c724:	e081c00e 	add	ip, r1, lr
8000c728:	e15c0003 	cmp	ip, r3
8000c72c:	8a00000a 	bhi	8000c75c <USBConfigurationParser+0xcc>
8000c730:	e3520004 	cmp	r2, #4
8000c734:	1affffef 	bne	8000c6f8 <USBConfigurationParser+0x68>
8000c738:	e3540000 	cmp	r4, #0
8000c73c:	0a000006 	beq	8000c75c <USBConfigurationParser+0xcc>
8000c740:	e5d15005 	ldrb	r5, [r1, #5]
8000c744:	e3a04009 	mov	r4, #9
8000c748:	e2455001 	sub	r5, r5, #1
8000c74c:	e16f5f15 	clz	r5, r5
8000c750:	e1a052a5 	lsr	r5, r5, #5
8000c754:	e154000e 	cmp	r4, lr
8000c758:	0affffea 	beq	8000c708 <USBConfigurationParser+0x78>
8000c75c:	e5801014 	str	r1, [r0, #20]
8000c760:	e8bd8030 	pop	{r4, r5, pc}
8000c764:	e3540000 	cmp	r4, #0
8000c768:	1afffffb 	bne	8000c75c <USBConfigurationParser+0xcc>
8000c76c:	e3a04009 	mov	r4, #9
8000c770:	eafffff7 	b	8000c754 <USBConfigurationParser+0xc4>
8000c774:	e31400fd 	tst	r4, #253	; 0xfd
8000c778:	0afffff7 	beq	8000c75c <USBConfigurationParser+0xcc>
8000c77c:	e3550000 	cmp	r5, #0
8000c780:	03a04007 	moveq	r4, #7
8000c784:	13a04009 	movne	r4, #9
8000c788:	eafffff1 	b	8000c754 <USBConfigurationParser+0xc4>
8000c78c:	e1510003 	cmp	r1, r3
8000c790:	1afffff1 	bne	8000c75c <USBConfigurationParser+0xcc>
8000c794:	e3a03001 	mov	r3, #1
8000c798:	e5803008 	str	r3, [r0, #8]
8000c79c:	e8bd8030 	pop	{r4, r5, pc}

8000c7a0 <_USBConfigurationParser>:
8000c7a0:	e3a03000 	mov	r3, #0
8000c7a4:	e5803000 	str	r3, [r0]
8000c7a8:	e12fff1e 	bx	lr

8000c7ac <USBConfigurationParserIsValid>:
8000c7ac:	e5900008 	ldr	r0, [r0, #8]
8000c7b0:	e12fff1e 	bx	lr

8000c7b4 <USBConfigurationParserGetDescriptor>:
8000c7b4:	e92d4070 	push	{r4, r5, r6, lr}
8000c7b8:	e1a06000 	mov	r6, r0
8000c7bc:	e5900010 	ldr	r0, [r0, #16]
8000c7c0:	e596400c 	ldr	r4, [r6, #12]
8000c7c4:	e1500004 	cmp	r0, r4
8000c7c8:	2a000019 	bcs	8000c834 <USBConfigurationParserGetDescriptor+0x80>
8000c7cc:	e5d02001 	ldrb	r2, [r0, #1]
8000c7d0:	e2415005 	sub	r5, r1, #5
8000c7d4:	e16f5f15 	clz	r5, r5
8000c7d8:	e5d03000 	ldrb	r3, [r0]
8000c7dc:	e3520004 	cmp	r2, #4
8000c7e0:	03510005 	cmpeq	r1, #5
8000c7e4:	e1a052a5 	lsr	r5, r5, #5
8000c7e8:	e0803003 	add	r3, r0, r3
8000c7ec:	0a000010 	beq	8000c834 <USBConfigurationParserGetDescriptor+0x80>
8000c7f0:	e1510002 	cmp	r1, r2
8000c7f4:	1a00000b 	bne	8000c828 <USBConfigurationParserGetDescriptor+0x74>
8000c7f8:	ea000013 	b	8000c84c <USBConfigurationParserGetDescriptor+0x98>
8000c7fc:	e5d3c001 	ldrb	ip, [r3, #1]
8000c800:	e5d32000 	ldrb	r2, [r3]
8000c804:	e35c0004 	cmp	ip, #4
8000c808:	13a0e000 	movne	lr, #0
8000c80c:	0205e001 	andeq	lr, r5, #1
8000c810:	e0832002 	add	r2, r3, r2
8000c814:	e35e0000 	cmp	lr, #0
8000c818:	1a000004 	bne	8000c830 <USBConfigurationParserGetDescriptor+0x7c>
8000c81c:	e15c0001 	cmp	ip, r1
8000c820:	0a000005 	beq	8000c83c <USBConfigurationParserGetDescriptor+0x88>
8000c824:	e1a03002 	mov	r3, r2
8000c828:	e1540003 	cmp	r4, r3
8000c82c:	8afffff2 	bhi	8000c7fc <USBConfigurationParserGetDescriptor+0x48>
8000c830:	e5863010 	str	r3, [r6, #16]
8000c834:	e3a00000 	mov	r0, #0
8000c838:	e8bd8070 	pop	{r4, r5, r6, pc}
8000c83c:	e1a00003 	mov	r0, r3
8000c840:	e5862010 	str	r2, [r6, #16]
8000c844:	e5860014 	str	r0, [r6, #20]
8000c848:	e8bd8070 	pop	{r4, r5, r6, pc}
8000c84c:	e1a02003 	mov	r2, r3
8000c850:	eafffffa 	b	8000c840 <USBConfigurationParserGetDescriptor+0x8c>

8000c854 <USBConfigurationParserError>:
8000c854:	e590c014 	ldr	ip, [r0, #20]
8000c858:	e3072ebc 	movw	r2, #32444	; 0x7ebc
8000c85c:	e5903000 	ldr	r3, [r0]
8000c860:	e1a00001 	mov	r0, r1
8000c864:	e3482001 	movt	r2, #32769	; 0x8001
8000c868:	e3a01001 	mov	r1, #1
8000c86c:	e04c3003 	sub	r3, ip, r3
8000c870:	ea0016d2 	b	800123c0 <LogWrite>

8000c874 <TimerSimpleusDelay.part.0>:
8000c874:	e92d4070 	push	{r4, r5, r6, lr}
8000c878:	e1a06000 	mov	r6, r0
8000c87c:	f57ff05f 	dmb	sy
8000c880:	e3030004 	movw	r0, #12292	; 0x3004
8000c884:	e1a04000 	mov	r4, r0
8000c888:	e34d0000 	movt	r0, #53248	; 0xd000
8000c88c:	e34d4000 	movt	r4, #53248	; 0xd000
8000c890:	eb00194e 	bl	80012dd0 <read32>
8000c894:	e1a05000 	mov	r5, r0
8000c898:	e1a00004 	mov	r0, r4
8000c89c:	eb00194b 	bl	80012dd0 <read32>
8000c8a0:	e0400005 	sub	r0, r0, r5
8000c8a4:	e1500006 	cmp	r0, r6
8000c8a8:	3afffffa 	bcc	8000c898 <TimerSimpleusDelay.part.0+0x24>
8000c8ac:	f57ff05f 	dmb	sy
8000c8b0:	e8bd8070 	pop	{r4, r5, r6, pc}

8000c8b4 <TimerEnvInit>:
8000c8b4:	e3a02000 	mov	r2, #0
8000c8b8:	e30ac878 	movw	ip, #43128	; 0xa878
8000c8bc:	e52de004 	push	{lr}		; (str lr, [sp, #-4]!)
8000c8c0:	e305e730 	movw	lr, #22320	; 0x5730
8000c8c4:	e340e005 	movt	lr, #5
8000c8c8:	e1a03002 	mov	r3, r2
8000c8cc:	e348c009 	movt	ip, #32777	; 0x8009
8000c8d0:	e1a01002 	mov	r1, r2
8000c8d4:	e580e148 	str	lr, [r0, #328]	; 0x148
8000c8d8:	e300e15e 	movw	lr, #350	; 0x15e
8000c8dc:	e5802000 	str	r2, [r0]
8000c8e0:	e580e14c 	str	lr, [r0, #332]	; 0x14c
8000c8e4:	e58c0000 	str	r0, [ip]
8000c8e8:	e5802004 	str	r2, [r0, #4]
8000c8ec:	e0802203 	add	r2, r0, r3, lsl #4
8000c8f0:	e2833001 	add	r3, r3, #1
8000c8f4:	e3530014 	cmp	r3, #20
8000c8f8:	e5821008 	str	r1, [r2, #8]
8000c8fc:	1afffffa 	bne	8000c8ec <TimerEnvInit+0x38>
8000c900:	e49df004 	pop	{pc}		; (ldr pc, [sp], #4)

8000c904 <_Timer>:
8000c904:	e30a3878 	movw	r3, #43128	; 0xa878
8000c908:	e3a02000 	mov	r2, #0
8000c90c:	e3483009 	movt	r3, #32777	; 0x8009
8000c910:	e5832000 	str	r2, [r3]
8000c914:	e12fff1e 	bx	lr

8000c918 <TimerGetClockTicks>:
8000c918:	e92d4010 	push	{r4, lr}
8000c91c:	f57ff05f 	dmb	sy
8000c920:	e3030004 	movw	r0, #12292	; 0x3004
8000c924:	e34d0000 	movt	r0, #53248	; 0xd000
8000c928:	eb001928 	bl	80012dd0 <read32>
8000c92c:	f57ff05f 	dmb	sy
8000c930:	e8bd8010 	pop	{r4, pc}

8000c934 <TimerGetTicks>:
8000c934:	e5900000 	ldr	r0, [r0]
8000c938:	e12fff1e 	bx	lr

8000c93c <TimerGetTime>:
8000c93c:	e5900004 	ldr	r0, [r0, #4]
8000c940:	e12fff1e 	bx	lr

8000c944 <TimerStartKernelTimer>:
8000c944:	e92d41f0 	push	{r4, r5, r6, r7, r8, lr}
8000c948:	e3a04000 	mov	r4, #0
8000c94c:	e1a05000 	mov	r5, r0
8000c950:	e1a07001 	mov	r7, r1
8000c954:	e1a08002 	mov	r8, r2
8000c958:	e1a06003 	mov	r6, r3
8000c95c:	eb0018f1 	bl	80012d28 <uspi_EnterCritical>
8000c960:	e085c204 	add	ip, r5, r4, lsl #4
8000c964:	e59ce008 	ldr	lr, [ip, #8]
8000c968:	e35e0000 	cmp	lr, #0
8000c96c:	0a000005 	beq	8000c988 <TimerStartKernelTimer+0x44>
8000c970:	e2844001 	add	r4, r4, #1
8000c974:	e3540014 	cmp	r4, #20
8000c978:	1afffff8 	bne	8000c960 <TimerStartKernelTimer+0x1c>
8000c97c:	eb0018f8 	bl	80012d64 <uspi_LeaveCritical>
8000c980:	e3a00000 	mov	r0, #0
8000c984:	e8bd81f0 	pop	{r4, r5, r6, r7, r8, pc}
8000c988:	e58c8008 	str	r8, [ip, #8]
8000c98c:	e5952000 	ldr	r2, [r5]
8000c990:	e59d3018 	ldr	r3, [sp, #24]
8000c994:	e0821007 	add	r1, r2, r7
8000c998:	e58c100c 	str	r1, [ip, #12]
8000c99c:	e58c6010 	str	r6, [ip, #16]
8000c9a0:	e58c3014 	str	r3, [ip, #20]
8000c9a4:	eb0018ee 	bl	80012d64 <uspi_LeaveCritical>
8000c9a8:	e2840001 	add	r0, r4, #1
8000c9ac:	e8bd81f0 	pop	{r4, r5, r6, r7, r8, pc}

8000c9b0 <TimerCancelKernelTimer>:
8000c9b0:	e2411001 	sub	r1, r1, #1
8000c9b4:	e3a03000 	mov	r3, #0
8000c9b8:	e0801201 	add	r1, r0, r1, lsl #4
8000c9bc:	e5813008 	str	r3, [r1, #8]
8000c9c0:	e12fff1e 	bx	lr

8000c9c4 <TimerMsDelay>:
8000c9c4:	e3510000 	cmp	r1, #0
8000c9c8:	012fff1e 	bxeq	lr
8000c9cc:	e5900148 	ldr	r0, [r0, #328]	; 0x148
8000c9d0:	e0000190 	mul	r0, r0, r1
8000c9d4:	eaffeed3 	b	80008528 <DelayLoop>

8000c9d8 <TimerusDelay>:
8000c9d8:	e3510000 	cmp	r1, #0
8000c9dc:	012fff1e 	bxeq	lr
8000c9e0:	e590014c 	ldr	r0, [r0, #332]	; 0x14c
8000c9e4:	e0000190 	mul	r0, r0, r1
8000c9e8:	eaffeece 	b	80008528 <DelayLoop>

8000c9ec <TimerGet>:
8000c9ec:	e30a3878 	movw	r3, #43128	; 0xa878
8000c9f0:	e3483009 	movt	r3, #32777	; 0x8009
8000c9f4:	e5930000 	ldr	r0, [r3]
8000c9f8:	e12fff1e 	bx	lr

8000c9fc <TimerSimpleMsDelay>:
8000c9fc:	e3500000 	cmp	r0, #0
8000ca00:	012fff1e 	bxeq	lr
8000ca04:	e3a03ffa 	mov	r3, #1000	; 0x3e8
8000ca08:	e0000093 	mul	r0, r3, r0
8000ca0c:	e3500000 	cmp	r0, #0
8000ca10:	012fff1e 	bxeq	lr
8000ca14:	eaffff96 	b	8000c874 <TimerSimpleusDelay.part.0>

8000ca18 <TimerSimpleusDelay>:
8000ca18:	e3500000 	cmp	r0, #0
8000ca1c:	012fff1e 	bxeq	lr
8000ca20:	eaffff93 	b	8000c874 <TimerSimpleusDelay.part.0>

8000ca24 <TimerPollKernelTimers>:
8000ca24:	e92d41f0 	push	{r4, r5, r6, r7, r8, lr}
8000ca28:	e3a04001 	mov	r4, #1
8000ca2c:	e3a07000 	mov	r7, #0
8000ca30:	e1a05000 	mov	r5, r0
8000ca34:	eb0018bb 	bl	80012d28 <uspi_EnterCritical>
8000ca38:	ea000002 	b	8000ca48 <TimerPollKernelTimers+0x24>
8000ca3c:	e2844001 	add	r4, r4, #1
8000ca40:	e3540015 	cmp	r4, #21
8000ca44:	0a000012 	beq	8000ca94 <TimerPollKernelTimers+0x70>
8000ca48:	e2443001 	sub	r3, r4, #1
8000ca4c:	e0853203 	add	r3, r5, r3, lsl #4
8000ca50:	e5936008 	ldr	r6, [r3, #8]
8000ca54:	e3560000 	cmp	r6, #0
8000ca58:	0afffff7 	beq	8000ca3c <TimerPollKernelTimers+0x18>
8000ca5c:	e593200c 	ldr	r2, [r3, #12]
8000ca60:	e5951000 	ldr	r1, [r5]
8000ca64:	e0422001 	sub	r2, r2, r1
8000ca68:	e3520000 	cmp	r2, #0
8000ca6c:	cafffff2 	bgt	8000ca3c <TimerPollKernelTimers+0x18>
8000ca70:	e0852204 	add	r2, r5, r4, lsl #4
8000ca74:	e1a00004 	mov	r0, r4
8000ca78:	e5837008 	str	r7, [r3, #8]
8000ca7c:	e7951204 	ldr	r1, [r5, r4, lsl #4]
8000ca80:	e2844001 	add	r4, r4, #1
8000ca84:	e5922004 	ldr	r2, [r2, #4]
8000ca88:	e12fff36 	blx	r6
8000ca8c:	e3540015 	cmp	r4, #21
8000ca90:	1affffec 	bne	8000ca48 <TimerPollKernelTimers+0x24>
8000ca94:	e8bd41f0 	pop	{r4, r5, r6, r7, r8, lr}
8000ca98:	ea0018b1 	b	80012d64 <uspi_LeaveCritical>

8000ca9c <TimerInterruptHandler>:
8000ca9c:	e92d4070 	push	{r4, r5, r6, lr}
8000caa0:	e1a04000 	mov	r4, r0
8000caa4:	f57ff05f 	dmb	sy
8000caa8:	e3030010 	movw	r0, #12304	; 0x3010
8000caac:	e30c6350 	movw	r6, #50000	; 0xc350
8000cab0:	e34d0000 	movt	r0, #53248	; 0xd000
8000cab4:	eb0018c5 	bl	80012dd0 <read32>
8000cab8:	e0805006 	add	r5, r0, r6
8000cabc:	e3030010 	movw	r0, #12304	; 0x3010
8000cac0:	e34d0000 	movt	r0, #53248	; 0xd000
8000cac4:	e1a01005 	mov	r1, r5
8000cac8:	eb0018c2 	bl	80012dd8 <write32>
8000cacc:	e3030004 	movw	r0, #12292	; 0x3004
8000cad0:	e34d0000 	movt	r0, #53248	; 0xd000
8000cad4:	eb0018bd 	bl	80012dd0 <read32>
8000cad8:	e1550000 	cmp	r5, r0
8000cadc:	3a000014 	bcc	8000cb34 <TimerInterruptHandler+0x98>
8000cae0:	e3a00a03 	mov	r0, #12288	; 0x3000
8000cae4:	e3a01002 	mov	r1, #2
8000cae8:	e34d0000 	movt	r0, #53248	; 0xd000
8000caec:	eb0018b9 	bl	80012dd8 <write32>
8000caf0:	f57ff05f 	dmb	sy
8000caf4:	e5943000 	ldr	r3, [r4]
8000caf8:	e308051f 	movw	r0, #34079	; 0x851f
8000cafc:	e34501eb 	movt	r0, #20971	; 0x51eb
8000cb00:	e3a0c064 	mov	ip, #100	; 0x64
8000cb04:	e2833001 	add	r3, r3, #1
8000cb08:	e0810093 	umull	r0, r1, r3, r0
8000cb0c:	e5843000 	str	r3, [r4]
8000cb10:	e1a00004 	mov	r0, r4
8000cb14:	e1a022a1 	lsr	r2, r1, #5
8000cb18:	e063329c 	mls	r3, ip, r2, r3
8000cb1c:	e3530000 	cmp	r3, #0
8000cb20:	05943004 	ldreq	r3, [r4, #4]
8000cb24:	02833001 	addeq	r3, r3, #1
8000cb28:	05843004 	streq	r3, [r4, #4]
8000cb2c:	e8bd4070 	pop	{r4, r5, r6, lr}
8000cb30:	eaffffbb 	b	8000ca24 <TimerPollKernelTimers>
8000cb34:	e3030004 	movw	r0, #12292	; 0x3004
8000cb38:	e34d0000 	movt	r0, #53248	; 0xd000
8000cb3c:	eb0018a3 	bl	80012dd0 <read32>
8000cb40:	e0801006 	add	r1, r0, r6
8000cb44:	e3030010 	movw	r0, #12304	; 0x3010
8000cb48:	e34d0000 	movt	r0, #53248	; 0xd000
8000cb4c:	eb0018a1 	bl	80012dd8 <write32>
8000cb50:	eaffffe2 	b	8000cae0 <TimerInterruptHandler+0x44>

8000cb54 <TimerTuneMsDelay>:
8000cb54:	e92d4070 	push	{r4, r5, r6, lr}
8000cb58:	e1a04000 	mov	r4, r0
8000cb5c:	e3a00ffa 	mov	r0, #1000	; 0x3e8
8000cb60:	e5943148 	ldr	r3, [r4, #328]	; 0x148
8000cb64:	e5945000 	ldr	r5, [r4]
8000cb68:	e0000390 	mul	r0, r0, r3
8000cb6c:	ebffee6d 	bl	80008528 <DelayLoop>
8000cb70:	e5941000 	ldr	r1, [r4]
8000cb74:	e3023710 	movw	r3, #10000	; 0x2710
8000cb78:	e5942148 	ldr	r2, [r4, #328]	; 0x148
8000cb7c:	e308c51f 	movw	ip, #34079	; 0x851f
8000cb80:	e0411005 	sub	r1, r1, r5
8000cb84:	e3040dd3 	movw	r0, #19923	; 0x4dd3
8000cb88:	e345c1eb 	movt	ip, #20971	; 0x51eb
8000cb8c:	e733f113 	udiv	r3, r3, r1
8000cb90:	e0030392 	mul	r3, r2, r3
8000cb94:	e3410062 	movt	r0, #4194	; 0x1062
8000cb98:	e083239c 	umull	r2, r3, ip, r3
8000cb9c:	e1a032a3 	lsr	r3, r3, #5
8000cba0:	e5843148 	str	r3, [r4, #328]	; 0x148
8000cba4:	e2833f7d 	add	r3, r3, #500	; 0x1f4
8000cba8:	e0832390 	umull	r2, r3, r0, r3
8000cbac:	e1a03323 	lsr	r3, r3, #6
8000cbb0:	e584314c 	str	r3, [r4, #332]	; 0x14c
8000cbb4:	e8bd8070 	pop	{r4, r5, r6, pc}

8000cbb8 <TimerInitialize>:
8000cbb8:	e30c1a9c 	movw	r1, #51868	; 0xca9c
8000cbbc:	e1a02000 	mov	r2, r0
8000cbc0:	e92d4070 	push	{r4, r5, r6, lr}
8000cbc4:	e1a05000 	mov	r5, r0
8000cbc8:	e3481000 	movt	r1, #32768	; 0x8000
8000cbcc:	e3a00001 	mov	r0, #1
8000cbd0:	ebfff09c 	bl	80008e48 <ConnectTimerInterrupt>
8000cbd4:	f57ff05f 	dmb	sy
8000cbd8:	e3034004 	movw	r4, #12292	; 0x3004
8000cbdc:	e3a01df2 	mov	r1, #15488	; 0x3c80
8000cbe0:	e34d4000 	movt	r4, #53248	; 0xd000
8000cbe4:	e34f1e36 	movt	r1, #65078	; 0xfe36
8000cbe8:	e1a00004 	mov	r0, r4
8000cbec:	eb001879 	bl	80012dd8 <write32>
8000cbf0:	e1a00004 	mov	r0, r4
8000cbf4:	eb001875 	bl	80012dd0 <read32>
8000cbf8:	e2801cc3 	add	r1, r0, #49920	; 0xc300
8000cbfc:	e3030010 	movw	r0, #12304	; 0x3010
8000cc00:	e34d0000 	movt	r0, #53248	; 0xd000
8000cc04:	e2811050 	add	r1, r1, #80	; 0x50
8000cc08:	eb001872 	bl	80012dd8 <write32>
8000cc0c:	e1a00005 	mov	r0, r5
8000cc10:	ebffffcf 	bl	8000cb54 <TimerTuneMsDelay>
8000cc14:	f57ff05f 	dmb	sy
8000cc18:	e3a00001 	mov	r0, #1
8000cc1c:	e8bd8070 	pop	{r4, r5, r6, pc}

8000cc20 <OkLoop>:
8000cc20:	e92d4010 	push	{r4, lr}
8000cc24:	e3a01001 	mov	r1, #1
8000cc28:	e3084480 	movw	r4, #33920	; 0x8480
8000cc2c:	e3a00012 	mov	r0, #18
8000cc30:	e340401e 	movt	r4, #30
8000cc34:	eb000fac 	bl	80010aec <setgpiofunc>
8000cc38:	e3a01000 	mov	r1, #0
8000cc3c:	e3a00012 	mov	r0, #18
8000cc40:	eb000f90 	bl	80010a88 <setgpioval>
8000cc44:	e1a00004 	mov	r0, r4
8000cc48:	eb002794 	bl	80016aa0 <delay>
8000cc4c:	e3a01001 	mov	r1, #1
8000cc50:	e3a00012 	mov	r0, #18
8000cc54:	eb000f8b 	bl	80010a88 <setgpioval>
8000cc58:	e1a00004 	mov	r0, r4
8000cc5c:	eb00278f 	bl	80016aa0 <delay>
8000cc60:	eafffff4 	b	8000cc38 <OkLoop+0x18>

8000cc64 <NotOkLoop>:
8000cc64:	e92d4010 	push	{r4, lr}
8000cc68:	e3a01001 	mov	r1, #1
8000cc6c:	e30a4120 	movw	r4, #41248	; 0xa120
8000cc70:	e3a00012 	mov	r0, #18
8000cc74:	e3404007 	movt	r4, #7
8000cc78:	eb000f9b 	bl	80010aec <setgpiofunc>
8000cc7c:	e3a01000 	mov	r1, #0
8000cc80:	e3a00012 	mov	r0, #18
8000cc84:	eb000f7f 	bl	80010a88 <setgpioval>
8000cc88:	e1a00004 	mov	r0, r4
8000cc8c:	eb002783 	bl	80016aa0 <delay>
8000cc90:	e3a01001 	mov	r1, #1
8000cc94:	e3a00012 	mov	r0, #18
8000cc98:	eb000f7a 	bl	80010a88 <setgpioval>
8000cc9c:	e1a00004 	mov	r0, r4
8000cca0:	eb00277e 	bl	80016aa0 <delay>
8000cca4:	eafffff4 	b	8000cc7c <NotOkLoop+0x18>

8000cca8 <getpmsize>:
8000cca8:	e92d4010 	push	{r4, lr}
8000ccac:	e30d4420 	movw	r4, #54304	; 0xd420
8000ccb0:	e3484009 	movt	r4, #32777	; 0x8009
8000ccb4:	e24dd008 	sub	sp, sp, #8
8000ccb8:	e3a03000 	mov	r3, #0
8000ccbc:	e3a01005 	mov	r1, #5
8000ccc0:	e58d3000 	str	r3, [sp]
8000ccc4:	e3a02008 	mov	r2, #8
8000ccc8:	e5940000 	ldr	r0, [r4]
8000cccc:	e3401001 	movt	r1, #1
8000ccd0:	eb000bbd 	bl	8000fbcc <create_request>
8000ccd4:	e5940000 	ldr	r0, [r4]
8000ccd8:	e3a01008 	mov	r1, #8
8000ccdc:	eb000bf3 	bl	8000fcb0 <writemailbox>
8000cce0:	e3a00008 	mov	r0, #8
8000cce4:	eb000be3 	bl	8000fc78 <readmailbox>
8000cce8:	e5943000 	ldr	r3, [r4]
8000ccec:	e5932004 	ldr	r2, [r3, #4]
8000ccf0:	e3520102 	cmp	r2, #-2147483648	; 0x80000000
8000ccf4:	0a000005 	beq	8000cd10 <getpmsize+0x68>
8000ccf8:	e3a01005 	mov	r1, #5
8000ccfc:	e3070eec 	movw	r0, #32492	; 0x7eec
8000cd00:	e3401001 	movt	r1, #1
8000cd04:	e3480001 	movt	r0, #32769	; 0x8001
8000cd08:	ebfffcda 	bl	8000c078 <cprintf>
8000cd0c:	e5943000 	ldr	r3, [r4]
8000cd10:	e5930018 	ldr	r0, [r3, #24]
8000cd14:	e28dd008 	add	sp, sp, #8
8000cd18:	e8bd8010 	pop	{r4, pc}

8000cd1c <machinit>:
8000cd1c:	e30a0af4 	movw	r0, #43764	; 0xaaf4
8000cd20:	e3a020e0 	mov	r2, #224	; 0xe0
8000cd24:	e3480009 	movt	r0, #32777	; 0x8009
8000cd28:	e3a01000 	mov	r1, #0
8000cd2c:	ea001669 	b	800126d8 <memset>

8000cd30 <readTest>:
8000cd30:	e92d40f0 	push	{r4, r5, r6, r7, lr}
8000cd34:	e24ddb01 	sub	sp, sp, #1024	; 0x400
8000cd38:	e24dd00c 	sub	sp, sp, #12
8000cd3c:	e1a06001 	mov	r6, r1
8000cd40:	e28d3008 	add	r3, sp, #8
8000cd44:	e28d2f81 	add	r2, sp, #516	; 0x204
8000cd48:	e2822003 	add	r2, r2, #3
8000cd4c:	e2433001 	sub	r3, r3, #1
8000cd50:	e3a01001 	mov	r1, #1
8000cd54:	e5e31001 	strb	r1, [r3, #1]!
8000cd58:	e1530002 	cmp	r3, r2
8000cd5c:	1afffffc 	bne	8000cd54 <readTest+0x24>
8000cd60:	e1a04480 	lsl	r4, r0, #9
8000cd64:	e28d2008 	add	r2, sp, #8
8000cd68:	e58d6000 	str	r6, [sp]
8000cd6c:	e3a03c02 	mov	r3, #512	; 0x200
8000cd70:	e1a05fc4 	asr	r5, r4, #31
8000cd74:	e1a00004 	mov	r0, r4
8000cd78:	e1a01005 	mov	r1, r5
8000cd7c:	eb000a92 	bl	8000f7cc <USPiMassStorageDeviceWrite>
8000cd80:	e3500c02 	cmp	r0, #512	; 0x200
8000cd84:	e1a07000 	mov	r7, r0
8000cd88:	0a000005 	beq	8000cda4 <readTest+0x74>
8000cd8c:	e3070f04 	movw	r0, #32516	; 0x7f04
8000cd90:	e3480001 	movt	r0, #32769	; 0x8001
8000cd94:	ebfffcb7 	bl	8000c078 <cprintf>
8000cd98:	e28ddb01 	add	sp, sp, #1024	; 0x400
8000cd9c:	e28dd00c 	add	sp, sp, #12
8000cda0:	e8bd80f0 	pop	{r4, r5, r6, r7, pc}
8000cda4:	e3070f14 	movw	r0, #32532	; 0x7f14
8000cda8:	e3480001 	movt	r0, #32769	; 0x8001
8000cdac:	ebfffcb1 	bl	8000c078 <cprintf>
8000cdb0:	e58d6000 	str	r6, [sp]
8000cdb4:	e1a03007 	mov	r3, r7
8000cdb8:	e1a00004 	mov	r0, r4
8000cdbc:	e1a01005 	mov	r1, r5
8000cdc0:	e28d2f82 	add	r2, sp, #520	; 0x208
8000cdc4:	eb000a63 	bl	8000f758 <USPiMassStorageDeviceRead>
8000cdc8:	e3500c02 	cmp	r0, #512	; 0x200
8000cdcc:	0a000005 	beq	8000cde8 <readTest+0xb8>
8000cdd0:	e3070f24 	movw	r0, #32548	; 0x7f24
8000cdd4:	e3480001 	movt	r0, #32769	; 0x8001
8000cdd8:	ebfffca6 	bl	8000c078 <cprintf>
8000cddc:	e28ddb01 	add	sp, sp, #1024	; 0x400
8000cde0:	e28dd00c 	add	sp, sp, #12
8000cde4:	e8bd80f0 	pop	{r4, r5, r6, r7, pc}
8000cde8:	e3075f30 	movw	r5, #32560	; 0x7f30
8000cdec:	e28d3f82 	add	r3, sp, #520	; 0x208
8000cdf0:	e3485001 	movt	r5, #32769	; 0x8001
8000cdf4:	e28d6b01 	add	r6, sp, #1024	; 0x400
8000cdf8:	e2434001 	sub	r4, r3, #1
8000cdfc:	e2866007 	add	r6, r6, #7
8000ce00:	e5f41001 	ldrb	r1, [r4, #1]!
8000ce04:	e1a00005 	mov	r0, r5
8000ce08:	ebfffc9a 	bl	8000c078 <cprintf>
8000ce0c:	e1560004 	cmp	r6, r4
8000ce10:	1afffffa 	bne	8000ce00 <readTest+0xd0>
8000ce14:	e28ddb01 	add	sp, sp, #1024	; 0x400
8000ce18:	e28dd00c 	add	sp, sp, #12
8000ce1c:	e8bd80f0 	pop	{r4, r5, r6, r7, pc}

8000ce20 <test>:
8000ce20:	e92d47f0 	push	{r4, r5, r6, r7, r8, r9, sl, lr}
8000ce24:	e24ddf82 	sub	sp, sp, #520	; 0x208
8000ce28:	eb000a3e 	bl	8000f728 <USPiMassStorageDeviceAvailable>
8000ce2c:	e250a000 	subs	sl, r0, #0
8000ce30:	da000035 	ble	8000cf0c <test+0xec>
8000ce34:	e3a09000 	mov	r9, #0
8000ce38:	e28d4f81 	add	r4, sp, #516	; 0x204
8000ce3c:	e1a08009 	mov	r8, r9
8000ce40:	e2844003 	add	r4, r4, #3
8000ce44:	e3a06000 	mov	r6, #0
8000ce48:	e3a07000 	mov	r7, #0
8000ce4c:	e3a05000 	mov	r5, #0
8000ce50:	e58d8000 	str	r8, [sp]
8000ce54:	e3a03c02 	mov	r3, #512	; 0x200
8000ce58:	e28d2008 	add	r2, sp, #8
8000ce5c:	e1a00006 	mov	r0, r6
8000ce60:	e1a01007 	mov	r1, r7
8000ce64:	eb000a3b 	bl	8000f758 <USPiMassStorageDeviceRead>
8000ce68:	e3500c02 	cmp	r0, #512	; 0x200
8000ce6c:	1a000017 	bne	8000ced0 <test+0xb0>
8000ce70:	e28d3007 	add	r3, sp, #7
8000ce74:	ea000001 	b	8000ce80 <test+0x60>
8000ce78:	e1530004 	cmp	r3, r4
8000ce7c:	0a000007 	beq	8000cea0 <test+0x80>
8000ce80:	e5f32001 	ldrb	r2, [r3, #1]!
8000ce84:	e3520000 	cmp	r2, #0
8000ce88:	0afffffa 	beq	8000ce78 <test+0x58>
8000ce8c:	e2966c02 	adds	r6, r6, #512	; 0x200
8000ce90:	e2855001 	add	r5, r5, #1
8000ce94:	e2a77000 	adc	r7, r7, #0
8000ce98:	e3a09001 	mov	r9, #1
8000ce9c:	eaffffeb 	b	8000ce50 <test+0x30>
8000cea0:	e3590001 	cmp	r9, #1
8000cea4:	1afffff8 	bne	8000ce8c <test+0x6c>
8000cea8:	e3070f58 	movw	r0, #32600	; 0x7f58
8000ceac:	e1a01005 	mov	r1, r5
8000ceb0:	e3480001 	movt	r0, #32769	; 0x8001
8000ceb4:	e1a02008 	mov	r2, r8
8000ceb8:	ebfffc6e 	bl	8000c078 <cprintf>
8000cebc:	e1a01008 	mov	r1, r8
8000cec0:	e1a00005 	mov	r0, r5
8000cec4:	ebffff99 	bl	8000cd30 <readTest>
8000cec8:	e28ddf82 	add	sp, sp, #520	; 0x208
8000cecc:	e8bd87f0 	pop	{r4, r5, r6, r7, r8, r9, sl, pc}
8000ced0:	e58d8000 	str	r8, [sp]
8000ced4:	e3a01000 	mov	r1, #0
8000ced8:	e3a03c02 	mov	r3, #512	; 0x200
8000cedc:	e28d2008 	add	r2, sp, #8
8000cee0:	e3a00000 	mov	r0, #0
8000cee4:	eb000a1b 	bl	8000f758 <USPiMassStorageDeviceRead>
8000cee8:	e3500c02 	cmp	r0, #512	; 0x200
8000ceec:	e1a01000 	mov	r1, r0
8000cef0:	1a00000a 	bne	8000cf20 <test+0x100>
8000cef4:	e2888001 	add	r8, r8, #1
8000cef8:	e15a0008 	cmp	sl, r8
8000cefc:	1affffd0 	bne	8000ce44 <test+0x24>
8000cf00:	e28d0008 	add	r0, sp, #8
8000cf04:	eb0014da 	bl	80012274 <free>
8000cf08:	eaffffee 	b	8000cec8 <test+0xa8>
8000cf0c:	e3070f34 	movw	r0, #32564	; 0x7f34
8000cf10:	e3480001 	movt	r0, #32769	; 0x8001
8000cf14:	ebfffc57 	bl	8000c078 <cprintf>
8000cf18:	e28ddf82 	add	sp, sp, #520	; 0x208
8000cf1c:	e8bd87f0 	pop	{r4, r5, r6, r7, r8, r9, sl, pc}
8000cf20:	e3070f78 	movw	r0, #32632	; 0x7f78
8000cf24:	e3480001 	movt	r0, #32769	; 0x8001
8000cf28:	ebfffc52 	bl	8000c078 <cprintf>
8000cf2c:	eaffffe5 	b	8000cec8 <test+0xa8>

8000cf30 <cmain>:
8000cf30:	e92d4010 	push	{r4, lr}
8000cf34:	eb000d3e 	bl	80010434 <mmuinit0>
8000cf38:	e30a0af4 	movw	r0, #43764	; 0xaaf4
8000cf3c:	e3a020e0 	mov	r2, #224	; 0xe0
8000cf40:	e3480009 	movt	r0, #32777	; 0x8009
8000cf44:	e3a01000 	mov	r1, #0
8000cf48:	e3a05000 	mov	r5, #0
8000cf4c:	eb0015e1 	bl	800126d8 <memset>
8000cf50:	e3485080 	movt	r5, #32896	; 0x8080
8000cf54:	eb000f50 	bl	80010c9c <uartinit>
8000cf58:	e30d4428 	movw	r4, #54312	; 0xd428
8000cf5c:	ebffecb2 	bl	8000822c <dsb_barrier>
8000cf60:	e3484009 	movt	r4, #32777	; 0x8009
8000cf64:	ebfffd3d 	bl	8000c460 <consoleinit>
8000cf68:	e3070f8c 	movw	r0, #32652	; 0x7f8c
8000cf6c:	e3480001 	movt	r0, #32769	; 0x8001
8000cf70:	ebfffc40 	bl	8000c078 <cprintf>
8000cf74:	e30f0df4 	movw	r0, #65012	; 0xfdf4
8000cf78:	e1a01005 	mov	r1, r5
8000cf7c:	e3480009 	movt	r0, #32777	; 0x8009
8000cf80:	eb001b7e 	bl	80013d80 <kinit1>
8000cf84:	e30d341c 	movw	r3, #54300	; 0xd41c
8000cf88:	e3a02901 	mov	r2, #16384	; 0x4000
8000cf8c:	e3483009 	movt	r3, #32777	; 0x8009
8000cf90:	e3482000 	movt	r2, #32768	; 0x8000
8000cf94:	e5832000 	str	r2, [r3]
8000cf98:	eb000b30 	bl	8000fc60 <mailboxinit>
8000cf9c:	ebffff41 	bl	8000cca8 <getpmsize>
8000cfa0:	e1a03000 	mov	r3, r0
8000cfa4:	e3070fa4 	movw	r0, #32676	; 0x7fa4
8000cfa8:	e3480001 	movt	r0, #32769	; 0x8001
8000cfac:	e1a01003 	mov	r1, r3
8000cfb0:	e5843000 	str	r3, [r4]
8000cfb4:	ebfffc2f 	bl	8000c078 <cprintf>
8000cfb8:	eb000d46 	bl	800104d8 <mmuinit1>
8000cfbc:	e3070fb4 	movw	r0, #32692	; 0x7fb4
8000cfc0:	e3480001 	movt	r0, #32769	; 0x8001
8000cfc4:	ebfffc2b 	bl	8000c078 <cprintf>
8000cfc8:	ebfffd0d 	bl	8000c404 <gpuinit>
8000cfcc:	e3070fc4 	movw	r0, #32708	; 0x7fc4
8000cfd0:	e3480001 	movt	r0, #32769	; 0x8001
8000cfd4:	ebfffc27 	bl	8000c078 <cprintf>
8000cfd8:	eb002353 	bl	80015d2c <pinit>
8000cfdc:	e3070fd4 	movw	r0, #32724	; 0x7fd4
8000cfe0:	e3480001 	movt	r0, #32769	; 0x8001
8000cfe4:	ebfffc23 	bl	8000c078 <cprintf>
8000cfe8:	ebffee54 	bl	80008940 <tvinit>
8000cfec:	e3070fe0 	movw	r0, #32736	; 0x7fe0
8000cff0:	e3480001 	movt	r0, #32769	; 0x8001
8000cff4:	ebfffc1f 	bl	8000c078 <cprintf>
8000cff8:	ebfff548 	bl	8000a520 <binit>
8000cffc:	e3070fec 	movw	r0, #32748	; 0x7fec
8000d000:	e3480001 	movt	r0, #32769	; 0x8001
8000d004:	ebfffc1b 	bl	8000c078 <cprintf>
8000d008:	eb0012aa 	bl	80011ab8 <fileinit>
8000d00c:	e3070ff8 	movw	r0, #32760	; 0x7ff8
8000d010:	e3480001 	movt	r0, #32769	; 0x8001
8000d014:	ebfffc17 	bl	8000c078 <cprintf>
8000d018:	ebfff807 	bl	8000b03c <iinit>
8000d01c:	e3080008 	movw	r0, #32776	; 0x8008
8000d020:	e3480001 	movt	r0, #32769	; 0x8001
8000d024:	ebfffc13 	bl	8000c078 <cprintf>
8000d028:	eb0008da 	bl	8000f398 <ideinit>
8000d02c:	e3080014 	movw	r0, #32788	; 0x8014
8000d030:	e3480001 	movt	r0, #32769	; 0x8001
8000d034:	ebfffc0f 	bl	8000c078 <cprintf>
8000d038:	e5941000 	ldr	r1, [r4]
8000d03c:	e1a00005 	mov	r0, r5
8000d040:	e2811102 	add	r1, r1, #-2147483648	; 0x80000000
8000d044:	eb001b6a 	bl	80013df4 <kinit2>
8000d048:	e3080024 	movw	r0, #32804	; 0x8024
8000d04c:	e3480001 	movt	r0, #32769	; 0x8001
8000d050:	ebfffc08 	bl	8000c078 <cprintf>
8000d054:	eb0014f0 	bl	8001241c <usbinit>
8000d058:	eb00233f 	bl	80015d5c <userinit>
8000d05c:	e3080030 	movw	r0, #32816	; 0x8030
8000d060:	e3480001 	movt	r0, #32769	; 0x8001
8000d064:	ebfffc03 	bl	8000c078 <cprintf>
8000d068:	eb002665 	bl	80016a04 <timer3init>
8000d06c:	e3080040 	movw	r0, #32832	; 0x8040
8000d070:	e3480001 	movt	r0, #32769	; 0x8001
8000d074:	ebfffbff 	bl	8000c078 <cprintf>
8000d078:	eb000e9e 	bl	80010af8 <enableirqminiuart>
8000d07c:	e3080050 	movw	r0, #32848	; 0x8050
8000d080:	e3480001 	movt	r0, #32769	; 0x8001
8000d084:	ebfffbfb 	bl	8000c078 <cprintf>
8000d088:	e3080064 	movw	r0, #32868	; 0x8064
8000d08c:	e3480001 	movt	r0, #32769	; 0x8001
8000d090:	ebfffbf8 	bl	8000c078 <cprintf>
8000d094:	eb0023af 	bl	80015f58 <scheduler>

8000d098 <walkpgdir>:
8000d098:	e92d47f0 	push	{r4, r5, r6, r7, r8, r9, sl, lr}
8000d09c:	e1a05001 	mov	r5, r1
8000d0a0:	e1a08a21 	lsr	r8, r1, #20
8000d0a4:	e7904108 	ldr	r4, [r0, r8, lsl #2]
8000d0a8:	e3540000 	cmp	r4, #0
8000d0ac:	0a000005 	beq	8000d0c8 <walkpgdir+0x30>
8000d0b0:	e3c44eff 	bic	r4, r4, #4080	; 0xff0
8000d0b4:	e3c4400f 	bic	r4, r4, #15
8000d0b8:	e2846102 	add	r6, r4, #-2147483648	; 0x80000000
8000d0bc:	e7e75655 	ubfx	r5, r5, #12, #8
8000d0c0:	e0860105 	add	r0, r6, r5, lsl #2
8000d0c4:	e8bd87f0 	pop	{r4, r5, r6, r7, r8, r9, sl, pc}
8000d0c8:	e3530000 	cmp	r3, #0
8000d0cc:	0a00000b 	beq	8000d100 <walkpgdir+0x68>
8000d0d0:	e1a07000 	mov	r7, r0
8000d0d4:	e1a09002 	mov	r9, r2
8000d0d8:	eb001b58 	bl	80013e40 <kalloc>
8000d0dc:	e2506000 	subs	r6, r0, #0
8000d0e0:	0a000006 	beq	8000d100 <walkpgdir+0x68>
8000d0e4:	e3a02a01 	mov	r2, #4096	; 0x1000
8000d0e8:	e1a01004 	mov	r1, r4
8000d0ec:	eb001579 	bl	800126d8 <memset>
8000d0f0:	e2862102 	add	r2, r6, #-2147483648	; 0x80000000
8000d0f4:	e1822009 	orr	r2, r2, r9
8000d0f8:	e7872108 	str	r2, [r7, r8, lsl #2]
8000d0fc:	eaffffee 	b	8000d0bc <walkpgdir+0x24>
8000d100:	e3a00000 	mov	r0, #0
8000d104:	e8bd87f0 	pop	{r4, r5, r6, r7, r8, r9, sl, pc}

8000d108 <mappages>:
8000d108:	e92d47f0 	push	{r4, r5, r6, r7, r8, r9, sl, lr}
8000d10c:	e3a0ca0f 	mov	ip, #61440	; 0xf000
8000d110:	e59d7020 	ldr	r7, [sp, #32]
8000d114:	e2426001 	sub	r6, r2, #1
8000d118:	e34fcfff 	movt	ip, #65535	; 0xffff
8000d11c:	e1a05000 	mov	r5, r0
8000d120:	e0866001 	add	r6, r6, r1
8000d124:	e3170002 	tst	r7, #2
8000d128:	e59da024 	ldr	sl, [sp, #36]	; 0x24
8000d12c:	e006600c 	and	r6, r6, ip
8000d130:	e001400c 	and	r4, r1, ip
8000d134:	0a000015 	beq	8000d190 <mappages+0x88>
8000d138:	e1540006 	cmp	r4, r6
8000d13c:	8a000011 	bhi	8000d188 <mappages+0x80>
8000d140:	e1a02a24 	lsr	r2, r4, #20
8000d144:	e7901102 	ldr	r1, [r0, r2, lsl #2]
8000d148:	e0802102 	add	r2, r0, r2, lsl #2
8000d14c:	e3510000 	cmp	r1, #0
8000d150:	00438004 	subeq	r8, r3, r4
8000d154:	0a000005 	beq	8000d170 <mappages+0x68>
8000d158:	ea000022 	b	8000d1e8 <mappages+0xe0>
8000d15c:	e1a02a24 	lsr	r2, r4, #20
8000d160:	e7953102 	ldr	r3, [r5, r2, lsl #2]
8000d164:	e0852102 	add	r2, r5, r2, lsl #2
8000d168:	e3530000 	cmp	r3, #0
8000d16c:	1a00001d 	bne	8000d1e8 <mappages+0xe0>
8000d170:	e0841008 	add	r1, r4, r8
8000d174:	e2844601 	add	r4, r4, #1048576	; 0x100000
8000d178:	e1560004 	cmp	r6, r4
8000d17c:	e1811007 	orr	r1, r1, r7
8000d180:	e5821000 	str	r1, [r2]
8000d184:	2afffff4 	bcs	8000d15c <mappages+0x54>
8000d188:	e3a00000 	mov	r0, #0
8000d18c:	e8bd87f0 	pop	{r4, r5, r6, r7, r8, r9, sl, pc}
8000d190:	e3170001 	tst	r7, #1
8000d194:	0a000016 	beq	8000d1f4 <mappages+0xec>
8000d198:	e0438004 	sub	r8, r3, r4
8000d19c:	ea000007 	b	8000d1c0 <mappages+0xb8>
8000d1a0:	e5903000 	ldr	r3, [r0]
8000d1a4:	e3530000 	cmp	r3, #0
8000d1a8:	1a00000e 	bne	8000d1e8 <mappages+0xe0>
8000d1ac:	e1540006 	cmp	r4, r6
8000d1b0:	e18a9009 	orr	r9, sl, r9
8000d1b4:	e5809000 	str	r9, [r0]
8000d1b8:	0afffff2 	beq	8000d188 <mappages+0x80>
8000d1bc:	e2844a01 	add	r4, r4, #4096	; 0x1000
8000d1c0:	e0849008 	add	r9, r4, r8
8000d1c4:	e3a03001 	mov	r3, #1
8000d1c8:	e1a02007 	mov	r2, r7
8000d1cc:	e1a01004 	mov	r1, r4
8000d1d0:	e1a00005 	mov	r0, r5
8000d1d4:	ebffffaf 	bl	8000d098 <walkpgdir>
8000d1d8:	e3500000 	cmp	r0, #0
8000d1dc:	1affffef 	bne	8000d1a0 <mappages+0x98>
8000d1e0:	e3e00000 	mvn	r0, #0
8000d1e4:	e8bd87f0 	pop	{r4, r5, r6, r7, r8, r9, sl, pc}
8000d1e8:	e3080084 	movw	r0, #32900	; 0x8084
8000d1ec:	e3480001 	movt	r0, #32769	; 0x8001
8000d1f0:	ebfffb83 	bl	8000c004 <panic>
8000d1f4:	e308008c 	movw	r0, #32908	; 0x808c
8000d1f8:	e3480001 	movt	r0, #32769	; 0x8001
8000d1fc:	ebfffb80 	bl	8000c004 <panic>

8000d200 <deallocuvm.part.0>:
8000d200:	e92d47f0 	push	{r4, r5, r6, r7, r8, r9, sl, lr}
8000d204:	e3a06a0f 	mov	r6, #61440	; 0xf000
8000d208:	e34f6fff 	movt	r6, #65535	; 0xffff
8000d20c:	e2824eff 	add	r4, r2, #4080	; 0xff0
8000d210:	e284400f 	add	r4, r4, #15
8000d214:	e1a09002 	mov	r9, r2
8000d218:	e0044006 	and	r4, r4, r6
8000d21c:	e1540001 	cmp	r4, r1
8000d220:	2a000016 	bcs	8000d280 <deallocuvm.part.0+0x80>
8000d224:	e1a05001 	mov	r5, r1
8000d228:	e1a07000 	mov	r7, r0
8000d22c:	e3a08000 	mov	r8, #0
8000d230:	e1a01004 	mov	r1, r4
8000d234:	e3a03000 	mov	r3, #0
8000d238:	e3a02001 	mov	r2, #1
8000d23c:	e1a00007 	mov	r0, r7
8000d240:	ebffff94 	bl	8000d098 <walkpgdir>
8000d244:	e250a000 	subs	sl, r0, #0
8000d248:	028449ff 	addeq	r4, r4, #4177920	; 0x3fc000
8000d24c:	02844a03 	addeq	r4, r4, #12288	; 0x3000
8000d250:	0a000007 	beq	8000d274 <deallocuvm.part.0+0x74>
8000d254:	e59a0000 	ldr	r0, [sl]
8000d258:	e3500000 	cmp	r0, #0
8000d25c:	0a000004 	beq	8000d274 <deallocuvm.part.0+0x74>
8000d260:	e0100006 	ands	r0, r0, r6
8000d264:	0a000007 	beq	8000d288 <deallocuvm.part.0+0x88>
8000d268:	e2800102 	add	r0, r0, #-2147483648	; 0x80000000
8000d26c:	eb001a8f 	bl	80013cb0 <kfree>
8000d270:	e58a8000 	str	r8, [sl]
8000d274:	e2844a01 	add	r4, r4, #4096	; 0x1000
8000d278:	e1540005 	cmp	r4, r5
8000d27c:	3affffeb 	bcc	8000d230 <deallocuvm.part.0+0x30>
8000d280:	e1a00009 	mov	r0, r9
8000d284:	e8bd87f0 	pop	{r4, r5, r6, r7, r8, r9, sl, pc}
8000d288:	e30800a4 	movw	r0, #32932	; 0x80a4
8000d28c:	e3480001 	movt	r0, #32769	; 0x8001
8000d290:	ebfffb5b 	bl	8000c004 <panic>

8000d294 <setupkvm>:
8000d294:	e92d4010 	push	{r4, lr}
8000d298:	eb001ae8 	bl	80013e40 <kalloc>
8000d29c:	e2504000 	subs	r4, r0, #0
8000d2a0:	0a000002 	beq	8000d2b0 <setupkvm+0x1c>
8000d2a4:	e3a02a01 	mov	r2, #4096	; 0x1000
8000d2a8:	e3a01000 	mov	r1, #0
8000d2ac:	eb001509 	bl	800126d8 <memset>
8000d2b0:	e1a00004 	mov	r0, r4
8000d2b4:	e8bd8010 	pop	{r4, pc}

8000d2b8 <setupkvm_new>:
8000d2b8:	e30d341c 	movw	r3, #54300	; 0xd41c
8000d2bc:	e3a02901 	mov	r2, #16384	; 0x4000
8000d2c0:	e3483009 	movt	r3, #32777	; 0x8009
8000d2c4:	e3a01000 	mov	r1, #0
8000d2c8:	e92d4070 	push	{r4, r5, r6, lr}
8000d2cc:	e24dd008 	sub	sp, sp, #8
8000d2d0:	e5936000 	ldr	r6, [r3]
8000d2d4:	e1a00006 	mov	r0, r6
8000d2d8:	eb0014fe 	bl	800126d8 <memset>
8000d2dc:	e30d3428 	movw	r3, #54312	; 0xd428
8000d2e0:	e3483009 	movt	r3, #32777	; 0x8009
8000d2e4:	e5932000 	ldr	r2, [r3]
8000d2e8:	e2823102 	add	r3, r2, #-2147483648	; 0x80000000
8000d2ec:	e353020d 	cmp	r3, #-805306368	; 0xd0000000
8000d2f0:	8a000016 	bhi	8000d350 <setupkvm_new+0x98>
8000d2f4:	e30a387c 	movw	r3, #43132	; 0xa87c
8000d2f8:	e3483009 	movt	r3, #32777	; 0x8009
8000d2fc:	e2834014 	add	r4, r3, #20
8000d300:	e2835050 	add	r5, r3, #80	; 0x50
8000d304:	e5832008 	str	r2, [r3, #8]
8000d308:	e5143010 	ldr	r3, [r4, #-16]
8000d30c:	e1a00006 	mov	r0, r6
8000d310:	e9145000 	ldmdb	r4, {ip, lr}
8000d314:	e5141014 	ldr	r1, [r4, #-20]	; 0xffffffec
8000d318:	e0422003 	sub	r2, r2, r3
8000d31c:	e88d5000 	stm	sp, {ip, lr}
8000d320:	ebffff78 	bl	8000d108 <mappages>
8000d324:	e3500000 	cmp	r0, #0
8000d328:	ba000004 	blt	8000d340 <setupkvm_new+0x88>
8000d32c:	e2844014 	add	r4, r4, #20
8000d330:	e1540005 	cmp	r4, r5
8000d334:	0a000002 	beq	8000d344 <setupkvm_new+0x8c>
8000d338:	e514200c 	ldr	r2, [r4, #-12]
8000d33c:	eafffff1 	b	8000d308 <setupkvm_new+0x50>
8000d340:	e3a06000 	mov	r6, #0
8000d344:	e1a00006 	mov	r0, r6
8000d348:	e28dd008 	add	sp, sp, #8
8000d34c:	e8bd8070 	pop	{r4, r5, r6, pc}
8000d350:	e30800ac 	movw	r0, #32940	; 0x80ac
8000d354:	e3480001 	movt	r0, #32769	; 0x8001
8000d358:	ebfffb29 	bl	8000c004 <panic>

8000d35c <kvmalloc>:
8000d35c:	e92d4010 	push	{r4, lr}
8000d360:	ebffffd4 	bl	8000d2b8 <setupkvm_new>
8000d364:	e30d341c 	movw	r3, #54300	; 0xd41c
8000d368:	e3483009 	movt	r3, #32777	; 0x8009
8000d36c:	e5830000 	str	r0, [r3]
8000d370:	e8bd8010 	pop	{r4, pc}

8000d374 <switchkvm>:
8000d374:	e12fff1e 	bx	lr

8000d378 <switchkvm_new>:
8000d378:	e92d4010 	push	{r4, lr}
8000d37c:	ebffebaa 	bl	8000822c <dsb_barrier>
8000d380:	ebffebaf 	bl	80008244 <flush_idcache>
8000d384:	e30d341c 	movw	r3, #54300	; 0xd41c
8000d388:	e3483009 	movt	r3, #32777	; 0x8009
8000d38c:	e5930000 	ldr	r0, [r3]
8000d390:	e2800102 	add	r0, r0, #-2147483648	; 0x80000000
8000d394:	ebffebb8 	bl	8000827c <set_pgtbase>
8000d398:	ebffeba3 	bl	8000822c <dsb_barrier>
8000d39c:	e8bd4010 	pop	{r4, lr}
8000d3a0:	eaffebaa 	b	80008250 <flush_tlb>

8000d3a4 <switchuvm>:
8000d3a4:	e92d4010 	push	{r4, lr}
8000d3a8:	e1a04000 	mov	r4, r0
8000d3ac:	ebfffc62 	bl	8000c53c <pushcli>
8000d3b0:	e5941004 	ldr	r1, [r4, #4]
8000d3b4:	e3510000 	cmp	r1, #0
8000d3b8:	0a000008 	beq	8000d3e0 <switchuvm+0x3c>
8000d3bc:	e30d341c 	movw	r3, #54300	; 0xd41c
8000d3c0:	e3a02a01 	mov	r2, #4096	; 0x1000
8000d3c4:	e3483009 	movt	r3, #32777	; 0x8009
8000d3c8:	e5930000 	ldr	r0, [r3]
8000d3cc:	eb0014ef 	bl	80012790 <memmove>
8000d3d0:	ebffeb9b 	bl	80008244 <flush_idcache>
8000d3d4:	ebffeb9d 	bl	80008250 <flush_tlb>
8000d3d8:	e8bd4010 	pop	{r4, lr}
8000d3dc:	eafffc83 	b	8000c5f0 <popcli>
8000d3e0:	e30800c8 	movw	r0, #32968	; 0x80c8
8000d3e4:	e3480001 	movt	r0, #32769	; 0x8001
8000d3e8:	ebfffb05 	bl	8000c004 <panic>

8000d3ec <inituvm>:
8000d3ec:	e3520a01 	cmp	r2, #4096	; 0x1000
8000d3f0:	e92d40f0 	push	{r4, r5, r6, r7, lr}
8000d3f4:	e24dd00c 	sub	sp, sp, #12
8000d3f8:	2a000016 	bcs	8000d458 <inituvm+0x6c>
8000d3fc:	e1a04002 	mov	r4, r2
8000d400:	e1a06001 	mov	r6, r1
8000d404:	e1a07000 	mov	r7, r0
8000d408:	eb001a8c 	bl	80013e40 <kalloc>
8000d40c:	e3a02a01 	mov	r2, #4096	; 0x1000
8000d410:	e3a01000 	mov	r1, #0
8000d414:	e1a05000 	mov	r5, r0
8000d418:	eb0014ae 	bl	800126d8 <memset>
8000d41c:	e3002dfe 	movw	r2, #3582	; 0xdfe
8000d420:	e3a03001 	mov	r3, #1
8000d424:	e58d2004 	str	r2, [sp, #4]
8000d428:	e1a00007 	mov	r0, r7
8000d42c:	e58d3000 	str	r3, [sp]
8000d430:	e3a02a01 	mov	r2, #4096	; 0x1000
8000d434:	e2853102 	add	r3, r5, #-2147483648	; 0x80000000
8000d438:	e3a01000 	mov	r1, #0
8000d43c:	ebffff31 	bl	8000d108 <mappages>
8000d440:	e1a02004 	mov	r2, r4
8000d444:	e1a01006 	mov	r1, r6
8000d448:	e1a00005 	mov	r0, r5
8000d44c:	e28dd00c 	add	sp, sp, #12
8000d450:	e8bd40f0 	pop	{r4, r5, r6, r7, lr}
8000d454:	ea0014cd 	b	80012790 <memmove>
8000d458:	e30800dc 	movw	r0, #32988	; 0x80dc
8000d45c:	e3480001 	movt	r0, #32769	; 0x8001
8000d460:	ebfffae7 	bl	8000c004 <panic>

8000d464 <loaduvm>:
8000d464:	e92d4ff0 	push	{r4, r5, r6, r7, r8, r9, sl, fp, lr}
8000d468:	e24dd00c 	sub	sp, sp, #12
8000d46c:	e7eb4051 	ubfx	r4, r1, #0, #12
8000d470:	e59d7030 	ldr	r7, [sp, #48]	; 0x30
8000d474:	e3540000 	cmp	r4, #0
8000d478:	e58d2004 	str	r2, [sp, #4]
8000d47c:	1a00002e 	bne	8000d53c <loaduvm+0xd8>
8000d480:	e1a0b003 	mov	fp, r3
8000d484:	e1a08001 	mov	r8, r1
8000d488:	e0813007 	add	r3, r1, r7
8000d48c:	e3530101 	cmp	r3, #1073741824	; 0x40000000
8000d490:	8a000026 	bhi	8000d530 <loaduvm+0xcc>
8000d494:	e3570000 	cmp	r7, #0
8000d498:	13a09a0f 	movne	r9, #61440	; 0xf000
8000d49c:	11a0a000 	movne	sl, r0
8000d4a0:	134f9fff 	movtne	r9, #65535	; 0xffff
8000d4a4:	11a05007 	movne	r5, r7
8000d4a8:	1a000004 	bne	8000d4c0 <loaduvm+0x5c>
8000d4ac:	ea000019 	b	8000d518 <loaduvm+0xb4>
8000d4b0:	e2844a01 	add	r4, r4, #4096	; 0x1000
8000d4b4:	e2455a01 	sub	r5, r5, #4096	; 0x1000
8000d4b8:	e1570004 	cmp	r7, r4
8000d4bc:	9a000015 	bls	8000d518 <loaduvm+0xb4>
8000d4c0:	e0881004 	add	r1, r8, r4
8000d4c4:	e3a03000 	mov	r3, #0
8000d4c8:	e3a02001 	mov	r2, #1
8000d4cc:	e1a0000a 	mov	r0, sl
8000d4d0:	ebfffef0 	bl	8000d098 <walkpgdir>
8000d4d4:	e3500000 	cmp	r0, #0
8000d4d8:	0a000011 	beq	8000d524 <loaduvm+0xc0>
8000d4dc:	e5901000 	ldr	r1, [r0]
8000d4e0:	e3550a01 	cmp	r5, #4096	; 0x1000
8000d4e4:	e08b2004 	add	r2, fp, r4
8000d4e8:	31a06005 	movcc	r6, r5
8000d4ec:	e59d0004 	ldr	r0, [sp, #4]
8000d4f0:	23a06a01 	movcs	r6, #4096	; 0x1000
8000d4f4:	e0011009 	and	r1, r1, r9
8000d4f8:	e1a03006 	mov	r3, r6
8000d4fc:	e2811102 	add	r1, r1, #-2147483648	; 0x80000000
8000d500:	ebfff7ef 	bl	8000b4c4 <readi>
8000d504:	e1560000 	cmp	r6, r0
8000d508:	0affffe8 	beq	8000d4b0 <loaduvm+0x4c>
8000d50c:	e3e00000 	mvn	r0, #0
8000d510:	e28dd00c 	add	sp, sp, #12
8000d514:	e8bd8ff0 	pop	{r4, r5, r6, r7, r8, r9, sl, fp, pc}
8000d518:	e3a00000 	mov	r0, #0
8000d51c:	e28dd00c 	add	sp, sp, #12
8000d520:	e8bd8ff0 	pop	{r4, r5, r6, r7, r8, r9, sl, fp, pc}
8000d524:	e3080164 	movw	r0, #33124	; 0x8164
8000d528:	e3480001 	movt	r0, #32769	; 0x8001
8000d52c:	ebfffab4 	bl	8000c004 <panic>
8000d530:	e308011c 	movw	r0, #33052	; 0x811c
8000d534:	e3480001 	movt	r0, #32769	; 0x8001
8000d538:	ebfffab1 	bl	8000c004 <panic>
8000d53c:	e30800f8 	movw	r0, #33016	; 0x80f8
8000d540:	e3480001 	movt	r0, #32769	; 0x8001
8000d544:	ebfffaae 	bl	8000c004 <panic>

8000d548 <allocuvm>:
8000d548:	e3720107 	cmn	r2, #-1073741823	; 0xc0000001
8000d54c:	8a00002f 	bhi	8000d610 <allocuvm+0xc8>
8000d550:	e1520001 	cmp	r2, r1
8000d554:	3a00002b 	bcc	8000d608 <allocuvm+0xc0>
8000d558:	e92d47f0 	push	{r4, r5, r6, r7, r8, r9, sl, lr}
8000d55c:	e1a07002 	mov	r7, r2
8000d560:	e2814eff 	add	r4, r1, #4080	; 0xff0
8000d564:	e3a02a0f 	mov	r2, #61440	; 0xf000
8000d568:	e34f2fff 	movt	r2, #65535	; 0xffff
8000d56c:	e284400f 	add	r4, r4, #15
8000d570:	e0044002 	and	r4, r4, r2
8000d574:	e24dd008 	sub	sp, sp, #8
8000d578:	e1570004 	cmp	r7, r4
8000d57c:	e1a0a001 	mov	sl, r1
8000d580:	e1a08000 	mov	r8, r0
8000d584:	9a000023 	bls	8000d618 <allocuvm+0xd0>
8000d588:	e2473001 	sub	r3, r7, #1
8000d58c:	e2846a01 	add	r6, r4, #4096	; 0x1000
8000d590:	e0433004 	sub	r3, r3, r4
8000d594:	e3009dfe 	movw	r9, #3582	; 0xdfe
8000d598:	e0033002 	and	r3, r3, r2
8000d59c:	e0836006 	add	r6, r3, r6
8000d5a0:	ea00000b 	b	8000d5d4 <allocuvm+0x8c>
8000d5a4:	eb00144b 	bl	800126d8 <memset>
8000d5a8:	e58d9004 	str	r9, [sp, #4]
8000d5ac:	e3a03001 	mov	r3, #1
8000d5b0:	e58d3000 	str	r3, [sp]
8000d5b4:	e3a02a01 	mov	r2, #4096	; 0x1000
8000d5b8:	e1a01004 	mov	r1, r4
8000d5bc:	e2853102 	add	r3, r5, #-2147483648	; 0x80000000
8000d5c0:	e0844002 	add	r4, r4, r2
8000d5c4:	e1a00008 	mov	r0, r8
8000d5c8:	ebfffece 	bl	8000d108 <mappages>
8000d5cc:	e1540006 	cmp	r4, r6
8000d5d0:	0a000010 	beq	8000d618 <allocuvm+0xd0>
8000d5d4:	eb001a19 	bl	80013e40 <kalloc>
8000d5d8:	e2505000 	subs	r5, r0, #0
8000d5dc:	e3a02a01 	mov	r2, #4096	; 0x1000
8000d5e0:	e3a01000 	mov	r1, #0
8000d5e4:	1affffee 	bne	8000d5a4 <allocuvm+0x5c>
8000d5e8:	e3080184 	movw	r0, #33156	; 0x8184
8000d5ec:	e3480001 	movt	r0, #32769	; 0x8001
8000d5f0:	ebfffaa0 	bl	8000c078 <cprintf>
8000d5f4:	e157000a 	cmp	r7, sl
8000d5f8:	93a00000 	movls	r0, #0
8000d5fc:	8a000008 	bhi	8000d624 <allocuvm+0xdc>
8000d600:	e28dd008 	add	sp, sp, #8
8000d604:	e8bd87f0 	pop	{r4, r5, r6, r7, r8, r9, sl, pc}
8000d608:	e1a00001 	mov	r0, r1
8000d60c:	e12fff1e 	bx	lr
8000d610:	e3a00000 	mov	r0, #0
8000d614:	e12fff1e 	bx	lr
8000d618:	e1a00007 	mov	r0, r7
8000d61c:	e28dd008 	add	sp, sp, #8
8000d620:	e8bd87f0 	pop	{r4, r5, r6, r7, r8, r9, sl, pc}
8000d624:	e1a0200a 	mov	r2, sl
8000d628:	e1a01007 	mov	r1, r7
8000d62c:	e1a00008 	mov	r0, r8
8000d630:	ebfffef2 	bl	8000d200 <deallocuvm.part.0>
8000d634:	e1a00005 	mov	r0, r5
8000d638:	eafffff0 	b	8000d600 <allocuvm+0xb8>

8000d63c <deallocuvm>:
8000d63c:	e1520001 	cmp	r2, r1
8000d640:	2a000000 	bcs	8000d648 <deallocuvm+0xc>
8000d644:	eafffeed 	b	8000d200 <deallocuvm.part.0>
8000d648:	e1a00001 	mov	r0, r1
8000d64c:	e12fff1e 	bx	lr

8000d650 <freevm>:
8000d650:	e92d41f0 	push	{r4, r5, r6, r7, r8, lr}
8000d654:	e2507000 	subs	r7, r0, #0
8000d658:	0a000015 	beq	8000d6b4 <freevm+0x64>
8000d65c:	e2875eff 	add	r5, r7, #4080	; 0xff0
8000d660:	e3a06a0f 	mov	r6, #61440	; 0xf000
8000d664:	e34f6fff 	movt	r6, #65535	; 0xffff
8000d668:	e3a02000 	mov	r2, #0
8000d66c:	e3a01101 	mov	r1, #1073741824	; 0x40000000
8000d670:	e285500c 	add	r5, r5, #12
8000d674:	e2474004 	sub	r4, r7, #4
8000d678:	ebfffee0 	bl	8000d200 <deallocuvm.part.0>
8000d67c:	ea000001 	b	8000d688 <freevm+0x38>
8000d680:	e1540005 	cmp	r4, r5
8000d684:	0a000007 	beq	8000d6a8 <freevm+0x58>
8000d688:	e5b40004 	ldr	r0, [r4, #4]!
8000d68c:	e3500000 	cmp	r0, #0
8000d690:	0afffffa 	beq	8000d680 <freevm+0x30>
8000d694:	e0000006 	and	r0, r0, r6
8000d698:	e2800102 	add	r0, r0, #-2147483648	; 0x80000000
8000d69c:	eb001983 	bl	80013cb0 <kfree>
8000d6a0:	e1540005 	cmp	r4, r5
8000d6a4:	1afffff7 	bne	8000d688 <freevm+0x38>
8000d6a8:	e1a00007 	mov	r0, r7
8000d6ac:	e8bd41f0 	pop	{r4, r5, r6, r7, r8, lr}
8000d6b0:	ea00197e 	b	80013cb0 <kfree>
8000d6b4:	e308019c 	movw	r0, #33180	; 0x819c
8000d6b8:	e3480001 	movt	r0, #32769	; 0x8001
8000d6bc:	ebfffa50 	bl	8000c004 <panic>

8000d6c0 <clearpteu>:
8000d6c0:	e92d4010 	push	{r4, lr}
8000d6c4:	e3a03000 	mov	r3, #0
8000d6c8:	e3a02001 	mov	r2, #1
8000d6cc:	ebfffe71 	bl	8000d098 <walkpgdir>
8000d6d0:	e3500000 	cmp	r0, #0
8000d6d4:	0a000003 	beq	8000d6e8 <clearpteu+0x28>
8000d6d8:	e5903000 	ldr	r3, [r0]
8000d6dc:	e3c33eaa 	bic	r3, r3, #2720	; 0xaa0
8000d6e0:	e5803000 	str	r3, [r0]
8000d6e4:	e8bd8010 	pop	{r4, pc}
8000d6e8:	e30801b0 	movw	r0, #33200	; 0x81b0
8000d6ec:	e3480001 	movt	r0, #32769	; 0x8001
8000d6f0:	ebfffa43 	bl	8000c004 <panic>

8000d6f4 <copyuvm>:
8000d6f4:	e92d4ff0 	push	{r4, r5, r6, r7, r8, r9, sl, fp, lr}
8000d6f8:	e24dd00c 	sub	sp, sp, #12
8000d6fc:	e1a09000 	mov	r9, r0
8000d700:	e1a08001 	mov	r8, r1
8000d704:	ebfffee2 	bl	8000d294 <setupkvm>
8000d708:	e2506000 	subs	r6, r0, #0
8000d70c:	0a000027 	beq	8000d7b0 <copyuvm+0xbc>
8000d710:	e3580000 	cmp	r8, #0
8000d714:	0a000025 	beq	8000d7b0 <copyuvm+0xbc>
8000d718:	e3a07a0f 	mov	r7, #61440	; 0xf000
8000d71c:	e3a05000 	mov	r5, #0
8000d720:	e34f7fff 	movt	r7, #65535	; 0xffff
8000d724:	ea00000f 	b	8000d768 <copyuvm+0x74>
8000d728:	e28b1102 	add	r1, fp, #-2147483648	; 0x80000000
8000d72c:	e3a02a01 	mov	r2, #4096	; 0x1000
8000d730:	eb001416 	bl	80012790 <memmove>
8000d734:	e58d4004 	str	r4, [sp, #4]
8000d738:	e3a02001 	mov	r2, #1
8000d73c:	e58d2000 	str	r2, [sp]
8000d740:	e28a3102 	add	r3, sl, #-2147483648	; 0x80000000
8000d744:	e3a02a01 	mov	r2, #4096	; 0x1000
8000d748:	e1a01005 	mov	r1, r5
8000d74c:	e1a00006 	mov	r0, r6
8000d750:	ebfffe6c 	bl	8000d108 <mappages>
8000d754:	e3500000 	cmp	r0, #0
8000d758:	ba000011 	blt	8000d7a4 <copyuvm+0xb0>
8000d75c:	e2855a01 	add	r5, r5, #4096	; 0x1000
8000d760:	e1580005 	cmp	r8, r5
8000d764:	9a000011 	bls	8000d7b0 <copyuvm+0xbc>
8000d768:	e3a03000 	mov	r3, #0
8000d76c:	e3a02001 	mov	r2, #1
8000d770:	e1a01005 	mov	r1, r5
8000d774:	e1a00009 	mov	r0, r9
8000d778:	ebfffe46 	bl	8000d098 <walkpgdir>
8000d77c:	e3500000 	cmp	r0, #0
8000d780:	0a00000d 	beq	8000d7bc <copyuvm+0xc8>
8000d784:	e5903000 	ldr	r3, [r0]
8000d788:	e3530000 	cmp	r3, #0
8000d78c:	0a00000d 	beq	8000d7c8 <copyuvm+0xd4>
8000d790:	e003b007 	and	fp, r3, r7
8000d794:	e7eb4053 	ubfx	r4, r3, #0, #12
8000d798:	eb0019a8 	bl	80013e40 <kalloc>
8000d79c:	e250a000 	subs	sl, r0, #0
8000d7a0:	1affffe0 	bne	8000d728 <copyuvm+0x34>
8000d7a4:	e1a00006 	mov	r0, r6
8000d7a8:	e3a06000 	mov	r6, #0
8000d7ac:	ebffffa7 	bl	8000d650 <freevm>
8000d7b0:	e1a00006 	mov	r0, r6
8000d7b4:	e28dd00c 	add	sp, sp, #12
8000d7b8:	e8bd8ff0 	pop	{r4, r5, r6, r7, r8, r9, sl, fp, pc}
8000d7bc:	e30801bc 	movw	r0, #33212	; 0x81bc
8000d7c0:	e3480001 	movt	r0, #32769	; 0x8001
8000d7c4:	ebfffa0e 	bl	8000c004 <panic>
8000d7c8:	e30801d8 	movw	r0, #33240	; 0x81d8
8000d7cc:	e3480001 	movt	r0, #32769	; 0x8001
8000d7d0:	ebfffa0b 	bl	8000c004 <panic>

8000d7d4 <uva2ka>:
8000d7d4:	e92d4010 	push	{r4, lr}
8000d7d8:	e3a03000 	mov	r3, #0
8000d7dc:	e3a02001 	mov	r2, #1
8000d7e0:	ebfffe2c 	bl	8000d098 <walkpgdir>
8000d7e4:	e5900000 	ldr	r0, [r0]
8000d7e8:	e3500000 	cmp	r0, #0
8000d7ec:	08bd8010 	popeq	{r4, pc}
8000d7f0:	e2103eaa 	ands	r3, r0, #2720	; 0xaa0
8000d7f4:	13c00eff 	bicne	r0, r0, #4080	; 0xff0
8000d7f8:	13c0000f 	bicne	r0, r0, #15
8000d7fc:	12800102 	addne	r0, r0, #-2147483648	; 0x80000000
8000d800:	01a00003 	moveq	r0, r3
8000d804:	e8bd8010 	pop	{r4, pc}

8000d808 <copyout>:
8000d808:	e92d47f0 	push	{r4, r5, r6, r7, r8, r9, sl, lr}
8000d80c:	e2536000 	subs	r6, r3, #0
8000d810:	0a00001a 	beq	8000d880 <copyout+0x78>
8000d814:	e3a08a0f 	mov	r8, #61440	; 0xf000
8000d818:	e1a09000 	mov	r9, r0
8000d81c:	e34f8fff 	movt	r8, #65535	; 0xffff
8000d820:	e1a0a001 	mov	sl, r1
8000d824:	e1a07002 	mov	r7, r2
8000d828:	ea000006 	b	8000d848 <copyout+0x40>
8000d82c:	e1540006 	cmp	r4, r6
8000d830:	21a04006 	movcs	r4, r6
8000d834:	e0877004 	add	r7, r7, r4
8000d838:	e1a02004 	mov	r2, r4
8000d83c:	eb0013d3 	bl	80012790 <memmove>
8000d840:	e0566004 	subs	r6, r6, r4
8000d844:	0a00000d 	beq	8000d880 <copyout+0x78>
8000d848:	e00a5008 	and	r5, sl, r8
8000d84c:	e1a00009 	mov	r0, r9
8000d850:	e045400a 	sub	r4, r5, sl
8000d854:	e1a01005 	mov	r1, r5
8000d858:	e2844a01 	add	r4, r4, #4096	; 0x1000
8000d85c:	ebffffdc 	bl	8000d7d4 <uva2ka>
8000d860:	e04a3005 	sub	r3, sl, r5
8000d864:	e3500000 	cmp	r0, #0
8000d868:	e0800003 	add	r0, r0, r3
8000d86c:	e1a01007 	mov	r1, r7
8000d870:	e285aa01 	add	sl, r5, #4096	; 0x1000
8000d874:	1affffec 	bne	8000d82c <copyout+0x24>
8000d878:	e3e00000 	mvn	r0, #0
8000d87c:	e8bd87f0 	pop	{r4, r5, r6, r7, r8, r9, sl, pc}
8000d880:	e3a00000 	mov	r0, #0
8000d884:	e8bd87f0 	pop	{r4, r5, r6, r7, r8, r9, sl, pc}

8000d888 <_DWHCIFrameSchedulerPeriodic>:
8000d888:	e3a03006 	mov	r3, #6
8000d88c:	e5803018 	str	r3, [r0, #24]
8000d890:	e12fff1e 	bx	lr

8000d894 <DWHCIFrameSchedulerPeriodicStartSplit>:
8000d894:	e3a03000 	mov	r3, #0
8000d898:	e5803018 	str	r3, [r0, #24]
8000d89c:	e3a03008 	mov	r3, #8
8000d8a0:	e5803020 	str	r3, [r0, #32]
8000d8a4:	e12fff1e 	bx	lr

8000d8a8 <DWHCIFrameSchedulerPeriodicIsOddFrame>:
8000d8a8:	e5900020 	ldr	r0, [r0, #32]
8000d8ac:	e2000001 	and	r0, r0, #1
8000d8b0:	e12fff1e 	bx	lr

8000d8b4 <DWHCIFrameSchedulerPeriodicWaitForFrame>:
8000d8b4:	e92d4010 	push	{r4, lr}
8000d8b8:	e3001408 	movw	r1, #1032	; 0x408
8000d8bc:	e34d1098 	movt	r1, #53400	; 0xd098
8000d8c0:	e24dd010 	sub	sp, sp, #16
8000d8c4:	e1a04000 	mov	r4, r0
8000d8c8:	e28d0004 	add	r0, sp, #4
8000d8cc:	eb002092 	bl	80015b1c <DWHCIRegister>
8000d8d0:	e5943020 	ldr	r3, [r4, #32]
8000d8d4:	e3530008 	cmp	r3, #8
8000d8d8:	0a000009 	beq	8000d904 <DWHCIFrameSchedulerPeriodicWaitForFrame+0x50>
8000d8dc:	e28d0004 	add	r0, sp, #4
8000d8e0:	eb002098 	bl	80015b48 <DWHCIRegisterRead>
8000d8e4:	e5943020 	ldr	r3, [r4, #32]
8000d8e8:	e2000007 	and	r0, r0, #7
8000d8ec:	e1500003 	cmp	r0, r3
8000d8f0:	1afffff9 	bne	8000d8dc <DWHCIFrameSchedulerPeriodicWaitForFrame+0x28>
8000d8f4:	e28d0004 	add	r0, sp, #4
8000d8f8:	eb00208f 	bl	80015b3c <_DWHCIRegister>
8000d8fc:	e28dd010 	add	sp, sp, #16
8000d900:	e8bd8010 	pop	{r4, pc}
8000d904:	e28d0004 	add	r0, sp, #4
8000d908:	eb00208e 	bl	80015b48 <DWHCIRegisterRead>
8000d90c:	e2803001 	add	r3, r0, #1
8000d910:	e2033007 	and	r3, r3, #7
8000d914:	e3530006 	cmp	r3, #6
8000d918:	03a03007 	moveq	r3, #7
8000d91c:	e5843020 	str	r3, [r4, #32]
8000d920:	eaffffed 	b	8000d8dc <DWHCIFrameSchedulerPeriodicWaitForFrame+0x28>

8000d924 <DWHCIFrameSchedulerPeriodicCompleteSplit>:
8000d924:	e5903018 	ldr	r3, [r0, #24]
8000d928:	e3530001 	cmp	r3, #1
8000d92c:	0a00000b 	beq	8000d960 <DWHCIFrameSchedulerPeriodicCompleteSplit+0x3c>
8000d930:	e3530003 	cmp	r3, #3
8000d934:	0a000002 	beq	8000d944 <DWHCIFrameSchedulerPeriodicCompleteSplit+0x20>
8000d938:	e3a03000 	mov	r3, #0
8000d93c:	e1a00003 	mov	r0, r3
8000d940:	e12fff1e 	bx	lr
8000d944:	e5902020 	ldr	r2, [r0, #32]
8000d948:	e3a03001 	mov	r3, #1
8000d94c:	e0822003 	add	r2, r2, r3
8000d950:	e2022007 	and	r2, r2, #7
8000d954:	e5802020 	str	r2, [r0, #32]
8000d958:	e1a00003 	mov	r0, r3
8000d95c:	e12fff1e 	bx	lr
8000d960:	e5902020 	ldr	r2, [r0, #32]
8000d964:	e3a01002 	mov	r1, #2
8000d968:	e5801018 	str	r1, [r0, #24]
8000d96c:	e3520005 	cmp	r2, #5
8000d970:	e0822001 	add	r2, r2, r1
8000d974:	13a01003 	movne	r1, #3
8000d978:	e580101c 	str	r1, [r0, #28]
8000d97c:	e2022007 	and	r2, r2, #7
8000d980:	e5802020 	str	r2, [r0, #32]
8000d984:	e1a00003 	mov	r0, r3
8000d988:	e12fff1e 	bx	lr

8000d98c <DWHCIFrameSchedulerPeriodicTransactionComplete>:
8000d98c:	e5902018 	ldr	r2, [r0, #24]
8000d990:	e92d4010 	push	{r4, lr}
8000d994:	e3520000 	cmp	r2, #0
8000d998:	e1a04000 	mov	r4, r0
8000d99c:	0a00000e 	beq	8000d9dc <DWHCIFrameSchedulerPeriodicTransactionComplete+0x50>
8000d9a0:	e2422002 	sub	r2, r2, #2
8000d9a4:	e3520001 	cmp	r2, #1
8000d9a8:	88bd8010 	pophi	{r4, pc}
8000d9ac:	e3110001 	tst	r1, #1
8000d9b0:	1a000016 	bne	8000da10 <DWHCIFrameSchedulerPeriodicTransactionComplete+0x84>
8000d9b4:	e3110060 	tst	r1, #96	; 0x60
8000d9b8:	0a00000a 	beq	8000d9e8 <DWHCIFrameSchedulerPeriodicTransactionComplete+0x5c>
8000d9bc:	e590301c 	ldr	r3, [r0, #28]
8000d9c0:	e3530000 	cmp	r3, #0
8000d9c4:	e2433001 	sub	r3, r3, #1
8000d9c8:	e580301c 	str	r3, [r0, #28]
8000d9cc:	0a000017 	beq	8000da30 <DWHCIFrameSchedulerPeriodicTransactionComplete+0xa4>
8000d9d0:	e3a03003 	mov	r3, #3
8000d9d4:	e5803018 	str	r3, [r0, #24]
8000d9d8:	e8bd8010 	pop	{r4, pc}
8000d9dc:	e3a03001 	mov	r3, #1
8000d9e0:	e5803018 	str	r3, [r0, #24]
8000d9e4:	e8bd8010 	pop	{r4, pc}
8000d9e8:	e3110010 	tst	r1, #16
8000d9ec:	1a00000a 	bne	8000da1c <DWHCIFrameSchedulerPeriodicTransactionComplete+0x90>
8000d9f0:	e30821f4 	movw	r2, #33268	; 0x81f4
8000d9f4:	e3080208 	movw	r0, #33288	; 0x8208
8000d9f8:	e3482001 	movt	r2, #32769	; 0x8001
8000d9fc:	e1a03001 	mov	r3, r1
8000da00:	e3480001 	movt	r0, #32769	; 0x8001
8000da04:	e3a01001 	mov	r1, #1
8000da08:	e8bd4010 	pop	{r4, lr}
8000da0c:	ea00126b 	b	800123c0 <LogWrite>
8000da10:	e3a03004 	mov	r3, #4
8000da14:	e5803018 	str	r3, [r0, #24]
8000da18:	e8bd8010 	pop	{r4, pc}
8000da1c:	e3000271 	movw	r0, #625	; 0x271
8000da20:	eb001221 	bl	800122ac <usDelay>
8000da24:	e3a03005 	mov	r3, #5
8000da28:	e5843018 	str	r3, [r4, #24]
8000da2c:	e8bd8010 	pop	{r4, pc}
8000da30:	e3a03005 	mov	r3, #5
8000da34:	e3a00ffa 	mov	r0, #1000	; 0x3e8
8000da38:	e5843018 	str	r3, [r4, #24]
8000da3c:	e8bd4010 	pop	{r4, lr}
8000da40:	ea001219 	b	800122ac <usDelay>

8000da44 <DWHCIFrameSchedulerPeriodic>:
8000da44:	e92d4030 	push	{r4, r5, lr}
8000da48:	e30d4888 	movw	r4, #55432	; 0xd888
8000da4c:	e3484000 	movt	r4, #32768	; 0x8000
8000da50:	e30de894 	movw	lr, #55444	; 0xd894
8000da54:	e348e000 	movt	lr, #32768	; 0x8000
8000da58:	e30dc924 	movw	ip, #55588	; 0xd924
8000da5c:	e348c000 	movt	ip, #32768	; 0x8000
8000da60:	e30d198c 	movw	r1, #55692	; 0xd98c
8000da64:	e3481000 	movt	r1, #32768	; 0x8000
8000da68:	e30d28b4 	movw	r2, #55476	; 0xd8b4
8000da6c:	e3482000 	movt	r2, #32768	; 0x8000
8000da70:	e30d38a8 	movw	r3, #55464	; 0xd8a8
8000da74:	e3483000 	movt	r3, #32768	; 0x8000
8000da78:	e3a05006 	mov	r5, #6
8000da7c:	e5804000 	str	r4, [r0]
8000da80:	e3a04008 	mov	r4, #8
8000da84:	e580e004 	str	lr, [r0, #4]
8000da88:	e580c008 	str	ip, [r0, #8]
8000da8c:	e580100c 	str	r1, [r0, #12]
8000da90:	e5802010 	str	r2, [r0, #16]
8000da94:	e5803014 	str	r3, [r0, #20]
8000da98:	e5805018 	str	r5, [r0, #24]
8000da9c:	e5804020 	str	r4, [r0, #32]
8000daa0:	e8bd8030 	pop	{r4, r5, pc}

8000daa4 <USBStandardHub>:
8000daa4:	e92d4010 	push	{r4, lr}
8000daa8:	e1a04000 	mov	r4, r0
8000daac:	eb0008e8 	bl	8000fe54 <USBDeviceCopy>
8000dab0:	e30e3228 	movw	r3, #57896	; 0xe228
8000dab4:	e2840064 	add	r0, r4, #100	; 0x64
8000dab8:	e3483000 	movt	r3, #32768	; 0x8000
8000dabc:	e1a01000 	mov	r1, r0
8000dac0:	e5843000 	str	r3, [r4]
8000dac4:	e2843044 	add	r3, r4, #68	; 0x44
8000dac8:	e3a02000 	mov	r2, #0
8000dacc:	e584203c 	str	r2, [r4, #60]	; 0x3c
8000dad0:	e5842040 	str	r2, [r4, #64]	; 0x40
8000dad4:	e4832004 	str	r2, [r3], #4
8000dad8:	e1530000 	cmp	r3, r0
8000dadc:	e4812004 	str	r2, [r1], #4
8000dae0:	1afffffb 	bne	8000dad4 <USBStandardHub+0x30>
8000dae4:	e8bd8010 	pop	{r4, pc}

8000dae8 <_USBStandardHub>:
8000dae8:	e5903040 	ldr	r3, [r0, #64]	; 0x40
8000daec:	e92d41f0 	push	{r4, r5, r6, r7, r8, lr}
8000daf0:	e3530000 	cmp	r3, #0
8000daf4:	13a05000 	movne	r5, #0
8000daf8:	e1a06000 	mov	r6, r0
8000dafc:	12804044 	addne	r4, r0, #68	; 0x44
8000db00:	11a07005 	movne	r7, r5
8000db04:	0a000010 	beq	8000db4c <_USBStandardHub+0x64>
8000db08:	e5940020 	ldr	r0, [r4, #32]
8000db0c:	e2855001 	add	r5, r5, #1
8000db10:	e3500000 	cmp	r0, #0
8000db14:	0a000001 	beq	8000db20 <_USBStandardHub+0x38>
8000db18:	eb0011d5 	bl	80012274 <free>
8000db1c:	e5847020 	str	r7, [r4, #32]
8000db20:	e5940000 	ldr	r0, [r4]
8000db24:	e3500000 	cmp	r0, #0
8000db28:	0a000003 	beq	8000db3c <_USBStandardHub+0x54>
8000db2c:	eb000905 	bl	8000ff48 <_USBDevice>
8000db30:	e5940000 	ldr	r0, [r4]
8000db34:	eb0011ce 	bl	80012274 <free>
8000db38:	e5847000 	str	r7, [r4]
8000db3c:	e5963040 	ldr	r3, [r6, #64]	; 0x40
8000db40:	e2844004 	add	r4, r4, #4
8000db44:	e1530005 	cmp	r3, r5
8000db48:	8affffee 	bhi	8000db08 <_USBStandardHub+0x20>
8000db4c:	e596003c 	ldr	r0, [r6, #60]	; 0x3c
8000db50:	e3a04000 	mov	r4, #0
8000db54:	e5864040 	str	r4, [r6, #64]	; 0x40
8000db58:	e1500004 	cmp	r0, r4
8000db5c:	0a000001 	beq	8000db68 <_USBStandardHub+0x80>
8000db60:	eb0011c3 	bl	80012274 <free>
8000db64:	e586403c 	str	r4, [r6, #60]	; 0x3c
8000db68:	e1a00006 	mov	r0, r6
8000db6c:	e8bd41f0 	pop	{r4, r5, r6, r7, r8, lr}
8000db70:	ea0008f4 	b	8000ff48 <_USBDevice>

8000db74 <USBStandardHubInitialize>:
8000db74:	ea000919 	b	8000ffe0 <USBDeviceInitialize>

8000db78 <USBStandardHubGetDeviceNames>:
8000db78:	e92d47f0 	push	{r4, r5, r6, r7, r8, r9, sl, lr}
8000db7c:	e1a08000 	mov	r8, r0
8000db80:	e3086218 	movw	r6, #33304	; 0x8218
8000db84:	e3a0000c 	mov	r0, #12
8000db88:	e3486001 	movt	r6, #32769	; 0x8001
8000db8c:	e3089220 	movw	r9, #33312	; 0x8220
8000db90:	e3489001 	movt	r9, #32769	; 0x8001
8000db94:	eb0011af 	bl	80012258 <malloc>
8000db98:	e3a04000 	mov	r4, #0
8000db9c:	e1a07000 	mov	r7, r0
8000dba0:	ebffecdd 	bl	80008f1c <String>
8000dba4:	e1a01004 	mov	r1, r4
8000dba8:	e1a00008 	mov	r0, r8
8000dbac:	e2844001 	add	r4, r4, #1
8000dbb0:	eb0009cc 	bl	800102e8 <USBDeviceGetName>
8000dbb4:	e1a01006 	mov	r1, r6
8000dbb8:	e1a05000 	mov	r5, r0
8000dbbc:	ebffed2a 	bl	8000906c <StringCompare>
8000dbc0:	e3500000 	cmp	r0, #0
8000dbc4:	1a00000f 	bne	8000dc08 <USBStandardHubGetDeviceNames+0x90>
8000dbc8:	e1a00005 	mov	r0, r5
8000dbcc:	ebffece2 	bl	80008f5c <_String>
8000dbd0:	e1a00005 	mov	r0, r5
8000dbd4:	eb0011a6 	bl	80012274 <free>
8000dbd8:	e3540003 	cmp	r4, #3
8000dbdc:	1afffff0 	bne	8000dba4 <USBStandardHubGetDeviceNames+0x2c>
8000dbe0:	e1a00007 	mov	r0, r7
8000dbe4:	ebffecfd 	bl	80008fe0 <StringGetLength>
8000dbe8:	e3500000 	cmp	r0, #0
8000dbec:	1a000003 	bne	8000dc00 <USBStandardHubGetDeviceNames+0x88>
8000dbf0:	e3081218 	movw	r1, #33304	; 0x8218
8000dbf4:	e1a00007 	mov	r0, r7
8000dbf8:	e3481001 	movt	r1, #32769	; 0x8001
8000dbfc:	ebffece6 	bl	80008f9c <StringSet>
8000dc00:	e1a00007 	mov	r0, r7
8000dc04:	e8bd87f0 	pop	{r4, r5, r6, r7, r8, r9, sl, pc}
8000dc08:	e1a00007 	mov	r0, r7
8000dc0c:	ebffecf3 	bl	80008fe0 <StringGetLength>
8000dc10:	e3500000 	cmp	r0, #0
8000dc14:	1a000005 	bne	8000dc30 <USBStandardHubGetDeviceNames+0xb8>
8000dc18:	e1a00005 	mov	r0, r5
8000dc1c:	ebffecd8 	bl	80008f84 <StringGet>
8000dc20:	e1a01000 	mov	r1, r0
8000dc24:	e1a00007 	mov	r0, r7
8000dc28:	ebffecf0 	bl	80008ff0 <StringAppend>
8000dc2c:	eaffffe5 	b	8000dbc8 <USBStandardHubGetDeviceNames+0x50>
8000dc30:	e1a01009 	mov	r1, r9
8000dc34:	e1a00007 	mov	r0, r7
8000dc38:	ebffecec 	bl	80008ff0 <StringAppend>
8000dc3c:	eafffff5 	b	8000dc18 <USBStandardHubGetDeviceNames+0xa0>

8000dc40 <USBStandardHubEnumeratePorts>:
8000dc40:	e92d4ff0 	push	{r4, r5, r6, r7, r8, r9, sl, fp, lr}
8000dc44:	e24dd024 	sub	sp, sp, #36	; 0x24
8000dc48:	e1a07000 	mov	r7, r0
8000dc4c:	eb0009ec 	bl	80010404 <USBDeviceGetHost>
8000dc50:	e1a08000 	mov	r8, r0
8000dc54:	e1a00007 	mov	r0, r7
8000dc58:	eb0009e7 	bl	800103fc <USBDeviceGetEndpoint0>
8000dc5c:	e5973040 	ldr	r3, [r7, #64]	; 0x40
8000dc60:	e1a09000 	mov	r9, r0
8000dc64:	e3530000 	cmp	r3, #0
8000dc68:	13a03000 	movne	r3, #0
8000dc6c:	13a06008 	movne	r6, #8
8000dc70:	11a05003 	movne	r5, r3
8000dc74:	1a000003 	bne	8000dc88 <USBStandardHubEnumeratePorts+0x48>
8000dc78:	ea00001a 	b	8000dce8 <USBStandardHubEnumeratePorts+0xa8>
8000dc7c:	e5972040 	ldr	r2, [r7, #64]	; 0x40
8000dc80:	e1520004 	cmp	r2, r4
8000dc84:	9a000017 	bls	8000dce8 <USBStandardHubEnumeratePorts+0xa8>
8000dc88:	e58d500c 	str	r5, [sp, #12]
8000dc8c:	e2834001 	add	r4, r3, #1
8000dc90:	e58d5008 	str	r5, [sp, #8]
8000dc94:	e6ff2074 	uxth	r2, r4
8000dc98:	e58d2004 	str	r2, [sp, #4]
8000dc9c:	e3a03003 	mov	r3, #3
8000dca0:	e58d6000 	str	r6, [sp]
8000dca4:	e3a02023 	mov	r2, #35	; 0x23
8000dca8:	e1a01009 	mov	r1, r9
8000dcac:	e1a00008 	mov	r0, r8
8000dcb0:	eb001cce 	bl	80014ff0 <DWHCIDeviceControlMessage>
8000dcb4:	e3500000 	cmp	r0, #0
8000dcb8:	e1a03004 	mov	r3, r4
8000dcbc:	aaffffee 	bge	8000dc7c <USBStandardHubEnumeratePorts+0x3c>
8000dcc0:	e3082224 	movw	r2, #33316	; 0x8224
8000dcc4:	e3080210 	movw	r0, #33296	; 0x8210
8000dcc8:	e3482001 	movt	r2, #32769	; 0x8001
8000dccc:	e3a01001 	mov	r1, #1
8000dcd0:	e3480001 	movt	r0, #32769	; 0x8001
8000dcd4:	e3a05000 	mov	r5, #0
8000dcd8:	eb0011b8 	bl	800123c0 <LogWrite>
8000dcdc:	e1a00005 	mov	r0, r5
8000dce0:	e28dd024 	add	sp, sp, #36	; 0x24
8000dce4:	e8bd8ff0 	pop	{r4, r5, r6, r7, r8, r9, sl, fp, pc}
8000dce8:	e30001fe 	movw	r0, #510	; 0x1fe
8000dcec:	eb001161 	bl	80012278 <MsDelay>
8000dcf0:	e5973040 	ldr	r3, [r7, #64]	; 0x40
8000dcf4:	e3530000 	cmp	r3, #0
8000dcf8:	0a000096 	beq	8000df58 <USBStandardHubEnumeratePorts+0x318>
8000dcfc:	e58d7010 	str	r7, [sp, #16]
8000dd00:	e30822b0 	movw	r2, #33456	; 0x82b0
8000dd04:	e3482001 	movt	r2, #32769	; 0x8001
8000dd08:	e2873044 	add	r3, r7, #68	; 0x44
8000dd0c:	e58d2018 	str	r2, [sp, #24]
8000dd10:	e3082210 	movw	r2, #33296	; 0x8210
8000dd14:	e3482001 	movt	r2, #32769	; 0x8001
8000dd18:	e1a0b003 	mov	fp, r3
8000dd1c:	e58d301c 	str	r3, [sp, #28]
8000dd20:	e2876064 	add	r6, r7, #100	; 0x64
8000dd24:	e58d2014 	str	r2, [sp, #20]
8000dd28:	e3a04001 	mov	r4, #1
8000dd2c:	ea00000c 	b	8000dd64 <USBStandardHubEnumeratePorts+0x124>
8000dd30:	e59d0014 	ldr	r0, [sp, #20]
8000dd34:	e308223c 	movw	r2, #33340	; 0x823c
8000dd38:	e3482001 	movt	r2, #32769	; 0x8001
8000dd3c:	e1a03004 	mov	r3, r4
8000dd40:	e3a01001 	mov	r1, #1
8000dd44:	eb00119d 	bl	800123c0 <LogWrite>
8000dd48:	e59d3010 	ldr	r3, [sp, #16]
8000dd4c:	e28bb004 	add	fp, fp, #4
8000dd50:	e2866004 	add	r6, r6, #4
8000dd54:	e5933040 	ldr	r3, [r3, #64]	; 0x40
8000dd58:	e1530004 	cmp	r3, r4
8000dd5c:	e2844001 	add	r4, r4, #1
8000dd60:	9a000052 	bls	8000deb0 <USBStandardHubEnumeratePorts+0x270>
8000dd64:	e3a00004 	mov	r0, #4
8000dd68:	e3a05000 	mov	r5, #0
8000dd6c:	e6ffa074 	uxth	sl, r4
8000dd70:	eb001138 	bl	80012258 <malloc>
8000dd74:	e1a03000 	mov	r3, r0
8000dd78:	e3a02004 	mov	r2, #4
8000dd7c:	e5863000 	str	r3, [r6]
8000dd80:	e1a00008 	mov	r0, r8
8000dd84:	e58d3008 	str	r3, [sp, #8]
8000dd88:	e1a01009 	mov	r1, r9
8000dd8c:	e58d200c 	str	r2, [sp, #12]
8000dd90:	e1a03005 	mov	r3, r5
8000dd94:	e58da004 	str	sl, [sp, #4]
8000dd98:	e3a020a3 	mov	r2, #163	; 0xa3
8000dd9c:	e58d5000 	str	r5, [sp]
8000dda0:	eb001c92 	bl	80014ff0 <DWHCIDeviceControlMessage>
8000dda4:	e3500004 	cmp	r0, #4
8000dda8:	e1a07000 	mov	r7, r0
8000ddac:	1affffdf 	bne	8000dd30 <USBStandardHubEnumeratePorts+0xf0>
8000ddb0:	e5963000 	ldr	r3, [r6]
8000ddb4:	e1d330b0 	ldrh	r3, [r3]
8000ddb8:	e3130001 	tst	r3, #1
8000ddbc:	0affffe1 	beq	8000dd48 <USBStandardHubEnumeratePorts+0x108>
8000ddc0:	e58d0000 	str	r0, [sp]
8000ddc4:	e3a03003 	mov	r3, #3
8000ddc8:	e58d500c 	str	r5, [sp, #12]
8000ddcc:	e3a02023 	mov	r2, #35	; 0x23
8000ddd0:	e58d5008 	str	r5, [sp, #8]
8000ddd4:	e1a01009 	mov	r1, r9
8000ddd8:	e58da004 	str	sl, [sp, #4]
8000dddc:	e1a00008 	mov	r0, r8
8000dde0:	eb001c82 	bl	80014ff0 <DWHCIDeviceControlMessage>
8000dde4:	e3500000 	cmp	r0, #0
8000dde8:	ba00008e 	blt	8000e028 <USBStandardHubEnumeratePorts+0x3e8>
8000ddec:	e3a00064 	mov	r0, #100	; 0x64
8000ddf0:	eb001120 	bl	80012278 <MsDelay>
8000ddf4:	e596c000 	ldr	ip, [r6]
8000ddf8:	e1a03005 	mov	r3, r5
8000ddfc:	e58d700c 	str	r7, [sp, #12]
8000de00:	e3a020a3 	mov	r2, #163	; 0xa3
8000de04:	e58da004 	str	sl, [sp, #4]
8000de08:	e1a01009 	mov	r1, r9
8000de0c:	e58d5000 	str	r5, [sp]
8000de10:	e1a00008 	mov	r0, r8
8000de14:	e58dc008 	str	ip, [sp, #8]
8000de18:	eb001c74 	bl	80014ff0 <DWHCIDeviceControlMessage>
8000de1c:	e3500004 	cmp	r0, #4
8000de20:	1affffad 	bne	8000dcdc <USBStandardHubEnumeratePorts+0x9c>
8000de24:	e5963000 	ldr	r3, [r6]
8000de28:	e1d330b0 	ldrh	r3, [r3]
8000de2c:	e3130002 	tst	r3, #2
8000de30:	0a000091 	beq	8000e07c <USBStandardHubEnumeratePorts+0x43c>
8000de34:	e2132008 	ands	r2, r3, #8
8000de38:	1a0000e6 	bne	8000e1d8 <USBStandardHubEnumeratePorts+0x598>
8000de3c:	e3130c02 	tst	r3, #512	; 0x200
8000de40:	11a05002 	movne	r5, r2
8000de44:	1a000002 	bne	8000de54 <USBStandardHubEnumeratePorts+0x214>
8000de48:	e3130b01 	tst	r3, #1024	; 0x400
8000de4c:	03a05001 	moveq	r5, #1
8000de50:	13a05002 	movne	r5, #2
8000de54:	e3a0003c 	mov	r0, #60	; 0x3c
8000de58:	eb0010fe 	bl	80012258 <malloc>
8000de5c:	e1a07000 	mov	r7, r0
8000de60:	e58b7000 	str	r7, [fp]
8000de64:	e59d0010 	ldr	r0, [sp, #16]
8000de68:	eb00095b 	bl	800103dc <USBDeviceGetAddress>
8000de6c:	e6ef2074 	uxtb	r2, r4
8000de70:	e1a03000 	mov	r3, r0
8000de74:	e58d2000 	str	r2, [sp]
8000de78:	e1a00007 	mov	r0, r7
8000de7c:	e1a02005 	mov	r2, r5
8000de80:	e1a01008 	mov	r1, r8
8000de84:	eb0007d6 	bl	8000fde4 <USBDevice>
8000de88:	e59b0000 	ldr	r0, [fp]
8000de8c:	eb000853 	bl	8000ffe0 <USBDeviceInitialize>
8000de90:	e2505000 	subs	r5, r0, #0
8000de94:	e59b0000 	ldr	r0, [fp]
8000de98:	1a000069 	bne	8000e044 <USBStandardHubEnumeratePorts+0x404>
8000de9c:	eb000829 	bl	8000ff48 <_USBDevice>
8000dea0:	e59b0000 	ldr	r0, [fp]
8000dea4:	eb0010f2 	bl	80012274 <free>
8000dea8:	e58b5000 	str	r5, [fp]
8000deac:	eaffffa5 	b	8000dd48 <USBStandardHubEnumeratePorts+0x108>
8000deb0:	e59d7010 	ldr	r7, [sp, #16]
8000deb4:	e3530000 	cmp	r3, #0
8000deb8:	0a000026 	beq	8000df58 <USBStandardHubEnumeratePorts+0x318>
8000debc:	e59d501c 	ldr	r5, [sp, #28]
8000dec0:	e3086210 	movw	r6, #33296	; 0x8210
8000dec4:	e3486001 	movt	r6, #32769	; 0x8001
8000dec8:	e308a2f0 	movw	sl, #33520	; 0x82f0
8000decc:	e348a001 	movt	sl, #32769	; 0x8001
8000ded0:	e308b30c 	movw	fp, #33548	; 0x830c
8000ded4:	e348b001 	movt	fp, #32769	; 0x8001
8000ded8:	e3a04001 	mov	r4, #1
8000dedc:	e58db010 	str	fp, [sp, #16]
8000dee0:	e5952000 	ldr	r2, [r5]
8000dee4:	e2520000 	subs	r0, r2, #0
8000dee8:	0a000016 	beq	8000df48 <USBStandardHubEnumeratePorts+0x308>
8000deec:	ebfff36b 	bl	8000aca0 <USBDeviceFactoryGetDevice>
8000def0:	e250b000 	subs	fp, r0, #0
8000def4:	0a000067 	beq	8000e098 <USBStandardHubEnumeratePorts+0x458>
8000def8:	e5950000 	ldr	r0, [r5]
8000defc:	eb000811 	bl	8000ff48 <_USBDevice>
8000df00:	e5950000 	ldr	r0, [r5]
8000df04:	eb0010da 	bl	80012274 <free>
8000df08:	e59b3000 	ldr	r3, [fp]
8000df0c:	e1a0000b 	mov	r0, fp
8000df10:	e585b000 	str	fp, [r5]
8000df14:	e12fff33 	blx	r3
8000df18:	e3500000 	cmp	r0, #0
8000df1c:	e30822cc 	movw	r2, #33484	; 0x82cc
8000df20:	e3482001 	movt	r2, #32769	; 0x8001
8000df24:	e1a03004 	mov	r3, r4
8000df28:	e3a01001 	mov	r1, #1
8000df2c:	e1a00006 	mov	r0, r6
8000df30:	11a03004 	movne	r3, r4
8000df34:	11a0200a 	movne	r2, sl
8000df38:	13a01004 	movne	r1, #4
8000df3c:	11a00006 	movne	r0, r6
8000df40:	eb00111e 	bl	800123c0 <LogWrite>
8000df44:	e5973040 	ldr	r3, [r7, #64]	; 0x40
8000df48:	e1540003 	cmp	r4, r3
8000df4c:	e2855004 	add	r5, r5, #4
8000df50:	e2844001 	add	r4, r4, #1
8000df54:	3affffe1 	bcc	8000dee0 <USBStandardHubEnumeratePorts+0x2a0>
8000df58:	e3a00004 	mov	r0, #4
8000df5c:	e3a05000 	mov	r5, #0
8000df60:	eb0010bc 	bl	80012258 <malloc>
8000df64:	e58d5004 	str	r5, [sp, #4]
8000df68:	e1a06000 	mov	r6, r0
8000df6c:	e58d6008 	str	r6, [sp, #8]
8000df70:	e3a03004 	mov	r3, #4
8000df74:	e58d300c 	str	r3, [sp, #12]
8000df78:	e1a00008 	mov	r0, r8
8000df7c:	e58d5000 	str	r5, [sp]
8000df80:	e1a03005 	mov	r3, r5
8000df84:	e3a020a0 	mov	r2, #160	; 0xa0
8000df88:	e1a01009 	mov	r1, r9
8000df8c:	eb001c17 	bl	80014ff0 <DWHCIDeviceControlMessage>
8000df90:	e3500004 	cmp	r0, #4
8000df94:	e1a0a000 	mov	sl, r0
8000df98:	1a000083 	bne	8000e1ac <USBStandardHubEnumeratePorts+0x56c>
8000df9c:	e1d630b0 	ldrh	r3, [r6]
8000dfa0:	e3130002 	tst	r3, #2
8000dfa4:	0a000047 	beq	8000e0c8 <USBStandardHubEnumeratePorts+0x488>
8000dfa8:	e5973040 	ldr	r3, [r7, #64]	; 0x40
8000dfac:	e3530000 	cmp	r3, #0
8000dfb0:	13a04001 	movne	r4, #1
8000dfb4:	13a0a008 	movne	sl, #8
8000dfb8:	0a00000e 	beq	8000dff8 <USBStandardHubEnumeratePorts+0x3b8>
8000dfbc:	e58d500c 	str	r5, [sp, #12]
8000dfc0:	e6ff1074 	uxth	r1, r4
8000dfc4:	e58d1004 	str	r1, [sp, #4]
8000dfc8:	e3a03001 	mov	r3, #1
8000dfcc:	e58d5008 	str	r5, [sp, #8]
8000dfd0:	e3a02023 	mov	r2, #35	; 0x23
8000dfd4:	e58da000 	str	sl, [sp]
8000dfd8:	e1a01009 	mov	r1, r9
8000dfdc:	e1a00008 	mov	r0, r8
8000dfe0:	eb001c02 	bl	80014ff0 <DWHCIDeviceControlMessage>
8000dfe4:	e5972040 	ldr	r2, [r7, #64]	; 0x40
8000dfe8:	e2843001 	add	r3, r4, #1
8000dfec:	e1540002 	cmp	r4, r2
8000dff0:	e1a04003 	mov	r4, r3
8000dff4:	3afffff0 	bcc	8000dfbc <USBStandardHubEnumeratePorts+0x37c>
8000dff8:	e3082348 	movw	r2, #33608	; 0x8348
8000dffc:	e3080210 	movw	r0, #33296	; 0x8210
8000e000:	e3482001 	movt	r2, #32769	; 0x8001
8000e004:	e3a01001 	mov	r1, #1
8000e008:	e3480001 	movt	r0, #32769	; 0x8001
8000e00c:	e3a05000 	mov	r5, #0
8000e010:	eb0010ea 	bl	800123c0 <LogWrite>
8000e014:	e1a00006 	mov	r0, r6
8000e018:	eb001095 	bl	80012274 <free>
8000e01c:	e1a00005 	mov	r0, r5
8000e020:	e28dd024 	add	sp, sp, #36	; 0x24
8000e024:	e8bd8ff0 	pop	{r4, r5, r6, r7, r8, r9, sl, fp, pc}
8000e028:	e59d0014 	ldr	r0, [sp, #20]
8000e02c:	e308225c 	movw	r2, #33372	; 0x825c
8000e030:	e3482001 	movt	r2, #32769	; 0x8001
8000e034:	e1a03004 	mov	r3, r4
8000e038:	e3a01001 	mov	r1, #1
8000e03c:	eb0010df 	bl	800123c0 <LogWrite>
8000e040:	eaffff40 	b	8000dd48 <USBStandardHubEnumeratePorts+0x108>
8000e044:	ebfffecb 	bl	8000db78 <USBStandardHubGetDeviceNames>
8000e048:	e1a05000 	mov	r5, r0
8000e04c:	ebffebcc 	bl	80008f84 <StringGet>
8000e050:	e58d0000 	str	r0, [sp]
8000e054:	e1a03004 	mov	r3, r4
8000e058:	e59d2018 	ldr	r2, [sp, #24]
8000e05c:	e3a01003 	mov	r1, #3
8000e060:	e59d0014 	ldr	r0, [sp, #20]
8000e064:	eb0010d5 	bl	800123c0 <LogWrite>
8000e068:	e1a00005 	mov	r0, r5
8000e06c:	ebffebba 	bl	80008f5c <_String>
8000e070:	e1a00005 	mov	r0, r5
8000e074:	eb00107e 	bl	80012274 <free>
8000e078:	eaffff32 	b	8000dd48 <USBStandardHubEnumeratePorts+0x108>
8000e07c:	e59d0014 	ldr	r0, [sp, #20]
8000e080:	e3082274 	movw	r2, #33396	; 0x8274
8000e084:	e3482001 	movt	r2, #32769	; 0x8001
8000e088:	e1a03004 	mov	r3, r4
8000e08c:	e3a01001 	mov	r1, #1
8000e090:	eb0010ca 	bl	800123c0 <LogWrite>
8000e094:	eaffff2b 	b	8000dd48 <USBStandardHubEnumeratePorts+0x108>
8000e098:	e59d2010 	ldr	r2, [sp, #16]
8000e09c:	e1a03004 	mov	r3, r4
8000e0a0:	e3a01003 	mov	r1, #3
8000e0a4:	e1a00006 	mov	r0, r6
8000e0a8:	eb0010c4 	bl	800123c0 <LogWrite>
8000e0ac:	e5950000 	ldr	r0, [r5]
8000e0b0:	eb0007a4 	bl	8000ff48 <_USBDevice>
8000e0b4:	e5950000 	ldr	r0, [r5]
8000e0b8:	eb00106d 	bl	80012274 <free>
8000e0bc:	e5973040 	ldr	r3, [r7, #64]	; 0x40
8000e0c0:	e585b000 	str	fp, [r5]
8000e0c4:	eaffff9f 	b	8000df48 <USBStandardHubEnumeratePorts+0x308>
8000e0c8:	e1a00006 	mov	r0, r6
8000e0cc:	eb001068 	bl	80012274 <free>
8000e0d0:	e5973040 	ldr	r3, [r7, #64]	; 0x40
8000e0d4:	e3530000 	cmp	r3, #0
8000e0d8:	0a000050 	beq	8000e220 <USBStandardHubEnumeratePorts+0x5e0>
8000e0dc:	e58da010 	str	sl, [sp, #16]
8000e0e0:	e308328c 	movw	r3, #33420	; 0x828c
8000e0e4:	e3483001 	movt	r3, #32769	; 0x8001
8000e0e8:	e3a04001 	mov	r4, #1
8000e0ec:	e58d3014 	str	r3, [sp, #20]
8000e0f0:	e3083210 	movw	r3, #33296	; 0x8210
8000e0f4:	e3483001 	movt	r3, #32769	; 0x8001
8000e0f8:	e1a05004 	mov	r5, r4
8000e0fc:	e58d3018 	str	r3, [sp, #24]
8000e100:	e2876064 	add	r6, r7, #100	; 0x64
8000e104:	ea000004 	b	8000e11c <USBStandardHubEnumeratePorts+0x4dc>
8000e108:	e5973040 	ldr	r3, [r7, #64]	; 0x40
8000e10c:	e2866004 	add	r6, r6, #4
8000e110:	e1530004 	cmp	r3, r4
8000e114:	e2844001 	add	r4, r4, #1
8000e118:	9afffeef 	bls	8000dcdc <USBStandardHubEnumeratePorts+0x9c>
8000e11c:	e5963000 	ldr	r3, [r6]
8000e120:	e3a0a000 	mov	sl, #0
8000e124:	e59d2010 	ldr	r2, [sp, #16]
8000e128:	e6ffb074 	uxth	fp, r4
8000e12c:	e58d3008 	str	r3, [sp, #8]
8000e130:	e1a01009 	mov	r1, r9
8000e134:	e58d200c 	str	r2, [sp, #12]
8000e138:	e1a0300a 	mov	r3, sl
8000e13c:	e58db004 	str	fp, [sp, #4]
8000e140:	e3a020a3 	mov	r2, #163	; 0xa3
8000e144:	e58da000 	str	sl, [sp]
8000e148:	e1a00008 	mov	r0, r8
8000e14c:	eb001ba7 	bl	80014ff0 <DWHCIDeviceControlMessage>
8000e150:	e3500004 	cmp	r0, #4
8000e154:	1affffeb 	bne	8000e108 <USBStandardHubEnumeratePorts+0x4c8>
8000e158:	e5963000 	ldr	r3, [r6]
8000e15c:	e1d330b0 	ldrh	r3, [r3]
8000e160:	e3130008 	tst	r3, #8
8000e164:	0affffe7 	beq	8000e108 <USBStandardHubEnumeratePorts+0x4c8>
8000e168:	e58da00c 	str	sl, [sp, #12]
8000e16c:	e3a01008 	mov	r1, #8
8000e170:	e58d1000 	str	r1, [sp]
8000e174:	e3a03001 	mov	r3, #1
8000e178:	e58da008 	str	sl, [sp, #8]
8000e17c:	e1a01009 	mov	r1, r9
8000e180:	e58db004 	str	fp, [sp, #4]
8000e184:	e3a02023 	mov	r2, #35	; 0x23
8000e188:	e1a00008 	mov	r0, r8
8000e18c:	e1a0500a 	mov	r5, sl
8000e190:	eb001b96 	bl	80014ff0 <DWHCIDeviceControlMessage>
8000e194:	e59d2014 	ldr	r2, [sp, #20]
8000e198:	e1a03004 	mov	r3, r4
8000e19c:	e59d0018 	ldr	r0, [sp, #24]
8000e1a0:	e3a01001 	mov	r1, #1
8000e1a4:	eb001085 	bl	800123c0 <LogWrite>
8000e1a8:	eaffffd6 	b	8000e108 <USBStandardHubEnumeratePorts+0x4c8>
8000e1ac:	e3082330 	movw	r2, #33584	; 0x8330
8000e1b0:	e3080210 	movw	r0, #33296	; 0x8210
8000e1b4:	e3482001 	movt	r2, #32769	; 0x8001
8000e1b8:	e3a01001 	mov	r1, #1
8000e1bc:	e3480001 	movt	r0, #32769	; 0x8001
8000e1c0:	eb00107e 	bl	800123c0 <LogWrite>
8000e1c4:	e1a00006 	mov	r0, r6
8000e1c8:	eb001029 	bl	80012274 <free>
8000e1cc:	e1a00005 	mov	r0, r5
8000e1d0:	e28dd024 	add	sp, sp, #36	; 0x24
8000e1d4:	e8bd8ff0 	pop	{r4, r5, r6, r7, r8, r9, sl, fp, pc}
8000e1d8:	e58d500c 	str	r5, [sp, #12]
8000e1dc:	e3a03008 	mov	r3, #8
8000e1e0:	e58d3000 	str	r3, [sp]
8000e1e4:	e1a01009 	mov	r1, r9
8000e1e8:	e58d5008 	str	r5, [sp, #8]
8000e1ec:	e1a00008 	mov	r0, r8
8000e1f0:	e58da004 	str	sl, [sp, #4]
8000e1f4:	e3a03001 	mov	r3, #1
8000e1f8:	e3a02023 	mov	r2, #35	; 0x23
8000e1fc:	eb001b7b 	bl	80014ff0 <DWHCIDeviceControlMessage>
8000e200:	e308228c 	movw	r2, #33420	; 0x828c
8000e204:	e3080210 	movw	r0, #33296	; 0x8210
8000e208:	e3482001 	movt	r2, #32769	; 0x8001
8000e20c:	e1a03004 	mov	r3, r4
8000e210:	e3480001 	movt	r0, #32769	; 0x8001
8000e214:	e3a01001 	mov	r1, #1
8000e218:	eb001068 	bl	800123c0 <LogWrite>
8000e21c:	eafffeae 	b	8000dcdc <USBStandardHubEnumeratePorts+0x9c>
8000e220:	e3a05001 	mov	r5, #1
8000e224:	eafffeac 	b	8000dcdc <USBStandardHubEnumeratePorts+0x9c>

8000e228 <USBStandardHubConfigure>:
8000e228:	e92d40f0 	push	{r4, r5, r6, r7, lr}
8000e22c:	e24dd014 	sub	sp, sp, #20
8000e230:	e1a05000 	mov	r5, r0
8000e234:	eb000874 	bl	8001040c <USBDeviceGetDeviceDescriptor>
8000e238:	e5d03004 	ldrb	r3, [r0, #4]
8000e23c:	e3530009 	cmp	r3, #9
8000e240:	15d03006 	ldrbne	r3, [r0, #6]
8000e244:	1a000005 	bne	8000e260 <USBStandardHubConfigure+0x38>
8000e248:	e5d03005 	ldrb	r3, [r0, #5]
8000e24c:	e3530000 	cmp	r3, #0
8000e250:	e5d03006 	ldrb	r3, [r0, #6]
8000e254:	1a000001 	bne	8000e260 <USBStandardHubConfigure+0x38>
8000e258:	e3530002 	cmp	r3, #2
8000e25c:	0a000009 	beq	8000e288 <USBStandardHubConfigure+0x60>
8000e260:	e3082364 	movw	r2, #33636	; 0x8364
8000e264:	e3080210 	movw	r0, #33296	; 0x8210
8000e268:	e3482001 	movt	r2, #32769	; 0x8001
8000e26c:	e3a01001 	mov	r1, #1
8000e270:	e3480001 	movt	r0, #32769	; 0x8001
8000e274:	e3a04000 	mov	r4, #0
8000e278:	eb001050 	bl	800123c0 <LogWrite>
8000e27c:	e1a00004 	mov	r0, r4
8000e280:	e28dd014 	add	sp, sp, #20
8000e284:	e8bd80f0 	pop	{r4, r5, r6, r7, pc}
8000e288:	e5d02011 	ldrb	r2, [r0, #17]
8000e28c:	e3520001 	cmp	r2, #1
8000e290:	1afffff2 	bne	8000e260 <USBStandardHubConfigure+0x38>
8000e294:	e1a01003 	mov	r1, r3
8000e298:	e1a00005 	mov	r0, r5
8000e29c:	eb00085e 	bl	8001041c <USBDeviceGetDescriptor>
8000e2a0:	e3500000 	cmp	r0, #0
8000e2a4:	0a000002 	beq	8000e2b4 <USBStandardHubConfigure+0x8c>
8000e2a8:	e5d03004 	ldrb	r3, [r0, #4]
8000e2ac:	e3530001 	cmp	r3, #1
8000e2b0:	0a000005 	beq	8000e2cc <USBStandardHubConfigure+0xa4>
8000e2b4:	e3081210 	movw	r1, #33296	; 0x8210
8000e2b8:	e1a00005 	mov	r0, r5
8000e2bc:	e3481001 	movt	r1, #32769	; 0x8001
8000e2c0:	e3a04000 	mov	r4, #0
8000e2c4:	eb000856 	bl	80010424 <USBDeviceConfigurationError>
8000e2c8:	eaffffeb 	b	8000e27c <USBStandardHubConfigure+0x54>
8000e2cc:	e3a01004 	mov	r1, #4
8000e2d0:	e1a00005 	mov	r0, r5
8000e2d4:	eb000850 	bl	8001041c <USBDeviceGetDescriptor>
8000e2d8:	e2506000 	subs	r6, r0, #0
8000e2dc:	0afffff4 	beq	8000e2b4 <USBStandardHubConfigure+0x8c>
8000e2e0:	e5d63005 	ldrb	r3, [r6, #5]
8000e2e4:	e3530009 	cmp	r3, #9
8000e2e8:	1afffff7 	bne	8000e2cc <USBStandardHubConfigure+0xa4>
8000e2ec:	e5d64006 	ldrb	r4, [r6, #6]
8000e2f0:	e3540000 	cmp	r4, #0
8000e2f4:	1afffff4 	bne	8000e2cc <USBStandardHubConfigure+0xa4>
8000e2f8:	e5d63007 	ldrb	r3, [r6, #7]
8000e2fc:	e3530002 	cmp	r3, #2
8000e300:	1afffff1 	bne	8000e2cc <USBStandardHubConfigure+0xa4>
8000e304:	e5d67004 	ldrb	r7, [r6, #4]
8000e308:	e3570001 	cmp	r7, #1
8000e30c:	0a000004 	beq	8000e324 <USBStandardHubConfigure+0xfc>
8000e310:	e3081210 	movw	r1, #33296	; 0x8210
8000e314:	e1a00005 	mov	r0, r5
8000e318:	e3481001 	movt	r1, #32769	; 0x8001
8000e31c:	eb000840 	bl	80010424 <USBDeviceConfigurationError>
8000e320:	eaffffd5 	b	8000e27c <USBStandardHubConfigure+0x54>
8000e324:	e3a01005 	mov	r1, #5
8000e328:	e1a00005 	mov	r0, r5
8000e32c:	eb00083a 	bl	8001041c <USBDeviceGetDescriptor>
8000e330:	e3500000 	cmp	r0, #0
8000e334:	0affffde 	beq	8000e2b4 <USBStandardHubConfigure+0x8c>
8000e338:	e1d030d2 	ldrsb	r3, [r0, #2]
8000e33c:	e3530000 	cmp	r3, #0
8000e340:	aaffffdb 	bge	8000e2b4 <USBStandardHubConfigure+0x8c>
8000e344:	e5d03003 	ldrb	r3, [r0, #3]
8000e348:	e203303f 	and	r3, r3, #63	; 0x3f
8000e34c:	e3530003 	cmp	r3, #3
8000e350:	1affffd7 	bne	8000e2b4 <USBStandardHubConfigure+0x8c>
8000e354:	e1a00005 	mov	r0, r5
8000e358:	eb000688 	bl	8000fd80 <USBDeviceConfigure>
8000e35c:	e2504000 	subs	r4, r0, #0
8000e360:	0a000038 	beq	8000e448 <USBStandardHubConfigure+0x220>
8000e364:	e1a00005 	mov	r0, r5
8000e368:	eb000825 	bl	80010404 <USBDeviceGetHost>
8000e36c:	e5d63003 	ldrb	r3, [r6, #3]
8000e370:	e1a07000 	mov	r7, r0
8000e374:	e3530000 	cmp	r3, #0
8000e378:	0a00000f 	beq	8000e3bc <USBStandardHubConfigure+0x194>
8000e37c:	e1a00005 	mov	r0, r5
8000e380:	e3a04000 	mov	r4, #0
8000e384:	eb00081c 	bl	800103fc <USBDeviceGetEndpoint0>
8000e388:	e58d400c 	str	r4, [sp, #12]
8000e38c:	e1a01000 	mov	r1, r0
8000e390:	e58d4008 	str	r4, [sp, #8]
8000e394:	e3a0300b 	mov	r3, #11
8000e398:	e5d60002 	ldrb	r0, [r6, #2]
8000e39c:	e3a02001 	mov	r2, #1
8000e3a0:	e58d0004 	str	r0, [sp, #4]
8000e3a4:	e1a00007 	mov	r0, r7
8000e3a8:	e5d6c003 	ldrb	ip, [r6, #3]
8000e3ac:	e58dc000 	str	ip, [sp]
8000e3b0:	eb001b0e 	bl	80014ff0 <DWHCIDeviceControlMessage>
8000e3b4:	e1500004 	cmp	r0, r4
8000e3b8:	ba00003f 	blt	8000e4bc <USBStandardHubConfigure+0x294>
8000e3bc:	e3a00009 	mov	r0, #9
8000e3c0:	eb000fa4 	bl	80012258 <malloc>
8000e3c4:	e585003c 	str	r0, [r5, #60]	; 0x3c
8000e3c8:	e1a00005 	mov	r0, r5
8000e3cc:	eb00080a 	bl	800103fc <USBDeviceGetEndpoint0>
8000e3d0:	e595203c 	ldr	r2, [r5, #60]	; 0x3c
8000e3d4:	e3a030a0 	mov	r3, #160	; 0xa0
8000e3d8:	e58d3008 	str	r3, [sp, #8]
8000e3dc:	e3a03009 	mov	r3, #9
8000e3e0:	e58d2000 	str	r2, [sp]
8000e3e4:	e1a01000 	mov	r1, r0
8000e3e8:	e58d3004 	str	r3, [sp, #4]
8000e3ec:	e1a00007 	mov	r0, r7
8000e3f0:	e3a03000 	mov	r3, #0
8000e3f4:	e3a02029 	mov	r2, #41	; 0x29
8000e3f8:	eb001b24 	bl	80015090 <DWHCIDeviceGetDescriptor>
8000e3fc:	e3500009 	cmp	r0, #9
8000e400:	1a000017 	bne	8000e464 <USBStandardHubConfigure+0x23c>
8000e404:	e595303c 	ldr	r3, [r5, #60]	; 0x3c
8000e408:	e5d33002 	ldrb	r3, [r3, #2]
8000e40c:	e5853040 	str	r3, [r5, #64]	; 0x40
8000e410:	e3530008 	cmp	r3, #8
8000e414:	8a00001d 	bhi	8000e490 <USBStandardHubConfigure+0x268>
8000e418:	e1a00005 	mov	r0, r5
8000e41c:	ebfffe07 	bl	8000dc40 <USBStandardHubEnumeratePorts>
8000e420:	e2504000 	subs	r4, r0, #0
8000e424:	13a04001 	movne	r4, #1
8000e428:	1affff93 	bne	8000e27c <USBStandardHubConfigure+0x54>
8000e42c:	e30823c8 	movw	r2, #33736	; 0x83c8
8000e430:	e3080210 	movw	r0, #33296	; 0x8210
8000e434:	e3482001 	movt	r2, #32769	; 0x8001
8000e438:	e3a01001 	mov	r1, #1
8000e43c:	e3480001 	movt	r0, #32769	; 0x8001
8000e440:	eb000fde 	bl	800123c0 <LogWrite>
8000e444:	eaffff8c 	b	8000e27c <USBStandardHubConfigure+0x54>
8000e448:	e3072c90 	movw	r2, #31888	; 0x7c90
8000e44c:	e3080210 	movw	r0, #33296	; 0x8210
8000e450:	e3482001 	movt	r2, #32769	; 0x8001
8000e454:	e1a01007 	mov	r1, r7
8000e458:	e3480001 	movt	r0, #32769	; 0x8001
8000e45c:	eb000fd7 	bl	800123c0 <LogWrite>
8000e460:	eaffff85 	b	8000e27c <USBStandardHubConfigure+0x54>
8000e464:	e3082398 	movw	r2, #33688	; 0x8398
8000e468:	e3080210 	movw	r0, #33296	; 0x8210
8000e46c:	e3482001 	movt	r2, #32769	; 0x8001
8000e470:	e3a01001 	mov	r1, #1
8000e474:	e3480001 	movt	r0, #32769	; 0x8001
8000e478:	e3a04000 	mov	r4, #0
8000e47c:	eb000fcf 	bl	800123c0 <LogWrite>
8000e480:	e595003c 	ldr	r0, [r5, #60]	; 0x3c
8000e484:	eb000f7a 	bl	80012274 <free>
8000e488:	e585403c 	str	r4, [r5, #60]	; 0x3c
8000e48c:	eaffff7a 	b	8000e27c <USBStandardHubConfigure+0x54>
8000e490:	e30823b4 	movw	r2, #33716	; 0x83b4
8000e494:	e3080210 	movw	r0, #33296	; 0x8210
8000e498:	e3482001 	movt	r2, #32769	; 0x8001
8000e49c:	e3a01001 	mov	r1, #1
8000e4a0:	e3480001 	movt	r0, #32769	; 0x8001
8000e4a4:	e3a04000 	mov	r4, #0
8000e4a8:	eb000fc4 	bl	800123c0 <LogWrite>
8000e4ac:	e595003c 	ldr	r0, [r5, #60]	; 0x3c
8000e4b0:	eb000f6f 	bl	80012274 <free>
8000e4b4:	e585403c 	str	r4, [r5, #60]	; 0x3c
8000e4b8:	eaffff6f 	b	8000e27c <USBStandardHubConfigure+0x54>
8000e4bc:	e3082380 	movw	r2, #33664	; 0x8380
8000e4c0:	e3080210 	movw	r0, #33296	; 0x8210
8000e4c4:	e3482001 	movt	r2, #32769	; 0x8001
8000e4c8:	e3a01001 	mov	r1, #1
8000e4cc:	e3480001 	movt	r0, #32769	; 0x8001
8000e4d0:	eb000fba 	bl	800123c0 <LogWrite>
8000e4d4:	eaffff68 	b	8000e27c <USBStandardHubConfigure+0x54>

8000e4d8 <SMSC951xDevice>:
8000e4d8:	e92d4010 	push	{r4, lr}
8000e4dc:	e1a04000 	mov	r4, r0
8000e4e0:	eb00065b 	bl	8000fe54 <USBDeviceCopy>
8000e4e4:	e30e2734 	movw	r2, #59188	; 0xe734
8000e4e8:	e3a03000 	mov	r3, #0
8000e4ec:	e3482000 	movt	r2, #32768	; 0x8000
8000e4f0:	e3a00d19 	mov	r0, #1600	; 0x640
8000e4f4:	e5842000 	str	r2, [r4]
8000e4f8:	e584303c 	str	r3, [r4, #60]	; 0x3c
8000e4fc:	e5843040 	str	r3, [r4, #64]	; 0x40
8000e500:	e5843050 	str	r3, [r4, #80]	; 0x50
8000e504:	eb000f53 	bl	80012258 <malloc>
8000e508:	e5840050 	str	r0, [r4, #80]	; 0x50
8000e50c:	e8bd8010 	pop	{r4, pc}

8000e510 <_SMSC951xDevice>:
8000e510:	e92d4010 	push	{r4, lr}
8000e514:	e1a04000 	mov	r4, r0
8000e518:	e5900050 	ldr	r0, [r0, #80]	; 0x50
8000e51c:	e3500000 	cmp	r0, #0
8000e520:	0a000002 	beq	8000e530 <_SMSC951xDevice+0x20>
8000e524:	eb000f52 	bl	80012274 <free>
8000e528:	e3a03000 	mov	r3, #0
8000e52c:	e5843050 	str	r3, [r4, #80]	; 0x50
8000e530:	e5940040 	ldr	r0, [r4, #64]	; 0x40
8000e534:	e3500000 	cmp	r0, #0
8000e538:	0a000004 	beq	8000e550 <_SMSC951xDevice+0x40>
8000e53c:	ebffefca 	bl	8000a46c <_USBEndpoint>
8000e540:	e5940040 	ldr	r0, [r4, #64]	; 0x40
8000e544:	eb000f4a 	bl	80012274 <free>
8000e548:	e3a03000 	mov	r3, #0
8000e54c:	e5843040 	str	r3, [r4, #64]	; 0x40
8000e550:	e594003c 	ldr	r0, [r4, #60]	; 0x3c
8000e554:	e3500000 	cmp	r0, #0
8000e558:	0a000004 	beq	8000e570 <_SMSC951xDevice+0x60>
8000e55c:	ebffefc2 	bl	8000a46c <_USBEndpoint>
8000e560:	e594003c 	ldr	r0, [r4, #60]	; 0x3c
8000e564:	eb000f42 	bl	80012274 <free>
8000e568:	e3a03000 	mov	r3, #0
8000e56c:	e584303c 	str	r3, [r4, #60]	; 0x3c
8000e570:	e1a00004 	mov	r0, r4
8000e574:	e8bd4010 	pop	{r4, lr}
8000e578:	ea000672 	b	8000ff48 <_USBDevice>

8000e57c <SMSC951xDeviceGetMACAddress>:
8000e57c:	e2800044 	add	r0, r0, #68	; 0x44
8000e580:	e12fff1e 	bx	lr

8000e584 <SMSC951xDeviceSendFrame>:
8000e584:	e300c637 	movw	ip, #1591	; 0x637
8000e588:	e152000c 	cmp	r2, ip
8000e58c:	9a000001 	bls	8000e598 <SMSC951xDeviceSendFrame+0x14>
8000e590:	e3a00000 	mov	r0, #0
8000e594:	e12fff1e 	bx	lr
8000e598:	e92d4070 	push	{r4, r5, r6, lr}
8000e59c:	e1a05000 	mov	r5, r0
8000e5a0:	e5900050 	ldr	r0, [r0, #80]	; 0x50
8000e5a4:	e1a04002 	mov	r4, r2
8000e5a8:	e2800008 	add	r0, r0, #8
8000e5ac:	eb001645 	bl	80013ec8 <uspi_memcpy>
8000e5b0:	e5953050 	ldr	r3, [r5, #80]	; 0x50
8000e5b4:	e3842a03 	orr	r2, r4, #12288	; 0x3000
8000e5b8:	e1a00005 	mov	r0, r5
8000e5bc:	e5834004 	str	r4, [r3, #4]
8000e5c0:	e5832000 	str	r2, [r3]
8000e5c4:	eb00078e 	bl	80010404 <USBDeviceGetHost>
8000e5c8:	e5952050 	ldr	r2, [r5, #80]	; 0x50
8000e5cc:	e2843008 	add	r3, r4, #8
8000e5d0:	e5951040 	ldr	r1, [r5, #64]	; 0x40
8000e5d4:	eb001ae1 	bl	80015160 <DWHCIDeviceTransfer>
8000e5d8:	e1e00000 	mvn	r0, r0
8000e5dc:	e1a00fa0 	lsr	r0, r0, #31
8000e5e0:	e8bd8070 	pop	{r4, r5, r6, pc}

8000e5e4 <SMSC951xDeviceReceiveFrame>:
8000e5e4:	e92d40f0 	push	{r4, r5, r6, r7, lr}
8000e5e8:	e24dd034 	sub	sp, sp, #52	; 0x34
8000e5ec:	e1a06001 	mov	r6, r1
8000e5f0:	e3a04000 	mov	r4, #0
8000e5f4:	e590103c 	ldr	r1, [r0, #60]	; 0x3c
8000e5f8:	e3a03d19 	mov	r3, #1600	; 0x640
8000e5fc:	e58d4000 	str	r4, [sp]
8000e600:	e1a05000 	mov	r5, r0
8000e604:	e1a07002 	mov	r7, r2
8000e608:	e28d000c 	add	r0, sp, #12
8000e60c:	e1a02006 	mov	r2, r6
8000e610:	eb001197 	bl	80012c74 <USBRequest>
8000e614:	e1a00005 	mov	r0, r5
8000e618:	eb000779 	bl	80010404 <USBDeviceGetHost>
8000e61c:	e28d100c 	add	r1, sp, #12
8000e620:	eb001a23 	bl	80014eb4 <DWHCIDeviceSubmitBlockingRequest>
8000e624:	e1500004 	cmp	r0, r4
8000e628:	0a000017 	beq	8000e68c <SMSC951xDeviceReceiveFrame+0xa8>
8000e62c:	e28d000c 	add	r0, sp, #12
8000e630:	eb0011a9 	bl	80012cdc <USBRequestGetResultLength>
8000e634:	e3500003 	cmp	r0, #3
8000e638:	9a000013 	bls	8000e68c <SMSC951xDeviceReceiveFrame+0xa8>
8000e63c:	e5963000 	ldr	r3, [r6]
8000e640:	e30920de 	movw	r2, #37086	; 0x90de
8000e644:	e3442000 	movt	r2, #16384	; 0x4000
8000e648:	e0022003 	and	r2, r2, r3
8000e64c:	e3520000 	cmp	r2, #0
8000e650:	1a000012 	bne	8000e6a0 <SMSC951xDeviceReceiveFrame+0xbc>
8000e654:	e7ed3853 	ubfx	r3, r3, #16, #14
8000e658:	e3530004 	cmp	r3, #4
8000e65c:	9a00000a 	bls	8000e68c <SMSC951xDeviceReceiveFrame+0xa8>
8000e660:	e2434004 	sub	r4, r3, #4
8000e664:	e2861004 	add	r1, r6, #4
8000e668:	e1a02004 	mov	r2, r4
8000e66c:	e1a00006 	mov	r0, r6
8000e670:	eb001614 	bl	80013ec8 <uspi_memcpy>
8000e674:	e5874000 	str	r4, [r7]
8000e678:	e28d000c 	add	r0, sp, #12
8000e67c:	eb001188 	bl	80012ca4 <_USBRequest>
8000e680:	e3a00001 	mov	r0, #1
8000e684:	e28dd034 	add	sp, sp, #52	; 0x34
8000e688:	e8bd80f0 	pop	{r4, r5, r6, r7, pc}
8000e68c:	e28d000c 	add	r0, sp, #12
8000e690:	eb001183 	bl	80012ca4 <_USBRequest>
8000e694:	e3a00000 	mov	r0, #0
8000e698:	e28dd034 	add	sp, sp, #52	; 0x34
8000e69c:	e8bd80f0 	pop	{r4, r5, r6, r7, pc}
8000e6a0:	e30823ec 	movw	r2, #33772	; 0x83ec
8000e6a4:	e30803e0 	movw	r0, #33760	; 0x83e0
8000e6a8:	e3482001 	movt	r2, #32769	; 0x8001
8000e6ac:	e3a01002 	mov	r1, #2
8000e6b0:	e3480001 	movt	r0, #32769	; 0x8001
8000e6b4:	eb000f41 	bl	800123c0 <LogWrite>
8000e6b8:	e28d000c 	add	r0, sp, #12
8000e6bc:	eb001178 	bl	80012ca4 <_USBRequest>
8000e6c0:	e1a00004 	mov	r0, r4
8000e6c4:	e28dd034 	add	sp, sp, #52	; 0x34
8000e6c8:	e8bd80f0 	pop	{r4, r5, r6, r7, pc}

8000e6cc <SMSC951xDeviceWriteReg>:
8000e6cc:	e92d40f0 	push	{r4, r5, r6, r7, lr}
8000e6d0:	e24dd01c 	sub	sp, sp, #28
8000e6d4:	e28d5018 	add	r5, sp, #24
8000e6d8:	e1a04001 	mov	r4, r1
8000e6dc:	e1a07000 	mov	r7, r0
8000e6e0:	e6ff4074 	uxth	r4, r4
8000e6e4:	e5252004 	str	r2, [r5, #-4]!
8000e6e8:	eb000745 	bl	80010404 <USBDeviceGetHost>
8000e6ec:	e1a06000 	mov	r6, r0
8000e6f0:	e1a00007 	mov	r0, r7
8000e6f4:	eb000740 	bl	800103fc <USBDeviceGetEndpoint0>
8000e6f8:	e58d5008 	str	r5, [sp, #8]
8000e6fc:	e3a03004 	mov	r3, #4
8000e700:	e58d300c 	str	r3, [sp, #12]
8000e704:	e3a03000 	mov	r3, #0
8000e708:	e58d3000 	str	r3, [sp]
8000e70c:	e1a01000 	mov	r1, r0
8000e710:	e58d4004 	str	r4, [sp, #4]
8000e714:	e3a030a0 	mov	r3, #160	; 0xa0
8000e718:	e1a00006 	mov	r0, r6
8000e71c:	e3a02040 	mov	r2, #64	; 0x40
8000e720:	eb001a32 	bl	80014ff0 <DWHCIDeviceControlMessage>
8000e724:	e1e00000 	mvn	r0, r0
8000e728:	e1a00fa0 	lsr	r0, r0, #31
8000e72c:	e28dd01c 	add	sp, sp, #28
8000e730:	e8bd80f0 	pop	{r4, r5, r6, r7, pc}

8000e734 <SMSC951xDeviceConfigure>:
8000e734:	e92d40f0 	push	{r4, r5, r6, r7, lr}
8000e738:	e24dd02c 	sub	sp, sp, #44	; 0x2c
8000e73c:	e1a05000 	mov	r5, r0
8000e740:	e1a0000d 	mov	r0, sp
8000e744:	eb000f1b 	bl	800123b8 <GetMACAddress>
8000e748:	e2504000 	subs	r4, r0, #0
8000e74c:	0a000023 	beq	8000e7e0 <SMSC951xDeviceConfigure+0xac>
8000e750:	e2856044 	add	r6, r5, #68	; 0x44
8000e754:	e1a0100d 	mov	r1, sp
8000e758:	e1a00006 	mov	r0, r6
8000e75c:	eb000855 	bl	800108b8 <MACAddressSet>
8000e760:	e28d0010 	add	r0, sp, #16
8000e764:	ebffe9ec 	bl	80008f1c <String>
8000e768:	e28d1010 	add	r1, sp, #16
8000e76c:	e1a00006 	mov	r0, r6
8000e770:	eb000876 	bl	80010950 <MACAddressFormat>
8000e774:	e28d0010 	add	r0, sp, #16
8000e778:	ebffea01 	bl	80008f84 <StringGet>
8000e77c:	e1a03000 	mov	r3, r0
8000e780:	e3082404 	movw	r2, #33796	; 0x8404
8000e784:	e3482001 	movt	r2, #32769	; 0x8001
8000e788:	e30803e0 	movw	r0, #33760	; 0x83e0
8000e78c:	e3480001 	movt	r0, #32769	; 0x8001
8000e790:	e3a01004 	mov	r1, #4
8000e794:	eb000f09 	bl	800123c0 <LogWrite>
8000e798:	e3a01002 	mov	r1, #2
8000e79c:	e1a00005 	mov	r0, r5
8000e7a0:	eb00071d 	bl	8001041c <USBDeviceGetDescriptor>
8000e7a4:	e3500000 	cmp	r0, #0
8000e7a8:	0a000002 	beq	8000e7b8 <SMSC951xDeviceConfigure+0x84>
8000e7ac:	e5d03004 	ldrb	r3, [r0, #4]
8000e7b0:	e3530001 	cmp	r3, #1
8000e7b4:	0a000012 	beq	8000e804 <SMSC951xDeviceConfigure+0xd0>
8000e7b8:	e30813e0 	movw	r1, #33760	; 0x83e0
8000e7bc:	e1a00005 	mov	r0, r5
8000e7c0:	e3481001 	movt	r1, #32769	; 0x8001
8000e7c4:	e3a04000 	mov	r4, #0
8000e7c8:	eb000715 	bl	80010424 <USBDeviceConfigurationError>
8000e7cc:	e28d0010 	add	r0, sp, #16
8000e7d0:	ebffe9e1 	bl	80008f5c <_String>
8000e7d4:	e1a00004 	mov	r0, r4
8000e7d8:	e28dd02c 	add	sp, sp, #44	; 0x2c
8000e7dc:	e8bd80f0 	pop	{r4, r5, r6, r7, pc}
8000e7e0:	e3082418 	movw	r2, #33816	; 0x8418
8000e7e4:	e30803e0 	movw	r0, #33760	; 0x83e0
8000e7e8:	e3482001 	movt	r2, #32769	; 0x8001
8000e7ec:	e3a01001 	mov	r1, #1
8000e7f0:	e3480001 	movt	r0, #32769	; 0x8001
8000e7f4:	eb000ef1 	bl	800123c0 <LogWrite>
8000e7f8:	e1a00004 	mov	r0, r4
8000e7fc:	e28dd02c 	add	sp, sp, #44	; 0x2c
8000e800:	e8bd80f0 	pop	{r4, r5, r6, r7, pc}
8000e804:	e3a01004 	mov	r1, #4
8000e808:	e1a00005 	mov	r0, r5
8000e80c:	eb000702 	bl	8001041c <USBDeviceGetDescriptor>
8000e810:	e3500000 	cmp	r0, #0
8000e814:	0affffe7 	beq	8000e7b8 <SMSC951xDeviceConfigure+0x84>
8000e818:	e5d03002 	ldrb	r3, [r0, #2]
8000e81c:	e3530000 	cmp	r3, #0
8000e820:	1affffe4 	bne	8000e7b8 <SMSC951xDeviceConfigure+0x84>
8000e824:	e5d03003 	ldrb	r3, [r0, #3]
8000e828:	e3530000 	cmp	r3, #0
8000e82c:	1affffe1 	bne	8000e7b8 <SMSC951xDeviceConfigure+0x84>
8000e830:	e5d03004 	ldrb	r3, [r0, #4]
8000e834:	e3530003 	cmp	r3, #3
8000e838:	1affffde 	bne	8000e7b8 <SMSC951xDeviceConfigure+0x84>
8000e83c:	ea000003 	b	8000e850 <SMSC951xDeviceConfigure+0x11c>
8000e840:	e5d72003 	ldrb	r2, [r7, #3]
8000e844:	e202203f 	and	r2, r2, #63	; 0x3f
8000e848:	e3520002 	cmp	r2, #2
8000e84c:	0a00002a 	beq	8000e8fc <SMSC951xDeviceConfigure+0x1c8>
8000e850:	e3a01005 	mov	r1, #5
8000e854:	e1a00005 	mov	r0, r5
8000e858:	eb0006ef 	bl	8001041c <USBDeviceGetDescriptor>
8000e85c:	e2507000 	subs	r7, r0, #0
8000e860:	1afffff6 	bne	8000e840 <SMSC951xDeviceConfigure+0x10c>
8000e864:	e595303c 	ldr	r3, [r5, #60]	; 0x3c
8000e868:	e3530000 	cmp	r3, #0
8000e86c:	0affffd1 	beq	8000e7b8 <SMSC951xDeviceConfigure+0x84>
8000e870:	e5953040 	ldr	r3, [r5, #64]	; 0x40
8000e874:	e3530000 	cmp	r3, #0
8000e878:	0affffce 	beq	8000e7b8 <SMSC951xDeviceConfigure+0x84>
8000e87c:	e1a00005 	mov	r0, r5
8000e880:	eb00053e 	bl	8000fd80 <USBDeviceConfigure>
8000e884:	e2504000 	subs	r4, r0, #0
8000e888:	0a000028 	beq	8000e930 <SMSC951xDeviceConfigure+0x1fc>
8000e88c:	e1a00006 	mov	r0, r6
8000e890:	e28d1008 	add	r1, sp, #8
8000e894:	eb00081b 	bl	80010908 <MACAddressCopyTo>
8000e898:	e5dd200d 	ldrb	r2, [sp, #13]
8000e89c:	e3a01f41 	mov	r1, #260	; 0x104
8000e8a0:	e5dd300c 	ldrb	r3, [sp, #12]
8000e8a4:	e1a00005 	mov	r0, r5
8000e8a8:	e59d4008 	ldr	r4, [sp, #8]
8000e8ac:	e1832402 	orr	r2, r3, r2, lsl #8
8000e8b0:	ebffff85 	bl	8000e6cc <SMSC951xDeviceWriteReg>
8000e8b4:	e3500000 	cmp	r0, #0
8000e8b8:	0a000005 	beq	8000e8d4 <SMSC951xDeviceConfigure+0x1a0>
8000e8bc:	e1a02004 	mov	r2, r4
8000e8c0:	e3a01f42 	mov	r1, #264	; 0x108
8000e8c4:	e1a00005 	mov	r0, r5
8000e8c8:	ebffff7f 	bl	8000e6cc <SMSC951xDeviceWriteReg>
8000e8cc:	e3500000 	cmp	r0, #0
8000e8d0:	1a000028 	bne	8000e978 <SMSC951xDeviceConfigure+0x244>
8000e8d4:	e3082430 	movw	r2, #33840	; 0x8430
8000e8d8:	e30803e0 	movw	r0, #33760	; 0x83e0
8000e8dc:	e3482001 	movt	r2, #32769	; 0x8001
8000e8e0:	e3480001 	movt	r0, #32769	; 0x8001
8000e8e4:	e3a01001 	mov	r1, #1
8000e8e8:	e3a04000 	mov	r4, #0
8000e8ec:	eb000eb3 	bl	800123c0 <LogWrite>
8000e8f0:	e28d0010 	add	r0, sp, #16
8000e8f4:	ebffe998 	bl	80008f5c <_String>
8000e8f8:	eaffffb5 	b	8000e7d4 <SMSC951xDeviceConfigure+0xa0>
8000e8fc:	e1d730d2 	ldrsb	r3, [r7, #2]
8000e900:	e3a0001c 	mov	r0, #28
8000e904:	e3530000 	cmp	r3, #0
8000e908:	ba000011 	blt	8000e954 <SMSC951xDeviceConfigure+0x220>
8000e90c:	e5953040 	ldr	r3, [r5, #64]	; 0x40
8000e910:	e3530000 	cmp	r3, #0
8000e914:	1affffa7 	bne	8000e7b8 <SMSC951xDeviceConfigure+0x84>
8000e918:	eb000e4e 	bl	80012258 <malloc>
8000e91c:	e5850040 	str	r0, [r5, #64]	; 0x40
8000e920:	e1a02007 	mov	r2, r7
8000e924:	e1a01005 	mov	r1, r5
8000e928:	ebffee84 	bl	8000a340 <USBEndpoint2>
8000e92c:	eaffffc7 	b	8000e850 <SMSC951xDeviceConfigure+0x11c>
8000e930:	e3072c90 	movw	r2, #31888	; 0x7c90
8000e934:	e30803e0 	movw	r0, #33760	; 0x83e0
8000e938:	e3482001 	movt	r2, #32769	; 0x8001
8000e93c:	e3a01001 	mov	r1, #1
8000e940:	e3480001 	movt	r0, #32769	; 0x8001
8000e944:	eb000e9d 	bl	800123c0 <LogWrite>
8000e948:	e28d0010 	add	r0, sp, #16
8000e94c:	ebffe982 	bl	80008f5c <_String>
8000e950:	eaffff9f 	b	8000e7d4 <SMSC951xDeviceConfigure+0xa0>
8000e954:	e595303c 	ldr	r3, [r5, #60]	; 0x3c
8000e958:	e3530000 	cmp	r3, #0
8000e95c:	1affff95 	bne	8000e7b8 <SMSC951xDeviceConfigure+0x84>
8000e960:	eb000e3c 	bl	80012258 <malloc>
8000e964:	e585003c 	str	r0, [r5, #60]	; 0x3c
8000e968:	e1a02007 	mov	r2, r7
8000e96c:	e1a01005 	mov	r1, r5
8000e970:	ebffee72 	bl	8000a340 <USBEndpoint2>
8000e974:	eaffffb5 	b	8000e850 <SMSC951xDeviceConfigure+0x11c>
8000e978:	e3a02000 	mov	r2, #0
8000e97c:	e3a01024 	mov	r1, #36	; 0x24
8000e980:	e3402111 	movt	r2, #273	; 0x111
8000e984:	e1a00005 	mov	r0, r5
8000e988:	ebffff4f 	bl	8000e6cc <SMSC951xDeviceWriteReg>
8000e98c:	e3500000 	cmp	r0, #0
8000e990:	0a000006 	beq	8000e9b0 <SMSC951xDeviceConfigure+0x27c>
8000e994:	e3a0200c 	mov	r2, #12
8000e998:	e3a01c01 	mov	r1, #256	; 0x100
8000e99c:	e3402080 	movt	r2, #128	; 0x80
8000e9a0:	e1a00005 	mov	r0, r5
8000e9a4:	ebffff48 	bl	8000e6cc <SMSC951xDeviceWriteReg>
8000e9a8:	e3500000 	cmp	r0, #0
8000e9ac:	1a000003 	bne	8000e9c0 <SMSC951xDeviceConfigure+0x28c>
8000e9b0:	e3082448 	movw	r2, #33864	; 0x8448
8000e9b4:	e30803e0 	movw	r0, #33760	; 0x83e0
8000e9b8:	e3482001 	movt	r2, #32769	; 0x8001
8000e9bc:	eaffffc7 	b	8000e8e0 <SMSC951xDeviceConfigure+0x1ac>
8000e9c0:	e3a02004 	mov	r2, #4
8000e9c4:	e3a01010 	mov	r1, #16
8000e9c8:	e1a00005 	mov	r0, r5
8000e9cc:	ebffff3e 	bl	8000e6cc <SMSC951xDeviceWriteReg>
8000e9d0:	e3500000 	cmp	r0, #0
8000e9d4:	0afffff5 	beq	8000e9b0 <SMSC951xDeviceConfigure+0x27c>
8000e9d8:	e28d001c 	add	r0, sp, #28
8000e9dc:	e3a04001 	mov	r4, #1
8000e9e0:	ebffe94d 	bl	80008f1c <String>
8000e9e4:	e30a38b8 	movw	r3, #43192	; 0xa8b8
8000e9e8:	e308145c 	movw	r1, #33884	; 0x845c
8000e9ec:	e3483009 	movt	r3, #32777	; 0x8009
8000e9f0:	e28d001c 	add	r0, sp, #28
8000e9f4:	e3481001 	movt	r1, #32769	; 0x8001
8000e9f8:	e5932000 	ldr	r2, [r3]
8000e9fc:	e082c004 	add	ip, r2, r4
8000ea00:	e583c000 	str	ip, [r3]
8000ea04:	ebffeb65 	bl	800097a0 <StringFormat>
8000ea08:	eb002085 	bl	80016c24 <DeviceNameServiceGet>
8000ea0c:	e1a06000 	mov	r6, r0
8000ea10:	e28d001c 	add	r0, sp, #28
8000ea14:	ebffe95a 	bl	80008f84 <StringGet>
8000ea18:	e1a01000 	mov	r1, r0
8000ea1c:	e1a03007 	mov	r3, r7
8000ea20:	e1a02005 	mov	r2, r5
8000ea24:	e1a00006 	mov	r0, r6
8000ea28:	eb002053 	bl	80016b7c <DeviceNameServiceAddDevice>
8000ea2c:	e28d001c 	add	r0, sp, #28
8000ea30:	ebffe949 	bl	80008f5c <_String>
8000ea34:	e28d0010 	add	r0, sp, #16
8000ea38:	ebffe947 	bl	80008f5c <_String>
8000ea3c:	eaffff64 	b	8000e7d4 <SMSC951xDeviceConfigure+0xa0>

8000ea40 <SMSC951xDeviceReadReg>:
8000ea40:	e92d40f0 	push	{r4, r5, r6, r7, lr}
8000ea44:	e24dd014 	sub	sp, sp, #20
8000ea48:	e1a06002 	mov	r6, r2
8000ea4c:	e1a04001 	mov	r4, r1
8000ea50:	e1a07000 	mov	r7, r0
8000ea54:	eb00066a 	bl	80010404 <USBDeviceGetHost>
8000ea58:	e1a05000 	mov	r5, r0
8000ea5c:	e1a00007 	mov	r0, r7
8000ea60:	e6ff4074 	uxth	r4, r4
8000ea64:	eb000664 	bl	800103fc <USBDeviceGetEndpoint0>
8000ea68:	e58d6008 	str	r6, [sp, #8]
8000ea6c:	e3a03004 	mov	r3, #4
8000ea70:	e58d300c 	str	r3, [sp, #12]
8000ea74:	e3a03000 	mov	r3, #0
8000ea78:	e58d3000 	str	r3, [sp]
8000ea7c:	e1a01000 	mov	r1, r0
8000ea80:	e58d4004 	str	r4, [sp, #4]
8000ea84:	e3a030a1 	mov	r3, #161	; 0xa1
8000ea88:	e1a00005 	mov	r0, r5
8000ea8c:	e3a020c0 	mov	r2, #192	; 0xc0
8000ea90:	eb001956 	bl	80014ff0 <DWHCIDeviceControlMessage>
8000ea94:	e2400004 	sub	r0, r0, #4
8000ea98:	e16f0f10 	clz	r0, r0
8000ea9c:	e1a002a0 	lsr	r0, r0, #5
8000eaa0:	e28dd014 	add	sp, sp, #20
8000eaa4:	e8bd80f0 	pop	{r4, r5, r6, r7, pc}

8000eaa8 <_DWHCIFrameSchedulerNonPeriodic>:
8000eaa8:	e3a03006 	mov	r3, #6
8000eaac:	e5803018 	str	r3, [r0, #24]
8000eab0:	e12fff1e 	bx	lr

8000eab4 <DWHCIFrameSchedulerNonPeriodicStartSplit>:
8000eab4:	e3a03000 	mov	r3, #0
8000eab8:	e5803018 	str	r3, [r0, #24]
8000eabc:	e12fff1e 	bx	lr

8000eac0 <DWHCIFrameSchedulerNonPeriodicWaitForFrame>:
8000eac0:	e12fff1e 	bx	lr

8000eac4 <DWHCIFrameSchedulerNonPeriodicIsOddFrame>:
8000eac4:	e3a00000 	mov	r0, #0
8000eac8:	e12fff1e 	bx	lr

8000eacc <DWHCIFrameSchedulerNonPeriodicCompleteSplit>:
8000eacc:	e5903018 	ldr	r3, [r0, #24]
8000ead0:	e3530001 	cmp	r3, #1
8000ead4:	0a00000b 	beq	8000eb08 <DWHCIFrameSchedulerNonPeriodicCompleteSplit+0x3c>
8000ead8:	3a000007 	bcc	8000eafc <DWHCIFrameSchedulerNonPeriodicCompleteSplit+0x30>
8000eadc:	e3530003 	cmp	r3, #3
8000eae0:	8a000005 	bhi	8000eafc <DWHCIFrameSchedulerNonPeriodicCompleteSplit+0x30>
8000eae4:	e92d4010 	push	{r4, lr}
8000eae8:	e3000271 	movw	r0, #625	; 0x271
8000eaec:	eb000dee 	bl	800122ac <usDelay>
8000eaf0:	e3a03001 	mov	r3, #1
8000eaf4:	e1a00003 	mov	r0, r3
8000eaf8:	e8bd8010 	pop	{r4, pc}
8000eafc:	e3a03000 	mov	r3, #0
8000eb00:	e1a00003 	mov	r0, r3
8000eb04:	e12fff1e 	bx	lr
8000eb08:	e3a01002 	mov	r1, #2
8000eb0c:	e3a02003 	mov	r2, #3
8000eb10:	e5801018 	str	r1, [r0, #24]
8000eb14:	e580201c 	str	r2, [r0, #28]
8000eb18:	e1a00003 	mov	r0, r3
8000eb1c:	e12fff1e 	bx	lr

8000eb20 <DWHCIFrameSchedulerNonPeriodicTransactionComplete>:
8000eb20:	e5902018 	ldr	r2, [r0, #24]
8000eb24:	e3520000 	cmp	r2, #0
8000eb28:	0a000010 	beq	8000eb70 <DWHCIFrameSchedulerNonPeriodicTransactionComplete+0x50>
8000eb2c:	e2422002 	sub	r2, r2, #2
8000eb30:	e3520001 	cmp	r2, #1
8000eb34:	812fff1e 	bxhi	lr
8000eb38:	e3110001 	tst	r1, #1
8000eb3c:	1a000016 	bne	8000eb9c <DWHCIFrameSchedulerNonPeriodicTransactionComplete+0x7c>
8000eb40:	e3110060 	tst	r1, #96	; 0x60
8000eb44:	1a00000c 	bne	8000eb7c <DWHCIFrameSchedulerNonPeriodicTransactionComplete+0x5c>
8000eb48:	e3110010 	tst	r1, #16
8000eb4c:	0a000015 	beq	8000eba8 <DWHCIFrameSchedulerNonPeriodicTransactionComplete+0x88>
8000eb50:	e590301c 	ldr	r3, [r0, #28]
8000eb54:	e3530000 	cmp	r3, #0
8000eb58:	e2433001 	sub	r3, r3, #1
8000eb5c:	e580301c 	str	r3, [r0, #28]
8000eb60:	0a000017 	beq	8000ebc4 <DWHCIFrameSchedulerNonPeriodicTransactionComplete+0xa4>
8000eb64:	e3a03003 	mov	r3, #3
8000eb68:	e5803018 	str	r3, [r0, #24]
8000eb6c:	e12fff1e 	bx	lr
8000eb70:	e3a03001 	mov	r3, #1
8000eb74:	e5803018 	str	r3, [r0, #24]
8000eb78:	e12fff1e 	bx	lr
8000eb7c:	e590301c 	ldr	r3, [r0, #28]
8000eb80:	e3530000 	cmp	r3, #0
8000eb84:	e2433001 	sub	r3, r3, #1
8000eb88:	e580301c 	str	r3, [r0, #28]
8000eb8c:	1afffff4 	bne	8000eb64 <DWHCIFrameSchedulerNonPeriodicTransactionComplete+0x44>
8000eb90:	e3a03005 	mov	r3, #5
8000eb94:	e5803018 	str	r3, [r0, #24]
8000eb98:	e12fff1e 	bx	lr
8000eb9c:	e3a03004 	mov	r3, #4
8000eba0:	e5803018 	str	r3, [r0, #24]
8000eba4:	e12fff1e 	bx	lr
8000eba8:	e30821f4 	movw	r2, #33268	; 0x81f4
8000ebac:	e3080208 	movw	r0, #33288	; 0x8208
8000ebb0:	e3482001 	movt	r2, #32769	; 0x8001
8000ebb4:	e1a03001 	mov	r3, r1
8000ebb8:	e3480001 	movt	r0, #32769	; 0x8001
8000ebbc:	e3a01001 	mov	r1, #1
8000ebc0:	ea000dfe 	b	800123c0 <LogWrite>
8000ebc4:	e92d4010 	push	{r4, lr}
8000ebc8:	e1a04000 	mov	r4, r0
8000ebcc:	e3000271 	movw	r0, #625	; 0x271
8000ebd0:	eb000db5 	bl	800122ac <usDelay>
8000ebd4:	e3a03005 	mov	r3, #5
8000ebd8:	e5843018 	str	r3, [r4, #24]
8000ebdc:	e8bd8010 	pop	{r4, pc}

8000ebe0 <DWHCIFrameSchedulerNonPeriodic>:
8000ebe0:	e92d4030 	push	{r4, r5, lr}
8000ebe4:	e30ecacc 	movw	ip, #60108	; 0xeacc
8000ebe8:	e348c000 	movt	ip, #32768	; 0x8000
8000ebec:	e30e4aa8 	movw	r4, #60072	; 0xeaa8
8000ebf0:	e3484000 	movt	r4, #32768	; 0x8000
8000ebf4:	e30eeab4 	movw	lr, #60084	; 0xeab4
8000ebf8:	e348e000 	movt	lr, #32768	; 0x8000
8000ebfc:	e30e1b20 	movw	r1, #60192	; 0xeb20
8000ec00:	e3481000 	movt	r1, #32768	; 0x8000
8000ec04:	e30e2ac0 	movw	r2, #60096	; 0xeac0
8000ec08:	e3482000 	movt	r2, #32768	; 0x8000
8000ec0c:	e30e3ac4 	movw	r3, #60100	; 0xeac4
8000ec10:	e3483000 	movt	r3, #32768	; 0x8000
8000ec14:	e3a05006 	mov	r5, #6
8000ec18:	e8804010 	stm	r0, {r4, lr}
8000ec1c:	e580c008 	str	ip, [r0, #8]
8000ec20:	e580100c 	str	r1, [r0, #12]
8000ec24:	e5802010 	str	r2, [r0, #16]
8000ec28:	e5803014 	str	r3, [r0, #20]
8000ec2c:	e5805018 	str	r5, [r0, #24]
8000ec30:	e8bd8030 	pop	{r4, r5, pc}

8000ec34 <DWHCITransferStageData>:
8000ec34:	e92d4070 	push	{r4, r5, r6, lr}
8000ec38:	e1a04000 	mov	r4, r0
8000ec3c:	e59d6010 	ldr	r6, [sp, #16]
8000ec40:	e1a05002 	mov	r5, r2
8000ec44:	e5803008 	str	r3, [r0, #8]
8000ec48:	e3a03000 	mov	r3, #0
8000ec4c:	e5801000 	str	r1, [r0]
8000ec50:	e5802004 	str	r2, [r0, #4]
8000ec54:	e1a00002 	mov	r0, r2
8000ec58:	e5843014 	str	r3, [r4, #20]
8000ec5c:	e5843038 	str	r3, [r4, #56]	; 0x38
8000ec60:	e584303c 	str	r3, [r4, #60]	; 0x3c
8000ec64:	e5843040 	str	r3, [r4, #64]	; 0x40
8000ec68:	e5843044 	str	r3, [r4, #68]	; 0x44
8000ec6c:	e5843048 	str	r3, [r4, #72]	; 0x48
8000ec70:	e5843050 	str	r3, [r4, #80]	; 0x50
8000ec74:	e584600c 	str	r6, [r4, #12]
8000ec78:	eb00100f 	bl	80012cbc <USBRequestGetEndpoint>
8000ec7c:	e584001c 	str	r0, [r4, #28]
8000ec80:	ebffedfc 	bl	8000a478 <USBEndpointGetDevice>
8000ec84:	e5840018 	str	r0, [r4, #24]
8000ec88:	eb0005d5 	bl	800103e4 <USBDeviceGetSpeed>
8000ec8c:	e5840020 	str	r0, [r4, #32]
8000ec90:	e594001c 	ldr	r0, [r4, #28]
8000ec94:	ebffee01 	bl	8000a4a0 <USBEndpointGetMaxPacketSize>
8000ec98:	e5840024 	str	r0, [r4, #36]	; 0x24
8000ec9c:	e5940018 	ldr	r0, [r4, #24]
8000eca0:	eb0005d1 	bl	800103ec <USBDeviceGetHubAddress>
8000eca4:	e3500000 	cmp	r0, #0
8000eca8:	0a000002 	beq	8000ecb8 <DWHCITransferStageData+0x84>
8000ecac:	e5940020 	ldr	r0, [r4, #32]
8000ecb0:	e2500002 	subs	r0, r0, #2
8000ecb4:	13a00001 	movne	r0, #1
8000ecb8:	e5840010 	str	r0, [r4, #16]
8000ecbc:	e3560000 	cmp	r6, #0
8000ecc0:	1a000021 	bne	8000ed4c <DWHCITransferStageData+0x118>
8000ecc4:	e594001c 	ldr	r0, [r4, #28]
8000ecc8:	e1a01006 	mov	r1, r6
8000eccc:	ebffedf7 	bl	8000a4b0 <USBEndpointGetNextPID>
8000ecd0:	e3500000 	cmp	r0, #0
8000ecd4:	e1a00005 	mov	r0, r5
8000ecd8:	0a00003c 	beq	8000edd0 <DWHCITransferStageData+0x19c>
8000ecdc:	eb001002 	bl	80012cec <USBRequestGetBuffer>
8000ece0:	e584004c 	str	r0, [r4, #76]	; 0x4c
8000ece4:	e1a00005 	mov	r0, r5
8000ece8:	eb001001 	bl	80012cf4 <USBRequestGetBufLen>
8000ecec:	e5840028 	str	r0, [r4, #40]	; 0x28
8000ecf0:	e5942024 	ldr	r2, [r4, #36]	; 0x24
8000ecf4:	e5941010 	ldr	r1, [r4, #16]
8000ecf8:	e2423001 	sub	r3, r2, #1
8000ecfc:	e0833000 	add	r3, r3, r0
8000ed00:	e3510000 	cmp	r1, #0
8000ed04:	e733f213 	udiv	r3, r3, r2
8000ed08:	e584302c 	str	r3, [r4, #44]	; 0x2c
8000ed0c:	0a000034 	beq	8000ede4 <DWHCITransferStageData+0x1b0>
8000ed10:	e1520000 	cmp	r2, r0
8000ed14:	e3a03001 	mov	r3, #1
8000ed18:	e5843034 	str	r3, [r4, #52]	; 0x34
8000ed1c:	31a00002 	movcc	r0, r2
8000ed20:	e5840030 	str	r0, [r4, #48]	; 0x30
8000ed24:	e594001c 	ldr	r0, [r4, #28]
8000ed28:	ebffedd6 	bl	8000a488 <USBEndpointGetType>
8000ed2c:	e2400002 	sub	r0, r0, #2
8000ed30:	e3500001 	cmp	r0, #1
8000ed34:	9a00002d 	bls	8000edf0 <DWHCITransferStageData+0x1bc>
8000ed38:	e3a00020 	mov	r0, #32
8000ed3c:	eb000d45 	bl	80012258 <malloc>
8000ed40:	e5840050 	str	r0, [r4, #80]	; 0x50
8000ed44:	e8bd4070 	pop	{r4, r5, r6, lr}
8000ed48:	eaffffa4 	b	8000ebe0 <DWHCIFrameSchedulerNonPeriodic>
8000ed4c:	e3a00004 	mov	r0, #4
8000ed50:	eb000d40 	bl	80012258 <malloc>
8000ed54:	e5941010 	ldr	r1, [r4, #16]
8000ed58:	e3a02000 	mov	r2, #0
8000ed5c:	e5840048 	str	r0, [r4, #72]	; 0x48
8000ed60:	e3a03001 	mov	r3, #1
8000ed64:	e1510002 	cmp	r1, r2
8000ed68:	e584004c 	str	r0, [r4, #76]	; 0x4c
8000ed6c:	e5842028 	str	r2, [r4, #40]	; 0x28
8000ed70:	e5842030 	str	r2, [r4, #48]	; 0x30
8000ed74:	e584302c 	str	r3, [r4, #44]	; 0x2c
8000ed78:	e5843034 	str	r3, [r4, #52]	; 0x34
8000ed7c:	1affffe8 	bne	8000ed24 <DWHCITransferStageData+0xf0>
8000ed80:	e5940018 	ldr	r0, [r4, #24]
8000ed84:	eb000598 	bl	800103ec <USBDeviceGetHubAddress>
8000ed88:	e3500000 	cmp	r0, #0
8000ed8c:	18bd8070 	popne	{r4, r5, r6, pc}
8000ed90:	e5943020 	ldr	r3, [r4, #32]
8000ed94:	e3530002 	cmp	r3, #2
8000ed98:	08bd8070 	popeq	{r4, r5, r6, pc}
8000ed9c:	e3a00020 	mov	r0, #32
8000eda0:	eb000d2c 	bl	80012258 <malloc>
8000eda4:	e5840050 	str	r0, [r4, #80]	; 0x50
8000eda8:	e1a05000 	mov	r5, r0
8000edac:	e594001c 	ldr	r0, [r4, #28]
8000edb0:	ebffedb4 	bl	8000a488 <USBEndpointGetType>
8000edb4:	e2401002 	sub	r1, r0, #2
8000edb8:	e1a00005 	mov	r0, r5
8000edbc:	e3510001 	cmp	r1, #1
8000edc0:	83a01000 	movhi	r1, #0
8000edc4:	93a01001 	movls	r1, #1
8000edc8:	e8bd4070 	pop	{r4, r5, r6, lr}
8000edcc:	eaffe5f9 	b	800085b8 <DWHCIFrameSchedulerNoSplit>
8000edd0:	eb000fc3 	bl	80012ce4 <USBRequestGetSetupData>
8000edd4:	e584004c 	str	r0, [r4, #76]	; 0x4c
8000edd8:	e3a00008 	mov	r0, #8
8000eddc:	e5840028 	str	r0, [r4, #40]	; 0x28
8000ede0:	eaffffc2 	b	8000ecf0 <DWHCITransferStageData+0xbc>
8000ede4:	e5840030 	str	r0, [r4, #48]	; 0x30
8000ede8:	e5843034 	str	r3, [r4, #52]	; 0x34
8000edec:	eaffffe3 	b	8000ed80 <DWHCITransferStageData+0x14c>
8000edf0:	e3a00024 	mov	r0, #36	; 0x24
8000edf4:	eb000d17 	bl	80012258 <malloc>
8000edf8:	e5840050 	str	r0, [r4, #80]	; 0x50
8000edfc:	e8bd4070 	pop	{r4, r5, r6, lr}
8000ee00:	eafffb0f 	b	8000da44 <DWHCIFrameSchedulerPeriodic>

8000ee04 <_DWHCITransferStageData>:
8000ee04:	e92d4070 	push	{r4, r5, r6, lr}
8000ee08:	e1a04000 	mov	r4, r0
8000ee0c:	e5900050 	ldr	r0, [r0, #80]	; 0x50
8000ee10:	e3500000 	cmp	r0, #0
8000ee14:	0a000005 	beq	8000ee30 <_DWHCITransferStageData+0x2c>
8000ee18:	e5903000 	ldr	r3, [r0]
8000ee1c:	e12fff33 	blx	r3
8000ee20:	e5940050 	ldr	r0, [r4, #80]	; 0x50
8000ee24:	eb000d12 	bl	80012274 <free>
8000ee28:	e3a03000 	mov	r3, #0
8000ee2c:	e5843050 	str	r3, [r4, #80]	; 0x50
8000ee30:	e5940048 	ldr	r0, [r4, #72]	; 0x48
8000ee34:	e3a05000 	mov	r5, #0
8000ee38:	e584504c 	str	r5, [r4, #76]	; 0x4c
8000ee3c:	e1500005 	cmp	r0, r5
8000ee40:	0a000001 	beq	8000ee4c <_DWHCITransferStageData+0x48>
8000ee44:	eb000d0a 	bl	80012274 <free>
8000ee48:	e5845048 	str	r5, [r4, #72]	; 0x48
8000ee4c:	e3a03000 	mov	r3, #0
8000ee50:	e584301c 	str	r3, [r4, #28]
8000ee54:	e5843018 	str	r3, [r4, #24]
8000ee58:	e5843004 	str	r3, [r4, #4]
8000ee5c:	e8bd8070 	pop	{r4, r5, r6, pc}

8000ee60 <DWHCITransferStageDataTransactionComplete>:
8000ee60:	e5801044 	str	r1, [r0, #68]	; 0x44
8000ee64:	e300c7dc 	movw	ip, #2012	; 0x7dc
8000ee68:	e111000c 	tst	r1, ip
8000ee6c:	112fff1e 	bxne	lr
8000ee70:	e92d4070 	push	{r4, r5, r6, lr}
8000ee74:	e1a04000 	mov	r4, r0
8000ee78:	e5900010 	ldr	r0, [r0, #16]
8000ee7c:	e5945034 	ldr	r5, [r4, #52]	; 0x34
8000ee80:	e5941030 	ldr	r1, [r4, #48]	; 0x30
8000ee84:	e3500000 	cmp	r0, #0
8000ee88:	e0455002 	sub	r5, r5, r2
8000ee8c:	e0413003 	sub	r3, r1, r3
8000ee90:	1a000013 	bne	8000eee4 <DWHCITransferStageDataTransactionComplete+0x84>
8000ee94:	e5941038 	ldr	r1, [r4, #56]	; 0x38
8000ee98:	e594204c 	ldr	r2, [r4, #76]	; 0x4c
8000ee9c:	e0811003 	add	r1, r1, r3
8000eea0:	e0823003 	add	r3, r2, r3
8000eea4:	e5841038 	str	r1, [r4, #56]	; 0x38
8000eea8:	e584304c 	str	r3, [r4, #76]	; 0x4c
8000eeac:	e594001c 	ldr	r0, [r4, #28]
8000eeb0:	e1a01005 	mov	r1, r5
8000eeb4:	e594200c 	ldr	r2, [r4, #12]
8000eeb8:	ebffed80 	bl	8000a4c0 <USBEndpointSkipPID>
8000eebc:	e5940038 	ldr	r0, [r4, #56]	; 0x38
8000eec0:	e5941030 	ldr	r1, [r4, #48]	; 0x30
8000eec4:	e5943028 	ldr	r3, [r4, #40]	; 0x28
8000eec8:	e594202c 	ldr	r2, [r4, #44]	; 0x2c
8000eecc:	e0433000 	sub	r3, r3, r0
8000eed0:	e1530001 	cmp	r3, r1
8000eed4:	e0425005 	sub	r5, r2, r5
8000eed8:	e584502c 	str	r5, [r4, #44]	; 0x2c
8000eedc:	35843030 	strcc	r3, [r4, #48]	; 0x30
8000eee0:	e8bd8070 	pop	{r4, r5, r6, pc}
8000eee4:	e5942014 	ldr	r2, [r4, #20]
8000eee8:	e2920000 	adds	r0, r2, #0
8000eeec:	13a00001 	movne	r0, #1
8000eef0:	e3530000 	cmp	r3, #0
8000eef4:	13a00000 	movne	r0, #0
8000eef8:	e3500000 	cmp	r0, #0
8000eefc:	0a000009 	beq	8000ef28 <DWHCITransferStageDataTransactionComplete+0xc8>
8000ef00:	e3510000 	cmp	r1, #0
8000ef04:	15941024 	ldrne	r1, [r4, #36]	; 0x24
8000ef08:	10010591 	mulne	r1, r1, r5
8000ef0c:	e5942038 	ldr	r2, [r4, #56]	; 0x38
8000ef10:	e594304c 	ldr	r3, [r4, #76]	; 0x4c
8000ef14:	e0822001 	add	r2, r2, r1
8000ef18:	e0831001 	add	r1, r3, r1
8000ef1c:	e5842038 	str	r2, [r4, #56]	; 0x38
8000ef20:	e584104c 	str	r1, [r4, #76]	; 0x4c
8000ef24:	eaffffe0 	b	8000eeac <DWHCITransferStageDataTransactionComplete+0x4c>
8000ef28:	e5940038 	ldr	r0, [r4, #56]	; 0x38
8000ef2c:	e3520000 	cmp	r2, #0
8000ef30:	e594204c 	ldr	r2, [r4, #76]	; 0x4c
8000ef34:	e0830000 	add	r0, r3, r0
8000ef38:	e0823003 	add	r3, r2, r3
8000ef3c:	e5840038 	str	r0, [r4, #56]	; 0x38
8000ef40:	e584304c 	str	r3, [r4, #76]	; 0x4c
8000ef44:	0affffde 	beq	8000eec4 <DWHCITransferStageDataTransactionComplete+0x64>
8000ef48:	eaffffd7 	b	8000eeac <DWHCITransferStageDataTransactionComplete+0x4c>

8000ef4c <DWHCITransferStageDataSetSplitComplete>:
8000ef4c:	e5801014 	str	r1, [r0, #20]
8000ef50:	e12fff1e 	bx	lr

8000ef54 <DWHCITransferStageDataSetState>:
8000ef54:	e580103c 	str	r1, [r0, #60]	; 0x3c
8000ef58:	e12fff1e 	bx	lr

8000ef5c <DWHCITransferStageDataGetState>:
8000ef5c:	e590003c 	ldr	r0, [r0, #60]	; 0x3c
8000ef60:	e12fff1e 	bx	lr

8000ef64 <DWHCITransferStageDataSetSubState>:
8000ef64:	e5801040 	str	r1, [r0, #64]	; 0x40
8000ef68:	e12fff1e 	bx	lr

8000ef6c <DWHCITransferStageDataGetSubState>:
8000ef6c:	e5900040 	ldr	r0, [r0, #64]	; 0x40
8000ef70:	e12fff1e 	bx	lr

8000ef74 <DWHCITransferStageDataBeginSplitCycle>:
8000ef74:	e3a00001 	mov	r0, #1
8000ef78:	e12fff1e 	bx	lr

8000ef7c <DWHCITransferStageDataGetChannelNumber>:
8000ef7c:	e5900000 	ldr	r0, [r0]
8000ef80:	e12fff1e 	bx	lr

8000ef84 <DWHCITransferStageDataIsPeriodic>:
8000ef84:	e92d4010 	push	{r4, lr}
8000ef88:	e590001c 	ldr	r0, [r0, #28]
8000ef8c:	ebffed3d 	bl	8000a488 <USBEndpointGetType>
8000ef90:	e2400002 	sub	r0, r0, #2
8000ef94:	e3500001 	cmp	r0, #1
8000ef98:	83a00000 	movhi	r0, #0
8000ef9c:	93a00001 	movls	r0, #1
8000efa0:	e8bd8010 	pop	{r4, pc}

8000efa4 <DWHCITransferStageDataGetDeviceAddress>:
8000efa4:	e5900018 	ldr	r0, [r0, #24]
8000efa8:	ea00050b 	b	800103dc <USBDeviceGetAddress>

8000efac <DWHCITransferStageDataGetEndpointType>:
8000efac:	e92d4010 	push	{r4, lr}
8000efb0:	e590001c 	ldr	r0, [r0, #28]
8000efb4:	ebffed33 	bl	8000a488 <USBEndpointGetType>
8000efb8:	e3500001 	cmp	r0, #1
8000efbc:	0a000003 	beq	8000efd0 <DWHCITransferStageDataGetEndpointType+0x24>
8000efc0:	e3500002 	cmp	r0, #2
8000efc4:	03a00003 	moveq	r0, #3
8000efc8:	13a00000 	movne	r0, #0
8000efcc:	e8bd8010 	pop	{r4, pc}
8000efd0:	e3a00002 	mov	r0, #2
8000efd4:	e8bd8010 	pop	{r4, pc}

8000efd8 <DWHCITransferStageDataGetEndpointNumber>:
8000efd8:	e590001c 	ldr	r0, [r0, #28]
8000efdc:	eaffed27 	b	8000a480 <USBEndpointGetNumber>

8000efe0 <DWHCITransferStageDataGetMaxPacketSize>:
8000efe0:	e5900024 	ldr	r0, [r0, #36]	; 0x24
8000efe4:	e12fff1e 	bx	lr

8000efe8 <DWHCITransferStageDataGetSpeed>:
8000efe8:	e5900020 	ldr	r0, [r0, #32]
8000efec:	e12fff1e 	bx	lr

8000eff0 <DWHCITransferStageDataGetPID>:
8000eff0:	e590100c 	ldr	r1, [r0, #12]
8000eff4:	e92d4010 	push	{r4, lr}
8000eff8:	e590001c 	ldr	r0, [r0, #28]
8000effc:	ebffed2b 	bl	8000a4b0 <USBEndpointGetNextPID>
8000f000:	e3500000 	cmp	r0, #0
8000f004:	0a000003 	beq	8000f018 <DWHCITransferStageDataGetPID+0x28>
8000f008:	e3500002 	cmp	r0, #2
8000f00c:	03a00002 	moveq	r0, #2
8000f010:	13a00000 	movne	r0, #0
8000f014:	e8bd8010 	pop	{r4, pc}
8000f018:	e3a00003 	mov	r0, #3
8000f01c:	e8bd8010 	pop	{r4, pc}

8000f020 <DWHCITransferStageDataIsDirectionIn>:
8000f020:	e5900008 	ldr	r0, [r0, #8]
8000f024:	e12fff1e 	bx	lr

8000f028 <DWHCITransferStageDataIsStatusStage>:
8000f028:	e590000c 	ldr	r0, [r0, #12]
8000f02c:	e12fff1e 	bx	lr

8000f030 <DWHCITransferStageDataGetDMAAddress>:
8000f030:	e590004c 	ldr	r0, [r0, #76]	; 0x4c
8000f034:	e12fff1e 	bx	lr

8000f038 <DWHCITransferStageDataGetBytesToTransfer>:
8000f038:	e5900030 	ldr	r0, [r0, #48]	; 0x30
8000f03c:	e12fff1e 	bx	lr

8000f040 <DWHCITransferStageDataGetPacketsToTransfer>:
8000f040:	e5900034 	ldr	r0, [r0, #52]	; 0x34
8000f044:	e12fff1e 	bx	lr

8000f048 <DWHCITransferStageDataIsSplit>:
8000f048:	e5900010 	ldr	r0, [r0, #16]
8000f04c:	e12fff1e 	bx	lr

8000f050 <DWHCITransferStageDataIsSplitComplete>:
8000f050:	e5900014 	ldr	r0, [r0, #20]
8000f054:	e12fff1e 	bx	lr

8000f058 <DWHCITransferStageDataGetHubAddress>:
8000f058:	e5900018 	ldr	r0, [r0, #24]
8000f05c:	ea0004e2 	b	800103ec <USBDeviceGetHubAddress>

8000f060 <DWHCITransferStageDataGetHubPortAddress>:
8000f060:	e5900018 	ldr	r0, [r0, #24]
8000f064:	ea0004e2 	b	800103f4 <USBDeviceGetHubPortNumber>

8000f068 <DWHCITransferStageDataGetSplitPosition>:
8000f068:	e3a00003 	mov	r0, #3
8000f06c:	e12fff1e 	bx	lr

8000f070 <DWHCITransferStageDataGetStatusMask>:
8000f070:	e5903010 	ldr	r3, [r0, #16]
8000f074:	e3530000 	cmp	r3, #0
8000f078:	0a000001 	beq	8000f084 <DWHCITransferStageDataGetStatusMask+0x14>
8000f07c:	e30007ff 	movw	r0, #2047	; 0x7ff
8000f080:	e12fff1e 	bx	lr
8000f084:	e92d4010 	push	{r4, lr}
8000f088:	e590001c 	ldr	r0, [r0, #28]
8000f08c:	ebffecfd 	bl	8000a488 <USBEndpointGetType>
8000f090:	e2400002 	sub	r0, r0, #2
8000f094:	e3500001 	cmp	r0, #1
8000f098:	930007ff 	movwls	r0, #2047	; 0x7ff
8000f09c:	8300078f 	movwhi	r0, #1935	; 0x78f
8000f0a0:	e8bd8010 	pop	{r4, pc}

8000f0a4 <DWHCITransferStageDataGetTransactionStatus>:
8000f0a4:	e5900044 	ldr	r0, [r0, #68]	; 0x44
8000f0a8:	e12fff1e 	bx	lr

8000f0ac <DWHCITransferStageDataIsStageComplete>:
8000f0ac:	e590002c 	ldr	r0, [r0, #44]	; 0x2c
8000f0b0:	e16f0f10 	clz	r0, r0
8000f0b4:	e1a002a0 	lsr	r0, r0, #5
8000f0b8:	e12fff1e 	bx	lr

8000f0bc <DWHCITransferStageDataGetResultLen>:
8000f0bc:	e5902038 	ldr	r2, [r0, #56]	; 0x38
8000f0c0:	e5900028 	ldr	r0, [r0, #40]	; 0x28
8000f0c4:	e1520000 	cmp	r2, r0
8000f0c8:	31a00002 	movcc	r0, r2
8000f0cc:	e12fff1e 	bx	lr

8000f0d0 <DWHCITransferStageDataGetURB>:
8000f0d0:	e5900004 	ldr	r0, [r0, #4]
8000f0d4:	e12fff1e 	bx	lr

8000f0d8 <DWHCITransferStageDataGetFrameScheduler>:
8000f0d8:	e5900050 	ldr	r0, [r0, #80]	; 0x50
8000f0dc:	e12fff1e 	bx	lr

8000f0e0 <KeyMap>:
8000f0e0:	e3a02001 	mov	r2, #1
8000f0e4:	e3081464 	movw	r1, #33892	; 0x8464
8000f0e8:	e5802404 	str	r2, [r0, #1028]	; 0x404
8000f0ec:	e3a02000 	mov	r2, #0
8000f0f0:	e5802400 	str	r2, [r0, #1024]	; 0x400
8000f0f4:	e5802408 	str	r2, [r0, #1032]	; 0x408
8000f0f8:	e3a02b01 	mov	r2, #1024	; 0x400
8000f0fc:	e3481001 	movt	r1, #32769	; 0x8001
8000f100:	ea001370 	b	80013ec8 <uspi_memcpy>

8000f104 <_KeyMap>:
8000f104:	e12fff1e 	bx	lr

8000f108 <KeyMapClearTable>:
8000f108:	e3510003 	cmp	r1, #3
8000f10c:	8a000009 	bhi	8000f138 <KeyMapClearTable+0x30>
8000f110:	e1a02081 	lsl	r2, r1, #1
8000f114:	e3a01000 	mov	r1, #0
8000f118:	e0803002 	add	r3, r0, r2
8000f11c:	e2822b01 	add	r2, r2, #1024	; 0x400
8000f120:	e0802002 	add	r2, r0, r2
8000f124:	e0c310b8 	strh	r1, [r3], #8
8000f128:	e1530002 	cmp	r3, r2
8000f12c:	1afffffc 	bne	8000f124 <KeyMapClearTable+0x1c>
8000f130:	e3a00001 	mov	r0, #1
8000f134:	e12fff1e 	bx	lr
8000f138:	e3a00000 	mov	r0, #0
8000f13c:	e12fff1e 	bx	lr

8000f140 <KeyMapSetEntry>:
8000f140:	e6afc072 	sxtb	ip, r2
8000f144:	e35c0000 	cmp	ip, #0
8000f148:	c3a0c000 	movgt	ip, #0
8000f14c:	d3a0c001 	movle	ip, #1
8000f150:	e3510003 	cmp	r1, #3
8000f154:	838cc001 	orrhi	ip, ip, #1
8000f158:	e35c0000 	cmp	ip, #0
8000f15c:	1a000008 	bne	8000f184 <KeyMapSetEntry+0x44>
8000f160:	e52de004 	push	{lr}		; (str lr, [sp, #-4]!)
8000f164:	e300e132 	movw	lr, #306	; 0x132
8000f168:	e153000e 	cmp	r3, lr
8000f16c:	90811102 	addls	r1, r1, r2, lsl #2
8000f170:	93a0c001 	movls	ip, #1
8000f174:	91a01c11 	lslls	r1, r1, ip
8000f178:	918030b1 	strhls	r3, [r0, r1]
8000f17c:	e1a0000c 	mov	r0, ip
8000f180:	e49df004 	pop	{pc}		; (ldr pc, [sp], #4)
8000f184:	e3a0c000 	mov	ip, #0
8000f188:	e1a0000c 	mov	r0, ip
8000f18c:	e12fff1e 	bx	lr

8000f190 <KeyMapTranslate>:
8000f190:	e6af3071 	sxtb	r3, r1
8000f194:	e3530000 	cmp	r3, #0
8000f198:	da000023 	ble	8000f22c <KeyMapTranslate+0x9c>
8000f19c:	e1a03181 	lsl	r3, r1, #3
8000f1a0:	e19030b3 	ldrh	r3, [r0, r3]
8000f1a4:	e3530f42 	cmp	r3, #264	; 0x108
8000f1a8:	0a000022 	beq	8000f238 <KeyMapTranslate+0xa8>
8000f1ac:	e243cf43 	sub	ip, r3, #268	; 0x10c
8000f1b0:	e24cc003 	sub	ip, ip, #3
8000f1b4:	e35c000b 	cmp	ip, #11
8000f1b8:	8a000001 	bhi	8000f1c4 <KeyMapTranslate+0x34>
8000f1bc:	e3120004 	tst	r2, #4
8000f1c0:	1a000026 	bne	8000f260 <KeyMapTranslate+0xd0>
8000f1c4:	e312008c 	tst	r2, #140	; 0x8c
8000f1c8:	1a000017 	bne	8000f22c <KeyMapTranslate+0x9c>
8000f1cc:	e2413053 	sub	r3, r1, #83	; 0x53
8000f1d0:	e3530010 	cmp	r3, #16
8000f1d4:	9a00001d 	bls	8000f250 <KeyMapTranslate+0xc0>
8000f1d8:	e3120040 	tst	r2, #64	; 0x40
8000f1dc:	0a00002f 	beq	8000f2a0 <KeyMapTranslate+0x110>
8000f1e0:	e3120022 	tst	r2, #34	; 0x22
8000f1e4:	13a03003 	movne	r3, #3
8000f1e8:	03a03002 	moveq	r3, #2
8000f1ec:	e0831101 	add	r1, r3, r1, lsl #2
8000f1f0:	e300211e 	movw	r2, #286	; 0x11e
8000f1f4:	e1a01081 	lsl	r1, r1, #1
8000f1f8:	e19030b1 	ldrh	r3, [r0, r1]
8000f1fc:	e1530002 	cmp	r3, r2
8000f200:	0a000020 	beq	8000f288 <KeyMapTranslate+0xf8>
8000f204:	e3530e12 	cmp	r3, #288	; 0x120
8000f208:	0a000018 	beq	8000f270 <KeyMapTranslate+0xe0>
8000f20c:	e3530f47 	cmp	r3, #284	; 0x11c
8000f210:	1a000006 	bne	8000f230 <KeyMapTranslate+0xa0>
8000f214:	e5902400 	ldr	r2, [r0, #1024]	; 0x400
8000f218:	e3003133 	movw	r3, #307	; 0x133
8000f21c:	e16f2f12 	clz	r2, r2
8000f220:	e1a022a2 	lsr	r2, r2, #5
8000f224:	e5802400 	str	r2, [r0, #1024]	; 0x400
8000f228:	ea000000 	b	8000f230 <KeyMapTranslate+0xa0>
8000f22c:	e3a03000 	mov	r3, #0
8000f230:	e1a00003 	mov	r0, r3
8000f234:	e12fff1e 	bx	lr
8000f238:	e3120011 	tst	r2, #17
8000f23c:	0affffe0 	beq	8000f1c4 <KeyMapTranslate+0x34>
8000f240:	e3120004 	tst	r2, #4
8000f244:	13003142 	movwne	r3, #322	; 0x142
8000f248:	1afffff8 	bne	8000f230 <KeyMapTranslate+0xa0>
8000f24c:	eaffffdc 	b	8000f1c4 <KeyMapTranslate+0x34>
8000f250:	e5903404 	ldr	r3, [r0, #1028]	; 0x404
8000f254:	e2933000 	adds	r3, r3, #0
8000f258:	13a03001 	movne	r3, #1
8000f25c:	eaffffe2 	b	8000f1ec <KeyMapTranslate+0x5c>
8000f260:	e2833027 	add	r3, r3, #39	; 0x27
8000f264:	e6ff3073 	uxth	r3, r3
8000f268:	e1a00003 	mov	r0, r3
8000f26c:	e12fff1e 	bx	lr
8000f270:	e5902404 	ldr	r2, [r0, #1028]	; 0x404
8000f274:	e3a03f4d 	mov	r3, #308	; 0x134
8000f278:	e16f2f12 	clz	r2, r2
8000f27c:	e1a022a2 	lsr	r2, r2, #5
8000f280:	e5802404 	str	r2, [r0, #1028]	; 0x404
8000f284:	eaffffe9 	b	8000f230 <KeyMapTranslate+0xa0>
8000f288:	e5902408 	ldr	r2, [r0, #1032]	; 0x408
8000f28c:	e3003135 	movw	r3, #309	; 0x135
8000f290:	e16f2f12 	clz	r2, r2
8000f294:	e1a022a2 	lsr	r2, r2, #5
8000f298:	e5802408 	str	r2, [r0, #1032]	; 0x408
8000f29c:	eaffffe3 	b	8000f230 <KeyMapTranslate+0xa0>
8000f2a0:	e3120022 	tst	r2, #34	; 0x22
8000f2a4:	13a03001 	movne	r3, #1
8000f2a8:	03a03000 	moveq	r3, #0
8000f2ac:	eaffffce 	b	8000f1ec <KeyMapTranslate+0x5c>

8000f2b0 <KeyMapGetString>:
8000f2b0:	e241c021 	sub	ip, r1, #33	; 0x21
8000f2b4:	e52de004 	push	{lr}		; (str lr, [sp, #-4]!)
8000f2b8:	e6ffc07c 	uxth	ip, ip
8000f2bc:	e300e111 	movw	lr, #273	; 0x111
8000f2c0:	e15c000e 	cmp	ip, lr
8000f2c4:	8a000025 	bhi	8000f360 <KeyMapGetString+0xb0>
8000f2c8:	e241cc01 	sub	ip, r1, #256	; 0x100
8000f2cc:	e6ffe07c 	uxth	lr, ip
8000f2d0:	e35e0032 	cmp	lr, #50	; 0x32
8000f2d4:	9a00001c 	bls	8000f34c <KeyMapGetString+0x9c>
8000f2d8:	e3120011 	tst	r2, #17
8000f2dc:	e6ef1071 	uxtb	r1, r1
8000f2e0:	0a000008 	beq	8000f308 <KeyMapGetString+0x58>
8000f2e4:	e2412061 	sub	r2, r1, #97	; 0x61
8000f2e8:	e3520019 	cmp	r2, #25
8000f2ec:	8a00001b 	bhi	8000f360 <KeyMapGetString+0xb0>
8000f2f0:	e2411060 	sub	r1, r1, #96	; 0x60
8000f2f4:	e3a02000 	mov	r2, #0
8000f2f8:	e5c31000 	strb	r1, [r3]
8000f2fc:	e1a00003 	mov	r0, r3
8000f300:	e5c32001 	strb	r2, [r3, #1]
8000f304:	e49df004 	pop	{pc}		; (ldr pc, [sp], #4)
8000f308:	e5902400 	ldr	r2, [r0, #1024]	; 0x400
8000f30c:	e3520000 	cmp	r2, #0
8000f310:	0a000008 	beq	8000f338 <KeyMapGetString+0x88>
8000f314:	e2412041 	sub	r2, r1, #65	; 0x41
8000f318:	e3520019 	cmp	r2, #25
8000f31c:	92811020 	addls	r1, r1, #32
8000f320:	96ef1071 	uxtbls	r1, r1
8000f324:	9a000003 	bls	8000f338 <KeyMapGetString+0x88>
8000f328:	e2412061 	sub	r2, r1, #97	; 0x61
8000f32c:	e3520019 	cmp	r2, #25
8000f330:	92411020 	subls	r1, r1, #32
8000f334:	96ef1071 	uxtbls	r1, r1
8000f338:	e5c31000 	strb	r1, [r3]
8000f33c:	e3a02000 	mov	r2, #0
8000f340:	e5c32001 	strb	r2, [r3, #1]
8000f344:	e1a00003 	mov	r0, r3
8000f348:	e49df004 	pop	{pc}		; (ldr pc, [sp], #4)
8000f34c:	e3083464 	movw	r3, #33892	; 0x8464
8000f350:	e3483001 	movt	r3, #32769	; 0x8001
8000f354:	e083c10c 	add	ip, r3, ip, lsl #2
8000f358:	e59c0400 	ldr	r0, [ip, #1024]	; 0x400
8000f35c:	e49df004 	pop	{pc}		; (ldr pc, [sp], #4)
8000f360:	e3a00000 	mov	r0, #0
8000f364:	e49df004 	pop	{pc}		; (ldr pc, [sp], #4)

8000f368 <KeyMapGetLEDStatus>:
8000f368:	e5903400 	ldr	r3, [r0, #1024]	; 0x400
8000f36c:	e5902404 	ldr	r2, [r0, #1028]	; 0x404
8000f370:	e3530000 	cmp	r3, #0
8000f374:	13a03002 	movne	r3, #2
8000f378:	03a03000 	moveq	r3, #0
8000f37c:	e3520000 	cmp	r2, #0
8000f380:	e5902408 	ldr	r2, [r0, #1032]	; 0x408
8000f384:	13833001 	orrne	r3, r3, #1
8000f388:	e3520000 	cmp	r2, #0
8000f38c:	13833004 	orrne	r3, r3, #4
8000f390:	e1a00003 	mov	r0, r3
8000f394:	e12fff1e 	bx	lr

8000f398 <ideinit>:
8000f398:	e92d4010 	push	{r4, lr}
8000f39c:	e30a3850 	movw	r3, #43088	; 0xa850
8000f3a0:	e3483001 	movt	r3, #32769	; 0x8001
8000f3a4:	e30a4980 	movw	r4, #43392	; 0xa980
8000f3a8:	e3484009 	movt	r4, #32777	; 0x8009
8000f3ac:	e30a0850 	movw	r0, #43088	; 0xa850
8000f3b0:	e3480009 	movt	r0, #32777	; 0x8009
8000f3b4:	e3a01c02 	mov	r1, #512	; 0x200
8000f3b8:	e0400003 	sub	r0, r0, r3
8000f3bc:	e5843000 	str	r3, [r4]
8000f3c0:	eb000d57 	bl	80012924 <div>
8000f3c4:	e5840004 	str	r0, [r4, #4]
8000f3c8:	e8bd8010 	pop	{r4, pc}

8000f3cc <ideintr>:
8000f3cc:	e12fff1e 	bx	lr

8000f3d0 <iderw>:
8000f3d0:	e5903000 	ldr	r3, [r0]
8000f3d4:	e92d4010 	push	{r4, lr}
8000f3d8:	e3130001 	tst	r3, #1
8000f3dc:	0a00001b 	beq	8000f450 <iderw+0x80>
8000f3e0:	e2032006 	and	r2, r3, #6
8000f3e4:	e3520002 	cmp	r2, #2
8000f3e8:	0a000021 	beq	8000f474 <iderw+0xa4>
8000f3ec:	e5902004 	ldr	r2, [r0, #4]
8000f3f0:	e1a04000 	mov	r4, r0
8000f3f4:	e3520001 	cmp	r2, #1
8000f3f8:	1a00001a 	bne	8000f468 <iderw+0x98>
8000f3fc:	e5901008 	ldr	r1, [r0, #8]
8000f400:	e30a2980 	movw	r2, #43392	; 0xa980
8000f404:	e3482009 	movt	r2, #32777	; 0x8009
8000f408:	e5920004 	ldr	r0, [r2, #4]
8000f40c:	e1510000 	cmp	r1, r0
8000f410:	2a000011 	bcs	8000f45c <iderw+0x8c>
8000f414:	e5920000 	ldr	r0, [r2]
8000f418:	e3130004 	tst	r3, #4
8000f41c:	13c33004 	bicne	r3, r3, #4
8000f420:	13a02c02 	movne	r2, #512	; 0x200
8000f424:	e0800481 	add	r0, r0, r1, lsl #9
8000f428:	11a01004 	movne	r1, r4
8000f42c:	01a01000 	moveq	r1, r0
8000f430:	03a02c02 	moveq	r2, #512	; 0x200
8000f434:	14813018 	strne	r3, [r1], #24
8000f438:	02840018 	addeq	r0, r4, #24
8000f43c:	eb000cd3 	bl	80012790 <memmove>
8000f440:	e5943000 	ldr	r3, [r4]
8000f444:	e3833002 	orr	r3, r3, #2
8000f448:	e5843000 	str	r3, [r4]
8000f44c:	e8bd8010 	pop	{r4, pc}
8000f450:	e3080a00 	movw	r0, #35328	; 0x8a00
8000f454:	e3480001 	movt	r0, #32769	; 0x8001
8000f458:	ebfff2e9 	bl	8000c004 <panic>
8000f45c:	e3080a4c 	movw	r0, #35404	; 0x8a4c
8000f460:	e3480001 	movt	r0, #32769	; 0x8001
8000f464:	ebfff2e6 	bl	8000c004 <panic>
8000f468:	e3080a2c 	movw	r0, #35372	; 0x8a2c
8000f46c:	e3480001 	movt	r0, #32769	; 0x8001
8000f470:	ebfff2e3 	bl	8000c004 <panic>
8000f474:	e3080a14 	movw	r0, #35348	; 0x8a14
8000f478:	e3480001 	movt	r0, #32769	; 0x8001
8000f47c:	ebfff2e0 	bl	8000c004 <panic>

8000f480 <USPiInitialize>:
8000f480:	e92d43f0 	push	{r4, r5, r6, r7, r8, r9, lr}
8000f484:	e30a48bc 	movw	r4, #43196	; 0xa8bc
8000f488:	e3484009 	movt	r4, #32777	; 0x8009
8000f48c:	e24dd014 	sub	sp, sp, #20
8000f490:	e3a0008c 	mov	r0, #140	; 0x8c
8000f494:	e3a06000 	mov	r6, #0
8000f498:	eb000b6e 	bl	80012258 <malloc>
8000f49c:	e5840000 	str	r0, [r4]
8000f4a0:	eb001d99 	bl	80016b0c <DeviceNameService>
8000f4a4:	e5940000 	ldr	r0, [r4]
8000f4a8:	e2800004 	add	r0, r0, #4
8000f4ac:	eb001308 	bl	800140d4 <DWHCIDevice>
8000f4b0:	e5943000 	ldr	r3, [r4]
8000f4b4:	e5836070 	str	r6, [r3, #112]	; 0x70
8000f4b8:	e2830004 	add	r0, r3, #4
8000f4bc:	e5836074 	str	r6, [r3, #116]	; 0x74
8000f4c0:	eb0018eb 	bl	80015874 <DWHCIDeviceInitialize>
8000f4c4:	e2505000 	subs	r5, r0, #0
8000f4c8:	0a00005f 	beq	8000f64c <USPiInitialize+0x1cc>
8000f4cc:	e5947000 	ldr	r7, [r4]
8000f4d0:	eb001dd3 	bl	80016c24 <DeviceNameServiceGet>
8000f4d4:	e3081aa0 	movw	r1, #35488	; 0x8aa0
8000f4d8:	e1a02006 	mov	r2, r6
8000f4dc:	e3481001 	movt	r1, #32769	; 0x8001
8000f4e0:	e3089ab8 	movw	r9, #35512	; 0x8ab8
8000f4e4:	e3489001 	movt	r9, #32769	; 0x8001
8000f4e8:	eb001db8 	bl	80016bd0 <DeviceNameServiceGetDevice>
8000f4ec:	e5870058 	str	r0, [r7, #88]	; 0x58
8000f4f0:	e1a05006 	mov	r5, r6
8000f4f4:	e5947000 	ldr	r7, [r4]
8000f4f8:	eb001dc9 	bl	80016c24 <DeviceNameServiceGet>
8000f4fc:	e3081aa8 	movw	r1, #35496	; 0x8aa8
8000f500:	e1a02006 	mov	r2, r6
8000f504:	e3481001 	movt	r1, #32769	; 0x8001
8000f508:	eb001db0 	bl	80016bd0 <DeviceNameServiceGetDevice>
8000f50c:	e587005c 	str	r0, [r7, #92]	; 0x5c
8000f510:	e5947000 	ldr	r7, [r4]
8000f514:	eb001dc2 	bl	80016c24 <DeviceNameServiceGet>
8000f518:	e3081ab0 	movw	r1, #35504	; 0x8ab0
8000f51c:	e1a02006 	mov	r2, r6
8000f520:	e3481001 	movt	r1, #32769	; 0x8001
8000f524:	eb001da9 	bl	80016bd0 <DeviceNameServiceGetDevice>
8000f528:	e5870088 	str	r0, [r7, #136]	; 0x88
8000f52c:	e2856001 	add	r6, r5, #1
8000f530:	e28d0004 	add	r0, sp, #4
8000f534:	ebffe678 	bl	80008f1c <String>
8000f538:	e1a02006 	mov	r2, r6
8000f53c:	e1a01009 	mov	r1, r9
8000f540:	e28d0004 	add	r0, sp, #4
8000f544:	ebffe895 	bl	800097a0 <StringFormat>
8000f548:	e5947000 	ldr	r7, [r4]
8000f54c:	eb001db4 	bl	80016c24 <DeviceNameServiceGet>
8000f550:	e1a08000 	mov	r8, r0
8000f554:	e28d0004 	add	r0, sp, #4
8000f558:	ebffe689 	bl	80008f84 <StringGet>
8000f55c:	e1a01000 	mov	r1, r0
8000f560:	e3a02001 	mov	r2, #1
8000f564:	e1a00008 	mov	r0, r8
8000f568:	eb001d98 	bl	80016bd0 <DeviceNameServiceGetDevice>
8000f56c:	e2853018 	add	r3, r5, #24
8000f570:	e1a05006 	mov	r5, r6
8000f574:	e7870103 	str	r0, [r7, r3, lsl #2]
8000f578:	e28d0004 	add	r0, sp, #4
8000f57c:	ebffe676 	bl	80008f5c <_String>
8000f580:	e3560004 	cmp	r6, #4
8000f584:	1affffe8 	bne	8000f52c <USPiInitialize+0xac>
8000f588:	e5945000 	ldr	r5, [r4]
8000f58c:	eb001da4 	bl	80016c24 <DeviceNameServiceGet>
8000f590:	e3081ac0 	movw	r1, #35520	; 0x8ac0
8000f594:	e3a02000 	mov	r2, #0
8000f598:	e3481001 	movt	r1, #32769	; 0x8001
8000f59c:	e3089ad0 	movw	r9, #35536	; 0x8ad0
8000f5a0:	e3489001 	movt	r9, #32769	; 0x8001
8000f5a4:	eb001d89 	bl	80016bd0 <DeviceNameServiceGetDevice>
8000f5a8:	e5850070 	str	r0, [r5, #112]	; 0x70
8000f5ac:	e3a05000 	mov	r5, #0
8000f5b0:	e5946000 	ldr	r6, [r4]
8000f5b4:	eb001d9a 	bl	80016c24 <DeviceNameServiceGet>
8000f5b8:	e3081ac8 	movw	r1, #35528	; 0x8ac8
8000f5bc:	e1a02005 	mov	r2, r5
8000f5c0:	e3481001 	movt	r1, #32769	; 0x8001
8000f5c4:	eb001d81 	bl	80016bd0 <DeviceNameServiceGetDevice>
8000f5c8:	e5860074 	str	r0, [r6, #116]	; 0x74
8000f5cc:	e2856001 	add	r6, r5, #1
8000f5d0:	e28d0004 	add	r0, sp, #4
8000f5d4:	ebffe650 	bl	80008f1c <String>
8000f5d8:	e1a02006 	mov	r2, r6
8000f5dc:	e1a01009 	mov	r1, r9
8000f5e0:	e28d0004 	add	r0, sp, #4
8000f5e4:	ebffe86d 	bl	800097a0 <StringFormat>
8000f5e8:	e5947000 	ldr	r7, [r4]
8000f5ec:	eb001d8c 	bl	80016c24 <DeviceNameServiceGet>
8000f5f0:	e1a08000 	mov	r8, r0
8000f5f4:	e28d0004 	add	r0, sp, #4
8000f5f8:	ebffe661 	bl	80008f84 <StringGet>
8000f5fc:	e1a01000 	mov	r1, r0
8000f600:	e3a02000 	mov	r2, #0
8000f604:	e1a00008 	mov	r0, r8
8000f608:	eb001d70 	bl	80016bd0 <DeviceNameServiceGetDevice>
8000f60c:	e285301e 	add	r3, r5, #30
8000f610:	e1a05006 	mov	r5, r6
8000f614:	e7870103 	str	r0, [r7, r3, lsl #2]
8000f618:	e28d0004 	add	r0, sp, #4
8000f61c:	ebffe64e 	bl	80008f5c <_String>
8000f620:	e3560004 	cmp	r6, #4
8000f624:	1affffe8 	bne	8000f5cc <USPiInitialize+0x14c>
8000f628:	e3082ad8 	movw	r2, #35544	; 0x8ad8
8000f62c:	e3080a68 	movw	r0, #35432	; 0x8a68
8000f630:	e3482001 	movt	r2, #32769	; 0x8001
8000f634:	e1a01006 	mov	r1, r6
8000f638:	e3480001 	movt	r0, #32769	; 0x8001
8000f63c:	eb000b5f 	bl	800123c0 <LogWrite>
8000f640:	e3a00001 	mov	r0, #1
8000f644:	e28dd014 	add	sp, sp, #20
8000f648:	e8bd83f0 	pop	{r4, r5, r6, r7, r8, r9, pc}
8000f64c:	e3082a70 	movw	r2, #35440	; 0x8a70
8000f650:	e3080a68 	movw	r0, #35432	; 0x8a68
8000f654:	e3482001 	movt	r2, #32769	; 0x8001
8000f658:	e3a01001 	mov	r1, #1
8000f65c:	e3480001 	movt	r0, #32769	; 0x8001
8000f660:	eb000b56 	bl	800123c0 <LogWrite>
8000f664:	e5940000 	ldr	r0, [r4]
8000f668:	e2800004 	add	r0, r0, #4
8000f66c:	eb0012a8 	bl	80014114 <_DWHCIDevice>
8000f670:	e5940000 	ldr	r0, [r4]
8000f674:	eb001d2a 	bl	80016b24 <_DeviceNameService>
8000f678:	e5940000 	ldr	r0, [r4]
8000f67c:	eb000afc 	bl	80012274 <free>
8000f680:	e5845000 	str	r5, [r4]
8000f684:	e1a00005 	mov	r0, r5
8000f688:	e28dd014 	add	sp, sp, #20
8000f68c:	e8bd83f0 	pop	{r4, r5, r6, r7, r8, r9, pc}

8000f690 <USPiKeyboardAvailable>:
8000f690:	e30a38bc 	movw	r3, #43196	; 0xa8bc
8000f694:	e3483009 	movt	r3, #32777	; 0x8009
8000f698:	e5933000 	ldr	r3, [r3]
8000f69c:	e5930058 	ldr	r0, [r3, #88]	; 0x58
8000f6a0:	e2900000 	adds	r0, r0, #0
8000f6a4:	13a00001 	movne	r0, #1
8000f6a8:	e12fff1e 	bx	lr

8000f6ac <USPiKeyboardRegisterKeyPressedHandler>:
8000f6ac:	e30a38bc 	movw	r3, #43196	; 0xa8bc
8000f6b0:	e1a01000 	mov	r1, r0
8000f6b4:	e3483009 	movt	r3, #32777	; 0x8009
8000f6b8:	e5933000 	ldr	r3, [r3]
8000f6bc:	e5930058 	ldr	r0, [r3, #88]	; 0x58
8000f6c0:	ea001cc1 	b	800169cc <USBKeyboardDeviceRegisterKeyPressedHandler>

8000f6c4 <USPiKeyboardRegisterShutdownHandler>:
8000f6c4:	e30a38bc 	movw	r3, #43196	; 0xa8bc
8000f6c8:	e1a01000 	mov	r1, r0
8000f6cc:	e3483009 	movt	r3, #32777	; 0x8009
8000f6d0:	e5933000 	ldr	r3, [r3]
8000f6d4:	e5930058 	ldr	r0, [r3, #88]	; 0x58
8000f6d8:	ea001cbf 	b	800169dc <USBKeyboardDeviceRegisterShutdownHandler>

8000f6dc <USPiKeyboardRegisterKeyStatusHandlerRaw>:
8000f6dc:	e30a38bc 	movw	r3, #43196	; 0xa8bc
8000f6e0:	e1a01000 	mov	r1, r0
8000f6e4:	e3483009 	movt	r3, #32777	; 0x8009
8000f6e8:	e5933000 	ldr	r3, [r3]
8000f6ec:	e5930058 	ldr	r0, [r3, #88]	; 0x58
8000f6f0:	ea001cbb 	b	800169e4 <USBKeyboardDeviceRegisterKeyStatusHandlerRaw>

8000f6f4 <USPiMouseAvailable>:
8000f6f4:	e30a38bc 	movw	r3, #43196	; 0xa8bc
8000f6f8:	e3483009 	movt	r3, #32777	; 0x8009
8000f6fc:	e5933000 	ldr	r3, [r3]
8000f700:	e593005c 	ldr	r0, [r3, #92]	; 0x5c
8000f704:	e2900000 	adds	r0, r0, #0
8000f708:	13a00001 	movne	r0, #1
8000f70c:	e12fff1e 	bx	lr

8000f710 <USPiMouseRegisterStatusHandler>:
8000f710:	e30a38bc 	movw	r3, #43196	; 0xa8bc
8000f714:	e1a01000 	mov	r1, r0
8000f718:	e3483009 	movt	r3, #32777	; 0x8009
8000f71c:	e5933000 	ldr	r3, [r3]
8000f720:	e593005c 	ldr	r0, [r3, #92]	; 0x5c
8000f724:	ea000eaa 	b	800131d4 <USBMouseDeviceRegisterStatusHandler>

8000f728 <USPiMassStorageDeviceAvailable>:
8000f728:	e30a38bc 	movw	r3, #43196	; 0xa8bc
8000f72c:	e3a00000 	mov	r0, #0
8000f730:	e3483009 	movt	r3, #32777	; 0x8009
8000f734:	e5933000 	ldr	r3, [r3]
8000f738:	e2833060 	add	r3, r3, #96	; 0x60
8000f73c:	e4932004 	ldr	r2, [r3], #4
8000f740:	e3520000 	cmp	r2, #0
8000f744:	012fff1e 	bxeq	lr
8000f748:	e2800001 	add	r0, r0, #1
8000f74c:	e3500004 	cmp	r0, #4
8000f750:	1afffff9 	bne	8000f73c <USPiMassStorageDeviceAvailable+0x14>
8000f754:	e12fff1e 	bx	lr

8000f758 <USPiMassStorageDeviceRead>:
8000f758:	e92d47f0 	push	{r4, r5, r6, r7, r8, r9, sl, lr}
8000f75c:	e59dc020 	ldr	ip, [sp, #32]
8000f760:	e35c0003 	cmp	ip, #3
8000f764:	8a000016 	bhi	8000f7c4 <USPiMassStorageDeviceRead+0x6c>
8000f768:	e30a98bc 	movw	r9, #43196	; 0xa8bc
8000f76c:	e1a07001 	mov	r7, r1
8000f770:	e3489009 	movt	r9, #32777	; 0x8009
8000f774:	e28c8018 	add	r8, ip, #24
8000f778:	e1a06000 	mov	r6, r0
8000f77c:	e5991000 	ldr	r1, [r9]
8000f780:	e7910108 	ldr	r0, [r1, r8, lsl #2]
8000f784:	e3500000 	cmp	r0, #0
8000f788:	0a00000d 	beq	8000f7c4 <USPiMassStorageDeviceRead+0x6c>
8000f78c:	e1a05003 	mov	r5, r3
8000f790:	e1a04002 	mov	r4, r2
8000f794:	e1a03007 	mov	r3, r7
8000f798:	e1a02006 	mov	r2, r6
8000f79c:	eb000630 	bl	80011064 <USBBulkOnlyMassStorageDeviceSeek>
8000f7a0:	e1570001 	cmp	r7, r1
8000f7a4:	01560000 	cmpeq	r6, r0
8000f7a8:	1a000005 	bne	8000f7c4 <USPiMassStorageDeviceRead+0x6c>
8000f7ac:	e5993000 	ldr	r3, [r9]
8000f7b0:	e1a02005 	mov	r2, r5
8000f7b4:	e1a01004 	mov	r1, r4
8000f7b8:	e7930108 	ldr	r0, [r3, r8, lsl #2]
8000f7bc:	e8bd47f0 	pop	{r4, r5, r6, r7, r8, r9, sl, lr}
8000f7c0:	ea000888 	b	800119e8 <USBBulkOnlyMassStorageDeviceRead>
8000f7c4:	e3e00000 	mvn	r0, #0
8000f7c8:	e8bd87f0 	pop	{r4, r5, r6, r7, r8, r9, sl, pc}

8000f7cc <USPiMassStorageDeviceWrite>:
8000f7cc:	e92d47f0 	push	{r4, r5, r6, r7, r8, r9, sl, lr}
8000f7d0:	e59dc020 	ldr	ip, [sp, #32]
8000f7d4:	e35c0003 	cmp	ip, #3
8000f7d8:	8a000016 	bhi	8000f838 <USPiMassStorageDeviceWrite+0x6c>
8000f7dc:	e30a98bc 	movw	r9, #43196	; 0xa8bc
8000f7e0:	e1a07001 	mov	r7, r1
8000f7e4:	e3489009 	movt	r9, #32777	; 0x8009
8000f7e8:	e28c8018 	add	r8, ip, #24
8000f7ec:	e1a06000 	mov	r6, r0
8000f7f0:	e5991000 	ldr	r1, [r9]
8000f7f4:	e7910108 	ldr	r0, [r1, r8, lsl #2]
8000f7f8:	e3500000 	cmp	r0, #0
8000f7fc:	0a00000d 	beq	8000f838 <USPiMassStorageDeviceWrite+0x6c>
8000f800:	e1a05003 	mov	r5, r3
8000f804:	e1a04002 	mov	r4, r2
8000f808:	e1a03007 	mov	r3, r7
8000f80c:	e1a02006 	mov	r2, r6
8000f810:	eb000613 	bl	80011064 <USBBulkOnlyMassStorageDeviceSeek>
8000f814:	e1570001 	cmp	r7, r1
8000f818:	01560000 	cmpeq	r6, r0
8000f81c:	1a000005 	bne	8000f838 <USPiMassStorageDeviceWrite+0x6c>
8000f820:	e5993000 	ldr	r3, [r9]
8000f824:	e1a02005 	mov	r2, r5
8000f828:	e1a01004 	mov	r1, r4
8000f82c:	e7930108 	ldr	r0, [r3, r8, lsl #2]
8000f830:	e8bd47f0 	pop	{r4, r5, r6, r7, r8, r9, sl, lr}
8000f834:	ea000885 	b	80011a50 <USBBulkOnlyMassStorageDeviceWrite>
8000f838:	e3e00000 	mvn	r0, #0
8000f83c:	e8bd87f0 	pop	{r4, r5, r6, r7, r8, r9, sl, pc}

8000f840 <USPiMassStorageDeviceGetCapacity>:
8000f840:	e3500003 	cmp	r0, #3
8000f844:	8a000007 	bhi	8000f868 <USPiMassStorageDeviceGetCapacity+0x28>
8000f848:	e30a38bc 	movw	r3, #43196	; 0xa8bc
8000f84c:	e2800018 	add	r0, r0, #24
8000f850:	e3483009 	movt	r3, #32777	; 0x8009
8000f854:	e5933000 	ldr	r3, [r3]
8000f858:	e7930100 	ldr	r0, [r3, r0, lsl #2]
8000f85c:	e3500000 	cmp	r0, #0
8000f860:	0a000000 	beq	8000f868 <USPiMassStorageDeviceGetCapacity+0x28>
8000f864:	ea000602 	b	80011074 <USBBulkOnlyMassStorageDeviceGetCapacity>
8000f868:	e3a00000 	mov	r0, #0
8000f86c:	e12fff1e 	bx	lr

8000f870 <USPiEthernetAvailable>:
8000f870:	e30a38bc 	movw	r3, #43196	; 0xa8bc
8000f874:	e3483009 	movt	r3, #32777	; 0x8009
8000f878:	e5933000 	ldr	r3, [r3]
8000f87c:	e5932070 	ldr	r2, [r3, #112]	; 0x70
8000f880:	e3520000 	cmp	r2, #0
8000f884:	0a000001 	beq	8000f890 <USPiEthernetAvailable+0x20>
8000f888:	e3a00001 	mov	r0, #1
8000f88c:	e12fff1e 	bx	lr
8000f890:	e5930074 	ldr	r0, [r3, #116]	; 0x74
8000f894:	e2900000 	adds	r0, r0, #0
8000f898:	13a00001 	movne	r0, #1
8000f89c:	e12fff1e 	bx	lr

8000f8a0 <USPiGetMACAddress>:
8000f8a0:	e30a38bc 	movw	r3, #43196	; 0xa8bc
8000f8a4:	e3483009 	movt	r3, #32777	; 0x8009
8000f8a8:	e92d4010 	push	{r4, lr}
8000f8ac:	e1a04000 	mov	r4, r0
8000f8b0:	e5933000 	ldr	r3, [r3]
8000f8b4:	e5930074 	ldr	r0, [r3, #116]	; 0x74
8000f8b8:	e3500000 	cmp	r0, #0
8000f8bc:	0a000003 	beq	8000f8d0 <USPiGetMACAddress+0x30>
8000f8c0:	eb000e6e 	bl	80013280 <LAN7800DeviceGetMACAddress>
8000f8c4:	e1a01004 	mov	r1, r4
8000f8c8:	e8bd4010 	pop	{r4, lr}
8000f8cc:	ea00040d 	b	80010908 <MACAddressCopyTo>
8000f8d0:	e5930070 	ldr	r0, [r3, #112]	; 0x70
8000f8d4:	ebfffb28 	bl	8000e57c <SMSC951xDeviceGetMACAddress>
8000f8d8:	e1a01004 	mov	r1, r4
8000f8dc:	e8bd4010 	pop	{r4, lr}
8000f8e0:	ea000408 	b	80010908 <MACAddressCopyTo>

8000f8e4 <USPiSendFrame>:
8000f8e4:	e30a38bc 	movw	r3, #43196	; 0xa8bc
8000f8e8:	e1a0c000 	mov	ip, r0
8000f8ec:	e3483009 	movt	r3, #32777	; 0x8009
8000f8f0:	e92d4010 	push	{r4, lr}
8000f8f4:	e5933000 	ldr	r3, [r3]
8000f8f8:	e5930074 	ldr	r0, [r3, #116]	; 0x74
8000f8fc:	e3500000 	cmp	r0, #0
8000f900:	0a000005 	beq	8000f91c <USPiSendFrame+0x38>
8000f904:	e1a02001 	mov	r2, r1
8000f908:	e1a0100c 	mov	r1, ip
8000f90c:	eb000e5d 	bl	80013288 <LAN7800DeviceSendFrame>
8000f910:	e2900000 	adds	r0, r0, #0
8000f914:	13a00001 	movne	r0, #1
8000f918:	e8bd8010 	pop	{r4, pc}
8000f91c:	e5930070 	ldr	r0, [r3, #112]	; 0x70
8000f920:	e1a02001 	mov	r2, r1
8000f924:	e1a0100c 	mov	r1, ip
8000f928:	ebfffb15 	bl	8000e584 <SMSC951xDeviceSendFrame>
8000f92c:	e2900000 	adds	r0, r0, #0
8000f930:	13a00001 	movne	r0, #1
8000f934:	e8bd8010 	pop	{r4, pc}

8000f938 <USPiReceiveFrame>:
8000f938:	e30a38bc 	movw	r3, #43196	; 0xa8bc
8000f93c:	e1a0c000 	mov	ip, r0
8000f940:	e3483009 	movt	r3, #32777	; 0x8009
8000f944:	e92d4010 	push	{r4, lr}
8000f948:	e5933000 	ldr	r3, [r3]
8000f94c:	e5930074 	ldr	r0, [r3, #116]	; 0x74
8000f950:	e3500000 	cmp	r0, #0
8000f954:	0a000005 	beq	8000f970 <USPiReceiveFrame+0x38>
8000f958:	e1a02001 	mov	r2, r1
8000f95c:	e1a0100c 	mov	r1, ip
8000f960:	eb000e61 	bl	800132ec <LAN7800DeviceReceiveFrame>
8000f964:	e2900000 	adds	r0, r0, #0
8000f968:	13a00001 	movne	r0, #1
8000f96c:	e8bd8010 	pop	{r4, pc}
8000f970:	e5930070 	ldr	r0, [r3, #112]	; 0x70
8000f974:	e1a02001 	mov	r2, r1
8000f978:	e1a0100c 	mov	r1, ip
8000f97c:	ebfffb18 	bl	8000e5e4 <SMSC951xDeviceReceiveFrame>
8000f980:	e2900000 	adds	r0, r0, #0
8000f984:	13a00001 	movne	r0, #1
8000f988:	e8bd8010 	pop	{r4, pc}

8000f98c <USPiGamePadAvailable>:
8000f98c:	e30a38bc 	movw	r3, #43196	; 0xa8bc
8000f990:	e3a00000 	mov	r0, #0
8000f994:	e3483009 	movt	r3, #32777	; 0x8009
8000f998:	e5933000 	ldr	r3, [r3]
8000f99c:	e2833078 	add	r3, r3, #120	; 0x78
8000f9a0:	e4932004 	ldr	r2, [r3], #4
8000f9a4:	e3520000 	cmp	r2, #0
8000f9a8:	012fff1e 	bxeq	lr
8000f9ac:	e2800001 	add	r0, r0, #1
8000f9b0:	e3500004 	cmp	r0, #4
8000f9b4:	1afffff9 	bne	8000f9a0 <USPiGamePadAvailable+0x14>
8000f9b8:	e12fff1e 	bx	lr

8000f9bc <USPiGamePadRegisterStatusHandler>:
8000f9bc:	e92d4070 	push	{r4, r5, r6, lr}
8000f9c0:	e30a58bc 	movw	r5, #43196	; 0xa8bc
8000f9c4:	e3485009 	movt	r5, #32777	; 0x8009
8000f9c8:	e1a06000 	mov	r6, r0
8000f9cc:	e3a04000 	mov	r4, #0
8000f9d0:	e5953000 	ldr	r3, [r5]
8000f9d4:	e284201e 	add	r2, r4, #30
8000f9d8:	e1a01006 	mov	r1, r6
8000f9dc:	e2844001 	add	r4, r4, #1
8000f9e0:	e7930102 	ldr	r0, [r3, r2, lsl #2]
8000f9e4:	e3500000 	cmp	r0, #0
8000f9e8:	0a000000 	beq	8000f9f0 <USPiGamePadRegisterStatusHandler+0x34>
8000f9ec:	eb001f64 	bl	80017784 <USBGamePadDeviceRegisterStatusHandler>
8000f9f0:	e3540004 	cmp	r4, #4
8000f9f4:	1afffff5 	bne	8000f9d0 <USPiGamePadRegisterStatusHandler+0x14>
8000f9f8:	e8bd8070 	pop	{r4, r5, r6, pc}

8000f9fc <USPiGamePadGetStatus>:
8000f9fc:	e3500003 	cmp	r0, #3
8000fa00:	8a00000c 	bhi	8000fa38 <USPiGamePadGetStatus+0x3c>
8000fa04:	e92d4070 	push	{r4, r5, r6, lr}
8000fa08:	e30a58bc 	movw	r5, #43196	; 0xa8bc
8000fa0c:	e3485009 	movt	r5, #32777	; 0x8009
8000fa10:	e280401e 	add	r4, r0, #30
8000fa14:	e5953000 	ldr	r3, [r5]
8000fa18:	e7930104 	ldr	r0, [r3, r4, lsl #2]
8000fa1c:	e3500000 	cmp	r0, #0
8000fa20:	08bd8070 	popeq	{r4, r5, r6, pc}
8000fa24:	eb001f58 	bl	8001778c <USBGamePadDeviceGetReport>
8000fa28:	e5953000 	ldr	r3, [r5]
8000fa2c:	e7930104 	ldr	r0, [r3, r4, lsl #2]
8000fa30:	e280004c 	add	r0, r0, #76	; 0x4c
8000fa34:	e8bd8070 	pop	{r4, r5, r6, pc}
8000fa38:	e3a00000 	mov	r0, #0
8000fa3c:	e12fff1e 	bx	lr

8000fa40 <USPiMIDIAvailable>:
8000fa40:	e30a38bc 	movw	r3, #43196	; 0xa8bc
8000fa44:	e3483009 	movt	r3, #32777	; 0x8009
8000fa48:	e5933000 	ldr	r3, [r3]
8000fa4c:	e5930088 	ldr	r0, [r3, #136]	; 0x88
8000fa50:	e2900000 	adds	r0, r0, #0
8000fa54:	13a00001 	movne	r0, #1
8000fa58:	e12fff1e 	bx	lr

8000fa5c <USPiMIDIRegisterPacketHandler>:
8000fa5c:	e30a38bc 	movw	r3, #43196	; 0xa8bc
8000fa60:	e1a01000 	mov	r1, r0
8000fa64:	e3483009 	movt	r3, #32777	; 0x8009
8000fa68:	e5933000 	ldr	r3, [r3]
8000fa6c:	e5930088 	ldr	r0, [r3, #136]	; 0x88
8000fa70:	eaffec14 	b	8000aac8 <USBMIDIDeviceRegisterPacketHandler>

8000fa74 <USPiDeviceGetInformation>:
8000fa74:	e2400001 	sub	r0, r0, #1
8000fa78:	e92d4070 	push	{r4, r5, r6, lr}
8000fa7c:	e3500005 	cmp	r0, #5
8000fa80:	979ff100 	ldrls	pc, [pc, r0, lsl #2]
8000fa84:	ea000005 	b	8000faa0 <USPiDeviceGetInformation+0x2c>
8000fa88:	8000fb28 	.word	0x8000fb28
8000fa8c:	8000fb44 	.word	0x8000fb44
8000fa90:	8000fb60 	.word	0x8000fb60
8000fa94:	8000fb80 	.word	0x8000fb80
8000fa98:	8000fbac 	.word	0x8000fbac
8000fa9c:	8000faa8 	.word	0x8000faa8
8000faa0:	e3a00000 	mov	r0, #0
8000faa4:	e8bd8070 	pop	{r4, r5, r6, pc}
8000faa8:	e3510000 	cmp	r1, #0
8000faac:	1afffffb 	bne	8000faa0 <USPiDeviceGetInformation+0x2c>
8000fab0:	e30a38bc 	movw	r3, #43196	; 0xa8bc
8000fab4:	e3483009 	movt	r3, #32777	; 0x8009
8000fab8:	e5933000 	ldr	r3, [r3]
8000fabc:	e5935088 	ldr	r5, [r3, #136]	; 0x88
8000fac0:	e3550000 	cmp	r5, #0
8000fac4:	0afffff5 	beq	8000faa0 <USPiDeviceGetInformation+0x2c>
8000fac8:	e1a00005 	mov	r0, r5
8000facc:	e1a04002 	mov	r4, r2
8000fad0:	eb00024d 	bl	8001040c <USBDeviceGetDeviceDescriptor>
8000fad4:	e1a03000 	mov	r3, r0
8000fad8:	e2850024 	add	r0, r5, #36	; 0x24
8000fadc:	e5d31009 	ldrb	r1, [r3, #9]
8000fae0:	e5d32008 	ldrb	r2, [r3, #8]
8000fae4:	e1822401 	orr	r2, r2, r1, lsl #8
8000fae8:	e1c420b0 	strh	r2, [r4]
8000faec:	e5d3100b 	ldrb	r1, [r3, #11]
8000faf0:	e5d3200a 	ldrb	r2, [r3, #10]
8000faf4:	e1822401 	orr	r2, r2, r1, lsl #8
8000faf8:	e1c420b2 	strh	r2, [r4, #2]
8000fafc:	e5d3200c 	ldrb	r2, [r3, #12]
8000fb00:	e5d3300d 	ldrb	r3, [r3, #13]
8000fb04:	e1823403 	orr	r3, r2, r3, lsl #8
8000fb08:	e1c430b4 	strh	r3, [r4, #4]
8000fb0c:	eb00095b 	bl	80012080 <USBStringGet>
8000fb10:	e5840008 	str	r0, [r4, #8]
8000fb14:	e2850030 	add	r0, r5, #48	; 0x30
8000fb18:	eb000958 	bl	80012080 <USBStringGet>
8000fb1c:	e584000c 	str	r0, [r4, #12]
8000fb20:	e3a00001 	mov	r0, #1
8000fb24:	e8bd8070 	pop	{r4, r5, r6, pc}
8000fb28:	e3510000 	cmp	r1, #0
8000fb2c:	1affffdb 	bne	8000faa0 <USPiDeviceGetInformation+0x2c>
8000fb30:	e30a38bc 	movw	r3, #43196	; 0xa8bc
8000fb34:	e3483009 	movt	r3, #32777	; 0x8009
8000fb38:	e5933000 	ldr	r3, [r3]
8000fb3c:	e5935058 	ldr	r5, [r3, #88]	; 0x58
8000fb40:	eaffffde 	b	8000fac0 <USPiDeviceGetInformation+0x4c>
8000fb44:	e3510000 	cmp	r1, #0
8000fb48:	1affffd4 	bne	8000faa0 <USPiDeviceGetInformation+0x2c>
8000fb4c:	e30a38bc 	movw	r3, #43196	; 0xa8bc
8000fb50:	e3483009 	movt	r3, #32777	; 0x8009
8000fb54:	e5933000 	ldr	r3, [r3]
8000fb58:	e593505c 	ldr	r5, [r3, #92]	; 0x5c
8000fb5c:	eaffffd7 	b	8000fac0 <USPiDeviceGetInformation+0x4c>
8000fb60:	e3510003 	cmp	r1, #3
8000fb64:	8affffcd 	bhi	8000faa0 <USPiDeviceGetInformation+0x2c>
8000fb68:	e30a38bc 	movw	r3, #43196	; 0xa8bc
8000fb6c:	e2811018 	add	r1, r1, #24
8000fb70:	e3483009 	movt	r3, #32777	; 0x8009
8000fb74:	e5933000 	ldr	r3, [r3]
8000fb78:	e7935101 	ldr	r5, [r3, r1, lsl #2]
8000fb7c:	eaffffcf 	b	8000fac0 <USPiDeviceGetInformation+0x4c>
8000fb80:	e3510000 	cmp	r1, #0
8000fb84:	1affffc5 	bne	8000faa0 <USPiDeviceGetInformation+0x2c>
8000fb88:	e30a38bc 	movw	r3, #43196	; 0xa8bc
8000fb8c:	e3483009 	movt	r3, #32777	; 0x8009
8000fb90:	e5933000 	ldr	r3, [r3]
8000fb94:	e5930074 	ldr	r0, [r3, #116]	; 0x74
8000fb98:	e3500000 	cmp	r0, #0
8000fb9c:	05935070 	ldreq	r5, [r3, #112]	; 0x70
8000fba0:	0affffc6 	beq	8000fac0 <USPiDeviceGetInformation+0x4c>
8000fba4:	e1a05000 	mov	r5, r0
8000fba8:	eaffffc6 	b	8000fac8 <USPiDeviceGetInformation+0x54>
8000fbac:	e3510003 	cmp	r1, #3
8000fbb0:	8affffba 	bhi	8000faa0 <USPiDeviceGetInformation+0x2c>
8000fbb4:	e30a38bc 	movw	r3, #43196	; 0xa8bc
8000fbb8:	e281101e 	add	r1, r1, #30
8000fbbc:	e3483009 	movt	r3, #32777	; 0x8009
8000fbc0:	e5933000 	ldr	r3, [r3]
8000fbc4:	e7935101 	ldr	r5, [r3, r1, lsl #2]
8000fbc8:	eaffffbc 	b	8000fac0 <USPiDeviceGetInformation+0x4c>

8000fbcc <create_request>:
8000fbcc:	e52de004 	push	{lr}		; (str lr, [sp, #-4]!)
8000fbd0:	e59dc004 	ldr	ip, [sp, #4]
8000fbd4:	e3c33102 	bic	r3, r3, #-2147483648	; 0x80000000
8000fbd8:	e5801008 	str	r1, [r0, #8]
8000fbdc:	e35c0000 	cmp	ip, #0
8000fbe0:	e580200c 	str	r2, [r0, #12]
8000fbe4:	e1a0e122 	lsr	lr, r2, #2
8000fbe8:	e5803010 	str	r3, [r0, #16]
8000fbec:	0a000011 	beq	8000fc38 <create_request+0x6c>
8000fbf0:	e35e0000 	cmp	lr, #0
8000fbf4:	11a0300c 	movne	r3, ip
8000fbf8:	12802014 	addne	r2, r0, #20
8000fbfc:	1083c10e 	addne	ip, r3, lr, lsl #2
8000fc00:	0a000003 	beq	8000fc14 <create_request+0x48>
8000fc04:	e4931004 	ldr	r1, [r3], #4
8000fc08:	e153000c 	cmp	r3, ip
8000fc0c:	e4821004 	str	r1, [r2], #4
8000fc10:	1afffffb 	bne	8000fc04 <create_request+0x38>
8000fc14:	e1a0e10e 	lsl	lr, lr, #2
8000fc18:	e3a02000 	mov	r2, #0
8000fc1c:	e28ee014 	add	lr, lr, #20
8000fc20:	e780200e 	str	r2, [r0, lr]
8000fc24:	e590300c 	ldr	r3, [r0, #12]
8000fc28:	e2833018 	add	r3, r3, #24
8000fc2c:	e5803000 	str	r3, [r0]
8000fc30:	e5802004 	str	r2, [r0, #4]
8000fc34:	e49df004 	pop	{pc}		; (ldr pc, [sp], #4)
8000fc38:	e35e0000 	cmp	lr, #0
8000fc3c:	0afffff4 	beq	8000fc14 <create_request+0x48>
8000fc40:	e28e1005 	add	r1, lr, #5
8000fc44:	e1a0300c 	mov	r3, ip
8000fc48:	e2802014 	add	r2, r0, #20
8000fc4c:	e0801101 	add	r1, r0, r1, lsl #2
8000fc50:	e4823004 	str	r3, [r2], #4
8000fc54:	e1510002 	cmp	r1, r2
8000fc58:	1afffffc 	bne	8000fc50 <create_request+0x84>
8000fc5c:	eaffffec 	b	8000fc14 <create_request+0x48>

8000fc60 <mailboxinit>:
8000fc60:	e92d4010 	push	{r4, lr}
8000fc64:	eb001075 	bl	80013e40 <kalloc>
8000fc68:	e30d3420 	movw	r3, #54304	; 0xd420
8000fc6c:	e3483009 	movt	r3, #32777	; 0x8009
8000fc70:	e5830000 	str	r0, [r3]
8000fc74:	e8bd8010 	pop	{r4, pc}

8000fc78 <readmailbox>:
8000fc78:	e30b2898 	movw	r2, #47256	; 0xb898
8000fc7c:	e30bc880 	movw	ip, #47232	; 0xb880
8000fc80:	e34d2000 	movt	r2, #53248	; 0xd000
8000fc84:	e200000f 	and	r0, r0, #15
8000fc88:	e34dc000 	movt	ip, #53248	; 0xd000
8000fc8c:	e5923000 	ldr	r3, [r2]
8000fc90:	e3130101 	tst	r3, #1073741824	; 0x40000000
8000fc94:	1afffffc 	bne	8000fc8c <readmailbox+0x14>
8000fc98:	e59c3000 	ldr	r3, [ip]
8000fc9c:	e203100f 	and	r1, r3, #15
8000fca0:	e1510000 	cmp	r1, r0
8000fca4:	1afffff8 	bne	8000fc8c <readmailbox+0x14>
8000fca8:	e3c3000f 	bic	r0, r3, #15
8000fcac:	e12fff1e 	bx	lr

8000fcb0 <writemailbox>:
8000fcb0:	e2800101 	add	r0, r0, #1073741824	; 0x40000000
8000fcb4:	e201100f 	and	r1, r1, #15
8000fcb8:	e92d4010 	push	{r4, lr}
8000fcbc:	e3c0000f 	bic	r0, r0, #15
8000fcc0:	e1804001 	orr	r4, r0, r1
8000fcc4:	ebffe15b 	bl	80008238 <flush_dcache_all>
8000fcc8:	e30b2898 	movw	r2, #47256	; 0xb898
8000fccc:	e34d2000 	movt	r2, #53248	; 0xd000
8000fcd0:	e5923000 	ldr	r3, [r2]
8000fcd4:	e3530000 	cmp	r3, #0
8000fcd8:	bafffffc 	blt	8000fcd0 <writemailbox+0x20>
8000fcdc:	e30b38a0 	movw	r3, #47264	; 0xb8a0
8000fce0:	e34d3000 	movt	r3, #53248	; 0xd000
8000fce4:	e5834000 	str	r4, [r3]
8000fce8:	e8bd8010 	pop	{r4, pc}

8000fcec <uartinit_fvp>:
8000fcec:	e3a02000 	mov	r2, #0
8000fcf0:	e3a03010 	mov	r3, #16
8000fcf4:	e34d2009 	movt	r2, #53257	; 0xd009
8000fcf8:	e30d1424 	movw	r1, #54308	; 0xd424
8000fcfc:	e3481009 	movt	r1, #32777	; 0x8009
8000fd00:	e3a00000 	mov	r0, #0
8000fd04:	e5823038 	str	r3, [r2, #56]	; 0x38
8000fd08:	e5923030 	ldr	r3, [r2, #48]	; 0x30
8000fd0c:	e3833c03 	orr	r3, r3, #768	; 0x300
8000fd10:	e3833001 	orr	r3, r3, #1
8000fd14:	e5823030 	str	r3, [r2, #48]	; 0x30
8000fd18:	e5810000 	str	r0, [r1]
8000fd1c:	e12fff1e 	bx	lr

8000fd20 <uartputc_fvp>:
8000fd20:	e350000a 	cmp	r0, #10
8000fd24:	0a000006 	beq	8000fd44 <uartputc_fvp+0x24>
8000fd28:	e3a02000 	mov	r2, #0
8000fd2c:	e34d2009 	movt	r2, #53257	; 0xd009
8000fd30:	e5923018 	ldr	r3, [r2, #24]
8000fd34:	e3130020 	tst	r3, #32
8000fd38:	1afffffc 	bne	8000fd30 <uartputc_fvp+0x10>
8000fd3c:	e5820000 	str	r0, [r2]
8000fd40:	e12fff1e 	bx	lr
8000fd44:	e3a02000 	mov	r2, #0
8000fd48:	e34d2009 	movt	r2, #53257	; 0xd009
8000fd4c:	e5923018 	ldr	r3, [r2, #24]
8000fd50:	e3130020 	tst	r3, #32
8000fd54:	1afffffc 	bne	8000fd4c <uartputc_fvp+0x2c>
8000fd58:	e3a0300d 	mov	r3, #13
8000fd5c:	e5823000 	str	r3, [r2]
8000fd60:	eafffff0 	b	8000fd28 <uartputc_fvp+0x8>

8000fd64 <uartgetc_fvp>:
8000fd64:	e3a02000 	mov	r2, #0
8000fd68:	e34d2009 	movt	r2, #53257	; 0xd009
8000fd6c:	e5923018 	ldr	r3, [r2, #24]
8000fd70:	e3130010 	tst	r3, #16
8000fd74:	1afffffc 	bne	8000fd6c <uartgetc_fvp+0x8>
8000fd78:	e5920000 	ldr	r0, [r2]
8000fd7c:	e12fff1e 	bx	lr

8000fd80 <USBDeviceConfigure>:
8000fd80:	e590301c 	ldr	r3, [r0, #28]
8000fd84:	e92d4070 	push	{r4, r5, r6, lr}
8000fd88:	e3530000 	cmp	r3, #0
8000fd8c:	01a04003 	moveq	r4, r3
8000fd90:	0a000007 	beq	8000fdb4 <USBDeviceConfigure+0x34>
8000fd94:	e5901010 	ldr	r1, [r0, #16]
8000fd98:	e1a05000 	mov	r5, r0
8000fd9c:	e5d32005 	ldrb	r2, [r3, #5]
8000fda0:	e5900004 	ldr	r0, [r0, #4]
8000fda4:	eb0014db 	bl	80015118 <DWHCIDeviceSetConfiguration>
8000fda8:	e2504000 	subs	r4, r0, #0
8000fdac:	13a04001 	movne	r4, #1
8000fdb0:	0a000001 	beq	8000fdbc <USBDeviceConfigure+0x3c>
8000fdb4:	e1a00004 	mov	r0, r4
8000fdb8:	e8bd8070 	pop	{r4, r5, r6, pc}
8000fdbc:	e595301c 	ldr	r3, [r5, #28]
8000fdc0:	e3082b08 	movw	r2, #35592	; 0x8b08
8000fdc4:	e3482001 	movt	r2, #32769	; 0x8001
8000fdc8:	e3080b00 	movw	r0, #35584	; 0x8b00
8000fdcc:	e5d33005 	ldrb	r3, [r3, #5]
8000fdd0:	e3a01001 	mov	r1, #1
8000fdd4:	e3480001 	movt	r0, #32769	; 0x8001
8000fdd8:	eb000978 	bl	800123c0 <LogWrite>
8000fddc:	e1a00004 	mov	r0, r4
8000fde0:	e8bd8070 	pop	{r4, r5, r6, pc}

8000fde4 <USBDevice>:
8000fde4:	e92d4010 	push	{r4, lr}
8000fde8:	e30fcd80 	movw	ip, #64896	; 0xfd80
8000fdec:	e5dde008 	ldrb	lr, [sp, #8]
8000fdf0:	e1a04000 	mov	r4, r0
8000fdf4:	e5801004 	str	r1, [r0, #4]
8000fdf8:	e3a01000 	mov	r1, #0
8000fdfc:	e348c000 	movt	ip, #32768	; 0x8000
8000fe00:	e580200c 	str	r2, [r0, #12]
8000fe04:	e3a0001c 	mov	r0, #28
8000fe08:	e5c43014 	strb	r3, [r4, #20]
8000fe0c:	e584c000 	str	ip, [r4]
8000fe10:	e5c4e015 	strb	lr, [r4, #21]
8000fe14:	e5c41008 	strb	r1, [r4, #8]
8000fe18:	e5841010 	str	r1, [r4, #16]
8000fe1c:	e5841018 	str	r1, [r4, #24]
8000fe20:	e584101c 	str	r1, [r4, #28]
8000fe24:	e5841020 	str	r1, [r4, #32]
8000fe28:	eb00090a 	bl	80012258 <malloc>
8000fe2c:	e5840010 	str	r0, [r4, #16]
8000fe30:	e1a01004 	mov	r1, r4
8000fe34:	ebffe936 	bl	8000a314 <USBEndpoint>
8000fe38:	e1a01004 	mov	r1, r4
8000fe3c:	e2840024 	add	r0, r4, #36	; 0x24
8000fe40:	eb0007f0 	bl	80011e08 <USBString>
8000fe44:	e1a01004 	mov	r1, r4
8000fe48:	e2840030 	add	r0, r4, #48	; 0x30
8000fe4c:	e8bd4010 	pop	{r4, lr}
8000fe50:	ea0007ec 	b	80011e08 <USBString>

8000fe54 <USBDeviceCopy>:
8000fe54:	e92d4070 	push	{r4, r5, r6, lr}
8000fe58:	e1a04000 	mov	r4, r0
8000fe5c:	e5912004 	ldr	r2, [r1, #4]
8000fe60:	e1a05001 	mov	r5, r1
8000fe64:	e5910000 	ldr	r0, [r1]
8000fe68:	e3a03000 	mov	r3, #0
8000fe6c:	e5842004 	str	r2, [r4, #4]
8000fe70:	e2811024 	add	r1, r1, #36	; 0x24
8000fe74:	e5840000 	str	r0, [r4]
8000fe78:	e2840024 	add	r0, r4, #36	; 0x24
8000fe7c:	e5843010 	str	r3, [r4, #16]
8000fe80:	e5843018 	str	r3, [r4, #24]
8000fe84:	e584301c 	str	r3, [r4, #28]
8000fe88:	e5843020 	str	r3, [r4, #32]
8000fe8c:	e5d53008 	ldrb	r3, [r5, #8]
8000fe90:	e5c43008 	strb	r3, [r4, #8]
8000fe94:	e595300c 	ldr	r3, [r5, #12]
8000fe98:	e584300c 	str	r3, [r4, #12]
8000fe9c:	e5d53014 	ldrb	r3, [r5, #20]
8000fea0:	e5c43014 	strb	r3, [r4, #20]
8000fea4:	e5d53015 	ldrb	r3, [r5, #21]
8000fea8:	e5c43015 	strb	r3, [r4, #21]
8000feac:	eb0007df 	bl	80011e30 <USBStringCopy>
8000feb0:	e2851030 	add	r1, r5, #48	; 0x30
8000feb4:	e2840030 	add	r0, r4, #48	; 0x30
8000feb8:	eb0007dc 	bl	80011e30 <USBStringCopy>
8000febc:	e3a0001c 	mov	r0, #28
8000fec0:	eb0008e4 	bl	80012258 <malloc>
8000fec4:	e5840010 	str	r0, [r4, #16]
8000fec8:	e1a02004 	mov	r2, r4
8000fecc:	e5951010 	ldr	r1, [r5, #16]
8000fed0:	ebffe956 	bl	8000a430 <USBEndpointCopy>
8000fed4:	e5953018 	ldr	r3, [r5, #24]
8000fed8:	e3530000 	cmp	r3, #0
8000fedc:	0a000005 	beq	8000fef8 <USBDeviceCopy+0xa4>
8000fee0:	e3a00012 	mov	r0, #18
8000fee4:	eb0008db 	bl	80012258 <malloc>
8000fee8:	e5840018 	str	r0, [r4, #24]
8000feec:	e3a02012 	mov	r2, #18
8000fef0:	e5951018 	ldr	r1, [r5, #24]
8000fef4:	eb000ff3 	bl	80013ec8 <uspi_memcpy>
8000fef8:	e595301c 	ldr	r3, [r5, #28]
8000fefc:	e3530000 	cmp	r3, #0
8000ff00:	08bd8070 	popeq	{r4, r5, r6, pc}
8000ff04:	e1d360b2 	ldrh	r6, [r3, #2]
8000ff08:	e1a00006 	mov	r0, r6
8000ff0c:	eb0008d1 	bl	80012258 <malloc>
8000ff10:	e584001c 	str	r0, [r4, #28]
8000ff14:	e1a02006 	mov	r2, r6
8000ff18:	e595101c 	ldr	r1, [r5, #28]
8000ff1c:	eb000fe9 	bl	80013ec8 <uspi_memcpy>
8000ff20:	e5953020 	ldr	r3, [r5, #32]
8000ff24:	e3530000 	cmp	r3, #0
8000ff28:	08bd8070 	popeq	{r4, r5, r6, pc}
8000ff2c:	e3a00018 	mov	r0, #24
8000ff30:	eb0008c8 	bl	80012258 <malloc>
8000ff34:	e5840020 	str	r0, [r4, #32]
8000ff38:	e1a02006 	mov	r2, r6
8000ff3c:	e594101c 	ldr	r1, [r4, #28]
8000ff40:	e8bd4070 	pop	{r4, r5, r6, lr}
8000ff44:	eafff1d1 	b	8000c690 <USBConfigurationParser>

8000ff48 <_USBDevice>:
8000ff48:	e92d4010 	push	{r4, lr}
8000ff4c:	e1a04000 	mov	r4, r0
8000ff50:	e5900020 	ldr	r0, [r0, #32]
8000ff54:	e3500000 	cmp	r0, #0
8000ff58:	0a000004 	beq	8000ff70 <_USBDevice+0x28>
8000ff5c:	ebfff20f 	bl	8000c7a0 <_USBConfigurationParser>
8000ff60:	e5940020 	ldr	r0, [r4, #32]
8000ff64:	eb0008c2 	bl	80012274 <free>
8000ff68:	e3a03000 	mov	r3, #0
8000ff6c:	e5843020 	str	r3, [r4, #32]
8000ff70:	e594001c 	ldr	r0, [r4, #28]
8000ff74:	e3500000 	cmp	r0, #0
8000ff78:	0a000002 	beq	8000ff88 <_USBDevice+0x40>
8000ff7c:	eb0008bc 	bl	80012274 <free>
8000ff80:	e3a03000 	mov	r3, #0
8000ff84:	e584301c 	str	r3, [r4, #28]
8000ff88:	e5940018 	ldr	r0, [r4, #24]
8000ff8c:	e3500000 	cmp	r0, #0
8000ff90:	0a000002 	beq	8000ffa0 <_USBDevice+0x58>
8000ff94:	eb0008b6 	bl	80012274 <free>
8000ff98:	e3a03000 	mov	r3, #0
8000ff9c:	e5843018 	str	r3, [r4, #24]
8000ffa0:	e5940010 	ldr	r0, [r4, #16]
8000ffa4:	e3500000 	cmp	r0, #0
8000ffa8:	0a000004 	beq	8000ffc0 <_USBDevice+0x78>
8000ffac:	ebffe92e 	bl	8000a46c <_USBEndpoint>
8000ffb0:	e5940010 	ldr	r0, [r4, #16]
8000ffb4:	eb0008ae 	bl	80012274 <free>
8000ffb8:	e3a03000 	mov	r3, #0
8000ffbc:	e5843010 	str	r3, [r4, #16]
8000ffc0:	e3a03000 	mov	r3, #0
8000ffc4:	e2840030 	add	r0, r4, #48	; 0x30
8000ffc8:	e5843000 	str	r3, [r4]
8000ffcc:	e5843004 	str	r3, [r4, #4]
8000ffd0:	eb0007b0 	bl	80011e98 <_USBString>
8000ffd4:	e2840024 	add	r0, r4, #36	; 0x24
8000ffd8:	e8bd4010 	pop	{r4, lr}
8000ffdc:	ea0007ad 	b	80011e98 <_USBString>

8000ffe0 <USBDeviceInitialize>:
8000ffe0:	e92d40f0 	push	{r4, r5, r6, r7, lr}
8000ffe4:	e1a04000 	mov	r4, r0
8000ffe8:	e24dd014 	sub	sp, sp, #20
8000ffec:	e3a00012 	mov	r0, #18
8000fff0:	e3a05080 	mov	r5, #128	; 0x80
8000fff4:	eb000897 	bl	80012258 <malloc>
8000fff8:	e5941010 	ldr	r1, [r4, #16]
8000fffc:	e1a03000 	mov	r3, r0
80010000:	e5843018 	str	r3, [r4, #24]
80010004:	e3a02008 	mov	r2, #8
80010008:	e5940004 	ldr	r0, [r4, #4]
8001000c:	e58d3000 	str	r3, [sp]
80010010:	e3a03000 	mov	r3, #0
80010014:	e58d2004 	str	r2, [sp, #4]
80010018:	e3a02001 	mov	r2, #1
8001001c:	e58d5008 	str	r5, [sp, #8]
80010020:	eb00141a 	bl	80015090 <DWHCIDeviceGetDescriptor>
80010024:	e3500008 	cmp	r0, #8
80010028:	1a000013 	bne	8001007c <USBDeviceInitialize+0x9c>
8001002c:	e5943018 	ldr	r3, [r4, #24]
80010030:	e5d36000 	ldrb	r6, [r3]
80010034:	e3560012 	cmp	r6, #18
80010038:	1a000002 	bne	80010048 <USBDeviceInitialize+0x68>
8001003c:	e5d37001 	ldrb	r7, [r3, #1]
80010040:	e3570001 	cmp	r7, #1
80010044:	0a000010 	beq	8001008c <USBDeviceInitialize+0xac>
80010048:	e3082b50 	movw	r2, #35664	; 0x8b50
8001004c:	e3080b00 	movw	r0, #35584	; 0x8b00
80010050:	e3482001 	movt	r2, #32769	; 0x8001
80010054:	e3480001 	movt	r0, #32769	; 0x8001
80010058:	e3a01001 	mov	r1, #1
8001005c:	e3a05000 	mov	r5, #0
80010060:	eb0008d6 	bl	800123c0 <LogWrite>
80010064:	e5940018 	ldr	r0, [r4, #24]
80010068:	eb000881 	bl	80012274 <free>
8001006c:	e5845018 	str	r5, [r4, #24]
80010070:	e1a00005 	mov	r0, r5
80010074:	e28dd014 	add	sp, sp, #20
80010078:	e8bd80f0 	pop	{r4, r5, r6, r7, pc}
8001007c:	e3082b28 	movw	r2, #35624	; 0x8b28
80010080:	e3080b00 	movw	r0, #35584	; 0x8b00
80010084:	e3482001 	movt	r2, #32769	; 0x8001
80010088:	eafffff1 	b	80010054 <USBDeviceInitialize+0x74>
8001008c:	e5d31007 	ldrb	r1, [r3, #7]
80010090:	e5940010 	ldr	r0, [r4, #16]
80010094:	ebffe8ff 	bl	8000a498 <USBEndpointSetMaxPacketSize>
80010098:	e5941010 	ldr	r1, [r4, #16]
8001009c:	e3a03000 	mov	r3, #0
800100a0:	e5940004 	ldr	r0, [r4, #4]
800100a4:	e1a02007 	mov	r2, r7
800100a8:	e58d5008 	str	r5, [sp, #8]
800100ac:	e594c018 	ldr	ip, [r4, #24]
800100b0:	e58d6004 	str	r6, [sp, #4]
800100b4:	e58dc000 	str	ip, [sp]
800100b8:	eb0013f4 	bl	80015090 <DWHCIDeviceGetDescriptor>
800100bc:	e3500012 	cmp	r0, #18
800100c0:	1a000041 	bne	800101cc <USBDeviceInitialize+0x1ec>
800100c4:	e30a28c0 	movw	r2, #43200	; 0xa8c0
800100c8:	e3482009 	movt	r2, #32777	; 0x8009
800100cc:	e5d26000 	ldrb	r6, [r2]
800100d0:	e3160080 	tst	r6, #128	; 0x80
800100d4:	e2863001 	add	r3, r6, #1
800100d8:	e5c23000 	strb	r3, [r2]
800100dc:	1a000042 	bne	800101ec <USBDeviceInitialize+0x20c>
800100e0:	e5941010 	ldr	r1, [r4, #16]
800100e4:	e1a02006 	mov	r2, r6
800100e8:	e5940004 	ldr	r0, [r4, #4]
800100ec:	eb0013f7 	bl	800150d0 <DWHCIDeviceSetAddress>
800100f0:	e2505000 	subs	r5, r0, #0
800100f4:	0a000044 	beq	8001020c <USBDeviceInitialize+0x22c>
800100f8:	e5943018 	ldr	r3, [r4, #24]
800100fc:	e5c46008 	strb	r6, [r4, #8]
80010100:	e5d3200e 	ldrb	r2, [r3, #14]
80010104:	e3520000 	cmp	r2, #0
80010108:	1a000002 	bne	80010118 <USBDeviceInitialize+0x138>
8001010c:	e5d3300f 	ldrb	r3, [r3, #15]
80010110:	e3530000 	cmp	r3, #0
80010114:	0a00000a 	beq	80010144 <USBDeviceInitialize+0x164>
80010118:	e2845024 	add	r5, r4, #36	; 0x24
8001011c:	e1a00005 	mov	r0, r5
80010120:	eb0007d8 	bl	80012088 <USBStringGetLanguageID>
80010124:	e5943018 	ldr	r3, [r4, #24]
80010128:	e1a06000 	mov	r6, r0
8001012c:	e5d3100e 	ldrb	r1, [r3, #14]
80010130:	e3510000 	cmp	r1, #0
80010134:	1a000040 	bne	8001023c <USBDeviceInitialize+0x25c>
80010138:	e5d3100f 	ldrb	r1, [r3, #15]
8001013c:	e3510000 	cmp	r1, #0
80010140:	1a000039 	bne	8001022c <USBDeviceInitialize+0x24c>
80010144:	e3a00009 	mov	r0, #9
80010148:	e3a05080 	mov	r5, #128	; 0x80
8001014c:	eb000841 	bl	80012258 <malloc>
80010150:	e5941010 	ldr	r1, [r4, #16]
80010154:	e1a02000 	mov	r2, r0
80010158:	e584201c 	str	r2, [r4, #28]
8001015c:	e3a0c009 	mov	ip, #9
80010160:	e5940004 	ldr	r0, [r4, #4]
80010164:	e3a03000 	mov	r3, #0
80010168:	e58d2000 	str	r2, [sp]
8001016c:	e3a02002 	mov	r2, #2
80010170:	e58d5008 	str	r5, [sp, #8]
80010174:	e58dc004 	str	ip, [sp, #4]
80010178:	eb0013c4 	bl	80015090 <DWHCIDeviceGetDescriptor>
8001017c:	e3500009 	cmp	r0, #9
80010180:	1a000015 	bne	800101dc <USBDeviceInitialize+0x1fc>
80010184:	e594001c 	ldr	r0, [r4, #28]
80010188:	e5d03000 	ldrb	r3, [r0]
8001018c:	e3530009 	cmp	r3, #9
80010190:	1a000002 	bne	800101a0 <USBDeviceInitialize+0x1c0>
80010194:	e5d06001 	ldrb	r6, [r0, #1]
80010198:	e3560002 	cmp	r6, #2
8001019c:	0a00002b 	beq	80010250 <USBDeviceInitialize+0x270>
800101a0:	e3082be4 	movw	r2, #35812	; 0x8be4
800101a4:	e3080b00 	movw	r0, #35584	; 0x8b00
800101a8:	e3482001 	movt	r2, #32769	; 0x8001
800101ac:	e3480001 	movt	r0, #32769	; 0x8001
800101b0:	e3a01001 	mov	r1, #1
800101b4:	e3a05000 	mov	r5, #0
800101b8:	eb000880 	bl	800123c0 <LogWrite>
800101bc:	e594001c 	ldr	r0, [r4, #28]
800101c0:	eb00082b 	bl	80012274 <free>
800101c4:	e584501c 	str	r5, [r4, #28]
800101c8:	eaffffa8 	b	80010070 <USBDeviceInitialize+0x90>
800101cc:	e3082b6c 	movw	r2, #35692	; 0x8b6c
800101d0:	e3080b00 	movw	r0, #35584	; 0x8b00
800101d4:	e3482001 	movt	r2, #32769	; 0x8001
800101d8:	eaffff9d 	b	80010054 <USBDeviceInitialize+0x74>
800101dc:	e3082bb8 	movw	r2, #35768	; 0x8bb8
800101e0:	e3080b00 	movw	r0, #35584	; 0x8b00
800101e4:	e3482001 	movt	r2, #32769	; 0x8001
800101e8:	eaffffef 	b	800101ac <USBDeviceInitialize+0x1cc>
800101ec:	e3082b8c 	movw	r2, #35724	; 0x8b8c
800101f0:	e3080b00 	movw	r0, #35584	; 0x8b00
800101f4:	e3482001 	movt	r2, #32769	; 0x8001
800101f8:	e1a01007 	mov	r1, r7
800101fc:	e3480001 	movt	r0, #32769	; 0x8001
80010200:	e3a05000 	mov	r5, #0
80010204:	eb00086d 	bl	800123c0 <LogWrite>
80010208:	eaffff98 	b	80010070 <USBDeviceInitialize+0x90>
8001020c:	e3082ba0 	movw	r2, #35744	; 0x8ba0
80010210:	e3080b00 	movw	r0, #35584	; 0x8b00
80010214:	e3482001 	movt	r2, #32769	; 0x8001
80010218:	e1a03006 	mov	r3, r6
8001021c:	e3480001 	movt	r0, #32769	; 0x8001
80010220:	e1a01007 	mov	r1, r7
80010224:	eb000865 	bl	800123c0 <LogWrite>
80010228:	eaffff90 	b	80010070 <USBDeviceInitialize+0x90>
8001022c:	e1a02006 	mov	r2, r6
80010230:	e2840030 	add	r0, r4, #48	; 0x30
80010234:	eb000727 	bl	80011ed8 <USBStringGetFromDescriptor>
80010238:	eaffffc1 	b	80010144 <USBDeviceInitialize+0x164>
8001023c:	e1a00005 	mov	r0, r5
80010240:	e1a02006 	mov	r2, r6
80010244:	eb000723 	bl	80011ed8 <USBStringGetFromDescriptor>
80010248:	e5943018 	ldr	r3, [r4, #24]
8001024c:	eaffffb9 	b	80010138 <USBDeviceInitialize+0x158>
80010250:	e1d070b2 	ldrh	r7, [r0, #2]
80010254:	e3570c02 	cmp	r7, #512	; 0x200
80010258:	8affffd0 	bhi	800101a0 <USBDeviceInitialize+0x1c0>
8001025c:	eb000804 	bl	80012274 <free>
80010260:	e1a00007 	mov	r0, r7
80010264:	eb0007fb 	bl	80012258 <malloc>
80010268:	e594c004 	ldr	ip, [r4, #4]
8001026c:	e1a02006 	mov	r2, r6
80010270:	e584001c 	str	r0, [r4, #28]
80010274:	e3a03000 	mov	r3, #0
80010278:	e5941010 	ldr	r1, [r4, #16]
8001027c:	e58d0000 	str	r0, [sp]
80010280:	e1a0000c 	mov	r0, ip
80010284:	e58d5008 	str	r5, [sp, #8]
80010288:	e58d7004 	str	r7, [sp, #4]
8001028c:	eb00137f 	bl	80015090 <DWHCIDeviceGetDescriptor>
80010290:	e1500007 	cmp	r0, r7
80010294:	e1a05000 	mov	r5, r0
80010298:	13082c08 	movwne	r2, #35848	; 0x8c08
8001029c:	13080b00 	movwne	r0, #35584	; 0x8b00
800102a0:	13482001 	movtne	r2, #32769	; 0x8001
800102a4:	1affffc0 	bne	800101ac <USBDeviceInitialize+0x1cc>
800102a8:	e3a00018 	mov	r0, #24
800102ac:	eb0007e9 	bl	80012258 <malloc>
800102b0:	e5840020 	str	r0, [r4, #32]
800102b4:	e1a02005 	mov	r2, r5
800102b8:	e594101c 	ldr	r1, [r4, #28]
800102bc:	ebfff0f3 	bl	8000c690 <USBConfigurationParser>
800102c0:	e5940020 	ldr	r0, [r4, #32]
800102c4:	ebfff138 	bl	8000c7ac <USBConfigurationParserIsValid>
800102c8:	e2505000 	subs	r5, r0, #0
800102cc:	13a05001 	movne	r5, #1
800102d0:	1affff66 	bne	80010070 <USBDeviceInitialize+0x90>
800102d4:	e5940020 	ldr	r0, [r4, #32]
800102d8:	e3081b00 	movw	r1, #35584	; 0x8b00
800102dc:	e3481001 	movt	r1, #32769	; 0x8001
800102e0:	ebfff15b 	bl	8000c854 <USBConfigurationParserError>
800102e4:	eaffff61 	b	80010070 <USBDeviceInitialize+0x90>

800102e8 <USBDeviceGetName>:
800102e8:	e92d4070 	push	{r4, r5, r6, lr}
800102ec:	e1a06000 	mov	r6, r0
800102f0:	e24dd008 	sub	sp, sp, #8
800102f4:	e3a0000c 	mov	r0, #12
800102f8:	e1a05001 	mov	r5, r1
800102fc:	eb0007d5 	bl	80012258 <malloc>
80010300:	e1a04000 	mov	r4, r0
80010304:	ebffe304 	bl	80008f1c <String>
80010308:	e3550001 	cmp	r5, #1
8001030c:	0a000024 	beq	800103a4 <USBDeviceGetName+0xbc>
80010310:	3a000019 	bcc	8001037c <USBDeviceGetName+0x94>
80010314:	e3550002 	cmp	r5, #2
80010318:	0a000006 	beq	80010338 <USBDeviceGetName+0x50>
8001031c:	e3081218 	movw	r1, #33304	; 0x8218
80010320:	e1a00004 	mov	r0, r4
80010324:	e3481001 	movt	r1, #32769	; 0x8001
80010328:	ebffe31b 	bl	80008f9c <StringSet>
8001032c:	e1a00004 	mov	r0, r4
80010330:	e28dd008 	add	sp, sp, #8
80010334:	e8bd8070 	pop	{r4, r5, r6, pc}
80010338:	e596001c 	ldr	r0, [r6, #28]
8001033c:	e1d030b2 	ldrh	r3, [r0, #2]
80010340:	e3530011 	cmp	r3, #17
80010344:	9afffff4 	bls	8001031c <USBDeviceGetName+0x34>
80010348:	e5d0200e 	ldrb	r2, [r0, #14]
8001034c:	e2423001 	sub	r3, r2, #1
80010350:	e6ef3073 	uxtb	r3, r3
80010354:	e35300fd 	cmp	r3, #253	; 0xfd
80010358:	8affffef 	bhi	8001031c <USBDeviceGetName+0x34>
8001035c:	e5d0300f 	ldrb	r3, [r0, #15]
80010360:	e3081c44 	movw	r1, #35908	; 0x8c44
80010364:	e5d00010 	ldrb	r0, [r0, #16]
80010368:	e3481001 	movt	r1, #32769	; 0x8001
8001036c:	e58d0000 	str	r0, [sp]
80010370:	e1a00004 	mov	r0, r4
80010374:	ebffe509 	bl	800097a0 <StringFormat>
80010378:	eaffffeb 	b	8001032c <USBDeviceGetName+0x44>
8001037c:	e5962018 	ldr	r2, [r6, #24]
80010380:	e3081c2c 	movw	r1, #35884	; 0x8c2c
80010384:	e3481001 	movt	r1, #32769	; 0x8001
80010388:	e1a00004 	mov	r0, r4
8001038c:	e1d230ba 	ldrh	r3, [r2, #10]
80010390:	e1d220b8 	ldrh	r2, [r2, #8]
80010394:	ebffe501 	bl	800097a0 <StringFormat>
80010398:	e1a00004 	mov	r0, r4
8001039c:	e28dd008 	add	sp, sp, #8
800103a0:	e8bd8070 	pop	{r4, r5, r6, pc}
800103a4:	e5960018 	ldr	r0, [r6, #24]
800103a8:	e5d02004 	ldrb	r2, [r0, #4]
800103ac:	e2423001 	sub	r3, r2, #1
800103b0:	e6ef3073 	uxtb	r3, r3
800103b4:	e35300fd 	cmp	r3, #253	; 0xfd
800103b8:	8affffd7 	bhi	8001031c <USBDeviceGetName+0x34>
800103bc:	e5d03005 	ldrb	r3, [r0, #5]
800103c0:	e3081c38 	movw	r1, #35896	; 0x8c38
800103c4:	e5d00006 	ldrb	r0, [r0, #6]
800103c8:	e3481001 	movt	r1, #32769	; 0x8001
800103cc:	e58d0000 	str	r0, [sp]
800103d0:	e1a00004 	mov	r0, r4
800103d4:	ebffe4f1 	bl	800097a0 <StringFormat>
800103d8:	eaffffd3 	b	8001032c <USBDeviceGetName+0x44>

800103dc <USBDeviceGetAddress>:
800103dc:	e5d00008 	ldrb	r0, [r0, #8]
800103e0:	e12fff1e 	bx	lr

800103e4 <USBDeviceGetSpeed>:
800103e4:	e590000c 	ldr	r0, [r0, #12]
800103e8:	e12fff1e 	bx	lr

800103ec <USBDeviceGetHubAddress>:
800103ec:	e5d00014 	ldrb	r0, [r0, #20]
800103f0:	e12fff1e 	bx	lr

800103f4 <USBDeviceGetHubPortNumber>:
800103f4:	e5d00015 	ldrb	r0, [r0, #21]
800103f8:	e12fff1e 	bx	lr

800103fc <USBDeviceGetEndpoint0>:
800103fc:	e5900010 	ldr	r0, [r0, #16]
80010400:	e12fff1e 	bx	lr

80010404 <USBDeviceGetHost>:
80010404:	e5900004 	ldr	r0, [r0, #4]
80010408:	e12fff1e 	bx	lr

8001040c <USBDeviceGetDeviceDescriptor>:
8001040c:	e5900018 	ldr	r0, [r0, #24]
80010410:	e12fff1e 	bx	lr

80010414 <USBDeviceGetConfigurationDescriptor>:
80010414:	e590001c 	ldr	r0, [r0, #28]
80010418:	e12fff1e 	bx	lr

8001041c <USBDeviceGetDescriptor>:
8001041c:	e5900020 	ldr	r0, [r0, #32]
80010420:	eafff0e3 	b	8000c7b4 <USBConfigurationParserGetDescriptor>

80010424 <USBDeviceConfigurationError>:
80010424:	e5900020 	ldr	r0, [r0, #32]
80010428:	eafff109 	b	8000c854 <USBConfigurationParserError>

8001042c <USBDeviceSetAddress>:
8001042c:	e5c01008 	strb	r1, [r0, #8]
80010430:	e12fff1e 	bx	lr

80010434 <mmuinit0>:
80010434:	e3a02000 	mov	r2, #0
80010438:	e300040e 	movw	r0, #1038	; 0x40e
8001043c:	e3482010 	movt	r2, #32784	; 0x8010
80010440:	e1a03a22 	lsr	r3, r2, #20
80010444:	e2821102 	add	r1, r2, #-2147483648	; 0x80000000
80010448:	e1811000 	orr	r1, r1, r0
8001044c:	e2822601 	add	r2, r2, #1048576	; 0x100000
80010450:	e1a03103 	lsl	r3, r3, #2
80010454:	e3520209 	cmp	r2, #-1879048192	; 0x90000000
80010458:	e2833901 	add	r3, r3, #16384	; 0x4000
8001045c:	e5831000 	str	r1, [r3]
80010460:	1afffff6 	bne	80010440 <mmuinit0+0xc>
80010464:	e3a0220d 	mov	r2, #-805306368	; 0xd0000000
80010468:	e3000402 	movw	r0, #1026	; 0x402
8001046c:	e1a03a22 	lsr	r3, r2, #20
80010470:	e282146f 	add	r1, r2, #1862270976	; 0x6f000000
80010474:	e1811000 	orr	r1, r1, r0
80010478:	e2822601 	add	r2, r2, #1048576	; 0x100000
8001047c:	e1a03103 	lsl	r3, r3, #2
80010480:	e35204d1 	cmp	r2, #-788529152	; 0xd1000000
80010484:	e2833901 	add	r3, r3, #16384	; 0x4000
80010488:	e5831000 	str	r1, [r3]
8001048c:	1afffff6 	bne	8001046c <mmuinit0+0x38>
80010490:	e3a02101 	mov	r2, #1073741824	; 0x40000000
80010494:	e3000402 	movw	r0, #1026	; 0x402
80010498:	e1a03a22 	lsr	r3, r2, #20
8001049c:	e2821103 	add	r1, r2, #-1073741824	; 0xc0000000
800104a0:	e1811000 	orr	r1, r1, r0
800104a4:	e2822601 	add	r2, r2, #1048576	; 0x100000
800104a8:	e1a03103 	lsl	r3, r3, #2
800104ac:	e3520102 	cmp	r2, #-2147483648	; 0x80000000
800104b0:	e2833901 	add	r3, r3, #16384	; 0x4000
800104b4:	e5831000 	str	r1, [r3]
800104b8:	1afffff6 	bne	80010498 <mmuinit0+0x64>
800104bc:	e3a01a07 	mov	r1, #28672	; 0x7000
800104c0:	e3a03a03 	mov	r3, #12288	; 0x3000
800104c4:	e3030001 	movw	r0, #12289	; 0x3001
800104c8:	e3002552 	movw	r2, #1362	; 0x552
800104cc:	e5810ffc 	str	r0, [r1, #4092]	; 0xffc
800104d0:	e58323c0 	str	r2, [r3, #960]	; 0x3c0
800104d4:	e12fff1e 	bx	lr

800104d8 <mmuinit1>:
800104d8:	e30d0428 	movw	r0, #54312	; 0xd428
800104dc:	e3480009 	movt	r0, #32777	; 0x8009
800104e0:	e92d4010 	push	{r4, lr}
800104e4:	e5903000 	ldr	r3, [r0]
800104e8:	e3530201 	cmp	r3, #268435456	; 0x10000000
800104ec:	83a02201 	movhi	r2, #268435456	; 0x10000000
800104f0:	8300c40e 	movwhi	ip, #1038	; 0x40e
800104f4:	9a000009 	bls	80010520 <mmuinit1+0x48>
800104f8:	e182100c 	orr	r1, r2, ip
800104fc:	e2823102 	add	r3, r2, #-2147483648	; 0x80000000
80010500:	e2822601 	add	r2, r2, #1048576	; 0x100000
80010504:	e1a03a23 	lsr	r3, r3, #20
80010508:	e1a03103 	lsl	r3, r3, #2
8001050c:	e2833901 	add	r3, r3, #16384	; 0x4000
80010510:	e5831000 	str	r1, [r3]
80010514:	e5903000 	ldr	r3, [r0]
80010518:	e1530002 	cmp	r3, r2
8001051c:	8afffff5 	bhi	800104f8 <mmuinit1+0x20>
80010520:	e3a01901 	mov	r1, #16384	; 0x4000
80010524:	e3a03000 	mov	r3, #0
80010528:	e1a00001 	mov	r0, r1
8001052c:	e5813000 	str	r3, [r1]
80010530:	ebffdf4e 	bl	80008270 <flush_dcache>
80010534:	e8bd4010 	pop	{r4, lr}
80010538:	eaffdf44 	b	80008250 <flush_tlb>

8001053c <install_trans>:
8001053c:	e92d41f0 	push	{r4, r5, r6, r7, r8, lr}
80010540:	e30d442c 	movw	r4, #54316	; 0xd42c
80010544:	e3484009 	movt	r4, #32777	; 0x8009
80010548:	e5943044 	ldr	r3, [r4, #68]	; 0x44
8001054c:	e3530000 	cmp	r3, #0
80010550:	d8bd81f0 	pople	{r4, r5, r6, r7, r8, pc}
80010554:	e2848044 	add	r8, r4, #68	; 0x44
80010558:	e3a05000 	mov	r5, #0
8001055c:	e5941034 	ldr	r1, [r4, #52]	; 0x34
80010560:	e5940040 	ldr	r0, [r4, #64]	; 0x40
80010564:	e0851001 	add	r1, r5, r1
80010568:	e2855001 	add	r5, r5, #1
8001056c:	e2811001 	add	r1, r1, #1
80010570:	ebffe80c 	bl	8000a5a8 <bread>
80010574:	e5b81004 	ldr	r1, [r8, #4]!
80010578:	e1a07000 	mov	r7, r0
8001057c:	e5940040 	ldr	r0, [r4, #64]	; 0x40
80010580:	ebffe808 	bl	8000a5a8 <bread>
80010584:	e1a06000 	mov	r6, r0
80010588:	e2871018 	add	r1, r7, #24
8001058c:	e3a02c02 	mov	r2, #512	; 0x200
80010590:	e2800018 	add	r0, r0, #24
80010594:	eb00087d 	bl	80012790 <memmove>
80010598:	e1a00006 	mov	r0, r6
8001059c:	ebffe841 	bl	8000a6a8 <bwrite>
800105a0:	e1a00007 	mov	r0, r7
800105a4:	ebffe849 	bl	8000a6d0 <brelse>
800105a8:	e1a00006 	mov	r0, r6
800105ac:	ebffe847 	bl	8000a6d0 <brelse>
800105b0:	e5943044 	ldr	r3, [r4, #68]	; 0x44
800105b4:	e1530005 	cmp	r3, r5
800105b8:	caffffe7 	bgt	8001055c <install_trans+0x20>
800105bc:	e8bd81f0 	pop	{r4, r5, r6, r7, r8, pc}

800105c0 <write_head>:
800105c0:	e92d4070 	push	{r4, r5, r6, lr}
800105c4:	e30d442c 	movw	r4, #54316	; 0xd42c
800105c8:	e3484009 	movt	r4, #32777	; 0x8009
800105cc:	e5941034 	ldr	r1, [r4, #52]	; 0x34
800105d0:	e5940040 	ldr	r0, [r4, #64]	; 0x40
800105d4:	ebffe7f3 	bl	8000a5a8 <bread>
800105d8:	e5943044 	ldr	r3, [r4, #68]	; 0x44
800105dc:	e1a05000 	mov	r5, r0
800105e0:	e5803018 	str	r3, [r0, #24]
800105e4:	e5940044 	ldr	r0, [r4, #68]	; 0x44
800105e8:	e3500000 	cmp	r0, #0
800105ec:	da000007 	ble	80010610 <write_head+0x50>
800105f0:	e2800006 	add	r0, r0, #6
800105f4:	e2842044 	add	r2, r4, #68	; 0x44
800105f8:	e2853018 	add	r3, r5, #24
800105fc:	e0850100 	add	r0, r5, r0, lsl #2
80010600:	e5b21004 	ldr	r1, [r2, #4]!
80010604:	e5a31004 	str	r1, [r3, #4]!
80010608:	e1530000 	cmp	r3, r0
8001060c:	1afffffb 	bne	80010600 <write_head+0x40>
80010610:	e1a00005 	mov	r0, r5
80010614:	ebffe823 	bl	8000a6a8 <bwrite>
80010618:	e1a00005 	mov	r0, r5
8001061c:	e8bd4070 	pop	{r4, r5, r6, lr}
80010620:	eaffe82a 	b	8000a6d0 <brelse>

80010624 <initlog>:
80010624:	e92d4010 	push	{r4, lr}
80010628:	e30d442c 	movw	r4, #54316	; 0xd42c
8001062c:	e3484009 	movt	r4, #32777	; 0x8009
80010630:	e24dd010 	sub	sp, sp, #16
80010634:	e3a02070 	mov	r2, #112	; 0x70
80010638:	e3a01000 	mov	r1, #0
8001063c:	e1a00004 	mov	r0, r4
80010640:	eb000824 	bl	800126d8 <memset>
80010644:	e3081c50 	movw	r1, #35920	; 0x8c50
80010648:	e1a00004 	mov	r0, r4
8001064c:	e3481001 	movt	r1, #32769	; 0x8001
80010650:	ebffefa9 	bl	8000c4fc <initlock>
80010654:	e1a0100d 	mov	r1, sp
80010658:	e3a00001 	mov	r0, #1
8001065c:	ebffe9dd 	bl	8000add8 <readsb>
80010660:	e59d200c 	ldr	r2, [sp, #12]
80010664:	e3a03001 	mov	r3, #1
80010668:	e59d1000 	ldr	r1, [sp]
8001066c:	e1a00003 	mov	r0, r3
80010670:	e5842038 	str	r2, [r4, #56]	; 0x38
80010674:	e0411002 	sub	r1, r1, r2
80010678:	e5841034 	str	r1, [r4, #52]	; 0x34
8001067c:	e5843040 	str	r3, [r4, #64]	; 0x40
80010680:	ebffe7c8 	bl	8000a5a8 <bread>
80010684:	e590c018 	ldr	ip, [r0, #24]
80010688:	e584c044 	str	ip, [r4, #68]	; 0x44
8001068c:	e35c0000 	cmp	ip, #0
80010690:	da000007 	ble	800106b4 <initlog+0x90>
80010694:	e28cc006 	add	ip, ip, #6
80010698:	e2803018 	add	r3, r0, #24
8001069c:	e2842044 	add	r2, r4, #68	; 0x44
800106a0:	e080c10c 	add	ip, r0, ip, lsl #2
800106a4:	e5b31004 	ldr	r1, [r3, #4]!
800106a8:	e153000c 	cmp	r3, ip
800106ac:	e5a21004 	str	r1, [r2, #4]!
800106b0:	1afffffb 	bne	800106a4 <initlog+0x80>
800106b4:	ebffe805 	bl	8000a6d0 <brelse>
800106b8:	ebffff9f 	bl	8001053c <install_trans>
800106bc:	e3a03000 	mov	r3, #0
800106c0:	e5843044 	str	r3, [r4, #68]	; 0x44
800106c4:	ebffffbd 	bl	800105c0 <write_head>
800106c8:	e28dd010 	add	sp, sp, #16
800106cc:	e8bd8010 	pop	{r4, pc}

800106d0 <begin_trans>:
800106d0:	e92d4070 	push	{r4, r5, r6, lr}
800106d4:	e30d442c 	movw	r4, #54316	; 0xd42c
800106d8:	e3484009 	movt	r4, #32777	; 0x8009
800106dc:	e1a00004 	mov	r0, r4
800106e0:	ebffefa3 	bl	8000c574 <acquire>
800106e4:	e594303c 	ldr	r3, [r4, #60]	; 0x3c
800106e8:	e3530000 	cmp	r3, #0
800106ec:	11a05004 	movne	r5, r4
800106f0:	0a000006 	beq	80010710 <begin_trans+0x40>
800106f4:	e30d042c 	movw	r0, #54316	; 0xd42c
800106f8:	e1a01005 	mov	r1, r5
800106fc:	e3480009 	movt	r0, #32777	; 0x8009
80010700:	eb0016cb 	bl	80016234 <sleep>
80010704:	e594303c 	ldr	r3, [r4, #60]	; 0x3c
80010708:	e3530000 	cmp	r3, #0
8001070c:	1afffff8 	bne	800106f4 <begin_trans+0x24>
80010710:	e30d042c 	movw	r0, #54316	; 0xd42c
80010714:	e3a03001 	mov	r3, #1
80010718:	e584303c 	str	r3, [r4, #60]	; 0x3c
8001071c:	e3480009 	movt	r0, #32777	; 0x8009
80010720:	e8bd4070 	pop	{r4, r5, r6, lr}
80010724:	eaffefc8 	b	8000c64c <release>

80010728 <commit_trans>:
80010728:	e92d4010 	push	{r4, lr}
8001072c:	e30d442c 	movw	r4, #54316	; 0xd42c
80010730:	e3484009 	movt	r4, #32777	; 0x8009
80010734:	e5943044 	ldr	r3, [r4, #68]	; 0x44
80010738:	e3530000 	cmp	r3, #0
8001073c:	da000004 	ble	80010754 <commit_trans+0x2c>
80010740:	ebffff9e 	bl	800105c0 <write_head>
80010744:	ebffff7c 	bl	8001053c <install_trans>
80010748:	e3a03000 	mov	r3, #0
8001074c:	e5843044 	str	r3, [r4, #68]	; 0x44
80010750:	ebffff9a 	bl	800105c0 <write_head>
80010754:	e30d042c 	movw	r0, #54316	; 0xd42c
80010758:	e3480009 	movt	r0, #32777	; 0x8009
8001075c:	ebffef84 	bl	8000c574 <acquire>
80010760:	e30d042c 	movw	r0, #54316	; 0xd42c
80010764:	e3a03000 	mov	r3, #0
80010768:	e3480009 	movt	r0, #32777	; 0x8009
8001076c:	e584303c 	str	r3, [r4, #60]	; 0x3c
80010770:	eb001713 	bl	800163c4 <wakeup>
80010774:	e30d042c 	movw	r0, #54316	; 0xd42c
80010778:	e3480009 	movt	r0, #32777	; 0x8009
8001077c:	e8bd4010 	pop	{r4, lr}
80010780:	eaffefb1 	b	8000c64c <release>

80010784 <log_write>:
80010784:	e92d41f0 	push	{r4, r5, r6, r7, r8, lr}
80010788:	e30d542c 	movw	r5, #54316	; 0xd42c
8001078c:	e3485009 	movt	r5, #32777	; 0x8009
80010790:	e5951044 	ldr	r1, [r5, #68]	; 0x44
80010794:	e3510009 	cmp	r1, #9
80010798:	ca000032 	bgt	80010868 <log_write+0xe4>
8001079c:	e5953038 	ldr	r3, [r5, #56]	; 0x38
800107a0:	e2433001 	sub	r3, r3, #1
800107a4:	e1510003 	cmp	r1, r3
800107a8:	aa00002e 	bge	80010868 <log_write+0xe4>
800107ac:	e595303c 	ldr	r3, [r5, #60]	; 0x3c
800107b0:	e3530000 	cmp	r3, #0
800107b4:	0a00002e 	beq	80010874 <log_write+0xf0>
800107b8:	e3510000 	cmp	r1, #0
800107bc:	e1a06000 	mov	r6, r0
800107c0:	d3a04000 	movle	r4, #0
800107c4:	d590c008 	ldrle	ip, [r0, #8]
800107c8:	da00000c 	ble	80010800 <log_write+0x7c>
800107cc:	e5953048 	ldr	r3, [r5, #72]	; 0x48
800107d0:	e590c008 	ldr	ip, [r0, #8]
800107d4:	e15c0003 	cmp	ip, r3
800107d8:	12853048 	addne	r3, r5, #72	; 0x48
800107dc:	13a04000 	movne	r4, #0
800107e0:	1a000003 	bne	800107f4 <log_write+0x70>
800107e4:	ea00001d 	b	80010860 <log_write+0xdc>
800107e8:	e5b32004 	ldr	r2, [r3, #4]!
800107ec:	e152000c 	cmp	r2, ip
800107f0:	0a000002 	beq	80010800 <log_write+0x7c>
800107f4:	e2844001 	add	r4, r4, #1
800107f8:	e1510004 	cmp	r1, r4
800107fc:	1afffff9 	bne	800107e8 <log_write+0x64>
80010800:	e5951034 	ldr	r1, [r5, #52]	; 0x34
80010804:	e0853104 	add	r3, r5, r4, lsl #2
80010808:	e0841001 	add	r1, r4, r1
8001080c:	e5960004 	ldr	r0, [r6, #4]
80010810:	e2811001 	add	r1, r1, #1
80010814:	e583c048 	str	ip, [r3, #72]	; 0x48
80010818:	ebffe762 	bl	8000a5a8 <bread>
8001081c:	e1a07000 	mov	r7, r0
80010820:	e3a02c02 	mov	r2, #512	; 0x200
80010824:	e2861018 	add	r1, r6, #24
80010828:	e2800018 	add	r0, r0, #24
8001082c:	eb0007d7 	bl	80012790 <memmove>
80010830:	e1a00007 	mov	r0, r7
80010834:	ebffe79b 	bl	8000a6a8 <bwrite>
80010838:	e1a00007 	mov	r0, r7
8001083c:	ebffe7a3 	bl	8000a6d0 <brelse>
80010840:	e5953044 	ldr	r3, [r5, #68]	; 0x44
80010844:	e1530004 	cmp	r3, r4
80010848:	e5963000 	ldr	r3, [r6]
8001084c:	02844001 	addeq	r4, r4, #1
80010850:	05854044 	streq	r4, [r5, #68]	; 0x44
80010854:	e3833004 	orr	r3, r3, #4
80010858:	e5863000 	str	r3, [r6]
8001085c:	e8bd81f0 	pop	{r4, r5, r6, r7, r8, pc}
80010860:	e3a04000 	mov	r4, #0
80010864:	eaffffe5 	b	80010800 <log_write+0x7c>
80010868:	e3080c54 	movw	r0, #35924	; 0x8c54
8001086c:	e3480001 	movt	r0, #32769	; 0x8001
80010870:	ebffede3 	bl	8000c004 <panic>
80010874:	e3080c6c 	movw	r0, #35948	; 0x8c6c
80010878:	e3480001 	movt	r0, #32769	; 0x8001
8001087c:	ebffede0 	bl	8000c004 <panic>

80010880 <MACAddress>:
80010880:	e3a03000 	mov	r3, #0
80010884:	e5803000 	str	r3, [r0]
80010888:	e12fff1e 	bx	lr

8001088c <_MACAddress>:
8001088c:	e3a03000 	mov	r3, #0
80010890:	e5803000 	str	r3, [r0]
80010894:	e12fff1e 	bx	lr

80010898 <MACAddressIsEqual>:
80010898:	e92d4010 	push	{r4, lr}
8001089c:	e2811004 	add	r1, r1, #4
800108a0:	e3a02006 	mov	r2, #6
800108a4:	e2800004 	add	r0, r0, #4
800108a8:	eb000d8f 	bl	80013eec <uspi_memcmp>
800108ac:	e16f0f10 	clz	r0, r0
800108b0:	e1a002a0 	lsr	r0, r0, #5
800108b4:	e8bd8010 	pop	{r4, pc}

800108b8 <MACAddressSet>:
800108b8:	e92d4010 	push	{r4, lr}
800108bc:	e3a02006 	mov	r2, #6
800108c0:	e1a04000 	mov	r4, r0
800108c4:	e2800004 	add	r0, r0, #4
800108c8:	eb000d7e 	bl	80013ec8 <uspi_memcpy>
800108cc:	e3a03001 	mov	r3, #1
800108d0:	e5843000 	str	r3, [r4]
800108d4:	e8bd8010 	pop	{r4, pc}

800108d8 <MACAddress2>:
800108d8:	eafffff6 	b	800108b8 <MACAddressSet>

800108dc <MACAddressSetBroadcast>:
800108dc:	e92d4010 	push	{r4, lr}
800108e0:	e3a02006 	mov	r2, #6
800108e4:	e1a04000 	mov	r4, r0
800108e8:	e3a010ff 	mov	r1, #255	; 0xff
800108ec:	e2800004 	add	r0, r0, #4
800108f0:	eb000d6b 	bl	80013ea4 <uspi_memset>
800108f4:	e3a03001 	mov	r3, #1
800108f8:	e5843000 	str	r3, [r4]
800108fc:	e8bd8010 	pop	{r4, pc}

80010900 <MACAddressGet>:
80010900:	e2800004 	add	r0, r0, #4
80010904:	e12fff1e 	bx	lr

80010908 <MACAddressCopyTo>:
80010908:	e1a03001 	mov	r3, r1
8001090c:	e3a02006 	mov	r2, #6
80010910:	e2801004 	add	r1, r0, #4
80010914:	e1a00003 	mov	r0, r3
80010918:	ea000d6a 	b	80013ec8 <uspi_memcpy>

8001091c <MACAddressIsBroadcast>:
8001091c:	e2803004 	add	r3, r0, #4
80010920:	e280000a 	add	r0, r0, #10
80010924:	e4d32001 	ldrb	r2, [r3], #1
80010928:	e35200ff 	cmp	r2, #255	; 0xff
8001092c:	1a000003 	bne	80010940 <MACAddressIsBroadcast+0x24>
80010930:	e1530000 	cmp	r3, r0
80010934:	1afffffa 	bne	80010924 <MACAddressIsBroadcast+0x8>
80010938:	e3a00001 	mov	r0, #1
8001093c:	e12fff1e 	bx	lr
80010940:	e3a00000 	mov	r0, #0
80010944:	e12fff1e 	bx	lr

80010948 <MACAddressGetSize>:
80010948:	e3a00006 	mov	r0, #6
8001094c:	e12fff1e 	bx	lr

80010950 <MACAddressFormat>:
80010950:	e1a0c000 	mov	ip, r0
80010954:	e1a00001 	mov	r0, r1
80010958:	e92d4030 	push	{r4, r5, lr}
8001095c:	e24dd014 	sub	sp, sp, #20
80010960:	e5dc3005 	ldrb	r3, [ip, #5]
80010964:	e3081c84 	movw	r1, #35972	; 0x8c84
80010968:	e5dc2004 	ldrb	r2, [ip, #4]
8001096c:	e5dc5009 	ldrb	r5, [ip, #9]
80010970:	e5dc4008 	ldrb	r4, [ip, #8]
80010974:	e5dce007 	ldrb	lr, [ip, #7]
80010978:	e5dcc006 	ldrb	ip, [ip, #6]
8001097c:	e3481001 	movt	r1, #32769	; 0x8001
80010980:	e58d500c 	str	r5, [sp, #12]
80010984:	e58d4008 	str	r4, [sp, #8]
80010988:	e88d5000 	stm	sp, {ip, lr}
8001098c:	ebffe383 	bl	800097a0 <StringFormat>
80010990:	e28dd014 	add	sp, sp, #20
80010994:	e8bd8030 	pop	{r4, r5, pc}

80010998 <uartgetc>:
80010998:	e30a3988 	movw	r3, #43400	; 0xa988
8001099c:	e3483009 	movt	r3, #32777	; 0x8009
800109a0:	e5932000 	ldr	r2, [r3]
800109a4:	e3520000 	cmp	r2, #0
800109a8:	1a000008 	bne	800109d0 <uartgetc+0x38>
800109ac:	e3053054 	movw	r3, #20564	; 0x5054
800109b0:	e34d3021 	movt	r3, #53281	; 0xd021
800109b4:	e5933000 	ldr	r3, [r3]
800109b8:	e3130001 	tst	r3, #1
800109bc:	0a000007 	beq	800109e0 <uartgetc+0x48>
800109c0:	e3050040 	movw	r0, #20544	; 0x5040
800109c4:	e34d0021 	movt	r0, #53281	; 0xd021
800109c8:	e5900000 	ldr	r0, [r0]
800109cc:	e12fff1e 	bx	lr
800109d0:	e5930004 	ldr	r0, [r3, #4]
800109d4:	e3a02000 	mov	r2, #0
800109d8:	e5832000 	str	r2, [r3]
800109dc:	e12fff1e 	bx	lr
800109e0:	e3e00000 	mvn	r0, #0
800109e4:	e12fff1e 	bx	lr

800109e8 <setgpiofunc.part.2>:
800109e8:	e350000a 	cmp	r0, #10
800109ec:	e3a03000 	mov	r3, #0
800109f0:	e52de004 	push	{lr}		; (str lr, [sp, #-4]!)
800109f4:	9a00000f 	bls	80010a38 <setgpiofunc.part.2+0x50>
800109f8:	e240000a 	sub	r0, r0, #10
800109fc:	e2833001 	add	r3, r3, #1
80010a00:	e350000a 	cmp	r0, #10
80010a04:	8afffffb 	bhi	800109f8 <setgpiofunc.part.2+0x10>
80010a08:	e1a03103 	lsl	r3, r3, #2
80010a0c:	e283320d 	add	r3, r3, #-805306368	; 0xd0000000
80010a10:	e2833602 	add	r3, r3, #2097152	; 0x200000
80010a14:	e593c000 	ldr	ip, [r3]
80010a18:	e1a02080 	lsl	r2, r0, #1
80010a1c:	e3a0e007 	mov	lr, #7
80010a20:	e0820000 	add	r0, r2, r0
80010a24:	e1cc201e 	bic	r2, ip, lr, lsl r0
80010a28:	e5832000 	str	r2, [r3]
80010a2c:	e1822011 	orr	r2, r2, r1, lsl r0
80010a30:	e5832000 	str	r2, [r3]
80010a34:	e49df004 	pop	{pc}		; (ldr pc, [sp], #4)
80010a38:	e34d3020 	movt	r3, #53280	; 0xd020
80010a3c:	eafffff4 	b	80010a14 <setgpiofunc.part.2+0x2c>

80010a40 <led18_on>:
80010a40:	e92d4010 	push	{r4, lr}
80010a44:	e3a01001 	mov	r1, #1
80010a48:	e3a00012 	mov	r0, #18
80010a4c:	ebffffe5 	bl	800109e8 <setgpiofunc.part.2>
80010a50:	e3a0301c 	mov	r3, #28
80010a54:	e3a02701 	mov	r2, #262144	; 0x40000
80010a58:	e34d3020 	movt	r3, #53280	; 0xd020
80010a5c:	e5832000 	str	r2, [r3]
80010a60:	e8bd8010 	pop	{r4, pc}

80010a64 <led18_off>:
80010a64:	e92d4010 	push	{r4, lr}
80010a68:	e3a01001 	mov	r1, #1
80010a6c:	e3a00012 	mov	r0, #18
80010a70:	ebffffdc 	bl	800109e8 <setgpiofunc.part.2>
80010a74:	e3a03028 	mov	r3, #40	; 0x28
80010a78:	e3a02701 	mov	r2, #262144	; 0x40000
80010a7c:	e34d3020 	movt	r3, #53280	; 0xd020
80010a80:	e5832000 	str	r2, [r3]
80010a84:	e8bd8010 	pop	{r4, pc}

80010a88 <setgpioval>:
80010a88:	e3500035 	cmp	r0, #53	; 0x35
80010a8c:	812fff1e 	bxhi	lr
80010a90:	e350001f 	cmp	r0, #31
80010a94:	8a000009 	bhi	80010ac0 <setgpioval+0x38>
80010a98:	e3510000 	cmp	r1, #0
80010a9c:	e3a02028 	mov	r2, #40	; 0x28
80010aa0:	e34d2020 	movt	r2, #53280	; 0xd020
80010aa4:	e3a0301c 	mov	r3, #28
80010aa8:	e34d3020 	movt	r3, #53280	; 0xd020
80010aac:	0a00000a 	beq	80010adc <setgpioval+0x54>
80010ab0:	e3a02001 	mov	r2, #1
80010ab4:	e1a00012 	lsl	r0, r2, r0
80010ab8:	e5830000 	str	r0, [r3]
80010abc:	e12fff1e 	bx	lr
80010ac0:	e3510000 	cmp	r1, #0
80010ac4:	e3a0202c 	mov	r2, #44	; 0x2c
80010ac8:	e34d2020 	movt	r2, #53280	; 0xd020
80010acc:	e3a03020 	mov	r3, #32
80010ad0:	e34d3020 	movt	r3, #53280	; 0xd020
80010ad4:	e200001f 	and	r0, r0, #31
80010ad8:	1afffff4 	bne	80010ab0 <setgpioval+0x28>
80010adc:	e3a03001 	mov	r3, #1
80010ae0:	e1a00013 	lsl	r0, r3, r0
80010ae4:	e5820000 	str	r0, [r2]
80010ae8:	e12fff1e 	bx	lr

80010aec <setgpiofunc>:
80010aec:	e3500035 	cmp	r0, #53	; 0x35
80010af0:	812fff1e 	bxhi	lr
80010af4:	eaffffbb 	b	800109e8 <setgpiofunc.part.2>

80010af8 <enableirqminiuart>:
80010af8:	e3a03cb2 	mov	r3, #45568	; 0xb200
80010afc:	e34d3000 	movt	r3, #53248	; 0xd000
80010b00:	e5932010 	ldr	r2, [r3, #16]
80010b04:	e3822202 	orr	r2, r2, #536870912	; 0x20000000
80010b08:	e5832010 	str	r2, [r3, #16]
80010b0c:	e12fff1e 	bx	lr

80010b10 <disableirqminiuart>:
80010b10:	e3a03cb2 	mov	r3, #45568	; 0xb200
80010b14:	e34d3000 	movt	r3, #53248	; 0xd000
80010b18:	e593201c 	ldr	r2, [r3, #28]
80010b1c:	e3822202 	orr	r2, r2, #536870912	; 0x20000000
80010b20:	e583201c 	str	r2, [r3, #28]
80010b24:	e12fff1e 	bx	lr

80010b28 <uartputc>:
80010b28:	e30d349c 	movw	r3, #54428	; 0xd49c
80010b2c:	e3483009 	movt	r3, #32777	; 0x8009
80010b30:	e5933000 	ldr	r3, [r3]
80010b34:	e3530000 	cmp	r3, #0
80010b38:	112fff1e 	bxne	lr
80010b3c:	e350000a 	cmp	r0, #10
80010b40:	130033e9 	movwne	r3, #1001	; 0x3e9
80010b44:	0a00000b 	beq	80010b78 <uartputc+0x50>
80010b48:	e3051054 	movw	r1, #20564	; 0x5054
80010b4c:	e34d1021 	movt	r1, #53281	; 0xd021
80010b50:	ea000001 	b	80010b5c <uartputc+0x34>
80010b54:	e2533001 	subs	r3, r3, #1
80010b58:	0a000015 	beq	80010bb4 <uartputc+0x8c>
80010b5c:	e5912000 	ldr	r2, [r1]
80010b60:	e3120020 	tst	r2, #32
80010b64:	0afffffa 	beq	80010b54 <uartputc+0x2c>
80010b68:	e3053040 	movw	r3, #20544	; 0x5040
80010b6c:	e34d3021 	movt	r3, #53281	; 0xd021
80010b70:	e5830000 	str	r0, [r3]
80010b74:	e12fff1e 	bx	lr
80010b78:	e3051054 	movw	r1, #20564	; 0x5054
80010b7c:	e30033e9 	movw	r3, #1001	; 0x3e9
80010b80:	e34d1021 	movt	r1, #53281	; 0xd021
80010b84:	ea000001 	b	80010b90 <uartputc+0x68>
80010b88:	e2533001 	subs	r3, r3, #1
80010b8c:	0a000009 	beq	80010bb8 <uartputc+0x90>
80010b90:	e5912000 	ldr	r2, [r1]
80010b94:	e3120020 	tst	r2, #32
80010b98:	0afffffa 	beq	80010b88 <uartputc+0x60>
80010b9c:	e3053040 	movw	r3, #20544	; 0x5040
80010ba0:	e3a0200d 	mov	r2, #13
80010ba4:	e34d3021 	movt	r3, #53281	; 0xd021
80010ba8:	e5832000 	str	r2, [r3]
80010bac:	e30033e9 	movw	r3, #1001	; 0x3e9
80010bb0:	eaffffe4 	b	80010b48 <uartputc+0x20>
80010bb4:	e12fff1e 	bx	lr
80010bb8:	e12fff1e 	bx	lr

80010bbc <miniuartintr>:
80010bbc:	e30d349c 	movw	r3, #54428	; 0xd49c
80010bc0:	e3483009 	movt	r3, #32777	; 0x8009
80010bc4:	e5931000 	ldr	r1, [r3]
80010bc8:	e3510000 	cmp	r1, #0
80010bcc:	112fff1e 	bxne	lr
80010bd0:	e30a2988 	movw	r2, #43400	; 0xa988
80010bd4:	e3482009 	movt	r2, #32777	; 0x8009
80010bd8:	e5920008 	ldr	r0, [r2, #8]
80010bdc:	e3500000 	cmp	r0, #0
80010be0:	0a00000c 	beq	80010c18 <miniuartintr+0x5c>
80010be4:	e5821008 	str	r1, [r2, #8]
80010be8:	e3052054 	movw	r2, #20564	; 0x5054
80010bec:	e34d2021 	movt	r2, #53281	; 0xd021
80010bf0:	e5923000 	ldr	r3, [r2]
80010bf4:	e3130001 	tst	r3, #1
80010bf8:	012fff1e 	bxeq	lr
80010bfc:	e3051040 	movw	r1, #20544	; 0x5040
80010c00:	e34d1021 	movt	r1, #53281	; 0xd021
80010c04:	e5913000 	ldr	r3, [r1]
80010c08:	e5923000 	ldr	r3, [r2]
80010c0c:	e3130001 	tst	r3, #1
80010c10:	1afffffb 	bne	80010c04 <miniuartintr+0x48>
80010c14:	e12fff1e 	bx	lr
80010c18:	e3051048 	movw	r1, #20552	; 0x5048
80010c1c:	e34d1021 	movt	r1, #53281	; 0xd021
80010c20:	e5911000 	ldr	r1, [r1]
80010c24:	e3110004 	tst	r1, #4
80010c28:	012fff1e 	bxeq	lr
80010c2c:	e3051064 	movw	r1, #20580	; 0x5064
80010c30:	e34d1021 	movt	r1, #53281	; 0xd021
80010c34:	e5911000 	ldr	r1, [r1]
80010c38:	e311080f 	tst	r1, #983040	; 0xf0000
80010c3c:	012fff1e 	bxeq	lr
80010c40:	e3051054 	movw	r1, #20564	; 0x5054
80010c44:	e34d1021 	movt	r1, #53281	; 0xd021
80010c48:	e5911000 	ldr	r1, [r1]
80010c4c:	e3110001 	tst	r1, #1
80010c50:	05921004 	ldreq	r1, [r2, #4]
80010c54:	0a000003 	beq	80010c68 <miniuartintr+0xac>
80010c58:	e3051040 	movw	r1, #20544	; 0x5040
80010c5c:	e34d1021 	movt	r1, #53281	; 0xd021
80010c60:	e5911000 	ldr	r1, [r1]
80010c64:	e5821004 	str	r1, [r2, #4]
80010c68:	e3510000 	cmp	r1, #0
80010c6c:	1a000005 	bne	80010c88 <miniuartintr+0xcc>
80010c70:	e3052044 	movw	r2, #20548	; 0x5044
80010c74:	e34d2021 	movt	r2, #53281	; 0xd021
80010c78:	e5821000 	str	r1, [r2]
80010c7c:	e3a02001 	mov	r2, #1
80010c80:	e5832000 	str	r2, [r3]
80010c84:	e12fff1e 	bx	lr
80010c88:	e3000998 	movw	r0, #2456	; 0x998
80010c8c:	e3a03001 	mov	r3, #1
80010c90:	e3480001 	movt	r0, #32769	; 0x8001
80010c94:	e5823000 	str	r3, [r2]
80010c98:	eaffed7e 	b	8000c298 <consoleintr>

80010c9c <uartinit>:
80010c9c:	e3053004 	movw	r3, #20484	; 0x5004
80010ca0:	e92d41f0 	push	{r4, r5, r6, r7, r8, lr}
80010ca4:	e3a05001 	mov	r5, #1
80010ca8:	e34d3021 	movt	r3, #53281	; 0xd021
80010cac:	e5835000 	str	r5, [r3]
80010cb0:	e3056060 	movw	r6, #20576	; 0x5060
80010cb4:	e3a04000 	mov	r4, #0
80010cb8:	e34d6021 	movt	r6, #53281	; 0xd021
80010cbc:	e5864000 	str	r4, [r6]
80010cc0:	e305304c 	movw	r3, #20556	; 0x504c
80010cc4:	e3a08003 	mov	r8, #3
80010cc8:	e34d3021 	movt	r3, #53281	; 0xd021
80010ccc:	e5838000 	str	r8, [r3]
80010cd0:	e3053050 	movw	r3, #20560	; 0x5050
80010cd4:	e34d3021 	movt	r3, #53281	; 0xd021
80010cd8:	e5834000 	str	r4, [r3]
80010cdc:	e3053044 	movw	r3, #20548	; 0x5044
80010ce0:	e34d3021 	movt	r3, #53281	; 0xd021
80010ce4:	e5835000 	str	r5, [r3]
80010ce8:	e3053048 	movw	r3, #20552	; 0x5048
80010cec:	e3a020c7 	mov	r2, #199	; 0xc7
80010cf0:	e34d3021 	movt	r3, #53281	; 0xd021
80010cf4:	e5832000 	str	r2, [r3]
80010cf8:	e3053068 	movw	r3, #20584	; 0x5068
80010cfc:	e300210e 	movw	r2, #270	; 0x10e
80010d00:	e34d3021 	movt	r3, #53281	; 0xd021
80010d04:	e5832000 	str	r2, [r3]
80010d08:	e3a01002 	mov	r1, #2
80010d0c:	e3a0000e 	mov	r0, #14
80010d10:	ebffff34 	bl	800109e8 <setgpiofunc.part.2>
80010d14:	e3a01002 	mov	r1, #2
80010d18:	e3a0000f 	mov	r0, #15
80010d1c:	ebffff31 	bl	800109e8 <setgpiofunc.part.2>
80010d20:	e3a03094 	mov	r3, #148	; 0x94
80010d24:	e34d3020 	movt	r3, #53280	; 0xd020
80010d28:	e5834000 	str	r4, [r3]
80010d2c:	e3a0000a 	mov	r0, #10
80010d30:	e3a07098 	mov	r7, #152	; 0x98
80010d34:	e34d7020 	movt	r7, #53280	; 0xd020
80010d38:	eb001758 	bl	80016aa0 <delay>
80010d3c:	e3a03903 	mov	r3, #49152	; 0xc000
80010d40:	e5873000 	str	r3, [r7]
80010d44:	e3a0000a 	mov	r0, #10
80010d48:	eb001754 	bl	80016aa0 <delay>
80010d4c:	e5874000 	str	r4, [r7]
80010d50:	e5868000 	str	r8, [r6]
80010d54:	e30a2988 	movw	r2, #43400	; 0xa988
80010d58:	e30d349c 	movw	r3, #54428	; 0xd49c
80010d5c:	e3482009 	movt	r2, #32777	; 0x8009
80010d60:	e3483009 	movt	r3, #32777	; 0x8009
80010d64:	e5825008 	str	r5, [r2, #8]
80010d68:	e5834000 	str	r4, [r3]
80010d6c:	e8bd81f0 	pop	{r4, r5, r6, r7, r8, pc}

80010d70 <fetchint>:
80010d70:	e30a3af4 	movw	r3, #43764	; 0xaaf4
80010d74:	e3483009 	movt	r3, #32777	; 0x8009
80010d78:	e5933018 	ldr	r3, [r3, #24]
80010d7c:	e5933000 	ldr	r3, [r3]
80010d80:	e1530000 	cmp	r3, r0
80010d84:	9a000006 	bls	80010da4 <fetchint+0x34>
80010d88:	e2802004 	add	r2, r0, #4
80010d8c:	e1530002 	cmp	r3, r2
80010d90:	3a000003 	bcc	80010da4 <fetchint+0x34>
80010d94:	e5903000 	ldr	r3, [r0]
80010d98:	e3a00000 	mov	r0, #0
80010d9c:	e5813000 	str	r3, [r1]
80010da0:	e12fff1e 	bx	lr
80010da4:	e3e00000 	mvn	r0, #0
80010da8:	e12fff1e 	bx	lr

80010dac <fetchstr>:
80010dac:	e30a3af4 	movw	r3, #43764	; 0xaaf4
80010db0:	e3483009 	movt	r3, #32777	; 0x8009
80010db4:	e52de004 	push	{lr}		; (str lr, [sp, #-4]!)
80010db8:	e5933018 	ldr	r3, [r3, #24]
80010dbc:	e593e000 	ldr	lr, [r3]
80010dc0:	e15e0000 	cmp	lr, r0
80010dc4:	9a00000e 	bls	80010e04 <fetchstr+0x58>
80010dc8:	e150000e 	cmp	r0, lr
80010dcc:	e1a0c000 	mov	ip, r0
80010dd0:	e5810000 	str	r0, [r1]
80010dd4:	2a00000a 	bcs	80010e04 <fetchstr+0x58>
80010dd8:	e5d03000 	ldrb	r3, [r0]
80010ddc:	e3530000 	cmp	r3, #0
80010de0:	12803001 	addne	r3, r0, #1
80010de4:	1a000003 	bne	80010df8 <fetchstr+0x4c>
80010de8:	ea000007 	b	80010e0c <fetchstr+0x60>
80010dec:	e4d32001 	ldrb	r2, [r3], #1
80010df0:	e3520000 	cmp	r2, #0
80010df4:	0a000004 	beq	80010e0c <fetchstr+0x60>
80010df8:	e153000e 	cmp	r3, lr
80010dfc:	e1a0c003 	mov	ip, r3
80010e00:	1afffff9 	bne	80010dec <fetchstr+0x40>
80010e04:	e3e00000 	mvn	r0, #0
80010e08:	e49df004 	pop	{pc}		; (ldr pc, [sp], #4)
80010e0c:	e04c0000 	sub	r0, ip, r0
80010e10:	e49df004 	pop	{pc}		; (ldr pc, [sp], #4)

80010e14 <argint>:
80010e14:	e30a3af4 	movw	r3, #43764	; 0xaaf4
80010e18:	e3483009 	movt	r3, #32777	; 0x8009
80010e1c:	e5933018 	ldr	r3, [r3, #24]
80010e20:	e593c018 	ldr	ip, [r3, #24]
80010e24:	e5932000 	ldr	r2, [r3]
80010e28:	e59cc000 	ldr	ip, [ip]
80010e2c:	e08c3100 	add	r3, ip, r0, lsl #2
80010e30:	e1530002 	cmp	r3, r2
80010e34:	2a000006 	bcs	80010e54 <argint+0x40>
80010e38:	e2833004 	add	r3, r3, #4
80010e3c:	e1520003 	cmp	r2, r3
80010e40:	3a000003 	bcc	80010e54 <argint+0x40>
80010e44:	e79c3100 	ldr	r3, [ip, r0, lsl #2]
80010e48:	e3a00000 	mov	r0, #0
80010e4c:	e5813000 	str	r3, [r1]
80010e50:	e12fff1e 	bx	lr
80010e54:	e3e00000 	mvn	r0, #0
80010e58:	e12fff1e 	bx	lr

80010e5c <argptr>:
80010e5c:	e30a3af4 	movw	r3, #43764	; 0xaaf4
80010e60:	e3483009 	movt	r3, #32777	; 0x8009
80010e64:	e52de004 	push	{lr}		; (str lr, [sp, #-4]!)
80010e68:	e5933018 	ldr	r3, [r3, #24]
80010e6c:	e593c018 	ldr	ip, [r3, #24]
80010e70:	e5933000 	ldr	r3, [r3]
80010e74:	e59ce000 	ldr	lr, [ip]
80010e78:	e08ec100 	add	ip, lr, r0, lsl #2
80010e7c:	e15c0003 	cmp	ip, r3
80010e80:	2a00000b 	bcs	80010eb4 <argptr+0x58>
80010e84:	e28cc004 	add	ip, ip, #4
80010e88:	e153000c 	cmp	r3, ip
80010e8c:	3a000008 	bcc	80010eb4 <argptr+0x58>
80010e90:	e79e0100 	ldr	r0, [lr, r0, lsl #2]
80010e94:	e1500003 	cmp	r0, r3
80010e98:	2a000005 	bcs	80010eb4 <argptr+0x58>
80010e9c:	e0822000 	add	r2, r2, r0
80010ea0:	e1520003 	cmp	r2, r3
80010ea4:	8a000002 	bhi	80010eb4 <argptr+0x58>
80010ea8:	e5810000 	str	r0, [r1]
80010eac:	e3a00000 	mov	r0, #0
80010eb0:	e49df004 	pop	{pc}		; (ldr pc, [sp], #4)
80010eb4:	e3e00000 	mvn	r0, #0
80010eb8:	e49df004 	pop	{pc}		; (ldr pc, [sp], #4)

80010ebc <argstr>:
80010ebc:	e30a3af4 	movw	r3, #43764	; 0xaaf4
80010ec0:	e3483009 	movt	r3, #32777	; 0x8009
80010ec4:	e5933018 	ldr	r3, [r3, #24]
80010ec8:	e5932018 	ldr	r2, [r3, #24]
80010ecc:	e593c000 	ldr	ip, [r3]
80010ed0:	e5922000 	ldr	r2, [r2]
80010ed4:	e0823100 	add	r3, r2, r0, lsl #2
80010ed8:	e153000c 	cmp	r3, ip
80010edc:	2a000015 	bcs	80010f38 <argstr+0x7c>
80010ee0:	e2833004 	add	r3, r3, #4
80010ee4:	e15c0003 	cmp	ip, r3
80010ee8:	3a000012 	bcc	80010f38 <argstr+0x7c>
80010eec:	e52de004 	push	{lr}		; (str lr, [sp, #-4]!)
80010ef0:	e792e100 	ldr	lr, [r2, r0, lsl #2]
80010ef4:	e15e000c 	cmp	lr, ip
80010ef8:	2a00000c 	bcs	80010f30 <argstr+0x74>
80010efc:	e581e000 	str	lr, [r1]
80010f00:	e1a0000e 	mov	r0, lr
80010f04:	e5de3000 	ldrb	r3, [lr]
80010f08:	e3530000 	cmp	r3, #0
80010f0c:	128e3001 	addne	r3, lr, #1
80010f10:	1a000003 	bne	80010f24 <argstr+0x68>
80010f14:	ea000009 	b	80010f40 <argstr+0x84>
80010f18:	e4d32001 	ldrb	r2, [r3], #1
80010f1c:	e3520000 	cmp	r2, #0
80010f20:	0a000006 	beq	80010f40 <argstr+0x84>
80010f24:	e15c0003 	cmp	ip, r3
80010f28:	e1a00003 	mov	r0, r3
80010f2c:	1afffff9 	bne	80010f18 <argstr+0x5c>
80010f30:	e3e00000 	mvn	r0, #0
80010f34:	e49df004 	pop	{pc}		; (ldr pc, [sp], #4)
80010f38:	e3e00000 	mvn	r0, #0
80010f3c:	e12fff1e 	bx	lr
80010f40:	e040000e 	sub	r0, r0, lr
80010f44:	e49df004 	pop	{pc}		; (ldr pc, [sp], #4)

80010f48 <syscall>:
80010f48:	e92d4070 	push	{r4, r5, r6, lr}
80010f4c:	e30a4af4 	movw	r4, #43764	; 0xaaf4
80010f50:	e3484009 	movt	r4, #32777	; 0x8009
80010f54:	e5942018 	ldr	r2, [r4, #24]
80010f58:	e5925018 	ldr	r5, [r2, #24]
80010f5c:	e5953004 	ldr	r3, [r5, #4]
80010f60:	e2431001 	sub	r1, r3, #1
80010f64:	e3510014 	cmp	r1, #20
80010f68:	8a00000f 	bhi	80010fac <syscall+0x64>
80010f6c:	e3081ca4 	movw	r1, #36004	; 0x8ca4
80010f70:	e3481001 	movt	r1, #32769	; 0x8001
80010f74:	e7911103 	ldr	r1, [r1, r3, lsl #2]
80010f78:	e3510000 	cmp	r1, #0
80010f7c:	0a00000a 	beq	80010fac <syscall+0x64>
80010f80:	e3530007 	cmp	r3, #7
80010f84:	0a000002 	beq	80010f94 <syscall+0x4c>
80010f88:	e12fff31 	blx	r1
80010f8c:	e5850004 	str	r0, [r5, #4]
80010f90:	e8bd8070 	pop	{r4, r5, r6, pc}
80010f94:	ebffe47d 	bl	8000a190 <sys_exec>
80010f98:	e3700001 	cmn	r0, #1
80010f9c:	05943018 	ldreq	r3, [r4, #24]
80010fa0:	05933018 	ldreq	r3, [r3, #24]
80010fa4:	05830004 	streq	r0, [r3, #4]
80010fa8:	e8bd8070 	pop	{r4, r5, r6, pc}
80010fac:	e5921010 	ldr	r1, [r2, #16]
80010fb0:	e3080cfc 	movw	r0, #36092	; 0x8cfc
80010fb4:	e3480001 	movt	r0, #32769	; 0x8001
80010fb8:	e282206c 	add	r2, r2, #108	; 0x6c
80010fbc:	ebffec2d 	bl	8000c078 <cprintf>
80010fc0:	e5943018 	ldr	r3, [r4, #24]
80010fc4:	e3e02000 	mvn	r2, #0
80010fc8:	e5933018 	ldr	r3, [r3, #24]
80010fcc:	e5832004 	str	r2, [r3, #4]
80010fd0:	e8bd8070 	pop	{r4, r5, r6, pc}

80010fd4 <USBBulkOnlyMassStorageDevice>:
80010fd4:	e92d4010 	push	{r4, lr}
80010fd8:	e1a04000 	mov	r4, r0
80010fdc:	ebfffb9c 	bl	8000fe54 <USBDeviceCopy>
80010fe0:	e3012284 	movw	r2, #4740	; 0x1284
80010fe4:	e3a03000 	mov	r3, #0
80010fe8:	e3482001 	movt	r2, #32769	; 0x8001
80010fec:	e3a00000 	mov	r0, #0
80010ff0:	e5842000 	str	r2, [r4]
80010ff4:	e3a01000 	mov	r1, #0
80010ff8:	e1c405f0 	strd	r0, [r4, #80]	; 0x50
80010ffc:	e584303c 	str	r3, [r4, #60]	; 0x3c
80011000:	e5843040 	str	r3, [r4, #64]	; 0x40
80011004:	e5843044 	str	r3, [r4, #68]	; 0x44
80011008:	e5843048 	str	r3, [r4, #72]	; 0x48
8001100c:	e8bd8010 	pop	{r4, pc}

80011010 <_USBBulkOnlyMassStorageDevice>:
80011010:	e92d4010 	push	{r4, lr}
80011014:	e1a04000 	mov	r4, r0
80011018:	e5900040 	ldr	r0, [r0, #64]	; 0x40
8001101c:	e3500000 	cmp	r0, #0
80011020:	0a000004 	beq	80011038 <_USBBulkOnlyMassStorageDevice+0x28>
80011024:	ebffe510 	bl	8000a46c <_USBEndpoint>
80011028:	e5940040 	ldr	r0, [r4, #64]	; 0x40
8001102c:	eb000490 	bl	80012274 <free>
80011030:	e3a03000 	mov	r3, #0
80011034:	e5843040 	str	r3, [r4, #64]	; 0x40
80011038:	e594003c 	ldr	r0, [r4, #60]	; 0x3c
8001103c:	e3500000 	cmp	r0, #0
80011040:	0a000004 	beq	80011058 <_USBBulkOnlyMassStorageDevice+0x48>
80011044:	ebffe508 	bl	8000a46c <_USBEndpoint>
80011048:	e594003c 	ldr	r0, [r4, #60]	; 0x3c
8001104c:	eb000488 	bl	80012274 <free>
80011050:	e3a03000 	mov	r3, #0
80011054:	e584303c 	str	r3, [r4, #60]	; 0x3c
80011058:	e1a00004 	mov	r0, r4
8001105c:	e8bd4010 	pop	{r4, lr}
80011060:	eafffbb8 	b	8000ff48 <_USBDevice>

80011064 <USBBulkOnlyMassStorageDeviceSeek>:
80011064:	e1c025f0 	strd	r2, [r0, #80]	; 0x50
80011068:	e1a01003 	mov	r1, r3
8001106c:	e1a00002 	mov	r0, r2
80011070:	e12fff1e 	bx	lr

80011074 <USBBulkOnlyMassStorageDeviceGetCapacity>:
80011074:	e5900048 	ldr	r0, [r0, #72]	; 0x48
80011078:	e12fff1e 	bx	lr

8001107c <USBBulkOnlyMassStorageDeviceCommand>:
8001107c:	e92d47f0 	push	{r4, r5, r6, r7, r8, r9, sl, lr}
80011080:	e24dd030 	sub	sp, sp, #48	; 0x30
80011084:	e1a04000 	mov	r4, r0
80011088:	e1a06002 	mov	r6, r2
8001108c:	e59d7054 	ldr	r7, [sp, #84]	; 0x54
80011090:	e1a08001 	mov	r8, r1
80011094:	e59d5050 	ldr	r5, [sp, #80]	; 0x50
80011098:	e3a0201f 	mov	r2, #31
8001109c:	e3a01000 	mov	r1, #0
800110a0:	e28d0010 	add	r0, sp, #16
800110a4:	e1a09003 	mov	r9, r3
800110a8:	eb000b7d 	bl	80013ea4 <uspi_memset>
800110ac:	e5943044 	ldr	r3, [r4, #68]	; 0x44
800110b0:	e3570000 	cmp	r7, #0
800110b4:	e5dda01e 	ldrb	sl, [sp, #30]
800110b8:	13a00080 	movne	r0, #128	; 0x80
800110bc:	e5dde01d 	ldrb	lr, [sp, #29]
800110c0:	03a00000 	moveq	r0, #0
800110c4:	e7c4a016 	bfi	sl, r6, #0, #5
800110c8:	e2833001 	add	r3, r3, #1
800110cc:	e5843044 	str	r3, [r4, #68]	; 0x44
800110d0:	e305c355 	movw	ip, #21333	; 0x5355
800110d4:	e344c342 	movt	ip, #17218	; 0x4342
800110d8:	e1a02006 	mov	r2, r6
800110dc:	e7c3e01f 	bfc	lr, #0, #4
800110e0:	e1a01008 	mov	r1, r8
800110e4:	e5cd001c 	strb	r0, [sp, #28]
800110e8:	e28d001f 	add	r0, sp, #31
800110ec:	e58d3014 	str	r3, [sp, #20]
800110f0:	e5cde01d 	strb	lr, [sp, #29]
800110f4:	e58dc010 	str	ip, [sp, #16]
800110f8:	e58d5018 	str	r5, [sp, #24]
800110fc:	e5cda01e 	strb	sl, [sp, #30]
80011100:	eb000b70 	bl	80013ec8 <uspi_memcpy>
80011104:	e1a00004 	mov	r0, r4
80011108:	ebfffcbd 	bl	80010404 <USBDeviceGetHost>
8001110c:	e5941040 	ldr	r1, [r4, #64]	; 0x40
80011110:	e28d2010 	add	r2, sp, #16
80011114:	e3a0301f 	mov	r3, #31
80011118:	e1a06000 	mov	r6, r0
8001111c:	eb00100f 	bl	80015160 <DWHCIDeviceTransfer>
80011120:	e3500000 	cmp	r0, #0
80011124:	ba000046 	blt	80011244 <USBBulkOnlyMassStorageDeviceCommand+0x1c8>
80011128:	e3550000 	cmp	r5, #0
8001112c:	0a000009 	beq	80011158 <USBBulkOnlyMassStorageDeviceCommand+0xdc>
80011130:	e594c03c 	ldr	ip, [r4, #60]	; 0x3c
80011134:	e3570000 	cmp	r7, #0
80011138:	e5941040 	ldr	r1, [r4, #64]	; 0x40
8001113c:	e1a03005 	mov	r3, r5
80011140:	11a0100c 	movne	r1, ip
80011144:	e1a02009 	mov	r2, r9
80011148:	e1a00006 	mov	r0, r6
8001114c:	eb001003 	bl	80015160 <DWHCIDeviceTransfer>
80011150:	e2505000 	subs	r5, r0, #0
80011154:	ba000042 	blt	80011264 <USBBulkOnlyMassStorageDeviceCommand+0x1e8>
80011158:	e594103c 	ldr	r1, [r4, #60]	; 0x3c
8001115c:	e1a00006 	mov	r0, r6
80011160:	e3a0300d 	mov	r3, #13
80011164:	e1a0200d 	mov	r2, sp
80011168:	eb000ffc 	bl	80015160 <DWHCIDeviceTransfer>
8001116c:	e350000d 	cmp	r0, #13
80011170:	1a000011 	bne	800111bc <USBBulkOnlyMassStorageDeviceCommand+0x140>
80011174:	e59d2000 	ldr	r2, [sp]
80011178:	e3053355 	movw	r3, #21333	; 0x5355
8001117c:	e3453342 	movt	r3, #21314	; 0x5342
80011180:	e1520003 	cmp	r2, r3
80011184:	1a000014 	bne	800111dc <USBBulkOnlyMassStorageDeviceCommand+0x160>
80011188:	e5943044 	ldr	r3, [r4, #68]	; 0x44
8001118c:	e59d2004 	ldr	r2, [sp, #4]
80011190:	e1520003 	cmp	r2, r3
80011194:	1a000018 	bne	800111fc <USBBulkOnlyMassStorageDeviceCommand+0x180>
80011198:	e5dd300c 	ldrb	r3, [sp, #12]
8001119c:	e3530000 	cmp	r3, #0
800111a0:	1a00001d 	bne	8001121c <USBBulkOnlyMassStorageDeviceCommand+0x1a0>
800111a4:	e59d3008 	ldr	r3, [sp, #8]
800111a8:	e3530000 	cmp	r3, #0
800111ac:	1a00001c 	bne	80011224 <USBBulkOnlyMassStorageDeviceCommand+0x1a8>
800111b0:	e1a00005 	mov	r0, r5
800111b4:	e28dd030 	add	sp, sp, #48	; 0x30
800111b8:	e8bd87f0 	pop	{r4, r5, r6, r7, r8, r9, sl, pc}
800111bc:	e3082d4c 	movw	r2, #36172	; 0x8d4c
800111c0:	e3080d18 	movw	r0, #36120	; 0x8d18
800111c4:	e3482001 	movt	r2, #32769	; 0x8001
800111c8:	e3a01001 	mov	r1, #1
800111cc:	e3480001 	movt	r0, #32769	; 0x8001
800111d0:	e3e05000 	mvn	r5, #0
800111d4:	eb000479 	bl	800123c0 <LogWrite>
800111d8:	eafffff4 	b	800111b0 <USBBulkOnlyMassStorageDeviceCommand+0x134>
800111dc:	e3082d60 	movw	r2, #36192	; 0x8d60
800111e0:	e3080d18 	movw	r0, #36120	; 0x8d18
800111e4:	e3482001 	movt	r2, #32769	; 0x8001
800111e8:	e3a01001 	mov	r1, #1
800111ec:	e3480001 	movt	r0, #32769	; 0x8001
800111f0:	e3e05000 	mvn	r5, #0
800111f4:	eb000471 	bl	800123c0 <LogWrite>
800111f8:	eaffffec 	b	800111b0 <USBBulkOnlyMassStorageDeviceCommand+0x134>
800111fc:	e3082d78 	movw	r2, #36216	; 0x8d78
80011200:	e3080d18 	movw	r0, #36120	; 0x8d18
80011204:	e3482001 	movt	r2, #32769	; 0x8001
80011208:	e3a01001 	mov	r1, #1
8001120c:	e3480001 	movt	r0, #32769	; 0x8001
80011210:	e3e05000 	mvn	r5, #0
80011214:	eb000469 	bl	800123c0 <LogWrite>
80011218:	eaffffe4 	b	800111b0 <USBBulkOnlyMassStorageDeviceCommand+0x134>
8001121c:	e3e05000 	mvn	r5, #0
80011220:	eaffffe2 	b	800111b0 <USBBulkOnlyMassStorageDeviceCommand+0x134>
80011224:	e3082d8c 	movw	r2, #36236	; 0x8d8c
80011228:	e3080d18 	movw	r0, #36120	; 0x8d18
8001122c:	e3482001 	movt	r2, #32769	; 0x8001
80011230:	e3a01001 	mov	r1, #1
80011234:	e3480001 	movt	r0, #32769	; 0x8001
80011238:	e3e05000 	mvn	r5, #0
8001123c:	eb00045f 	bl	800123c0 <LogWrite>
80011240:	eaffffda 	b	800111b0 <USBBulkOnlyMassStorageDeviceCommand+0x134>
80011244:	e3082d20 	movw	r2, #36128	; 0x8d20
80011248:	e3080d18 	movw	r0, #36120	; 0x8d18
8001124c:	e3482001 	movt	r2, #32769	; 0x8001
80011250:	e3a01001 	mov	r1, #1
80011254:	e3480001 	movt	r0, #32769	; 0x8001
80011258:	e3e05000 	mvn	r5, #0
8001125c:	eb000457 	bl	800123c0 <LogWrite>
80011260:	eaffffd2 	b	800111b0 <USBBulkOnlyMassStorageDeviceCommand+0x134>
80011264:	e3082d34 	movw	r2, #36148	; 0x8d34
80011268:	e3080d18 	movw	r0, #36120	; 0x8d18
8001126c:	e3482001 	movt	r2, #32769	; 0x8001
80011270:	e3a01001 	mov	r1, #1
80011274:	e3480001 	movt	r0, #32769	; 0x8001
80011278:	e3e05000 	mvn	r5, #0
8001127c:	eb00044f 	bl	800123c0 <LogWrite>
80011280:	eaffffca 	b	800111b0 <USBBulkOnlyMassStorageDeviceCommand+0x134>

80011284 <USBBulkOnlyMassStorageDeviceConfigure>:
80011284:	e92d41f0 	push	{r4, r5, r6, r7, r8, lr}
80011288:	e3a01002 	mov	r1, #2
8001128c:	e24dd060 	sub	sp, sp, #96	; 0x60
80011290:	e1a04000 	mov	r4, r0
80011294:	ebfffc60 	bl	8001041c <USBDeviceGetDescriptor>
80011298:	e3500000 	cmp	r0, #0
8001129c:	0a000002 	beq	800112ac <USBBulkOnlyMassStorageDeviceConfigure+0x28>
800112a0:	e5d03004 	ldrb	r3, [r0, #4]
800112a4:	e3530000 	cmp	r3, #0
800112a8:	1a000007 	bne	800112cc <USBBulkOnlyMassStorageDeviceConfigure+0x48>
800112ac:	e3081d18 	movw	r1, #36120	; 0x8d18
800112b0:	e1a00004 	mov	r0, r4
800112b4:	e3481001 	movt	r1, #32769	; 0x8001
800112b8:	e3a05000 	mov	r5, #0
800112bc:	ebfffc58 	bl	80010424 <USBDeviceConfigurationError>
800112c0:	e1a00005 	mov	r0, r5
800112c4:	e28dd060 	add	sp, sp, #96	; 0x60
800112c8:	e8bd81f0 	pop	{r4, r5, r6, r7, r8, pc}
800112cc:	e3a01004 	mov	r1, #4
800112d0:	e1a00004 	mov	r0, r4
800112d4:	ebfffc50 	bl	8001041c <USBDeviceGetDescriptor>
800112d8:	e3500000 	cmp	r0, #0
800112dc:	0afffff2 	beq	800112ac <USBBulkOnlyMassStorageDeviceConfigure+0x28>
800112e0:	e5d03002 	ldrb	r3, [r0, #2]
800112e4:	e3530000 	cmp	r3, #0
800112e8:	1affffef 	bne	800112ac <USBBulkOnlyMassStorageDeviceConfigure+0x28>
800112ec:	e5d03003 	ldrb	r3, [r0, #3]
800112f0:	e3530000 	cmp	r3, #0
800112f4:	1affffec 	bne	800112ac <USBBulkOnlyMassStorageDeviceConfigure+0x28>
800112f8:	e5d03004 	ldrb	r3, [r0, #4]
800112fc:	e3530001 	cmp	r3, #1
80011300:	9affffe9 	bls	800112ac <USBBulkOnlyMassStorageDeviceConfigure+0x28>
80011304:	e5d03005 	ldrb	r3, [r0, #5]
80011308:	e3530008 	cmp	r3, #8
8001130c:	1affffe6 	bne	800112ac <USBBulkOnlyMassStorageDeviceConfigure+0x28>
80011310:	e5d03006 	ldrb	r3, [r0, #6]
80011314:	e3530006 	cmp	r3, #6
80011318:	1affffe3 	bne	800112ac <USBBulkOnlyMassStorageDeviceConfigure+0x28>
8001131c:	e5d03007 	ldrb	r3, [r0, #7]
80011320:	e3530050 	cmp	r3, #80	; 0x50
80011324:	1affffe0 	bne	800112ac <USBBulkOnlyMassStorageDeviceConfigure+0x28>
80011328:	ea000003 	b	8001133c <USBBulkOnlyMassStorageDeviceConfigure+0xb8>
8001132c:	e5d63003 	ldrb	r3, [r6, #3]
80011330:	e203303f 	and	r3, r3, #63	; 0x3f
80011334:	e3530002 	cmp	r3, #2
80011338:	0a00006c 	beq	800114f0 <USBBulkOnlyMassStorageDeviceConfigure+0x26c>
8001133c:	e3a01005 	mov	r1, #5
80011340:	e1a00004 	mov	r0, r4
80011344:	ebfffc34 	bl	8001041c <USBDeviceGetDescriptor>
80011348:	e2506000 	subs	r6, r0, #0
8001134c:	1afffff6 	bne	8001132c <USBBulkOnlyMassStorageDeviceConfigure+0xa8>
80011350:	e594303c 	ldr	r3, [r4, #60]	; 0x3c
80011354:	e3530000 	cmp	r3, #0
80011358:	0affffd3 	beq	800112ac <USBBulkOnlyMassStorageDeviceConfigure+0x28>
8001135c:	e5943040 	ldr	r3, [r4, #64]	; 0x40
80011360:	e3530000 	cmp	r3, #0
80011364:	0affffd0 	beq	800112ac <USBBulkOnlyMassStorageDeviceConfigure+0x28>
80011368:	e1a00004 	mov	r0, r4
8001136c:	ebfffa83 	bl	8000fd80 <USBDeviceConfigure>
80011370:	e2505000 	subs	r5, r0, #0
80011374:	0a00006a 	beq	80011524 <USBBulkOnlyMassStorageDeviceConfigure+0x2a0>
80011378:	e5cd600d 	strb	r6, [sp, #13]
8001137c:	e3a00024 	mov	r0, #36	; 0x24
80011380:	e5cd0010 	strb	r0, [sp, #16]
80011384:	e3a05001 	mov	r5, #1
80011388:	e88d0021 	stm	sp, {r0, r5}
8001138c:	e5cd600e 	strb	r6, [sp, #14]
80011390:	e3a0c012 	mov	ip, #18
80011394:	e5cd600f 	strb	r6, [sp, #15]
80011398:	e28d303c 	add	r3, sp, #60	; 0x3c
8001139c:	e5cd6011 	strb	r6, [sp, #17]
800113a0:	e3a02006 	mov	r2, #6
800113a4:	e5cdc00c 	strb	ip, [sp, #12]
800113a8:	e28d100c 	add	r1, sp, #12
800113ac:	e1a00004 	mov	r0, r4
800113b0:	ebffff31 	bl	8001107c <USBBulkOnlyMassStorageDeviceCommand>
800113b4:	e3500024 	cmp	r0, #36	; 0x24
800113b8:	1a000069 	bne	80011564 <USBBulkOnlyMassStorageDeviceConfigure+0x2e0>
800113bc:	e5dd303c 	ldrb	r3, [sp, #60]	; 0x3c
800113c0:	e213201f 	ands	r2, r3, #31
800113c4:	01a06002 	moveq	r6, r2
800113c8:	03a05063 	moveq	r5, #99	; 0x63
800113cc:	03a08003 	moveq	r8, #3
800113d0:	0a000011 	beq	8001141c <USBBulkOnlyMassStorageDeviceConfigure+0x198>
800113d4:	ea000079 	b	800115c0 <USBBulkOnlyMassStorageDeviceConfigure+0x33c>
800113d8:	e5ddc01d 	ldrb	ip, [sp, #29]
800113dc:	e58d7004 	str	r7, [sp, #4]
800113e0:	e7c0c016 	bfi	ip, r6, #0, #1
800113e4:	e7c7c096 	bfi	ip, r6, #1, #7
800113e8:	e58de000 	str	lr, [sp]
800113ec:	e5cd801c 	strb	r8, [sp, #28]
800113f0:	e1cd61be 	strh	r6, [sp, #30]
800113f4:	e5cde020 	strb	lr, [sp, #32]
800113f8:	e5cd6021 	strb	r6, [sp, #33]	; 0x21
800113fc:	e5cdc01d 	strb	ip, [sp, #29]
80011400:	ebffff1d 	bl	8001107c <USBBulkOnlyMassStorageDeviceCommand>
80011404:	e3500000 	cmp	r0, #0
80011408:	e3a00064 	mov	r0, #100	; 0x64
8001140c:	ba00005c 	blt	80011584 <USBBulkOnlyMassStorageDeviceConfigure+0x300>
80011410:	eb000398 	bl	80012278 <MsDelay>
80011414:	e2555001 	subs	r5, r5, #1
80011418:	0a000061 	beq	800115a4 <USBBulkOnlyMassStorageDeviceConfigure+0x320>
8001141c:	e58d6004 	str	r6, [sp, #4]
80011420:	e3a03000 	mov	r3, #0
80011424:	e58d6000 	str	r6, [sp]
80011428:	e3a02006 	mov	r2, #6
8001142c:	e5cd6014 	strb	r6, [sp, #20]
80011430:	e28d1014 	add	r1, sp, #20
80011434:	e5cd6015 	strb	r6, [sp, #21]
80011438:	e1a00004 	mov	r0, r4
8001143c:	e5cd6016 	strb	r6, [sp, #22]
80011440:	e3a07001 	mov	r7, #1
80011444:	e5cd6017 	strb	r6, [sp, #23]
80011448:	e5cd6018 	strb	r6, [sp, #24]
8001144c:	e5cd6019 	strb	r6, [sp, #25]
80011450:	ebffff09 	bl	8001107c <USBBulkOnlyMassStorageDeviceCommand>
80011454:	e3500000 	cmp	r0, #0
80011458:	e3a0e012 	mov	lr, #18
8001145c:	e28d3028 	add	r3, sp, #40	; 0x28
80011460:	e3a02006 	mov	r2, #6
80011464:	e28d101c 	add	r1, sp, #28
80011468:	e1a00004 	mov	r0, r4
8001146c:	baffffd9 	blt	800113d8 <USBBulkOnlyMassStorageDeviceConfigure+0x154>
80011470:	e5dde01d 	ldrb	lr, [sp, #29]
80011474:	e3a02008 	mov	r2, #8
80011478:	e5ddc024 	ldrb	ip, [sp, #36]	; 0x24
8001147c:	e3a07001 	mov	r7, #1
80011480:	e7c0e016 	bfi	lr, r6, #0, #1
80011484:	e28d3014 	add	r3, sp, #20
80011488:	e7c0c016 	bfi	ip, r6, #0, #1
8001148c:	e28d101c 	add	r1, sp, #28
80011490:	e7c7e096 	bfi	lr, r6, #1, #7
80011494:	e3a05025 	mov	r5, #37	; 0x25
80011498:	e7c7c096 	bfi	ip, r6, #1, #7
8001149c:	e1a00004 	mov	r0, r4
800114a0:	e88d0084 	stm	sp, {r2, r7}
800114a4:	e1cd61be 	strh	r6, [sp, #30]
800114a8:	e3a0200a 	mov	r2, #10
800114ac:	e1cd62b0 	strh	r6, [sp, #32]
800114b0:	e1cd62b2 	strh	r6, [sp, #34]	; 0x22
800114b4:	e5cd6025 	strb	r6, [sp, #37]	; 0x25
800114b8:	e5cde01d 	strb	lr, [sp, #29]
800114bc:	e5cdc024 	strb	ip, [sp, #36]	; 0x24
800114c0:	e5cd501c 	strb	r5, [sp, #28]
800114c4:	ebfffeec 	bl	8001107c <USBBulkOnlyMassStorageDeviceCommand>
800114c8:	e3500008 	cmp	r0, #8
800114cc:	0a000044 	beq	800115e4 <USBBulkOnlyMassStorageDeviceConfigure+0x360>
800114d0:	e3082df4 	movw	r2, #36340	; 0x8df4
800114d4:	e3080d18 	movw	r0, #36120	; 0x8d18
800114d8:	e3482001 	movt	r2, #32769	; 0x8001
800114dc:	e1a01007 	mov	r1, r7
800114e0:	e3480001 	movt	r0, #32769	; 0x8001
800114e4:	e3a05000 	mov	r5, #0
800114e8:	eb0003b4 	bl	800123c0 <LogWrite>
800114ec:	eaffff73 	b	800112c0 <USBBulkOnlyMassStorageDeviceConfigure+0x3c>
800114f0:	e1d630d2 	ldrsb	r3, [r6, #2]
800114f4:	e3a0001c 	mov	r0, #28
800114f8:	e3530000 	cmp	r3, #0
800114fc:	ba00000f 	blt	80011540 <USBBulkOnlyMassStorageDeviceConfigure+0x2bc>
80011500:	e5943040 	ldr	r3, [r4, #64]	; 0x40
80011504:	e3530000 	cmp	r3, #0
80011508:	1affff67 	bne	800112ac <USBBulkOnlyMassStorageDeviceConfigure+0x28>
8001150c:	eb000351 	bl	80012258 <malloc>
80011510:	e5840040 	str	r0, [r4, #64]	; 0x40
80011514:	e1a02006 	mov	r2, r6
80011518:	e1a01004 	mov	r1, r4
8001151c:	ebffe387 	bl	8000a340 <USBEndpoint2>
80011520:	eaffff85 	b	8001133c <USBBulkOnlyMassStorageDeviceConfigure+0xb8>
80011524:	e3072c90 	movw	r2, #31888	; 0x7c90
80011528:	e3080d18 	movw	r0, #36120	; 0x8d18
8001152c:	e3482001 	movt	r2, #32769	; 0x8001
80011530:	e3a01001 	mov	r1, #1
80011534:	e3480001 	movt	r0, #32769	; 0x8001
80011538:	eb0003a0 	bl	800123c0 <LogWrite>
8001153c:	eaffff5f 	b	800112c0 <USBBulkOnlyMassStorageDeviceConfigure+0x3c>
80011540:	e594303c 	ldr	r3, [r4, #60]	; 0x3c
80011544:	e3530000 	cmp	r3, #0
80011548:	1affff57 	bne	800112ac <USBBulkOnlyMassStorageDeviceConfigure+0x28>
8001154c:	eb000341 	bl	80012258 <malloc>
80011550:	e584003c 	str	r0, [r4, #60]	; 0x3c
80011554:	e1a02006 	mov	r2, r6
80011558:	e1a01004 	mov	r1, r4
8001155c:	ebffe377 	bl	8000a340 <USBEndpoint2>
80011560:	eaffff75 	b	8001133c <USBBulkOnlyMassStorageDeviceConfigure+0xb8>
80011564:	e3082da4 	movw	r2, #36260	; 0x8da4
80011568:	e3080d18 	movw	r0, #36120	; 0x8d18
8001156c:	e3482001 	movt	r2, #32769	; 0x8001
80011570:	e1a01005 	mov	r1, r5
80011574:	e3480001 	movt	r0, #32769	; 0x8001
80011578:	e1a05006 	mov	r5, r6
8001157c:	eb00038f 	bl	800123c0 <LogWrite>
80011580:	eaffff4e 	b	800112c0 <USBBulkOnlyMassStorageDeviceConfigure+0x3c>
80011584:	e3082ddc 	movw	r2, #36316	; 0x8ddc
80011588:	e3080d18 	movw	r0, #36120	; 0x8d18
8001158c:	e3482001 	movt	r2, #32769	; 0x8001
80011590:	e1a01007 	mov	r1, r7
80011594:	e3480001 	movt	r0, #32769	; 0x8001
80011598:	e3a05000 	mov	r5, #0
8001159c:	eb000387 	bl	800123c0 <LogWrite>
800115a0:	eaffff46 	b	800112c0 <USBBulkOnlyMassStorageDeviceConfigure+0x3c>
800115a4:	e3082e5c 	movw	r2, #36444	; 0x8e5c
800115a8:	e3080d18 	movw	r0, #36120	; 0x8d18
800115ac:	e3482001 	movt	r2, #32769	; 0x8001
800115b0:	e1a01007 	mov	r1, r7
800115b4:	e3480001 	movt	r0, #32769	; 0x8001
800115b8:	eb000380 	bl	800123c0 <LogWrite>
800115bc:	eaffff3f 	b	800112c0 <USBBulkOnlyMassStorageDeviceConfigure+0x3c>
800115c0:	e3082dbc 	movw	r2, #36284	; 0x8dbc
800115c4:	e3080d18 	movw	r0, #36120	; 0x8d18
800115c8:	e3482001 	movt	r2, #32769	; 0x8001
800115cc:	e1a01005 	mov	r1, r5
800115d0:	e3480001 	movt	r0, #32769	; 0x8001
800115d4:	e203301f 	and	r3, r3, #31
800115d8:	e1a05006 	mov	r5, r6
800115dc:	eb000377 	bl	800123c0 <LogWrite>
800115e0:	eaffff36 	b	800112c0 <USBBulkOnlyMassStorageDeviceConfigure+0x3c>
800115e4:	e59d0018 	ldr	r0, [sp, #24]
800115e8:	eb000ab4 	bl	800140c0 <uspi_le2be32>
800115ec:	e3500c02 	cmp	r0, #512	; 0x200
800115f0:	e1a03000 	mov	r3, r0
800115f4:	0a000007 	beq	80011618 <USBBulkOnlyMassStorageDeviceConfigure+0x394>
800115f8:	e3082e0c 	movw	r2, #36364	; 0x8e0c
800115fc:	e3080d18 	movw	r0, #36120	; 0x8d18
80011600:	e3482001 	movt	r2, #32769	; 0x8001
80011604:	e1a01007 	mov	r1, r7
80011608:	e3480001 	movt	r0, #32769	; 0x8001
8001160c:	e3a05000 	mov	r5, #0
80011610:	eb00036a 	bl	800123c0 <LogWrite>
80011614:	eaffff29 	b	800112c0 <USBBulkOnlyMassStorageDeviceConfigure+0x3c>
80011618:	e59d0014 	ldr	r0, [sp, #20]
8001161c:	eb000aa7 	bl	800140c0 <uspi_le2be32>
80011620:	e5840048 	str	r0, [r4, #72]	; 0x48
80011624:	e3700001 	cmn	r0, #1
80011628:	0a000020 	beq	800116b0 <USBBulkOnlyMassStorageDeviceConfigure+0x42c>
8001162c:	e2803001 	add	r3, r0, #1
80011630:	e3082e44 	movw	r2, #36420	; 0x8e44
80011634:	e5843048 	str	r3, [r4, #72]	; 0x48
80011638:	e3080d18 	movw	r0, #36120	; 0x8d18
8001163c:	e1a035a3 	lsr	r3, r3, #11
80011640:	e3a01004 	mov	r1, #4
80011644:	e3482001 	movt	r2, #32769	; 0x8001
80011648:	e1a05007 	mov	r5, r7
8001164c:	e3480001 	movt	r0, #32769	; 0x8001
80011650:	eb00035a 	bl	800123c0 <LogWrite>
80011654:	e28d0028 	add	r0, sp, #40	; 0x28
80011658:	ebffde2f 	bl	80008f1c <String>
8001165c:	e30a38c4 	movw	r3, #43204	; 0xa8c4
80011660:	e3081ab8 	movw	r1, #35512	; 0x8ab8
80011664:	e3483009 	movt	r3, #32777	; 0x8009
80011668:	e28d0028 	add	r0, sp, #40	; 0x28
8001166c:	e3481001 	movt	r1, #32769	; 0x8001
80011670:	e5932000 	ldr	r2, [r3]
80011674:	e282c001 	add	ip, r2, #1
80011678:	e583c000 	str	ip, [r3]
8001167c:	ebffe047 	bl	800097a0 <StringFormat>
80011680:	eb001567 	bl	80016c24 <DeviceNameServiceGet>
80011684:	e1a06000 	mov	r6, r0
80011688:	e28d0028 	add	r0, sp, #40	; 0x28
8001168c:	ebffde3c 	bl	80008f84 <StringGet>
80011690:	e1a01000 	mov	r1, r0
80011694:	e1a03007 	mov	r3, r7
80011698:	e1a00006 	mov	r0, r6
8001169c:	e1a02004 	mov	r2, r4
800116a0:	eb001535 	bl	80016b7c <DeviceNameServiceAddDevice>
800116a4:	e28d0028 	add	r0, sp, #40	; 0x28
800116a8:	ebffde2b 	bl	80008f5c <_String>
800116ac:	eaffff03 	b	800112c0 <USBBulkOnlyMassStorageDeviceConfigure+0x3c>
800116b0:	e3082e28 	movw	r2, #36392	; 0x8e28
800116b4:	e3080d18 	movw	r0, #36120	; 0x8d18
800116b8:	e3482001 	movt	r2, #32769	; 0x8001
800116bc:	e1a01007 	mov	r1, r7
800116c0:	e3480001 	movt	r0, #32769	; 0x8001
800116c4:	e3a05000 	mov	r5, #0
800116c8:	eb00033c 	bl	800123c0 <LogWrite>
800116cc:	eafffefb 	b	800112c0 <USBBulkOnlyMassStorageDeviceConfigure+0x3c>

800116d0 <USBBulkOnlyMassStorageDeviceTryRead>:
800116d0:	e92d43f0 	push	{r4, r5, r6, r7, r8, r9, lr}
800116d4:	e30041ff 	movw	r4, #511	; 0x1ff
800116d8:	e1c085d0 	ldrd	r8, [r0, #80]	; 0x50
800116dc:	e3a05000 	mov	r5, #0
800116e0:	e30071ff 	movw	r7, #511	; 0x1ff
800116e4:	e0044008 	and	r4, r4, r8
800116e8:	e0055009 	and	r5, r5, r9
800116ec:	e1943005 	orrs	r3, r4, r5
800116f0:	e3e06000 	mvn	r6, #0
800116f4:	13a03001 	movne	r3, #1
800116f8:	03a03000 	moveq	r3, #0
800116fc:	e1590007 	cmp	r9, r7
80011700:	e24dd01c 	sub	sp, sp, #28
80011704:	01580006 	cmpeq	r8, r6
80011708:	83833001 	orrhi	r3, r3, #1
8001170c:	e3530000 	cmp	r3, #0
80011710:	1a00001f 	bne	80011794 <USBBulkOnlyMassStorageDeviceTryRead+0xc4>
80011714:	e7e86052 	ubfx	r6, r2, #0, #9
80011718:	e1a0c4a8 	lsr	ip, r8, #9
8001171c:	e3560000 	cmp	r6, #0
80011720:	e18ccb89 	orr	ip, ip, r9, lsl #23
80011724:	1a00001a 	bne	80011794 <USBBulkOnlyMassStorageDeviceTryRead+0xc4>
80011728:	e5cd600d 	strb	r6, [sp, #13]
8001172c:	e3a03028 	mov	r3, #40	; 0x28
80011730:	e5cd300c 	strb	r3, [sp, #12]
80011734:	e1a05000 	mov	r5, r0
80011738:	e1a0000c 	mov	r0, ip
8001173c:	e1a04002 	mov	r4, r2
80011740:	e1a07001 	mov	r7, r1
80011744:	eb000a5d 	bl	800140c0 <uspi_le2be32>
80011748:	e58d000e 	str	r0, [sp, #14]
8001174c:	e3a08001 	mov	r8, #1
80011750:	e7ef04d4 	ubfx	r0, r4, #9, #16
80011754:	e5cd6012 	strb	r6, [sp, #18]
80011758:	eb000a55 	bl	800140b4 <uspi_le2be16>
8001175c:	e1cd01b3 	strh	r0, [sp, #19]
80011760:	e1a03007 	mov	r3, r7
80011764:	e58d4000 	str	r4, [sp]
80011768:	e1a00005 	mov	r0, r5
8001176c:	e58d8004 	str	r8, [sp, #4]
80011770:	e3a0200a 	mov	r2, #10
80011774:	e5cd6015 	strb	r6, [sp, #21]
80011778:	e28d100c 	add	r1, sp, #12
8001177c:	ebfffe3e 	bl	8001107c <USBBulkOnlyMassStorageDeviceCommand>
80011780:	e1500004 	cmp	r0, r4
80011784:	1a000006 	bne	800117a4 <USBBulkOnlyMassStorageDeviceTryRead+0xd4>
80011788:	e1a00004 	mov	r0, r4
8001178c:	e28dd01c 	add	sp, sp, #28
80011790:	e8bd83f0 	pop	{r4, r5, r6, r7, r8, r9, pc}
80011794:	e3e04000 	mvn	r4, #0
80011798:	e1a00004 	mov	r0, r4
8001179c:	e28dd01c 	add	sp, sp, #28
800117a0:	e8bd83f0 	pop	{r4, r5, r6, r7, r8, r9, pc}
800117a4:	e3082e70 	movw	r2, #36464	; 0x8e70
800117a8:	e3080d18 	movw	r0, #36120	; 0x8d18
800117ac:	e3482001 	movt	r2, #32769	; 0x8001
800117b0:	e1a01008 	mov	r1, r8
800117b4:	e3480001 	movt	r0, #32769	; 0x8001
800117b8:	e3e04000 	mvn	r4, #0
800117bc:	eb0002ff 	bl	800123c0 <LogWrite>
800117c0:	eafffff0 	b	80011788 <USBBulkOnlyMassStorageDeviceTryRead+0xb8>

800117c4 <USBBulkOnlyMassStorageDeviceTryWrite>:
800117c4:	e92d43f0 	push	{r4, r5, r6, r7, r8, r9, lr}
800117c8:	e30041ff 	movw	r4, #511	; 0x1ff
800117cc:	e1c085d0 	ldrd	r8, [r0, #80]	; 0x50
800117d0:	e3a05000 	mov	r5, #0
800117d4:	e30071ff 	movw	r7, #511	; 0x1ff
800117d8:	e0044008 	and	r4, r4, r8
800117dc:	e0055009 	and	r5, r5, r9
800117e0:	e1943005 	orrs	r3, r4, r5
800117e4:	e3e06000 	mvn	r6, #0
800117e8:	13a03001 	movne	r3, #1
800117ec:	03a03000 	moveq	r3, #0
800117f0:	e1590007 	cmp	r9, r7
800117f4:	e24dd01c 	sub	sp, sp, #28
800117f8:	01580006 	cmpeq	r8, r6
800117fc:	83833001 	orrhi	r3, r3, #1
80011800:	e3530000 	cmp	r3, #0
80011804:	1a00001f 	bne	80011888 <USBBulkOnlyMassStorageDeviceTryWrite+0xc4>
80011808:	e7e86052 	ubfx	r6, r2, #0, #9
8001180c:	e1a0c4a8 	lsr	ip, r8, #9
80011810:	e3560000 	cmp	r6, #0
80011814:	e18ccb89 	orr	ip, ip, r9, lsl #23
80011818:	1a00001a 	bne	80011888 <USBBulkOnlyMassStorageDeviceTryWrite+0xc4>
8001181c:	e3a0302a 	mov	r3, #42	; 0x2a
80011820:	e1a05000 	mov	r5, r0
80011824:	e5cd300c 	strb	r3, [sp, #12]
80011828:	e1a0000c 	mov	r0, ip
8001182c:	e3a03008 	mov	r3, #8
80011830:	e1a04002 	mov	r4, r2
80011834:	e5cd300d 	strb	r3, [sp, #13]
80011838:	e1a07001 	mov	r7, r1
8001183c:	eb000a1f 	bl	800140c0 <uspi_le2be32>
80011840:	e58d000e 	str	r0, [sp, #14]
80011844:	e7ef04d4 	ubfx	r0, r4, #9, #16
80011848:	e5cd6012 	strb	r6, [sp, #18]
8001184c:	eb000a18 	bl	800140b4 <uspi_le2be16>
80011850:	e1cd01b3 	strh	r0, [sp, #19]
80011854:	e1a03007 	mov	r3, r7
80011858:	e58d6004 	str	r6, [sp, #4]
8001185c:	e1a00005 	mov	r0, r5
80011860:	e58d4000 	str	r4, [sp]
80011864:	e3a0200a 	mov	r2, #10
80011868:	e5cd6015 	strb	r6, [sp, #21]
8001186c:	e28d100c 	add	r1, sp, #12
80011870:	ebfffe01 	bl	8001107c <USBBulkOnlyMassStorageDeviceCommand>
80011874:	e3500000 	cmp	r0, #0
80011878:	a1a00004 	movge	r0, r4
8001187c:	ba000004 	blt	80011894 <USBBulkOnlyMassStorageDeviceTryWrite+0xd0>
80011880:	e28dd01c 	add	sp, sp, #28
80011884:	e8bd83f0 	pop	{r4, r5, r6, r7, r8, r9, pc}
80011888:	e3e00000 	mvn	r0, #0
8001188c:	e28dd01c 	add	sp, sp, #28
80011890:	e8bd83f0 	pop	{r4, r5, r6, r7, r8, r9, pc}
80011894:	e3082e80 	movw	r2, #36480	; 0x8e80
80011898:	e3080d18 	movw	r0, #36120	; 0x8d18
8001189c:	e3480001 	movt	r0, #32769	; 0x8001
800118a0:	e3a01001 	mov	r1, #1
800118a4:	e3482001 	movt	r2, #32769	; 0x8001
800118a8:	eb0002c4 	bl	800123c0 <LogWrite>
800118ac:	e3e00000 	mvn	r0, #0
800118b0:	eafffff2 	b	80011880 <USBBulkOnlyMassStorageDeviceTryWrite+0xbc>

800118b4 <USBBulkOnlyMassStorageDeviceReset>:
800118b4:	e92d40f0 	push	{r4, r5, r6, r7, lr}
800118b8:	e24dd014 	sub	sp, sp, #20
800118bc:	e1a05000 	mov	r5, r0
800118c0:	ebfffacf 	bl	80010404 <USBDeviceGetHost>
800118c4:	e1a06000 	mov	r6, r0
800118c8:	e1a00005 	mov	r0, r5
800118cc:	e3a04000 	mov	r4, #0
800118d0:	ebfffac9 	bl	800103fc <USBDeviceGetEndpoint0>
800118d4:	e58d400c 	str	r4, [sp, #12]
800118d8:	e1a01000 	mov	r1, r0
800118dc:	e58d4008 	str	r4, [sp, #8]
800118e0:	e1a00006 	mov	r0, r6
800118e4:	e58d4004 	str	r4, [sp, #4]
800118e8:	e3a030ff 	mov	r3, #255	; 0xff
800118ec:	e58d4000 	str	r4, [sp]
800118f0:	e3a02021 	mov	r2, #33	; 0x21
800118f4:	eb000dbd 	bl	80014ff0 <DWHCIDeviceControlMessage>
800118f8:	e1500004 	cmp	r0, r4
800118fc:	ba000021 	blt	80011988 <USBBulkOnlyMassStorageDeviceReset+0xd4>
80011900:	e1a00005 	mov	r0, r5
80011904:	e3a07001 	mov	r7, #1
80011908:	ebfffabb 	bl	800103fc <USBDeviceGetEndpoint0>
8001190c:	e58d400c 	str	r4, [sp, #12]
80011910:	e1a01000 	mov	r1, r0
80011914:	e58d4008 	str	r4, [sp, #8]
80011918:	e1a03007 	mov	r3, r7
8001191c:	e58d4000 	str	r4, [sp]
80011920:	e3a02002 	mov	r2, #2
80011924:	e58d7004 	str	r7, [sp, #4]
80011928:	e1a00006 	mov	r0, r6
8001192c:	eb000daf 	bl	80014ff0 <DWHCIDeviceControlMessage>
80011930:	e3500000 	cmp	r0, #0
80011934:	ba00001b 	blt	800119a8 <USBBulkOnlyMassStorageDeviceReset+0xf4>
80011938:	e1a00005 	mov	r0, r5
8001193c:	ebfffaae 	bl	800103fc <USBDeviceGetEndpoint0>
80011940:	e58d400c 	str	r4, [sp, #12]
80011944:	e3a02002 	mov	r2, #2
80011948:	e58d4008 	str	r4, [sp, #8]
8001194c:	e1a01000 	mov	r1, r0
80011950:	e58d4000 	str	r4, [sp]
80011954:	e1a03007 	mov	r3, r7
80011958:	e58d2004 	str	r2, [sp, #4]
8001195c:	e1a00006 	mov	r0, r6
80011960:	eb000da2 	bl	80014ff0 <DWHCIDeviceControlMessage>
80011964:	e3500000 	cmp	r0, #0
80011968:	ba000016 	blt	800119c8 <USBBulkOnlyMassStorageDeviceReset+0x114>
8001196c:	e595003c 	ldr	r0, [r5, #60]	; 0x3c
80011970:	ebffe2e7 	bl	8000a514 <USBEndpointResetPID>
80011974:	e5950040 	ldr	r0, [r5, #64]	; 0x40
80011978:	ebffe2e5 	bl	8000a514 <USBEndpointResetPID>
8001197c:	e1a00004 	mov	r0, r4
80011980:	e28dd014 	add	sp, sp, #20
80011984:	e8bd80f0 	pop	{r4, r5, r6, r7, pc}
80011988:	e3082e90 	movw	r2, #36496	; 0x8e90
8001198c:	e3080d18 	movw	r0, #36120	; 0x8d18
80011990:	e3480001 	movt	r0, #32769	; 0x8001
80011994:	e3a01004 	mov	r1, #4
80011998:	e3482001 	movt	r2, #32769	; 0x8001
8001199c:	eb000287 	bl	800123c0 <LogWrite>
800119a0:	e3e00000 	mvn	r0, #0
800119a4:	eafffff5 	b	80011980 <USBBulkOnlyMassStorageDeviceReset+0xcc>
800119a8:	e3082ea4 	movw	r2, #36516	; 0x8ea4
800119ac:	e3080d18 	movw	r0, #36120	; 0x8d18
800119b0:	e3480001 	movt	r0, #32769	; 0x8001
800119b4:	e3a01004 	mov	r1, #4
800119b8:	e3482001 	movt	r2, #32769	; 0x8001
800119bc:	eb00027f 	bl	800123c0 <LogWrite>
800119c0:	e3e00000 	mvn	r0, #0
800119c4:	eaffffed 	b	80011980 <USBBulkOnlyMassStorageDeviceReset+0xcc>
800119c8:	e3082ec4 	movw	r2, #36548	; 0x8ec4
800119cc:	e3080d18 	movw	r0, #36120	; 0x8d18
800119d0:	e3480001 	movt	r0, #32769	; 0x8001
800119d4:	e3a01004 	mov	r1, #4
800119d8:	e3482001 	movt	r2, #32769	; 0x8001
800119dc:	eb000277 	bl	800123c0 <LogWrite>
800119e0:	e3e00000 	mvn	r0, #0
800119e4:	eaffffe5 	b	80011980 <USBBulkOnlyMassStorageDeviceReset+0xcc>

800119e8 <USBBulkOnlyMassStorageDeviceRead>:
800119e8:	e92d47f0 	push	{r4, r5, r6, r7, r8, r9, sl, lr}
800119ec:	e1a05002 	mov	r5, r2
800119f0:	e1a06000 	mov	r6, r0
800119f4:	e1a08001 	mov	r8, r1
800119f8:	e1a09002 	mov	r9, r2
800119fc:	e3a04004 	mov	r4, #4
80011a00:	e1a02005 	mov	r2, r5
80011a04:	e1a01008 	mov	r1, r8
80011a08:	e1a00006 	mov	r0, r6
80011a0c:	ebffff2f 	bl	800116d0 <USBBulkOnlyMassStorageDeviceTryRead>
80011a10:	e1a07000 	mov	r7, r0
80011a14:	e1a00006 	mov	r0, r6
80011a18:	e1570005 	cmp	r7, r5
80011a1c:	1a000001 	bne	80011a28 <USBBulkOnlyMassStorageDeviceRead+0x40>
80011a20:	e1a00009 	mov	r0, r9
80011a24:	e8bd87f0 	pop	{r4, r5, r6, r7, r8, r9, sl, pc}
80011a28:	ebffffa1 	bl	800118b4 <USBBulkOnlyMassStorageDeviceReset>
80011a2c:	e3500000 	cmp	r0, #0
80011a30:	1a000004 	bne	80011a48 <USBBulkOnlyMassStorageDeviceRead+0x60>
80011a34:	e2544001 	subs	r4, r4, #1
80011a38:	1afffff0 	bne	80011a00 <USBBulkOnlyMassStorageDeviceRead+0x18>
80011a3c:	e1a09007 	mov	r9, r7
80011a40:	e1a00009 	mov	r0, r9
80011a44:	e8bd87f0 	pop	{r4, r5, r6, r7, r8, r9, sl, pc}
80011a48:	e1a09000 	mov	r9, r0
80011a4c:	eafffff3 	b	80011a20 <USBBulkOnlyMassStorageDeviceRead+0x38>

80011a50 <USBBulkOnlyMassStorageDeviceWrite>:
80011a50:	e92d47f0 	push	{r4, r5, r6, r7, r8, r9, sl, lr}
80011a54:	e1a05002 	mov	r5, r2
80011a58:	e1a06000 	mov	r6, r0
80011a5c:	e1a08001 	mov	r8, r1
80011a60:	e1a09002 	mov	r9, r2
80011a64:	e3a04004 	mov	r4, #4
80011a68:	e1a02005 	mov	r2, r5
80011a6c:	e1a01008 	mov	r1, r8
80011a70:	e1a00006 	mov	r0, r6
80011a74:	ebffff52 	bl	800117c4 <USBBulkOnlyMassStorageDeviceTryWrite>
80011a78:	e1a07000 	mov	r7, r0
80011a7c:	e1a00006 	mov	r0, r6
80011a80:	e1570005 	cmp	r7, r5
80011a84:	1a000001 	bne	80011a90 <USBBulkOnlyMassStorageDeviceWrite+0x40>
80011a88:	e1a00009 	mov	r0, r9
80011a8c:	e8bd87f0 	pop	{r4, r5, r6, r7, r8, r9, sl, pc}
80011a90:	ebffff87 	bl	800118b4 <USBBulkOnlyMassStorageDeviceReset>
80011a94:	e3500000 	cmp	r0, #0
80011a98:	1a000004 	bne	80011ab0 <USBBulkOnlyMassStorageDeviceWrite+0x60>
80011a9c:	e2544001 	subs	r4, r4, #1
80011aa0:	1afffff0 	bne	80011a68 <USBBulkOnlyMassStorageDeviceWrite+0x18>
80011aa4:	e1a09007 	mov	r9, r7
80011aa8:	e1a00009 	mov	r0, r9
80011aac:	e8bd87f0 	pop	{r4, r5, r6, r7, r8, r9, sl, pc}
80011ab0:	e1a09000 	mov	r9, r0
80011ab4:	eafffff3 	b	80011a88 <USBBulkOnlyMassStorageDeviceWrite+0x38>

80011ab8 <fileinit>:
80011ab8:	e92d4010 	push	{r4, lr}
80011abc:	e30d44a0 	movw	r4, #54432	; 0xd4a0
80011ac0:	e3484009 	movt	r4, #32777	; 0x8009
80011ac4:	e3a01000 	mov	r1, #0
80011ac8:	e1a00004 	mov	r0, r4
80011acc:	e3002994 	movw	r2, #2452	; 0x994
80011ad0:	eb000300 	bl	800126d8 <memset>
80011ad4:	e3081ee4 	movw	r1, #36580	; 0x8ee4
80011ad8:	e1a00004 	mov	r0, r4
80011adc:	e3481001 	movt	r1, #32769	; 0x8001
80011ae0:	e8bd4010 	pop	{r4, lr}
80011ae4:	eaffea84 	b	8000c4fc <initlock>

80011ae8 <filealloc>:
80011ae8:	e92d4010 	push	{r4, lr}
80011aec:	e30d04a0 	movw	r0, #54432	; 0xd4a0
80011af0:	e59f4058 	ldr	r4, [pc, #88]	; 80011b50 <filealloc+0x68>
80011af4:	e3480009 	movt	r0, #32777	; 0x8009
80011af8:	ebffea9d 	bl	8000c574 <acquire>
80011afc:	e2842e96 	add	r2, r4, #2400	; 0x960
80011b00:	ea000002 	b	80011b10 <filealloc+0x28>
80011b04:	e2844018 	add	r4, r4, #24
80011b08:	e1540002 	cmp	r4, r2
80011b0c:	2a000009 	bcs	80011b38 <filealloc+0x50>
80011b10:	e5943004 	ldr	r3, [r4, #4]
80011b14:	e3530000 	cmp	r3, #0
80011b18:	1afffff9 	bne	80011b04 <filealloc+0x1c>
80011b1c:	e3a03001 	mov	r3, #1
80011b20:	e30d04a0 	movw	r0, #54432	; 0xd4a0
80011b24:	e5843004 	str	r3, [r4, #4]
80011b28:	e3480009 	movt	r0, #32777	; 0x8009
80011b2c:	ebffeac6 	bl	8000c64c <release>
80011b30:	e1a00004 	mov	r0, r4
80011b34:	e8bd8010 	pop	{r4, pc}
80011b38:	e30d04a0 	movw	r0, #54432	; 0xd4a0
80011b3c:	e3a04000 	mov	r4, #0
80011b40:	e3480009 	movt	r0, #32777	; 0x8009
80011b44:	ebffeac0 	bl	8000c64c <release>
80011b48:	e1a00004 	mov	r0, r4
80011b4c:	e8bd8010 	pop	{r4, pc}
80011b50:	8009d4d4 	.word	0x8009d4d4

80011b54 <filedup>:
80011b54:	e92d4010 	push	{r4, lr}
80011b58:	e1a04000 	mov	r4, r0
80011b5c:	e30d04a0 	movw	r0, #54432	; 0xd4a0
80011b60:	e3480009 	movt	r0, #32777	; 0x8009
80011b64:	ebffea82 	bl	8000c574 <acquire>
80011b68:	e5943004 	ldr	r3, [r4, #4]
80011b6c:	e3530000 	cmp	r3, #0
80011b70:	da000006 	ble	80011b90 <filedup+0x3c>
80011b74:	e2833001 	add	r3, r3, #1
80011b78:	e30d04a0 	movw	r0, #54432	; 0xd4a0
80011b7c:	e5843004 	str	r3, [r4, #4]
80011b80:	e3480009 	movt	r0, #32777	; 0x8009
80011b84:	ebffeab0 	bl	8000c64c <release>
80011b88:	e1a00004 	mov	r0, r4
80011b8c:	e8bd8010 	pop	{r4, pc}
80011b90:	e3080eec 	movw	r0, #36588	; 0x8eec
80011b94:	e3480001 	movt	r0, #32769	; 0x8001
80011b98:	ebffe919 	bl	8000c004 <panic>

80011b9c <fileclose>:
80011b9c:	e92d41f0 	push	{r4, r5, r6, r7, r8, lr}
80011ba0:	e1a04000 	mov	r4, r0
80011ba4:	e30d04a0 	movw	r0, #54432	; 0xd4a0
80011ba8:	e3480009 	movt	r0, #32777	; 0x8009
80011bac:	ebffea70 	bl	8000c574 <acquire>
80011bb0:	e5943004 	ldr	r3, [r4, #4]
80011bb4:	e3530000 	cmp	r3, #0
80011bb8:	da00001c 	ble	80011c30 <fileclose+0x94>
80011bbc:	e2433001 	sub	r3, r3, #1
80011bc0:	e5843004 	str	r3, [r4, #4]
80011bc4:	e3530000 	cmp	r3, #0
80011bc8:	0a000003 	beq	80011bdc <fileclose+0x40>
80011bcc:	e30d04a0 	movw	r0, #54432	; 0xd4a0
80011bd0:	e3480009 	movt	r0, #32777	; 0x8009
80011bd4:	e8bd41f0 	pop	{r4, r5, r6, r7, r8, lr}
80011bd8:	eaffea9b 	b	8000c64c <release>
80011bdc:	e5945000 	ldr	r5, [r4]
80011be0:	e30d04a0 	movw	r0, #54432	; 0xd4a0
80011be4:	e5843000 	str	r3, [r4]
80011be8:	e3480009 	movt	r0, #32777	; 0x8009
80011bec:	e5d47009 	ldrb	r7, [r4, #9]
80011bf0:	e594600c 	ldr	r6, [r4, #12]
80011bf4:	e5944010 	ldr	r4, [r4, #16]
80011bf8:	ebffea93 	bl	8000c64c <release>
80011bfc:	e3550001 	cmp	r5, #1
80011c00:	0a000006 	beq	80011c20 <fileclose+0x84>
80011c04:	e3550002 	cmp	r5, #2
80011c08:	18bd81f0 	popne	{r4, r5, r6, r7, r8, pc}
80011c0c:	ebfffaaf 	bl	800106d0 <begin_trans>
80011c10:	e1a00004 	mov	r0, r4
80011c14:	ebffe5c6 	bl	8000b334 <iput>
80011c18:	e8bd41f0 	pop	{r4, r5, r6, r7, r8, lr}
80011c1c:	eafffac1 	b	80010728 <commit_trans>
80011c20:	e1a01007 	mov	r1, r7
80011c24:	e1a00006 	mov	r0, r6
80011c28:	e8bd41f0 	pop	{r4, r5, r6, r7, r8, lr}
80011c2c:	ea000382 	b	80012a3c <pipeclose>
80011c30:	e3080ef4 	movw	r0, #36596	; 0x8ef4
80011c34:	e3480001 	movt	r0, #32769	; 0x8001
80011c38:	ebffe8f1 	bl	8000c004 <panic>

80011c3c <filestat>:
80011c3c:	e5903000 	ldr	r3, [r0]
80011c40:	e3530002 	cmp	r3, #2
80011c44:	1a00000b 	bne	80011c78 <filestat+0x3c>
80011c48:	e92d4070 	push	{r4, r5, r6, lr}
80011c4c:	e1a04000 	mov	r4, r0
80011c50:	e5900010 	ldr	r0, [r0, #16]
80011c54:	e1a05001 	mov	r5, r1
80011c58:	ebffe55b 	bl	8000b1cc <ilock>
80011c5c:	e5940010 	ldr	r0, [r4, #16]
80011c60:	e1a01005 	mov	r1, r5
80011c64:	ebffe60c 	bl	8000b49c <stati>
80011c68:	e5940010 	ldr	r0, [r4, #16]
80011c6c:	ebffe598 	bl	8000b2d4 <iunlock>
80011c70:	e3a00000 	mov	r0, #0
80011c74:	e8bd8070 	pop	{r4, r5, r6, pc}
80011c78:	e3e00000 	mvn	r0, #0
80011c7c:	e12fff1e 	bx	lr

80011c80 <fileread>:
80011c80:	e92d4070 	push	{r4, r5, r6, lr}
80011c84:	e5d0e008 	ldrb	lr, [r0, #8]
80011c88:	e35e0000 	cmp	lr, #0
80011c8c:	0a000019 	beq	80011cf8 <fileread+0x78>
80011c90:	e590e000 	ldr	lr, [r0]
80011c94:	e35e0001 	cmp	lr, #1
80011c98:	0a000013 	beq	80011cec <fileread+0x6c>
80011c9c:	e35e0002 	cmp	lr, #2
80011ca0:	e1a04000 	mov	r4, r0
80011ca4:	1a000015 	bne	80011d00 <fileread+0x80>
80011ca8:	e5900010 	ldr	r0, [r0, #16]
80011cac:	e1a05001 	mov	r5, r1
80011cb0:	e1a06002 	mov	r6, r2
80011cb4:	ebffe544 	bl	8000b1cc <ilock>
80011cb8:	e5942014 	ldr	r2, [r4, #20]
80011cbc:	e1a03006 	mov	r3, r6
80011cc0:	e5940010 	ldr	r0, [r4, #16]
80011cc4:	e1a01005 	mov	r1, r5
80011cc8:	ebffe5fd 	bl	8000b4c4 <readi>
80011ccc:	e2505000 	subs	r5, r0, #0
80011cd0:	e5940010 	ldr	r0, [r4, #16]
80011cd4:	c5943014 	ldrgt	r3, [r4, #20]
80011cd8:	c0833005 	addgt	r3, r3, r5
80011cdc:	c5843014 	strgt	r3, [r4, #20]
80011ce0:	ebffe57b 	bl	8000b2d4 <iunlock>
80011ce4:	e1a00005 	mov	r0, r5
80011ce8:	e8bd8070 	pop	{r4, r5, r6, pc}
80011cec:	e590000c 	ldr	r0, [r0, #12]
80011cf0:	e8bd4070 	pop	{r4, r5, r6, lr}
80011cf4:	ea00039d 	b	80012b70 <piperead>
80011cf8:	e3e05000 	mvn	r5, #0
80011cfc:	eafffff8 	b	80011ce4 <fileread+0x64>
80011d00:	e3080f00 	movw	r0, #36608	; 0x8f00
80011d04:	e3480001 	movt	r0, #32769	; 0x8001
80011d08:	ebffe8bd 	bl	8000c004 <panic>

80011d0c <filewrite>:
80011d0c:	e5d03009 	ldrb	r3, [r0, #9]
80011d10:	e3530000 	cmp	r3, #0
80011d14:	0a000033 	beq	80011de8 <filewrite+0xdc>
80011d18:	e5903000 	ldr	r3, [r0]
80011d1c:	e3530001 	cmp	r3, #1
80011d20:	0a00002e 	beq	80011de0 <filewrite+0xd4>
80011d24:	e3530002 	cmp	r3, #2
80011d28:	e92d47f0 	push	{r4, r5, r6, r7, r8, r9, sl, lr}
80011d2c:	e1a05000 	mov	r5, r0
80011d30:	1a000031 	bne	80011dfc <filewrite+0xf0>
80011d34:	e3520000 	cmp	r2, #0
80011d38:	e1a08002 	mov	r8, r2
80011d3c:	da000022 	ble	80011dcc <filewrite+0xc0>
80011d40:	e1a09001 	mov	r9, r1
80011d44:	e3a06000 	mov	r6, #0
80011d48:	ea00000a 	b	80011d78 <filewrite+0x6c>
80011d4c:	e5953014 	ldr	r3, [r5, #20]
80011d50:	e5950010 	ldr	r0, [r5, #16]
80011d54:	e0833007 	add	r3, r3, r7
80011d58:	e5853014 	str	r3, [r5, #20]
80011d5c:	ebffe55c 	bl	8000b2d4 <iunlock>
80011d60:	ebfffa70 	bl	80010728 <commit_trans>
80011d64:	e1570004 	cmp	r7, r4
80011d68:	1a000020 	bne	80011df0 <filewrite+0xe4>
80011d6c:	e0866007 	add	r6, r6, r7
80011d70:	e1580006 	cmp	r8, r6
80011d74:	da000015 	ble	80011dd0 <filewrite+0xc4>
80011d78:	e0483006 	sub	r3, r8, r6
80011d7c:	e3530c06 	cmp	r3, #1536	; 0x600
80011d80:	b1a04003 	movlt	r4, r3
80011d84:	a3a04c06 	movge	r4, #1536	; 0x600
80011d88:	ebfffa50 	bl	800106d0 <begin_trans>
80011d8c:	e5950010 	ldr	r0, [r5, #16]
80011d90:	ebffe50d 	bl	8000b1cc <ilock>
80011d94:	e5952014 	ldr	r2, [r5, #20]
80011d98:	e1a03004 	mov	r3, r4
80011d9c:	e0891006 	add	r1, r9, r6
80011da0:	e5950010 	ldr	r0, [r5, #16]
80011da4:	ebffe601 	bl	8000b5b0 <writei>
80011da8:	e2507000 	subs	r7, r0, #0
80011dac:	caffffe6 	bgt	80011d4c <filewrite+0x40>
80011db0:	e5950010 	ldr	r0, [r5, #16]
80011db4:	ebffe546 	bl	8000b2d4 <iunlock>
80011db8:	ebfffa5a 	bl	80010728 <commit_trans>
80011dbc:	e3570000 	cmp	r7, #0
80011dc0:	0affffe7 	beq	80011d64 <filewrite+0x58>
80011dc4:	e3e00000 	mvn	r0, #0
80011dc8:	e8bd87f0 	pop	{r4, r5, r6, r7, r8, r9, sl, pc}
80011dcc:	e3a06000 	mov	r6, #0
80011dd0:	e1560008 	cmp	r6, r8
80011dd4:	1afffffa 	bne	80011dc4 <filewrite+0xb8>
80011dd8:	e1a00006 	mov	r0, r6
80011ddc:	e8bd87f0 	pop	{r4, r5, r6, r7, r8, r9, sl, pc}
80011de0:	e590000c 	ldr	r0, [r0, #12]
80011de4:	ea00032c 	b	80012a9c <pipewrite>
80011de8:	e3e00000 	mvn	r0, #0
80011dec:	e12fff1e 	bx	lr
80011df0:	e3080f0c 	movw	r0, #36620	; 0x8f0c
80011df4:	e3480001 	movt	r0, #32769	; 0x8001
80011df8:	ebffe881 	bl	8000c004 <panic>
80011dfc:	e3080f1c 	movw	r0, #36636	; 0x8f1c
80011e00:	e3480001 	movt	r0, #32769	; 0x8001
80011e04:	ebffe87e 	bl	8000c004 <panic>

80011e08 <USBString>:
80011e08:	e92d4010 	push	{r4, lr}
80011e0c:	e1a04000 	mov	r4, r0
80011e10:	e5801000 	str	r1, [r0]
80011e14:	e3a03000 	mov	r3, #0
80011e18:	e5843004 	str	r3, [r4, #4]
80011e1c:	e3a0000c 	mov	r0, #12
80011e20:	eb00010c 	bl	80012258 <malloc>
80011e24:	e5840008 	str	r0, [r4, #8]
80011e28:	e8bd4010 	pop	{r4, lr}
80011e2c:	eaffdc3a 	b	80008f1c <String>

80011e30 <USBStringCopy>:
80011e30:	e5912000 	ldr	r2, [r1]
80011e34:	e3a03000 	mov	r3, #0
80011e38:	e92d4070 	push	{r4, r5, r6, lr}
80011e3c:	e1a04001 	mov	r4, r1
80011e40:	e5803004 	str	r3, [r0, #4]
80011e44:	e1a05000 	mov	r5, r0
80011e48:	e5913004 	ldr	r3, [r1, #4]
80011e4c:	e5802000 	str	r2, [r0]
80011e50:	e3530000 	cmp	r3, #0
80011e54:	0a000005 	beq	80011e70 <USBStringCopy+0x40>
80011e58:	e5d30000 	ldrb	r0, [r3]
80011e5c:	eb0000fd 	bl	80012258 <malloc>
80011e60:	e5850004 	str	r0, [r5, #4]
80011e64:	e5941004 	ldr	r1, [r4, #4]
80011e68:	e5d12000 	ldrb	r2, [r1]
80011e6c:	eb000815 	bl	80013ec8 <uspi_memcpy>
80011e70:	e3a0000c 	mov	r0, #12
80011e74:	eb0000f7 	bl	80012258 <malloc>
80011e78:	e5850008 	str	r0, [r5, #8]
80011e7c:	e1a06000 	mov	r6, r0
80011e80:	e5940008 	ldr	r0, [r4, #8]
80011e84:	ebffdc3e 	bl	80008f84 <StringGet>
80011e88:	e1a01000 	mov	r1, r0
80011e8c:	e1a00006 	mov	r0, r6
80011e90:	e8bd4070 	pop	{r4, r5, r6, lr}
80011e94:	eaffdc24 	b	80008f2c <String2>

80011e98 <_USBString>:
80011e98:	e92d4070 	push	{r4, r5, r6, lr}
80011e9c:	e1a04000 	mov	r4, r0
80011ea0:	e5900008 	ldr	r0, [r0, #8]
80011ea4:	e3a05000 	mov	r5, #0
80011ea8:	ebffdc2b 	bl	80008f5c <_String>
80011eac:	e5940008 	ldr	r0, [r4, #8]
80011eb0:	eb0000ef 	bl	80012274 <free>
80011eb4:	e5940004 	ldr	r0, [r4, #4]
80011eb8:	e5845008 	str	r5, [r4, #8]
80011ebc:	e1500005 	cmp	r0, r5
80011ec0:	0a000001 	beq	80011ecc <_USBString+0x34>
80011ec4:	eb0000ea 	bl	80012274 <free>
80011ec8:	e5845004 	str	r5, [r4, #4]
80011ecc:	e3a03000 	mov	r3, #0
80011ed0:	e5843000 	str	r3, [r4]
80011ed4:	e8bd8070 	pop	{r4, r5, r6, pc}

80011ed8 <USBStringGetFromDescriptor>:
80011ed8:	e92d49f0 	push	{r4, r5, r6, r7, r8, fp, lr}
80011edc:	e1a04000 	mov	r4, r0
80011ee0:	e28db018 	add	fp, sp, #24
80011ee4:	e24dd014 	sub	sp, sp, #20
80011ee8:	e5900004 	ldr	r0, [r0, #4]
80011eec:	e1a05001 	mov	r5, r1
80011ef0:	e1a07002 	mov	r7, r2
80011ef4:	e3500000 	cmp	r0, #0
80011ef8:	0a000000 	beq	80011f00 <USBStringGetFromDescriptor+0x28>
80011efc:	eb0000dc 	bl	80012274 <free>
80011f00:	e3a00004 	mov	r0, #4
80011f04:	e3855c03 	orr	r5, r5, #768	; 0x300
80011f08:	eb0000d2 	bl	80012258 <malloc>
80011f0c:	e5840004 	str	r0, [r4, #4]
80011f10:	e5940000 	ldr	r0, [r4]
80011f14:	ebfff93a 	bl	80010404 <USBDeviceGetHost>
80011f18:	e1a06000 	mov	r6, r0
80011f1c:	e5940000 	ldr	r0, [r4]
80011f20:	ebfff935 	bl	800103fc <USBDeviceGetEndpoint0>
80011f24:	e5943004 	ldr	r3, [r4, #4]
80011f28:	e3a02004 	mov	r2, #4
80011f2c:	e58d200c 	str	r2, [sp, #12]
80011f30:	e1a01000 	mov	r1, r0
80011f34:	e58d3008 	str	r3, [sp, #8]
80011f38:	e1a00006 	mov	r0, r6
80011f3c:	e58d5000 	str	r5, [sp]
80011f40:	e3a03006 	mov	r3, #6
80011f44:	e58d7004 	str	r7, [sp, #4]
80011f48:	e3a02080 	mov	r2, #128	; 0x80
80011f4c:	eb000c27 	bl	80014ff0 <DWHCIDeviceControlMessage>
80011f50:	e3500000 	cmp	r0, #0
80011f54:	ba000008 	blt	80011f7c <USBStringGetFromDescriptor+0xa4>
80011f58:	e5940004 	ldr	r0, [r4, #4]
80011f5c:	e5d06000 	ldrb	r6, [r0]
80011f60:	e3560001 	cmp	r6, #1
80011f64:	9a000004 	bls	80011f7c <USBStringGetFromDescriptor+0xa4>
80011f68:	e3160001 	tst	r6, #1
80011f6c:	1a000002 	bne	80011f7c <USBStringGetFromDescriptor+0xa4>
80011f70:	e5d03001 	ldrb	r3, [r0, #1]
80011f74:	e3530003 	cmp	r3, #3
80011f78:	0a000002 	beq	80011f88 <USBStringGetFromDescriptor+0xb0>
80011f7c:	e3a00000 	mov	r0, #0
80011f80:	e24bd018 	sub	sp, fp, #24
80011f84:	e8bd89f0 	pop	{r4, r5, r6, r7, r8, fp, pc}
80011f88:	e3560004 	cmp	r6, #4
80011f8c:	9a00001b 	bls	80012000 <USBStringGetFromDescriptor+0x128>
80011f90:	eb0000b7 	bl	80012274 <free>
80011f94:	e1a00006 	mov	r0, r6
80011f98:	eb0000ae 	bl	80012258 <malloc>
80011f9c:	e5840004 	str	r0, [r4, #4]
80011fa0:	e5940000 	ldr	r0, [r4]
80011fa4:	ebfff916 	bl	80010404 <USBDeviceGetHost>
80011fa8:	e1a08000 	mov	r8, r0
80011fac:	e5940000 	ldr	r0, [r4]
80011fb0:	ebfff911 	bl	800103fc <USBDeviceGetEndpoint0>
80011fb4:	e594c004 	ldr	ip, [r4, #4]
80011fb8:	e1a01000 	mov	r1, r0
80011fbc:	e58d600c 	str	r6, [sp, #12]
80011fc0:	e1a00008 	mov	r0, r8
80011fc4:	e58d7004 	str	r7, [sp, #4]
80011fc8:	e3a03006 	mov	r3, #6
80011fcc:	e58d5000 	str	r5, [sp]
80011fd0:	e3a02080 	mov	r2, #128	; 0x80
80011fd4:	e58dc008 	str	ip, [sp, #8]
80011fd8:	eb000c04 	bl	80014ff0 <DWHCIDeviceControlMessage>
80011fdc:	e1560000 	cmp	r6, r0
80011fe0:	1affffe5 	bne	80011f7c <USBStringGetFromDescriptor+0xa4>
80011fe4:	e5940004 	ldr	r0, [r4, #4]
80011fe8:	e5d03000 	ldrb	r3, [r0]
80011fec:	e1530006 	cmp	r3, r6
80011ff0:	1affffe1 	bne	80011f7c <USBStringGetFromDescriptor+0xa4>
80011ff4:	e5d03001 	ldrb	r3, [r0, #1]
80011ff8:	e3530003 	cmp	r3, #3
80011ffc:	1affffde 	bne	80011f7c <USBStringGetFromDescriptor+0xa4>
80012000:	e2466002 	sub	r6, r6, #2
80012004:	e1a050c6 	asr	r5, r6, #1
80012008:	e2853008 	add	r3, r5, #8
8001200c:	e3550000 	cmp	r5, #0
80012010:	e3c33007 	bic	r3, r3, #7
80012014:	13a02000 	movne	r2, #0
80012018:	e04dd003 	sub	sp, sp, r3
8001201c:	e28d7010 	add	r7, sp, #16
80012020:	128dc00f 	addne	ip, sp, #15
80012024:	0a000008 	beq	8001204c <USBStringGetFromDescriptor+0x174>
80012028:	e0803082 	add	r3, r0, r2, lsl #1
8001202c:	e2822001 	add	r2, r2, #1
80012030:	e1d330b2 	ldrh	r3, [r3, #2]
80012034:	e243e020 	sub	lr, r3, #32
80012038:	e35e005e 	cmp	lr, #94	; 0x5e
8001203c:	83a0305f 	movhi	r3, #95	; 0x5f
80012040:	e1550002 	cmp	r5, r2
80012044:	e5ec3001 	strb	r3, [ip, #1]!
80012048:	1afffff6 	bne	80012028 <USBStringGetFromDescriptor+0x150>
8001204c:	e5940008 	ldr	r0, [r4, #8]
80012050:	e3a03000 	mov	r3, #0
80012054:	e7c730c6 	strb	r3, [r7, r6, asr #1]
80012058:	ebffdbbf 	bl	80008f5c <_String>
8001205c:	e5940008 	ldr	r0, [r4, #8]
80012060:	eb000083 	bl	80012274 <free>
80012064:	e3a0000c 	mov	r0, #12
80012068:	eb00007a 	bl	80012258 <malloc>
8001206c:	e5840008 	str	r0, [r4, #8]
80012070:	e1a01007 	mov	r1, r7
80012074:	ebffdbac 	bl	80008f2c <String2>
80012078:	e3a00001 	mov	r0, #1
8001207c:	eaffffbf 	b	80011f80 <USBStringGetFromDescriptor+0xa8>

80012080 <USBStringGet>:
80012080:	e5900008 	ldr	r0, [r0, #8]
80012084:	eaffdbbe 	b	80008f84 <StringGet>

80012088 <USBStringGetLanguageID>:
80012088:	e92d47f0 	push	{r4, r5, r6, r7, r8, r9, sl, lr}
8001208c:	e1a05000 	mov	r5, r0
80012090:	e24dd010 	sub	sp, sp, #16
80012094:	e3a00004 	mov	r0, #4
80012098:	e3a07080 	mov	r7, #128	; 0x80
8001209c:	eb00006d 	bl	80012258 <malloc>
800120a0:	e1a04000 	mov	r4, r0
800120a4:	e5950000 	ldr	r0, [r5]
800120a8:	ebfff8d5 	bl	80010404 <USBDeviceGetHost>
800120ac:	e1a06000 	mov	r6, r0
800120b0:	e5950000 	ldr	r0, [r5]
800120b4:	ebfff8d0 	bl	800103fc <USBDeviceGetEndpoint0>
800120b8:	e58d4000 	str	r4, [sp]
800120bc:	e3a03004 	mov	r3, #4
800120c0:	e58d3004 	str	r3, [sp, #4]
800120c4:	e1a01000 	mov	r1, r0
800120c8:	e58d7008 	str	r7, [sp, #8]
800120cc:	e1a00006 	mov	r0, r6
800120d0:	e3a03000 	mov	r3, #0
800120d4:	e3a02003 	mov	r2, #3
800120d8:	eb000bec 	bl	80015090 <DWHCIDeviceGetDescriptor>
800120dc:	e3500000 	cmp	r0, #0
800120e0:	ba000004 	blt	800120f8 <USBStringGetLanguageID+0x70>
800120e4:	e5d46000 	ldrb	r6, [r4]
800120e8:	e3560003 	cmp	r6, #3
800120ec:	9a000001 	bls	800120f8 <USBStringGetLanguageID+0x70>
800120f0:	e2168001 	ands	r8, r6, #1
800120f4:	0a000005 	beq	80012110 <USBStringGetLanguageID+0x88>
800120f8:	e1a00004 	mov	r0, r4
800120fc:	e3005409 	movw	r5, #1033	; 0x409
80012100:	eb00005b 	bl	80012274 <free>
80012104:	e1a00005 	mov	r0, r5
80012108:	e28dd010 	add	sp, sp, #16
8001210c:	e8bd87f0 	pop	{r4, r5, r6, r7, r8, r9, sl, pc}
80012110:	e5d49001 	ldrb	r9, [r4, #1]
80012114:	e3590003 	cmp	r9, #3
80012118:	1afffff6 	bne	800120f8 <USBStringGetLanguageID+0x70>
8001211c:	e3560004 	cmp	r6, #4
80012120:	03a00001 	moveq	r0, #1
80012124:	1a00000f 	bne	80012168 <USBStringGetLanguageID+0xe0>
80012128:	e1d450b2 	ldrh	r5, [r4, #2]
8001212c:	e3001409 	movw	r1, #1033	; 0x409
80012130:	e1550001 	cmp	r5, r1
80012134:	0affffef 	beq	800120f8 <USBStringGetLanguageID+0x70>
80012138:	e3a03000 	mov	r3, #0
8001213c:	ea000002 	b	8001214c <USBStringGetLanguageID+0xc4>
80012140:	e1d220b2 	ldrh	r2, [r2, #2]
80012144:	e1520001 	cmp	r2, r1
80012148:	0affffea 	beq	800120f8 <USBStringGetLanguageID+0x70>
8001214c:	e2833001 	add	r3, r3, #1
80012150:	e1530000 	cmp	r3, r0
80012154:	e0842083 	add	r2, r4, r3, lsl #1
80012158:	3afffff8 	bcc	80012140 <USBStringGetLanguageID+0xb8>
8001215c:	e1a00004 	mov	r0, r4
80012160:	eb000043 	bl	80012274 <free>
80012164:	eaffffe6 	b	80012104 <USBStringGetLanguageID+0x7c>
80012168:	e1a00004 	mov	r0, r4
8001216c:	eb000040 	bl	80012274 <free>
80012170:	e1a00006 	mov	r0, r6
80012174:	eb000037 	bl	80012258 <malloc>
80012178:	e1a04000 	mov	r4, r0
8001217c:	e5950000 	ldr	r0, [r5]
80012180:	ebfff89f 	bl	80010404 <USBDeviceGetHost>
80012184:	e1a0a000 	mov	sl, r0
80012188:	e5950000 	ldr	r0, [r5]
8001218c:	ebfff89a 	bl	800103fc <USBDeviceGetEndpoint0>
80012190:	e58d4000 	str	r4, [sp]
80012194:	e1a01000 	mov	r1, r0
80012198:	e58d7008 	str	r7, [sp, #8]
8001219c:	e1a0000a 	mov	r0, sl
800121a0:	e58d6004 	str	r6, [sp, #4]
800121a4:	e1a03008 	mov	r3, r8
800121a8:	e1a02009 	mov	r2, r9
800121ac:	eb000bb7 	bl	80015090 <DWHCIDeviceGetDescriptor>
800121b0:	e1560000 	cmp	r6, r0
800121b4:	1affffcf 	bne	800120f8 <USBStringGetLanguageID+0x70>
800121b8:	e5d43000 	ldrb	r3, [r4]
800121bc:	e1530006 	cmp	r3, r6
800121c0:	1affffcc 	bne	800120f8 <USBStringGetLanguageID+0x70>
800121c4:	e5d42001 	ldrb	r2, [r4, #1]
800121c8:	e3520003 	cmp	r2, #3
800121cc:	1affffc9 	bne	800120f8 <USBStringGetLanguageID+0x70>
800121d0:	e2433002 	sub	r3, r3, #2
800121d4:	e3a00002 	mov	r0, #2
800121d8:	e710f013 	sdiv	r0, r3, r0
800121dc:	e3500000 	cmp	r0, #0
800121e0:	1affffd0 	bne	80012128 <USBStringGetLanguageID+0xa0>
800121e4:	e1d450b2 	ldrh	r5, [r4, #2]
800121e8:	eaffffdb 	b	8001215c <USBStringGetLanguageID+0xd4>

800121ec <usbgetc>:
800121ec:	e30a3994 	movw	r3, #43412	; 0xa994
800121f0:	e3483009 	movt	r3, #32777	; 0x8009
800121f4:	e5932000 	ldr	r2, [r3]
800121f8:	e5931004 	ldr	r1, [r3, #4]
800121fc:	e1520001 	cmp	r2, r1
80012200:	35d20000 	ldrbcc	r0, [r2]
80012204:	32822001 	addcc	r2, r2, #1
80012208:	35832000 	strcc	r2, [r3]
8001220c:	23e00000 	mvncs	r0, #0
80012210:	e12fff1e 	bx	lr

80012214 <KeyPressedHandler>:
80012214:	e5d01000 	ldrb	r1, [r0]
80012218:	e1a0c000 	mov	ip, r0
8001221c:	e2803001 	add	r3, r0, #1
80012220:	e3510000 	cmp	r1, #0
80012224:	0a000003 	beq	80012238 <KeyPressedHandler+0x24>
80012228:	e043100c 	sub	r1, r3, ip
8001222c:	e4d32001 	ldrb	r2, [r3], #1
80012230:	e3520000 	cmp	r2, #0
80012234:	1afffffb 	bne	80012228 <KeyPressedHandler+0x14>
80012238:	e08c1001 	add	r1, ip, r1
8001223c:	e30a3994 	movw	r3, #43412	; 0xa994
80012240:	e3483009 	movt	r3, #32777	; 0x8009
80012244:	e30201ec 	movw	r0, #8684	; 0x21ec
80012248:	e3480001 	movt	r0, #32769	; 0x8001
8001224c:	e5831004 	str	r1, [r3, #4]
80012250:	e583c000 	str	ip, [r3]
80012254:	eaffe80f 	b	8000c298 <consoleintr>

80012258 <malloc>:
80012258:	e3500a01 	cmp	r0, #4096	; 0x1000
8001225c:	8a000000 	bhi	80012264 <malloc+0xc>
80012260:	ea0006f6 	b	80013e40 <kalloc>
80012264:	e3080f28 	movw	r0, #36648	; 0x8f28
80012268:	e92d4010 	push	{r4, lr}
8001226c:	e3480001 	movt	r0, #32769	; 0x8001
80012270:	ebffe763 	bl	8000c004 <panic>

80012274 <free>:
80012274:	ea00068d 	b	80013cb0 <kfree>

80012278 <MsDelay>:
80012278:	e3a02a03 	mov	r2, #12288	; 0x3000
8001227c:	e3a03ffa 	mov	r3, #1000	; 0x3e8
80012280:	e34d2000 	movt	r2, #53248	; 0xd000
80012284:	e592c004 	ldr	ip, [r2, #4]
80012288:	e5921004 	ldr	r1, [r2, #4]
8001228c:	e020c093 	mla	r0, r3, r0, ip
80012290:	e1500001 	cmp	r0, r1
80012294:	912fff1e 	bxls	lr
80012298:	e320f000 	nop	{0}
8001229c:	e5923004 	ldr	r3, [r2, #4]
800122a0:	e1500003 	cmp	r0, r3
800122a4:	8afffffb 	bhi	80012298 <MsDelay+0x20>
800122a8:	e12fff1e 	bx	lr

800122ac <usDelay>:
800122ac:	e3a02a03 	mov	r2, #12288	; 0x3000
800122b0:	e34d2000 	movt	r2, #53248	; 0xd000
800122b4:	e5923004 	ldr	r3, [r2, #4]
800122b8:	e5921004 	ldr	r1, [r2, #4]
800122bc:	e0830000 	add	r0, r3, r0
800122c0:	e1500001 	cmp	r0, r1
800122c4:	912fff1e 	bxls	lr
800122c8:	e320f000 	nop	{0}
800122cc:	e5923004 	ldr	r3, [r2, #4]
800122d0:	e1500003 	cmp	r0, r3
800122d4:	8afffffb 	bhi	800122c8 <usDelay+0x1c>
800122d8:	e12fff1e 	bx	lr

800122dc <StartKernelTimer>:
800122dc:	e92d40f0 	push	{r4, r5, r6, r7, lr}
800122e0:	e24dd00c 	sub	sp, sp, #12
800122e4:	e1a05001 	mov	r5, r1
800122e8:	e1a06002 	mov	r6, r2
800122ec:	e1a07003 	mov	r7, r3
800122f0:	e1a04000 	mov	r4, r0
800122f4:	ebffe9bc 	bl	8000c9ec <TimerGet>
800122f8:	e58d7000 	str	r7, [sp]
800122fc:	e1a03006 	mov	r3, r6
80012300:	e1a02005 	mov	r2, r5
80012304:	e1a01004 	mov	r1, r4
80012308:	ebffe98d 	bl	8000c944 <TimerStartKernelTimer>
8001230c:	e28dd00c 	add	sp, sp, #12
80012310:	e8bd80f0 	pop	{r4, r5, r6, r7, pc}

80012314 <CancelKernelTimer>:
80012314:	e92d4010 	push	{r4, lr}
80012318:	e1a04000 	mov	r4, r0
8001231c:	ebffe9b2 	bl	8000c9ec <TimerGet>
80012320:	e1a01004 	mov	r1, r4
80012324:	e8bd4010 	pop	{r4, lr}
80012328:	eaffe9a0 	b	8000c9b0 <TimerCancelKernelTimer>

8001232c <SetPowerStateOn>:
8001232c:	e92d4070 	push	{r4, r5, r6, lr}
80012330:	e1a05000 	mov	r5, r0
80012334:	e3080f48 	movw	r0, #36680	; 0x8f48
80012338:	e1a01005 	mov	r1, r5
8001233c:	e3480001 	movt	r0, #32769	; 0x8001
80012340:	ebffe74c 	bl	8000c078 <cprintf>
80012344:	e3a01a0b 	mov	r1, #45056	; 0xb000
80012348:	e34d1000 	movt	r1, #53248	; 0xd000
8001234c:	e5913898 	ldr	r3, [r1, #2200]	; 0x898
80012350:	e3530000 	cmp	r3, #0
80012354:	bafffffc 	blt	8001234c <SetPowerStateOn+0x20>
80012358:	e3a02a0b 	mov	r2, #45056	; 0xb000
8001235c:	e3a03080 	mov	r3, #128	; 0x80
80012360:	e34d2000 	movt	r2, #53248	; 0xd000
80012364:	e58138a0 	str	r3, [r1, #2208]	; 0x8a0
80012368:	e5923898 	ldr	r3, [r2, #2200]	; 0x898
8001236c:	e3130101 	tst	r3, #1073741824	; 0x40000000
80012370:	1afffffc 	bne	80012368 <SetPowerStateOn+0x3c>
80012374:	e5923880 	ldr	r3, [r2, #2176]	; 0x880
80012378:	e213400f 	ands	r4, r3, #15
8001237c:	1afffff9 	bne	80012368 <SetPowerStateOn+0x3c>
80012380:	e3530080 	cmp	r3, #128	; 0x80
80012384:	0a000005 	beq	800123a0 <SetPowerStateOn+0x74>
80012388:	e3080f80 	movw	r0, #36736	; 0x8f80
8001238c:	e1a01005 	mov	r1, r5
80012390:	e3480001 	movt	r0, #32769	; 0x8001
80012394:	ebffe737 	bl	8000c078 <cprintf>
80012398:	e1a00004 	mov	r0, r4
8001239c:	e8bd8070 	pop	{r4, r5, r6, pc}
800123a0:	e3080f64 	movw	r0, #36708	; 0x8f64
800123a4:	e1a01005 	mov	r1, r5
800123a8:	e3480001 	movt	r0, #32769	; 0x8001
800123ac:	ebffe731 	bl	8000c078 <cprintf>
800123b0:	e3a00001 	mov	r0, #1
800123b4:	e8bd8070 	pop	{r4, r5, r6, pc}

800123b8 <GetMACAddress>:
800123b8:	e3a00000 	mov	r0, #0
800123bc:	e12fff1e 	bx	lr

800123c0 <LogWrite>:
800123c0:	e92d000c 	push	{r2, r3}
800123c4:	e92d4010 	push	{r4, lr}
800123c8:	e24dd010 	sub	sp, sp, #16
800123cc:	e28d301c 	add	r3, sp, #28
800123d0:	e1a04000 	mov	r4, r0
800123d4:	e58d3000 	str	r3, [sp]
800123d8:	e28d0004 	add	r0, sp, #4
800123dc:	ebffdace 	bl	80008f1c <String>
800123e0:	e59d2000 	ldr	r2, [sp]
800123e4:	e28d0004 	add	r0, sp, #4
800123e8:	e59d1018 	ldr	r1, [sp, #24]
800123ec:	ebffdb52 	bl	8000913c <StringFormatV>
800123f0:	e28d0004 	add	r0, sp, #4
800123f4:	ebffdae2 	bl	80008f84 <StringGet>
800123f8:	e1a02000 	mov	r2, r0
800123fc:	e3080fa0 	movw	r0, #36768	; 0x8fa0
80012400:	e3480001 	movt	r0, #32769	; 0x8001
80012404:	e1a01004 	mov	r1, r4
80012408:	ebffe71a 	bl	8000c078 <cprintf>
8001240c:	e28dd010 	add	sp, sp, #16
80012410:	e8bd4010 	pop	{r4, lr}
80012414:	e28dd008 	add	sp, sp, #8
80012418:	e12fff1e 	bx	lr

8001241c <usbinit>:
8001241c:	e92d4010 	push	{r4, lr}
80012420:	ebffd823 	bl	800084b4 <sti>
80012424:	e59f00b4 	ldr	r0, [pc, #180]	; 800124e0 <usbinit+0xc4>
80012428:	ebffe921 	bl	8000c8b4 <TimerEnvInit>
8001242c:	e59f00ac 	ldr	r0, [pc, #172]	; 800124e0 <usbinit+0xc4>
80012430:	ebffe9e0 	bl	8000cbb8 <TimerInitialize>
80012434:	e2504000 	subs	r4, r0, #0
80012438:	0a00001b 	beq	800124ac <usbinit+0x90>
8001243c:	e3080fcc 	movw	r0, #36812	; 0x8fcc
80012440:	e3021710 	movw	r1, #10000	; 0x2710
80012444:	e3480001 	movt	r0, #32769	; 0x8001
80012448:	ebffe70a 	bl	8000c078 <cprintf>
8001244c:	ebfff40b 	bl	8000f480 <USPiInitialize>
80012450:	e2504000 	subs	r4, r0, #0
80012454:	0a00000e 	beq	80012494 <usbinit+0x78>
80012458:	e3090008 	movw	r0, #36872	; 0x9008
8001245c:	e3480001 	movt	r0, #32769	; 0x8001
80012460:	ebffe704 	bl	8000c078 <cprintf>
80012464:	ebfff489 	bl	8000f690 <USPiKeyboardAvailable>
80012468:	e3500000 	cmp	r0, #0
8001246c:	0a000015 	beq	800124c8 <usbinit+0xac>
80012470:	e3090038 	movw	r0, #36920	; 0x9038
80012474:	e3a04001 	mov	r4, #1
80012478:	e3480001 	movt	r0, #32769	; 0x8001
8001247c:	ebffe6fd 	bl	8000c078 <cprintf>
80012480:	e3020214 	movw	r0, #8724	; 0x2214
80012484:	e3480001 	movt	r0, #32769	; 0x8001
80012488:	ebfff487 	bl	8000f6ac <USPiKeyboardRegisterKeyPressedHandler>
8001248c:	e1a00004 	mov	r0, r4
80012490:	e8bd8010 	pop	{r4, pc}
80012494:	e3080ff0 	movw	r0, #36848	; 0x8ff0
80012498:	e3480001 	movt	r0, #32769	; 0x8001
8001249c:	ebffe6f5 	bl	8000c078 <cprintf>
800124a0:	ebffd7ff 	bl	800084a4 <cli>
800124a4:	e1a00004 	mov	r0, r4
800124a8:	e8bd8010 	pop	{r4, pc}
800124ac:	e3080fb0 	movw	r0, #36784	; 0x8fb0
800124b0:	e3480001 	movt	r0, #32769	; 0x8001
800124b4:	ebffe6ef 	bl	8000c078 <cprintf>
800124b8:	e59f0020 	ldr	r0, [pc, #32]	; 800124e0 <usbinit+0xc4>
800124bc:	ebffe910 	bl	8000c904 <_Timer>
800124c0:	e1a00004 	mov	r0, r4
800124c4:	e8bd8010 	pop	{r4, pc}
800124c8:	e309001c 	movw	r0, #36892	; 0x901c
800124cc:	e3a04001 	mov	r4, #1
800124d0:	e3480001 	movt	r0, #32769	; 0x8001
800124d4:	ebffe6e7 	bl	8000c078 <cprintf>
800124d8:	e1a00004 	mov	r0, r4
800124dc:	e8bd8010 	pop	{r4, pc}
800124e0:	8009a99c 	.word	0x8009a99c

800124e4 <sys_fork>:
800124e4:	ea000e61 	b	80015e70 <fork>

800124e8 <sys_exit>:
800124e8:	e92d4010 	push	{r4, lr}
800124ec:	eb000eef 	bl	800160b0 <exit>
800124f0:	e3a00000 	mov	r0, #0
800124f4:	e8bd8010 	pop	{r4, pc}

800124f8 <sys_wait>:
800124f8:	ea000f7a 	b	800162e8 <wait>

800124fc <sys_kill>:
800124fc:	e52de004 	push	{lr}		; (str lr, [sp, #-4]!)
80012500:	e24dd00c 	sub	sp, sp, #12
80012504:	e28d1004 	add	r1, sp, #4
80012508:	e3a00000 	mov	r0, #0
8001250c:	ebfffa40 	bl	80010e14 <argint>
80012510:	e3500000 	cmp	r0, #0
80012514:	ba000003 	blt	80012528 <sys_kill+0x2c>
80012518:	e59d0004 	ldr	r0, [sp, #4]
8001251c:	eb000fc2 	bl	8001642c <kill>
80012520:	e28dd00c 	add	sp, sp, #12
80012524:	e49df004 	pop	{pc}		; (ldr pc, [sp], #4)
80012528:	e3e00000 	mvn	r0, #0
8001252c:	eafffffb 	b	80012520 <sys_kill+0x24>

80012530 <sys_getpid>:
80012530:	e30a3af4 	movw	r3, #43764	; 0xaaf4
80012534:	e3483009 	movt	r3, #32777	; 0x8009
80012538:	e5933018 	ldr	r3, [r3, #24]
8001253c:	e5930010 	ldr	r0, [r3, #16]
80012540:	e12fff1e 	bx	lr

80012544 <sys_sbrk>:
80012544:	e92d4010 	push	{r4, lr}
80012548:	e24dd008 	sub	sp, sp, #8
8001254c:	e28d1004 	add	r1, sp, #4
80012550:	e3a00000 	mov	r0, #0
80012554:	ebfffa2e 	bl	80010e14 <argint>
80012558:	e3500000 	cmp	r0, #0
8001255c:	ba00000a 	blt	8001258c <sys_sbrk+0x48>
80012560:	e59d0004 	ldr	r0, [sp, #4]
80012564:	e30a3af4 	movw	r3, #43764	; 0xaaf4
80012568:	e3483009 	movt	r3, #32777	; 0x8009
8001256c:	e5933018 	ldr	r3, [r3, #24]
80012570:	e5934000 	ldr	r4, [r3]
80012574:	eb000e24 	bl	80015e0c <growproc>
80012578:	e3500000 	cmp	r0, #0
8001257c:	ba000002 	blt	8001258c <sys_sbrk+0x48>
80012580:	e1a00004 	mov	r0, r4
80012584:	e28dd008 	add	sp, sp, #8
80012588:	e8bd8010 	pop	{r4, pc}
8001258c:	e3e04000 	mvn	r4, #0
80012590:	eafffffa 	b	80012580 <sys_sbrk+0x3c>

80012594 <sys_sleep>:
80012594:	e92d41f0 	push	{r4, r5, r6, r7, r8, lr}
80012598:	e24dd008 	sub	sp, sp, #8
8001259c:	e28d1004 	add	r1, sp, #4
800125a0:	e3a00000 	mov	r0, #0
800125a4:	ebfffa1a 	bl	80010e14 <argint>
800125a8:	e3500000 	cmp	r0, #0
800125ac:	ba00002a 	blt	8001265c <sys_sleep+0xc8>
800125b0:	e30a0be0 	movw	r0, #44000	; 0xabe0
800125b4:	e30a7c18 	movw	r7, #44056	; 0xac18
800125b8:	e3480009 	movt	r0, #32777	; 0x8009
800125bc:	e3487009 	movt	r7, #32777	; 0x8009
800125c0:	ebffe7eb 	bl	8000c574 <acquire>
800125c4:	e59d3004 	ldr	r3, [sp, #4]
800125c8:	e5975000 	ldr	r5, [r7]
800125cc:	e3530000 	cmp	r3, #0
800125d0:	0a000015 	beq	8001262c <sys_sleep+0x98>
800125d4:	e30a8af4 	movw	r8, #43764	; 0xaaf4
800125d8:	e3488009 	movt	r8, #32777	; 0x8009
800125dc:	e5983018 	ldr	r3, [r8, #24]
800125e0:	e5933024 	ldr	r3, [r3, #36]	; 0x24
800125e4:	e3530000 	cmp	r3, #0
800125e8:	1a000015 	bne	80012644 <sys_sleep+0xb0>
800125ec:	e30a4be0 	movw	r4, #44000	; 0xabe0
800125f0:	e1a06007 	mov	r6, r7
800125f4:	e3484009 	movt	r4, #32777	; 0x8009
800125f8:	ea000003 	b	8001260c <sys_sleep+0x78>
800125fc:	e5983018 	ldr	r3, [r8, #24]
80012600:	e5933024 	ldr	r3, [r3, #36]	; 0x24
80012604:	e3530000 	cmp	r3, #0
80012608:	1a00000d 	bne	80012644 <sys_sleep+0xb0>
8001260c:	e1a01004 	mov	r1, r4
80012610:	e1a00006 	mov	r0, r6
80012614:	eb000f06 	bl	80016234 <sleep>
80012618:	e5973000 	ldr	r3, [r7]
8001261c:	e59d2004 	ldr	r2, [sp, #4]
80012620:	e0433005 	sub	r3, r3, r5
80012624:	e1530002 	cmp	r3, r2
80012628:	3afffff3 	bcc	800125fc <sys_sleep+0x68>
8001262c:	e30a0be0 	movw	r0, #44000	; 0xabe0
80012630:	e3480009 	movt	r0, #32777	; 0x8009
80012634:	ebffe804 	bl	8000c64c <release>
80012638:	e3a00000 	mov	r0, #0
8001263c:	e28dd008 	add	sp, sp, #8
80012640:	e8bd81f0 	pop	{r4, r5, r6, r7, r8, pc}
80012644:	e30a0be0 	movw	r0, #44000	; 0xabe0
80012648:	e3480009 	movt	r0, #32777	; 0x8009
8001264c:	ebffe7fe 	bl	8000c64c <release>
80012650:	e3e00000 	mvn	r0, #0
80012654:	e28dd008 	add	sp, sp, #8
80012658:	e8bd81f0 	pop	{r4, r5, r6, r7, r8, pc}
8001265c:	e3e00000 	mvn	r0, #0
80012660:	eafffff5 	b	8001263c <sys_sleep+0xa8>

80012664 <sys_uptime>:
80012664:	e92d4010 	push	{r4, lr}
80012668:	e30a4be0 	movw	r4, #44000	; 0xabe0
8001266c:	e3484009 	movt	r4, #32777	; 0x8009
80012670:	e1a00004 	mov	r0, r4
80012674:	ebffe7be 	bl	8000c574 <acquire>
80012678:	e30a3c18 	movw	r3, #44056	; 0xac18
8001267c:	e1a00004 	mov	r0, r4
80012680:	e3483009 	movt	r3, #32777	; 0x8009
80012684:	e5934000 	ldr	r4, [r3]
80012688:	ebffe7ef 	bl	8000c64c <release>
8001268c:	e1a00004 	mov	r0, r4
80012690:	e8bd8010 	pop	{r4, pc}

80012694 <memsetw>:
80012694:	e3520000 	cmp	r2, #0
80012698:	e2423001 	sub	r3, r2, #1
8001269c:	012fff1e 	bxeq	lr
800126a0:	e1a0c000 	mov	ip, r0
800126a4:	e2533001 	subs	r3, r3, #1
800126a8:	e48c1004 	str	r1, [ip], #4
800126ac:	2afffffc 	bcs	800126a4 <memsetw+0x10>
800126b0:	e0800102 	add	r0, r0, r2, lsl #2
800126b4:	e12fff1e 	bx	lr

800126b8 <memsetb>:
800126b8:	e3520000 	cmp	r2, #0
800126bc:	012fff1e 	bxeq	lr
800126c0:	e0802002 	add	r2, r0, r2
800126c4:	e6ef1071 	uxtb	r1, r1
800126c8:	e4c01001 	strb	r1, [r0], #1
800126cc:	e1520000 	cmp	r2, r0
800126d0:	1afffffc 	bne	800126c8 <memsetb+0x10>
800126d4:	e12fff1e 	bx	lr

800126d8 <memset>:
800126d8:	e3100003 	tst	r0, #3
800126dc:	e1a03000 	mov	r3, r0
800126e0:	1a00000d 	bne	8001271c <memset+0x44>
800126e4:	e3120003 	tst	r2, #3
800126e8:	1a00000d 	bne	80012724 <memset+0x4c>
800126ec:	e1b00122 	lsrs	r0, r2, #2
800126f0:	e6ef1071 	uxtb	r1, r1
800126f4:	e1a02801 	lsl	r2, r1, #16
800126f8:	e1822c01 	orr	r2, r2, r1, lsl #24
800126fc:	e1822001 	orr	r2, r2, r1
80012700:	e1821401 	orr	r1, r2, r1, lsl #8
80012704:	0a00000c 	beq	8001273c <memset+0x64>
80012708:	e0830100 	add	r0, r3, r0, lsl #2
8001270c:	e4831004 	str	r1, [r3], #4
80012710:	e1530000 	cmp	r3, r0
80012714:	1afffffc 	bne	8001270c <memset+0x34>
80012718:	e12fff1e 	bx	lr
8001271c:	e3520000 	cmp	r2, #0
80012720:	0a000005 	beq	8001273c <memset+0x64>
80012724:	e0830002 	add	r0, r3, r2
80012728:	e6ef1071 	uxtb	r1, r1
8001272c:	e4c31001 	strb	r1, [r3], #1
80012730:	e1530000 	cmp	r3, r0
80012734:	1afffffc 	bne	8001272c <memset+0x54>
80012738:	e12fff1e 	bx	lr
8001273c:	e1a00003 	mov	r0, r3
80012740:	e12fff1e 	bx	lr

80012744 <memcmp>:
80012744:	e3520000 	cmp	r2, #0
80012748:	0a00000c 	beq	80012780 <memcmp+0x3c>
8001274c:	e5d1c000 	ldrb	ip, [r1]
80012750:	e5d03000 	ldrb	r3, [r0]
80012754:	e15c0003 	cmp	ip, r3
80012758:	00812002 	addeq	r2, r1, r2
8001275c:	02811001 	addeq	r1, r1, #1
80012760:	0a000004 	beq	80012778 <memcmp+0x34>
80012764:	ea000007 	b	80012788 <memcmp+0x44>
80012768:	e5f03001 	ldrb	r3, [r0, #1]!
8001276c:	e4d1c001 	ldrb	ip, [r1], #1
80012770:	e153000c 	cmp	r3, ip
80012774:	1a000003 	bne	80012788 <memcmp+0x44>
80012778:	e1510002 	cmp	r1, r2
8001277c:	1afffff9 	bne	80012768 <memcmp+0x24>
80012780:	e3a00000 	mov	r0, #0
80012784:	e12fff1e 	bx	lr
80012788:	e043000c 	sub	r0, r3, ip
8001278c:	e12fff1e 	bx	lr

80012790 <memmove>:
80012790:	e1510000 	cmp	r1, r0
80012794:	2a00000b 	bcs	800127c8 <memmove+0x38>
80012798:	e0813002 	add	r3, r1, r2
8001279c:	e1500003 	cmp	r0, r3
800127a0:	2a000008 	bcs	800127c8 <memmove+0x38>
800127a4:	e080c002 	add	ip, r0, r2
800127a8:	e3520000 	cmp	r2, #0
800127ac:	012fff1e 	bxeq	lr
800127b0:	e1a0200c 	mov	r2, ip
800127b4:	e573c001 	ldrb	ip, [r3, #-1]!
800127b8:	e1510003 	cmp	r1, r3
800127bc:	e562c001 	strb	ip, [r2, #-1]!
800127c0:	1afffffb 	bne	800127b4 <memmove+0x24>
800127c4:	e12fff1e 	bx	lr
800127c8:	e3520000 	cmp	r2, #0
800127cc:	10812002 	addne	r2, r1, r2
800127d0:	12403001 	subne	r3, r0, #1
800127d4:	0a000004 	beq	800127ec <memmove+0x5c>
800127d8:	e4d1c001 	ldrb	ip, [r1], #1
800127dc:	e1520001 	cmp	r2, r1
800127e0:	e5e3c001 	strb	ip, [r3, #1]!
800127e4:	1afffffb 	bne	800127d8 <memmove+0x48>
800127e8:	e12fff1e 	bx	lr
800127ec:	e12fff1e 	bx	lr

800127f0 <memcpy>:
800127f0:	eaffffe6 	b	80012790 <memmove>

800127f4 <strncmp>:
800127f4:	e3520000 	cmp	r2, #0
800127f8:	0a000016 	beq	80012858 <strncmp+0x64>
800127fc:	e52de004 	push	{lr}		; (str lr, [sp, #-4]!)
80012800:	e5d03000 	ldrb	r3, [r0]
80012804:	e5d1e000 	ldrb	lr, [r1]
80012808:	e3530000 	cmp	r3, #0
8001280c:	0a00000f 	beq	80012850 <strncmp+0x5c>
80012810:	e15e0003 	cmp	lr, r3
80012814:	1a00000d 	bne	80012850 <strncmp+0x5c>
80012818:	e0802002 	add	r2, r0, r2
8001281c:	e280c001 	add	ip, r0, #1
80012820:	ea000005 	b	8001283c <strncmp+0x48>
80012824:	e4dc3001 	ldrb	r3, [ip], #1
80012828:	e3530000 	cmp	r3, #0
8001282c:	0a000006 	beq	8001284c <strncmp+0x58>
80012830:	e5f1e001 	ldrb	lr, [r1, #1]!
80012834:	e153000e 	cmp	r3, lr
80012838:	1a000004 	bne	80012850 <strncmp+0x5c>
8001283c:	e152000c 	cmp	r2, ip
80012840:	1afffff7 	bne	80012824 <strncmp+0x30>
80012844:	e3a00000 	mov	r0, #0
80012848:	e49df004 	pop	{pc}		; (ldr pc, [sp], #4)
8001284c:	e5d1e001 	ldrb	lr, [r1, #1]
80012850:	e043000e 	sub	r0, r3, lr
80012854:	e49df004 	pop	{pc}		; (ldr pc, [sp], #4)
80012858:	e1a00002 	mov	r0, r2
8001285c:	e12fff1e 	bx	lr

80012860 <strncpy>:
80012860:	e52de004 	push	{lr}		; (str lr, [sp, #-4]!)
80012864:	e1a0c000 	mov	ip, r0
80012868:	ea000004 	b	80012880 <strncpy+0x20>
8001286c:	e4d13001 	ldrb	r3, [r1], #1
80012870:	e4cc3001 	strb	r3, [ip], #1
80012874:	e3530000 	cmp	r3, #0
80012878:	0a000003 	beq	8001288c <strncpy+0x2c>
8001287c:	e1a0200e 	mov	r2, lr
80012880:	e3520000 	cmp	r2, #0
80012884:	e242e001 	sub	lr, r2, #1
80012888:	cafffff7 	bgt	8001286c <strncpy+0xc>
8001288c:	e35e0000 	cmp	lr, #0
80012890:	d49df004 	pople	{pc}		; (ldrle pc, [sp], #4)
80012894:	e1a0100c 	mov	r1, ip
80012898:	e3a0e000 	mov	lr, #0
8001289c:	e4c1e001 	strb	lr, [r1], #1
800128a0:	e1e03001 	mvn	r3, r1
800128a4:	e0833002 	add	r3, r3, r2
800128a8:	e08c3003 	add	r3, ip, r3
800128ac:	e3530000 	cmp	r3, #0
800128b0:	cafffff9 	bgt	8001289c <strncpy+0x3c>
800128b4:	e49df004 	pop	{pc}		; (ldr pc, [sp], #4)

800128b8 <safestrcpy>:
800128b8:	e3520000 	cmp	r2, #0
800128bc:	d12fff1e 	bxle	lr
800128c0:	e2422001 	sub	r2, r2, #1
800128c4:	e1a0c000 	mov	ip, r0
800128c8:	e0812002 	add	r2, r1, r2
800128cc:	ea000003 	b	800128e0 <safestrcpy+0x28>
800128d0:	e4d13001 	ldrb	r3, [r1], #1
800128d4:	e4cc3001 	strb	r3, [ip], #1
800128d8:	e3530000 	cmp	r3, #0
800128dc:	0a000001 	beq	800128e8 <safestrcpy+0x30>
800128e0:	e1510002 	cmp	r1, r2
800128e4:	1afffff9 	bne	800128d0 <safestrcpy+0x18>
800128e8:	e3a03000 	mov	r3, #0
800128ec:	e5cc3000 	strb	r3, [ip]
800128f0:	e12fff1e 	bx	lr

800128f4 <strlen>:
800128f4:	e5d03000 	ldrb	r3, [r0]
800128f8:	e3530000 	cmp	r3, #0
800128fc:	0a000006 	beq	8001291c <strlen+0x28>
80012900:	e1a03000 	mov	r3, r0
80012904:	e3a00000 	mov	r0, #0
80012908:	e5f32001 	ldrb	r2, [r3, #1]!
8001290c:	e2800001 	add	r0, r0, #1
80012910:	e3520000 	cmp	r2, #0
80012914:	1afffffb 	bne	80012908 <strlen+0x14>
80012918:	e12fff1e 	bx	lr
8001291c:	e1a00003 	mov	r0, r3
80012920:	e12fff1e 	bx	lr

80012924 <div>:
80012924:	e3a02000 	mov	r2, #0
80012928:	e3a0301f 	mov	r3, #31
8001292c:	e92d4010 	push	{r4, lr}
80012930:	e1a0e000 	mov	lr, r0
80012934:	e3a04001 	mov	r4, #1
80012938:	e1a00002 	mov	r0, r2
8001293c:	e1a0c33e 	lsr	ip, lr, r3
80012940:	e20cc001 	and	ip, ip, #1
80012944:	e18c2082 	orr	r2, ip, r2, lsl #1
80012948:	e1520001 	cmp	r2, r1
8001294c:	20422001 	subcs	r2, r2, r1
80012950:	21800314 	orrcs	r0, r0, r4, lsl r3
80012954:	e2533001 	subs	r3, r3, #1
80012958:	2afffff7 	bcs	8001293c <div+0x18>
8001295c:	e8bd8010 	pop	{r4, pc}

80012960 <pipealloc>:
80012960:	e92d41f0 	push	{r4, r5, r6, r7, r8, lr}
80012964:	e3a04000 	mov	r4, #0
80012968:	e5814000 	str	r4, [r1]
8001296c:	e1a06000 	mov	r6, r0
80012970:	e5804000 	str	r4, [r0]
80012974:	e1a05001 	mov	r5, r1
80012978:	ebfffc5a 	bl	80011ae8 <filealloc>
8001297c:	e1500004 	cmp	r0, r4
80012980:	e5860000 	str	r0, [r6]
80012984:	0a000022 	beq	80012a14 <pipealloc+0xb4>
80012988:	ebfffc56 	bl	80011ae8 <filealloc>
8001298c:	e1500004 	cmp	r0, r4
80012990:	e5850000 	str	r0, [r5]
80012994:	0a00001a 	beq	80012a04 <pipealloc+0xa4>
80012998:	eb000528 	bl	80013e40 <kalloc>
8001299c:	e2507000 	subs	r7, r0, #0
800129a0:	0a000021 	beq	80012a2c <pipealloc+0xcc>
800129a4:	e3a02a01 	mov	r2, #4096	; 0x1000
800129a8:	e1a01004 	mov	r1, r4
800129ac:	e3a08001 	mov	r8, #1
800129b0:	ebffff48 	bl	800126d8 <memset>
800129b4:	e5874238 	str	r4, [r7, #568]	; 0x238
800129b8:	e309104c 	movw	r1, #36940	; 0x904c
800129bc:	e5874234 	str	r4, [r7, #564]	; 0x234
800129c0:	e1a00007 	mov	r0, r7
800129c4:	e587823c 	str	r8, [r7, #572]	; 0x23c
800129c8:	e5878240 	str	r8, [r7, #576]	; 0x240
800129cc:	e3481001 	movt	r1, #32769	; 0x8001
800129d0:	ebffe6c9 	bl	8000c4fc <initlock>
800129d4:	e5962000 	ldr	r2, [r6]
800129d8:	e1a00004 	mov	r0, r4
800129dc:	e5c28008 	strb	r8, [r2, #8]
800129e0:	e5c24009 	strb	r4, [r2, #9]
800129e4:	e5953000 	ldr	r3, [r5]
800129e8:	e5828000 	str	r8, [r2]
800129ec:	e582700c 	str	r7, [r2, #12]
800129f0:	e5838000 	str	r8, [r3]
800129f4:	e5c34008 	strb	r4, [r3, #8]
800129f8:	e5c38009 	strb	r8, [r3, #9]
800129fc:	e583700c 	str	r7, [r3, #12]
80012a00:	e8bd81f0 	pop	{r4, r5, r6, r7, r8, pc}
80012a04:	e5960000 	ldr	r0, [r6]
80012a08:	e3500000 	cmp	r0, #0
80012a0c:	0a000004 	beq	80012a24 <pipealloc+0xc4>
80012a10:	ebfffc61 	bl	80011b9c <fileclose>
80012a14:	e5950000 	ldr	r0, [r5]
80012a18:	e3500000 	cmp	r0, #0
80012a1c:	0a000000 	beq	80012a24 <pipealloc+0xc4>
80012a20:	ebfffc5d 	bl	80011b9c <fileclose>
80012a24:	e3e00000 	mvn	r0, #0
80012a28:	e8bd81f0 	pop	{r4, r5, r6, r7, r8, pc}
80012a2c:	e5960000 	ldr	r0, [r6]
80012a30:	e3500000 	cmp	r0, #0
80012a34:	1afffff5 	bne	80012a10 <pipealloc+0xb0>
80012a38:	eafffff5 	b	80012a14 <pipealloc+0xb4>

80012a3c <pipeclose>:
80012a3c:	e92d4070 	push	{r4, r5, r6, lr}
80012a40:	e1a05001 	mov	r5, r1
80012a44:	e1a04000 	mov	r4, r0
80012a48:	ebffe6c9 	bl	8000c574 <acquire>
80012a4c:	e3550000 	cmp	r5, #0
80012a50:	0584523c 	streq	r5, [r4, #572]	; 0x23c
80012a54:	13a03000 	movne	r3, #0
80012a58:	15843240 	strne	r3, [r4, #576]	; 0x240
80012a5c:	12840f8d 	addne	r0, r4, #564	; 0x234
80012a60:	02840f8e 	addeq	r0, r4, #568	; 0x238
80012a64:	eb000e56 	bl	800163c4 <wakeup>
80012a68:	e594323c 	ldr	r3, [r4, #572]	; 0x23c
80012a6c:	e1a00004 	mov	r0, r4
80012a70:	e3530000 	cmp	r3, #0
80012a74:	1a000002 	bne	80012a84 <pipeclose+0x48>
80012a78:	e5943240 	ldr	r3, [r4, #576]	; 0x240
80012a7c:	e3530000 	cmp	r3, #0
80012a80:	0a000001 	beq	80012a8c <pipeclose+0x50>
80012a84:	e8bd4070 	pop	{r4, r5, r6, lr}
80012a88:	eaffe6ef 	b	8000c64c <release>
80012a8c:	ebffe6ee 	bl	8000c64c <release>
80012a90:	e1a00004 	mov	r0, r4
80012a94:	e8bd4070 	pop	{r4, r5, r6, lr}
80012a98:	ea000484 	b	80013cb0 <kfree>

80012a9c <pipewrite>:
80012a9c:	e92d47f0 	push	{r4, r5, r6, r7, r8, r9, sl, lr}
80012aa0:	e1a08002 	mov	r8, r2
80012aa4:	e1a07001 	mov	r7, r1
80012aa8:	e1a04000 	mov	r4, r0
80012aac:	ebffe6b0 	bl	8000c574 <acquire>
80012ab0:	e3580000 	cmp	r8, #0
80012ab4:	da000027 	ble	80012b58 <pipewrite+0xbc>
80012ab8:	e5942238 	ldr	r2, [r4, #568]	; 0x238
80012abc:	e30aaaf4 	movw	sl, #43764	; 0xaaf4
80012ac0:	e0879008 	add	r9, r7, r8
80012ac4:	e2846f8d 	add	r6, r4, #564	; 0x234
80012ac8:	e348a009 	movt	sl, #32777	; 0x8009
80012acc:	e2845f8e 	add	r5, r4, #568	; 0x238
80012ad0:	e5943234 	ldr	r3, [r4, #564]	; 0x234
80012ad4:	e2833c02 	add	r3, r3, #512	; 0x200
80012ad8:	e1520003 	cmp	r2, r3
80012adc:	0a00000e 	beq	80012b1c <pipewrite+0x80>
80012ae0:	ea000014 	b	80012b38 <pipewrite+0x9c>
80012ae4:	e59a3018 	ldr	r3, [sl, #24]
80012ae8:	e5933024 	ldr	r3, [r3, #36]	; 0x24
80012aec:	e3530000 	cmp	r3, #0
80012af0:	1a00000c 	bne	80012b28 <pipewrite+0x8c>
80012af4:	e1a00006 	mov	r0, r6
80012af8:	eb000e31 	bl	800163c4 <wakeup>
80012afc:	e1a01004 	mov	r1, r4
80012b00:	e1a00005 	mov	r0, r5
80012b04:	eb000dca 	bl	80016234 <sleep>
80012b08:	e5943234 	ldr	r3, [r4, #564]	; 0x234
80012b0c:	e5942238 	ldr	r2, [r4, #568]	; 0x238
80012b10:	e2833c02 	add	r3, r3, #512	; 0x200
80012b14:	e1520003 	cmp	r2, r3
80012b18:	1a000006 	bne	80012b38 <pipewrite+0x9c>
80012b1c:	e594323c 	ldr	r3, [r4, #572]	; 0x23c
80012b20:	e3530000 	cmp	r3, #0
80012b24:	1affffee 	bne	80012ae4 <pipewrite+0x48>
80012b28:	e1a00004 	mov	r0, r4
80012b2c:	ebffe6c6 	bl	8000c64c <release>
80012b30:	e3e00000 	mvn	r0, #0
80012b34:	e8bd87f0 	pop	{r4, r5, r6, r7, r8, r9, sl, pc}
80012b38:	e7e83052 	ubfx	r3, r2, #0, #9
80012b3c:	e2822001 	add	r2, r2, #1
80012b40:	e5842238 	str	r2, [r4, #568]	; 0x238
80012b44:	e4d71001 	ldrb	r1, [r7], #1
80012b48:	e0843003 	add	r3, r4, r3
80012b4c:	e1590007 	cmp	r9, r7
80012b50:	e5c31034 	strb	r1, [r3, #52]	; 0x34
80012b54:	1affffdd 	bne	80012ad0 <pipewrite+0x34>
80012b58:	e2840f8d 	add	r0, r4, #564	; 0x234
80012b5c:	eb000e18 	bl	800163c4 <wakeup>
80012b60:	e1a00004 	mov	r0, r4
80012b64:	ebffe6b8 	bl	8000c64c <release>
80012b68:	e1a00008 	mov	r0, r8
80012b6c:	e8bd87f0 	pop	{r4, r5, r6, r7, r8, r9, sl, pc}

80012b70 <piperead>:
80012b70:	e92d41f0 	push	{r4, r5, r6, r7, r8, lr}
80012b74:	e1a04000 	mov	r4, r0
80012b78:	e1a06002 	mov	r6, r2
80012b7c:	e1a05001 	mov	r5, r1
80012b80:	ebffe67b 	bl	8000c574 <acquire>
80012b84:	e5943234 	ldr	r3, [r4, #564]	; 0x234
80012b88:	e5942238 	ldr	r2, [r4, #568]	; 0x238
80012b8c:	e1530002 	cmp	r3, r2
80012b90:	1a000018 	bne	80012bf8 <piperead+0x88>
80012b94:	e5943240 	ldr	r3, [r4, #576]	; 0x240
80012b98:	e3530000 	cmp	r3, #0
80012b9c:	0a00002d 	beq	80012c58 <piperead+0xe8>
80012ba0:	e30a8af4 	movw	r8, #43764	; 0xaaf4
80012ba4:	e3488009 	movt	r8, #32777	; 0x8009
80012ba8:	e5983018 	ldr	r3, [r8, #24]
80012bac:	e5933024 	ldr	r3, [r3, #36]	; 0x24
80012bb0:	e3530000 	cmp	r3, #0
80012bb4:	02847f8d 	addeq	r7, r4, #564	; 0x234
80012bb8:	0a000007 	beq	80012bdc <piperead+0x6c>
80012bbc:	ea000027 	b	80012c60 <piperead+0xf0>
80012bc0:	e5943240 	ldr	r3, [r4, #576]	; 0x240
80012bc4:	e3530000 	cmp	r3, #0
80012bc8:	0a000022 	beq	80012c58 <piperead+0xe8>
80012bcc:	e5983018 	ldr	r3, [r8, #24]
80012bd0:	e5933024 	ldr	r3, [r3, #36]	; 0x24
80012bd4:	e3530000 	cmp	r3, #0
80012bd8:	1a000020 	bne	80012c60 <piperead+0xf0>
80012bdc:	e1a01004 	mov	r1, r4
80012be0:	e1a00007 	mov	r0, r7
80012be4:	eb000d92 	bl	80016234 <sleep>
80012be8:	e5943234 	ldr	r3, [r4, #564]	; 0x234
80012bec:	e5942238 	ldr	r2, [r4, #568]	; 0x238
80012bf0:	e1530002 	cmp	r3, r2
80012bf4:	0afffff1 	beq	80012bc0 <piperead+0x50>
80012bf8:	e3560000 	cmp	r6, #0
80012bfc:	c2451001 	subgt	r1, r5, #1
80012c00:	c3a05000 	movgt	r5, #0
80012c04:	ca000004 	bgt	80012c1c <piperead+0xac>
80012c08:	ea000012 	b	80012c58 <piperead+0xe8>
80012c0c:	e5943234 	ldr	r3, [r4, #564]	; 0x234
80012c10:	e5942238 	ldr	r2, [r4, #568]	; 0x238
80012c14:	e1530002 	cmp	r3, r2
80012c18:	0a000008 	beq	80012c40 <piperead+0xd0>
80012c1c:	e7e82053 	ubfx	r2, r3, #0, #9
80012c20:	e2855001 	add	r5, r5, #1
80012c24:	e0842002 	add	r2, r4, r2
80012c28:	e2833001 	add	r3, r3, #1
80012c2c:	e5843234 	str	r3, [r4, #564]	; 0x234
80012c30:	e1560005 	cmp	r6, r5
80012c34:	e5d23034 	ldrb	r3, [r2, #52]	; 0x34
80012c38:	e5e13001 	strb	r3, [r1, #1]!
80012c3c:	1afffff2 	bne	80012c0c <piperead+0x9c>
80012c40:	e2840f8e 	add	r0, r4, #568	; 0x238
80012c44:	eb000dde 	bl	800163c4 <wakeup>
80012c48:	e1a00004 	mov	r0, r4
80012c4c:	ebffe67e 	bl	8000c64c <release>
80012c50:	e1a00005 	mov	r0, r5
80012c54:	e8bd81f0 	pop	{r4, r5, r6, r7, r8, pc}
80012c58:	e3a05000 	mov	r5, #0
80012c5c:	eafffff7 	b	80012c40 <piperead+0xd0>
80012c60:	e1a00004 	mov	r0, r4
80012c64:	e3e05000 	mvn	r5, #0
80012c68:	ebffe677 	bl	8000c64c <release>
80012c6c:	e1a00005 	mov	r0, r5
80012c70:	e8bd81f0 	pop	{r4, r5, r6, r7, r8, pc}

80012c74 <USBRequest>:
80012c74:	e59dc000 	ldr	ip, [sp]
80012c78:	e5801000 	str	r1, [r0]
80012c7c:	e3a01000 	mov	r1, #0
80012c80:	e5802008 	str	r2, [r0, #8]
80012c84:	e580300c 	str	r3, [r0, #12]
80012c88:	e580c004 	str	ip, [r0, #4]
80012c8c:	e5801010 	str	r1, [r0, #16]
80012c90:	e5801014 	str	r1, [r0, #20]
80012c94:	e5801018 	str	r1, [r0, #24]
80012c98:	e580101c 	str	r1, [r0, #28]
80012c9c:	e5801020 	str	r1, [r0, #32]
80012ca0:	e12fff1e 	bx	lr

80012ca4 <_USBRequest>:
80012ca4:	e3a03000 	mov	r3, #0
80012ca8:	e5803000 	str	r3, [r0]
80012cac:	e5803004 	str	r3, [r0, #4]
80012cb0:	e5803008 	str	r3, [r0, #8]
80012cb4:	e5803018 	str	r3, [r0, #24]
80012cb8:	e12fff1e 	bx	lr

80012cbc <USBRequestGetEndpoint>:
80012cbc:	e5900000 	ldr	r0, [r0]
80012cc0:	e12fff1e 	bx	lr

80012cc4 <USBRequestSetStatus>:
80012cc4:	e5801010 	str	r1, [r0, #16]
80012cc8:	e12fff1e 	bx	lr

80012ccc <USBRequestSetResultLen>:
80012ccc:	e5801014 	str	r1, [r0, #20]
80012cd0:	e12fff1e 	bx	lr

80012cd4 <USBRequestGetStatus>:
80012cd4:	e5900010 	ldr	r0, [r0, #16]
80012cd8:	e12fff1e 	bx	lr

80012cdc <USBRequestGetResultLength>:
80012cdc:	e5900014 	ldr	r0, [r0, #20]
80012ce0:	e12fff1e 	bx	lr

80012ce4 <USBRequestGetSetupData>:
80012ce4:	e5900004 	ldr	r0, [r0, #4]
80012ce8:	e12fff1e 	bx	lr

80012cec <USBRequestGetBuffer>:
80012cec:	e5900008 	ldr	r0, [r0, #8]
80012cf0:	e12fff1e 	bx	lr

80012cf4 <USBRequestGetBufLen>:
80012cf4:	e590000c 	ldr	r0, [r0, #12]
80012cf8:	e12fff1e 	bx	lr

80012cfc <USBRequestSetCompletionRoutine>:
80012cfc:	e5801018 	str	r1, [r0, #24]
80012d00:	e580201c 	str	r2, [r0, #28]
80012d04:	e5803020 	str	r3, [r0, #32]
80012d08:	e12fff1e 	bx	lr

80012d0c <USBRequestCallCompletionRoutine>:
80012d0c:	e52de004 	push	{lr}		; (str lr, [sp, #-4]!)
80012d10:	e590e018 	ldr	lr, [r0, #24]
80012d14:	e5902020 	ldr	r2, [r0, #32]
80012d18:	e590101c 	ldr	r1, [r0, #28]
80012d1c:	e1a0300e 	mov	r3, lr
80012d20:	e49de004 	pop	{lr}		; (ldr lr, [sp], #4)
80012d24:	e12fff13 	bx	r3

80012d28 <uspi_EnterCritical>:
80012d28:	e10f1000 	mrs	r1, CPSR
80012d2c:	f10c0080 	cpsid	i
80012d30:	e30a38c8 	movw	r3, #43208	; 0xa8c8
80012d34:	e3483009 	movt	r3, #32777	; 0x8009
80012d38:	e5932000 	ldr	r2, [r3]
80012d3c:	e3520000 	cmp	r2, #0
80012d40:	e2822001 	add	r2, r2, #1
80012d44:	e5832000 	str	r2, [r3]
80012d48:	030a3aec 	movweq	r3, #43756	; 0xaaec
80012d4c:	03483009 	movteq	r3, #32777	; 0x8009
80012d50:	02211080 	eoreq	r1, r1, #128	; 0x80
80012d54:	07e013d1 	ubfxeq	r1, r1, #7, #1
80012d58:	05831000 	streq	r1, [r3]
80012d5c:	f57ff05f 	dmb	sy
80012d60:	e12fff1e 	bx	lr

80012d64 <uspi_LeaveCritical>:
80012d64:	f57ff05f 	dmb	sy
80012d68:	e30a28c8 	movw	r2, #43208	; 0xa8c8
80012d6c:	e3482009 	movt	r2, #32777	; 0x8009
80012d70:	e5923000 	ldr	r3, [r2]
80012d74:	e2433001 	sub	r3, r3, #1
80012d78:	e5823000 	str	r3, [r2]
80012d7c:	e3530000 	cmp	r3, #0
80012d80:	112fff1e 	bxne	lr
80012d84:	e30a3aec 	movw	r3, #43756	; 0xaaec
80012d88:	e3483009 	movt	r3, #32777	; 0x8009
80012d8c:	e5933000 	ldr	r3, [r3]
80012d90:	e3530000 	cmp	r3, #0
80012d94:	012fff1e 	bxeq	lr
80012d98:	f1080080 	cpsie	i
80012d9c:	e12fff1e 	bx	lr

80012da0 <uspi_CleanAndInvalidateDataCacheRange>:
80012da0:	ee070f3e 	mcr	15, 0, r0, cr7, cr14, {1}
80012da4:	e2813040 	add	r3, r1, #64	; 0x40
80012da8:	e353003f 	cmp	r3, #63	; 0x3f
80012dac:	912fff1e 	bxls	lr
80012db0:	e3c1103f 	bic	r1, r1, #63	; 0x3f
80012db4:	e2800040 	add	r0, r0, #64	; 0x40
80012db8:	e0801001 	add	r1, r0, r1
80012dbc:	ee070f3e 	mcr	15, 0, r0, cr7, cr14, {1}
80012dc0:	e1510000 	cmp	r1, r0
80012dc4:	e2800040 	add	r0, r0, #64	; 0x40
80012dc8:	1afffffb 	bne	80012dbc <uspi_CleanAndInvalidateDataCacheRange+0x1c>
80012dcc:	e12fff1e 	bx	lr

80012dd0 <read32>:
80012dd0:	e5900000 	ldr	r0, [r0]
80012dd4:	e12fff1e 	bx	lr

80012dd8 <write32>:
80012dd8:	e5801000 	str	r1, [r0]
80012ddc:	e12fff1e 	bx	lr

80012de0 <USBMouseDeviceStartRequest>:
80012de0:	e92d4030 	push	{r4, r5, lr}
80012de4:	e1a04000 	mov	r4, r0
80012de8:	e24dd00c 	sub	sp, sp, #12
80012dec:	e3a00024 	mov	r0, #36	; 0x24
80012df0:	e3a05000 	mov	r5, #0
80012df4:	ebfffd17 	bl	80012258 <malloc>
80012df8:	e5840048 	str	r0, [r4, #72]	; 0x48
80012dfc:	e3a03003 	mov	r3, #3
80012e00:	e594204c 	ldr	r2, [r4, #76]	; 0x4c
80012e04:	e5941040 	ldr	r1, [r4, #64]	; 0x40
80012e08:	e58d5000 	str	r5, [sp]
80012e0c:	ebffff98 	bl	80012c74 <USBRequest>
80012e10:	e5940048 	ldr	r0, [r4, #72]	; 0x48
80012e14:	e30310c0 	movw	r1, #12480	; 0x30c0
80012e18:	e3481001 	movt	r1, #32769	; 0x8001
80012e1c:	e1a03004 	mov	r3, r4
80012e20:	e1a02005 	mov	r2, r5
80012e24:	ebffffb4 	bl	80012cfc <USBRequestSetCompletionRoutine>
80012e28:	e1a00004 	mov	r0, r4
80012e2c:	ebfff574 	bl	80010404 <USBDeviceGetHost>
80012e30:	e5941048 	ldr	r1, [r4, #72]	; 0x48
80012e34:	e28dd00c 	add	sp, sp, #12
80012e38:	e8bd4030 	pop	{r4, r5, lr}
80012e3c:	ea0007ef 	b	80014e00 <DWHCIDeviceSubmitAsyncRequest>

80012e40 <USBMouseDeviceConfigure>:
80012e40:	e92d4070 	push	{r4, r5, r6, lr}
80012e44:	e3a01002 	mov	r1, #2
80012e48:	e24dd020 	sub	sp, sp, #32
80012e4c:	e1a04000 	mov	r4, r0
80012e50:	ebfff571 	bl	8001041c <USBDeviceGetDescriptor>
80012e54:	e3500000 	cmp	r0, #0
80012e58:	0a000074 	beq	80013030 <USBMouseDeviceConfigure+0x1f0>
80012e5c:	e5d03004 	ldrb	r3, [r0, #4]
80012e60:	e3530000 	cmp	r3, #0
80012e64:	0a000071 	beq	80013030 <USBMouseDeviceConfigure+0x1f0>
80012e68:	e3a01004 	mov	r1, #4
80012e6c:	e1a00004 	mov	r0, r4
80012e70:	ebfff569 	bl	8001041c <USBDeviceGetDescriptor>
80012e74:	e2503000 	subs	r3, r0, #0
80012e78:	0a000021 	beq	80012f04 <USBMouseDeviceConfigure+0xc4>
80012e7c:	e5d32004 	ldrb	r2, [r3, #4]
80012e80:	e3520000 	cmp	r2, #0
80012e84:	0afffff7 	beq	80012e68 <USBMouseDeviceConfigure+0x28>
80012e88:	e5d32005 	ldrb	r2, [r3, #5]
80012e8c:	e3520003 	cmp	r2, #3
80012e90:	1afffff4 	bne	80012e68 <USBMouseDeviceConfigure+0x28>
80012e94:	e5d32006 	ldrb	r2, [r3, #6]
80012e98:	e3520001 	cmp	r2, #1
80012e9c:	1afffff1 	bne	80012e68 <USBMouseDeviceConfigure+0x28>
80012ea0:	e5d32007 	ldrb	r2, [r3, #7]
80012ea4:	e3520002 	cmp	r2, #2
80012ea8:	1affffee 	bne	80012e68 <USBMouseDeviceConfigure+0x28>
80012eac:	e5d32002 	ldrb	r2, [r3, #2]
80012eb0:	e3a01005 	mov	r1, #5
80012eb4:	e1a00004 	mov	r0, r4
80012eb8:	e5c4203c 	strb	r2, [r4, #60]	; 0x3c
80012ebc:	e5d33003 	ldrb	r3, [r3, #3]
80012ec0:	e5c4303d 	strb	r3, [r4, #61]	; 0x3d
80012ec4:	ebfff554 	bl	8001041c <USBDeviceGetDescriptor>
80012ec8:	e2505000 	subs	r5, r0, #0
80012ecc:	0affffe5 	beq	80012e68 <USBMouseDeviceConfigure+0x28>
80012ed0:	e1d530d2 	ldrsb	r3, [r5, #2]
80012ed4:	e3530000 	cmp	r3, #0
80012ed8:	aaffffe2 	bge	80012e68 <USBMouseDeviceConfigure+0x28>
80012edc:	e5d53003 	ldrb	r3, [r5, #3]
80012ee0:	e203303f 	and	r3, r3, #63	; 0x3f
80012ee4:	e3530003 	cmp	r3, #3
80012ee8:	1affffde 	bne	80012e68 <USBMouseDeviceConfigure+0x28>
80012eec:	e3a0001c 	mov	r0, #28
80012ef0:	ebfffcd8 	bl	80012258 <malloc>
80012ef4:	e5840040 	str	r0, [r4, #64]	; 0x40
80012ef8:	e1a02005 	mov	r2, r5
80012efc:	e1a01004 	mov	r1, r4
80012f00:	ebffdd0e 	bl	8000a340 <USBEndpoint2>
80012f04:	e5945040 	ldr	r5, [r4, #64]	; 0x40
80012f08:	e3550000 	cmp	r5, #0
80012f0c:	0a00005f 	beq	80013090 <USBMouseDeviceConfigure+0x250>
80012f10:	e1a00004 	mov	r0, r4
80012f14:	ebfff399 	bl	8000fd80 <USBDeviceConfigure>
80012f18:	e2505000 	subs	r5, r0, #0
80012f1c:	0a00004b 	beq	80013050 <USBMouseDeviceConfigure+0x210>
80012f20:	e5d4303d 	ldrb	r3, [r4, #61]	; 0x3d
80012f24:	e3530000 	cmp	r3, #0
80012f28:	0a000012 	beq	80012f78 <USBMouseDeviceConfigure+0x138>
80012f2c:	e1a00004 	mov	r0, r4
80012f30:	e3a05000 	mov	r5, #0
80012f34:	ebfff532 	bl	80010404 <USBDeviceGetHost>
80012f38:	e1a06000 	mov	r6, r0
80012f3c:	e1a00004 	mov	r0, r4
80012f40:	ebfff52d 	bl	800103fc <USBDeviceGetEndpoint0>
80012f44:	e5d4303c 	ldrb	r3, [r4, #60]	; 0x3c
80012f48:	e1a01000 	mov	r1, r0
80012f4c:	e5d4203d 	ldrb	r2, [r4, #61]	; 0x3d
80012f50:	e1a00006 	mov	r0, r6
80012f54:	e58d3004 	str	r3, [sp, #4]
80012f58:	e3a0300b 	mov	r3, #11
80012f5c:	e58d2000 	str	r2, [sp]
80012f60:	e3a02001 	mov	r2, #1
80012f64:	e58d500c 	str	r5, [sp, #12]
80012f68:	e58d5008 	str	r5, [sp, #8]
80012f6c:	eb00081f 	bl	80014ff0 <DWHCIDeviceControlMessage>
80012f70:	e1500005 	cmp	r0, r5
80012f74:	ba00004a 	blt	800130a4 <USBMouseDeviceConfigure+0x264>
80012f78:	e1a00004 	mov	r0, r4
80012f7c:	e3a05000 	mov	r5, #0
80012f80:	ebfff51f 	bl	80010404 <USBDeviceGetHost>
80012f84:	e1a06000 	mov	r6, r0
80012f88:	e1a00004 	mov	r0, r4
80012f8c:	ebfff51a 	bl	800103fc <USBDeviceGetEndpoint0>
80012f90:	e5d4303c 	ldrb	r3, [r4, #60]	; 0x3c
80012f94:	e1a01000 	mov	r1, r0
80012f98:	e58d500c 	str	r5, [sp, #12]
80012f9c:	e1a00006 	mov	r0, r6
80012fa0:	e58d3004 	str	r3, [sp, #4]
80012fa4:	e3a02021 	mov	r2, #33	; 0x21
80012fa8:	e58d5008 	str	r5, [sp, #8]
80012fac:	e3a0300b 	mov	r3, #11
80012fb0:	e58d5000 	str	r5, [sp]
80012fb4:	eb00080d 	bl	80014ff0 <DWHCIDeviceControlMessage>
80012fb8:	e1500005 	cmp	r0, r5
80012fbc:	ba00002c 	blt	80013074 <USBMouseDeviceConfigure+0x234>
80012fc0:	e28d0014 	add	r0, sp, #20
80012fc4:	ebffd7d4 	bl	80008f1c <String>
80012fc8:	e30a38cc 	movw	r3, #43212	; 0xa8cc
80012fcc:	e3091078 	movw	r1, #36984	; 0x9078
80012fd0:	e3483009 	movt	r3, #32777	; 0x8009
80012fd4:	e28d0014 	add	r0, sp, #20
80012fd8:	e3481001 	movt	r1, #32769	; 0x8001
80012fdc:	e5932000 	ldr	r2, [r3]
80012fe0:	e282c001 	add	ip, r2, #1
80012fe4:	e583c000 	str	ip, [r3]
80012fe8:	ebffd9ec 	bl	800097a0 <StringFormat>
80012fec:	eb000f0c 	bl	80016c24 <DeviceNameServiceGet>
80012ff0:	e1a06000 	mov	r6, r0
80012ff4:	e28d0014 	add	r0, sp, #20
80012ff8:	ebffd7e1 	bl	80008f84 <StringGet>
80012ffc:	e1a01000 	mov	r1, r0
80013000:	e1a03005 	mov	r3, r5
80013004:	e1a02004 	mov	r2, r4
80013008:	e1a00006 	mov	r0, r6
8001300c:	eb000eda 	bl	80016b7c <DeviceNameServiceAddDevice>
80013010:	e28d0014 	add	r0, sp, #20
80013014:	ebffd7d0 	bl	80008f5c <_String>
80013018:	e1a00004 	mov	r0, r4
8001301c:	ebffff6f 	bl	80012de0 <USBMouseDeviceStartRequest>
80013020:	e1a05000 	mov	r5, r0
80013024:	e1a00005 	mov	r0, r5
80013028:	e28dd020 	add	sp, sp, #32
8001302c:	e8bd8070 	pop	{r4, r5, r6, pc}
80013030:	e3091054 	movw	r1, #36948	; 0x9054
80013034:	e1a00004 	mov	r0, r4
80013038:	e3481001 	movt	r1, #32769	; 0x8001
8001303c:	e3a05000 	mov	r5, #0
80013040:	ebfff4f7 	bl	80010424 <USBDeviceConfigurationError>
80013044:	e1a00005 	mov	r0, r5
80013048:	e28dd020 	add	sp, sp, #32
8001304c:	e8bd8070 	pop	{r4, r5, r6, pc}
80013050:	e3072c90 	movw	r2, #31888	; 0x7c90
80013054:	e3090054 	movw	r0, #36948	; 0x9054
80013058:	e3482001 	movt	r2, #32769	; 0x8001
8001305c:	e3a01001 	mov	r1, #1
80013060:	e3480001 	movt	r0, #32769	; 0x8001
80013064:	ebfffcd5 	bl	800123c0 <LogWrite>
80013068:	e1a00005 	mov	r0, r5
8001306c:	e28dd020 	add	sp, sp, #32
80013070:	e8bd8070 	pop	{r4, r5, r6, pc}
80013074:	e309205c 	movw	r2, #36956	; 0x905c
80013078:	e3090054 	movw	r0, #36948	; 0x9054
8001307c:	e3482001 	movt	r2, #32769	; 0x8001
80013080:	e3a01001 	mov	r1, #1
80013084:	e3480001 	movt	r0, #32769	; 0x8001
80013088:	ebfffccc 	bl	800123c0 <LogWrite>
8001308c:	eaffffe4 	b	80013024 <USBMouseDeviceConfigure+0x1e4>
80013090:	e3091054 	movw	r1, #36948	; 0x9054
80013094:	e1a00004 	mov	r0, r4
80013098:	e3481001 	movt	r1, #32769	; 0x8001
8001309c:	ebfff4e0 	bl	80010424 <USBDeviceConfigurationError>
800130a0:	eaffffdf 	b	80013024 <USBMouseDeviceConfigure+0x1e4>
800130a4:	e3082380 	movw	r2, #33664	; 0x8380
800130a8:	e3090054 	movw	r0, #36948	; 0x9054
800130ac:	e3482001 	movt	r2, #32769	; 0x8001
800130b0:	e3a01001 	mov	r1, #1
800130b4:	e3480001 	movt	r0, #32769	; 0x8001
800130b8:	ebfffcc0 	bl	800123c0 <LogWrite>
800130bc:	eaffffd8 	b	80013024 <USBMouseDeviceConfigure+0x1e4>

800130c0 <USBMouseDeviceCompletionRoutine>:
800130c0:	e92d41f0 	push	{r4, r5, r6, r7, r8, lr}
800130c4:	e1a04002 	mov	r4, r2
800130c8:	e1a05000 	mov	r5, r0
800130cc:	ebffff00 	bl	80012cd4 <USBRequestGetStatus>
800130d0:	e3500000 	cmp	r0, #0
800130d4:	1a000008 	bne	800130fc <USBMouseDeviceCompletionRoutine+0x3c>
800130d8:	e5940048 	ldr	r0, [r4, #72]	; 0x48
800130dc:	ebfffef0 	bl	80012ca4 <_USBRequest>
800130e0:	e5940048 	ldr	r0, [r4, #72]	; 0x48
800130e4:	ebfffc62 	bl	80012274 <free>
800130e8:	e3a03000 	mov	r3, #0
800130ec:	e1a00004 	mov	r0, r4
800130f0:	e5843048 	str	r3, [r4, #72]	; 0x48
800130f4:	e8bd41f0 	pop	{r4, r5, r6, r7, r8, lr}
800130f8:	eaffff38 	b	80012de0 <USBMouseDeviceStartRequest>
800130fc:	e1a00005 	mov	r0, r5
80013100:	ebfffef5 	bl	80012cdc <USBRequestGetResultLength>
80013104:	e3500003 	cmp	r0, #3
80013108:	1afffff2 	bne	800130d8 <USBMouseDeviceCompletionRoutine+0x18>
8001310c:	e5945044 	ldr	r5, [r4, #68]	; 0x44
80013110:	e3550000 	cmp	r5, #0
80013114:	0affffef 	beq	800130d8 <USBMouseDeviceCompletionRoutine+0x18>
80013118:	e594304c 	ldr	r3, [r4, #76]	; 0x4c
8001311c:	e5d30001 	ldrb	r0, [r3, #1]
80013120:	e5d36000 	ldrb	r6, [r3]
80013124:	eb0003de 	bl	800140a4 <uspi_char2int>
80013128:	e594304c 	ldr	r3, [r4, #76]	; 0x4c
8001312c:	e1a07000 	mov	r7, r0
80013130:	e5d30002 	ldrb	r0, [r3, #2]
80013134:	eb0003da 	bl	800140a4 <uspi_char2int>
80013138:	e1a02000 	mov	r2, r0
8001313c:	e1a01007 	mov	r1, r7
80013140:	e1a00006 	mov	r0, r6
80013144:	e12fff35 	blx	r5
80013148:	eaffffe2 	b	800130d8 <USBMouseDeviceCompletionRoutine+0x18>

8001314c <USBMouseDevice>:
8001314c:	e92d4010 	push	{r4, lr}
80013150:	e1a04000 	mov	r4, r0
80013154:	ebfff33e 	bl	8000fe54 <USBDeviceCopy>
80013158:	e3022e40 	movw	r2, #11840	; 0x2e40
8001315c:	e3a03000 	mov	r3, #0
80013160:	e3482001 	movt	r2, #32769	; 0x8001
80013164:	e3a00003 	mov	r0, #3
80013168:	e5842000 	str	r2, [r4]
8001316c:	e5843040 	str	r3, [r4, #64]	; 0x40
80013170:	e5843044 	str	r3, [r4, #68]	; 0x44
80013174:	e5843048 	str	r3, [r4, #72]	; 0x48
80013178:	e584304c 	str	r3, [r4, #76]	; 0x4c
8001317c:	ebfffc35 	bl	80012258 <malloc>
80013180:	e584004c 	str	r0, [r4, #76]	; 0x4c
80013184:	e8bd8010 	pop	{r4, pc}

80013188 <_CUSBMouseDevice>:
80013188:	e92d4010 	push	{r4, lr}
8001318c:	e1a04000 	mov	r4, r0
80013190:	e590004c 	ldr	r0, [r0, #76]	; 0x4c
80013194:	e3500000 	cmp	r0, #0
80013198:	0a000002 	beq	800131a8 <_CUSBMouseDevice+0x20>
8001319c:	ebfffc34 	bl	80012274 <free>
800131a0:	e3a03000 	mov	r3, #0
800131a4:	e584304c 	str	r3, [r4, #76]	; 0x4c
800131a8:	e5940040 	ldr	r0, [r4, #64]	; 0x40
800131ac:	e3500000 	cmp	r0, #0
800131b0:	0a000004 	beq	800131c8 <_CUSBMouseDevice+0x40>
800131b4:	ebffdcac 	bl	8000a46c <_USBEndpoint>
800131b8:	e5940040 	ldr	r0, [r4, #64]	; 0x40
800131bc:	ebfffc2c 	bl	80012274 <free>
800131c0:	e3a03000 	mov	r3, #0
800131c4:	e5843040 	str	r3, [r4, #64]	; 0x40
800131c8:	e1a00004 	mov	r0, r4
800131cc:	e8bd4010 	pop	{r4, lr}
800131d0:	eafff35c 	b	8000ff48 <_USBDevice>

800131d4 <USBMouseDeviceRegisterStatusHandler>:
800131d4:	e5801044 	str	r1, [r0, #68]	; 0x44
800131d8:	e12fff1e 	bx	lr

800131dc <LAN7800Device>:
800131dc:	e92d4010 	push	{r4, lr}
800131e0:	e1a04000 	mov	r4, r0
800131e4:	ebfff31a 	bl	8000fe54 <USBDeviceCopy>
800131e8:	e3032810 	movw	r2, #14352	; 0x3810
800131ec:	e3a03000 	mov	r3, #0
800131f0:	e3482001 	movt	r2, #32769	; 0x8001
800131f4:	e3a00d19 	mov	r0, #1600	; 0x640
800131f8:	e5842000 	str	r2, [r4]
800131fc:	e584303c 	str	r3, [r4, #60]	; 0x3c
80013200:	e5843040 	str	r3, [r4, #64]	; 0x40
80013204:	e5843050 	str	r3, [r4, #80]	; 0x50
80013208:	ebfffc12 	bl	80012258 <malloc>
8001320c:	e5840050 	str	r0, [r4, #80]	; 0x50
80013210:	e8bd8010 	pop	{r4, pc}

80013214 <_LAN7800Device>:
80013214:	e92d4010 	push	{r4, lr}
80013218:	e1a04000 	mov	r4, r0
8001321c:	e5900050 	ldr	r0, [r0, #80]	; 0x50
80013220:	e3500000 	cmp	r0, #0
80013224:	0a000002 	beq	80013234 <_LAN7800Device+0x20>
80013228:	ebfffc11 	bl	80012274 <free>
8001322c:	e3a03000 	mov	r3, #0
80013230:	e5843050 	str	r3, [r4, #80]	; 0x50
80013234:	e5940040 	ldr	r0, [r4, #64]	; 0x40
80013238:	e3500000 	cmp	r0, #0
8001323c:	0a000004 	beq	80013254 <_LAN7800Device+0x40>
80013240:	ebffdc89 	bl	8000a46c <_USBEndpoint>
80013244:	e5940040 	ldr	r0, [r4, #64]	; 0x40
80013248:	ebfffc09 	bl	80012274 <free>
8001324c:	e3a03000 	mov	r3, #0
80013250:	e5843040 	str	r3, [r4, #64]	; 0x40
80013254:	e594003c 	ldr	r0, [r4, #60]	; 0x3c
80013258:	e3500000 	cmp	r0, #0
8001325c:	0a000004 	beq	80013274 <_LAN7800Device+0x60>
80013260:	ebffdc81 	bl	8000a46c <_USBEndpoint>
80013264:	e594003c 	ldr	r0, [r4, #60]	; 0x3c
80013268:	ebfffc01 	bl	80012274 <free>
8001326c:	e3a03000 	mov	r3, #0
80013270:	e584303c 	str	r3, [r4, #60]	; 0x3c
80013274:	e1a00004 	mov	r0, r4
80013278:	e8bd4010 	pop	{r4, lr}
8001327c:	eafff331 	b	8000ff48 <_USBDevice>

80013280 <LAN7800DeviceGetMACAddress>:
80013280:	e2800044 	add	r0, r0, #68	; 0x44
80013284:	e12fff1e 	bx	lr

80013288 <LAN7800DeviceSendFrame>:
80013288:	e300c638 	movw	ip, #1592	; 0x638
8001328c:	e152000c 	cmp	r2, ip
80013290:	9a000001 	bls	8001329c <LAN7800DeviceSendFrame+0x14>
80013294:	e3a00000 	mov	r0, #0
80013298:	e12fff1e 	bx	lr
8001329c:	e92d4070 	push	{r4, r5, r6, lr}
800132a0:	e1a04000 	mov	r4, r0
800132a4:	e5900050 	ldr	r0, [r0, #80]	; 0x50
800132a8:	e1a05002 	mov	r5, r2
800132ac:	e2800008 	add	r0, r0, #8
800132b0:	eb000304 	bl	80013ec8 <uspi_memcpy>
800132b4:	e5943050 	ldr	r3, [r4, #80]	; 0x50
800132b8:	e3852501 	orr	r2, r5, #4194304	; 0x400000
800132bc:	e1a00004 	mov	r0, r4
800132c0:	e5832000 	str	r2, [r3]
800132c4:	e3a02000 	mov	r2, #0
800132c8:	e5832004 	str	r2, [r3, #4]
800132cc:	ebfff44c 	bl	80010404 <USBDeviceGetHost>
800132d0:	e5942050 	ldr	r2, [r4, #80]	; 0x50
800132d4:	e2853008 	add	r3, r5, #8
800132d8:	e5941040 	ldr	r1, [r4, #64]	; 0x40
800132dc:	eb00079f 	bl	80015160 <DWHCIDeviceTransfer>
800132e0:	e1e00000 	mvn	r0, r0
800132e4:	e1a00fa0 	lsr	r0, r0, #31
800132e8:	e8bd8070 	pop	{r4, r5, r6, pc}

800132ec <LAN7800DeviceReceiveFrame>:
800132ec:	e92d40f0 	push	{r4, r5, r6, r7, lr}
800132f0:	e24dd034 	sub	sp, sp, #52	; 0x34
800132f4:	e1a06001 	mov	r6, r1
800132f8:	e3a04000 	mov	r4, #0
800132fc:	e590103c 	ldr	r1, [r0, #60]	; 0x3c
80013300:	e3a03d19 	mov	r3, #1600	; 0x640
80013304:	e58d4000 	str	r4, [sp]
80013308:	e1a05000 	mov	r5, r0
8001330c:	e1a07002 	mov	r7, r2
80013310:	e28d000c 	add	r0, sp, #12
80013314:	e1a02006 	mov	r2, r6
80013318:	ebfffe55 	bl	80012c74 <USBRequest>
8001331c:	e1a00005 	mov	r0, r5
80013320:	ebfff437 	bl	80010404 <USBDeviceGetHost>
80013324:	e28d100c 	add	r1, sp, #12
80013328:	eb0006e1 	bl	80014eb4 <DWHCIDeviceSubmitBlockingRequest>
8001332c:	e1500004 	cmp	r0, r4
80013330:	0a000014 	beq	80013388 <LAN7800DeviceReceiveFrame+0x9c>
80013334:	e28d000c 	add	r0, sp, #12
80013338:	ebfffe67 	bl	80012cdc <USBRequestGetResultLength>
8001333c:	e3500009 	cmp	r0, #9
80013340:	9a000010 	bls	80013388 <LAN7800DeviceReceiveFrame+0x9c>
80013344:	e5963000 	ldr	r3, [r6]
80013348:	e3130501 	tst	r3, #4194304	; 0x400000
8001334c:	1a000012 	bne	8001339c <LAN7800DeviceReceiveFrame+0xb0>
80013350:	e7ed3053 	ubfx	r3, r3, #0, #14
80013354:	e3530004 	cmp	r3, #4
80013358:	9a00000a 	bls	80013388 <LAN7800DeviceReceiveFrame+0x9c>
8001335c:	e2434004 	sub	r4, r3, #4
80013360:	e286100a 	add	r1, r6, #10
80013364:	e1a02004 	mov	r2, r4
80013368:	e1a00006 	mov	r0, r6
8001336c:	eb0002d5 	bl	80013ec8 <uspi_memcpy>
80013370:	e5874000 	str	r4, [r7]
80013374:	e28d000c 	add	r0, sp, #12
80013378:	ebfffe49 	bl	80012ca4 <_USBRequest>
8001337c:	e3a00001 	mov	r0, #1
80013380:	e28dd034 	add	sp, sp, #52	; 0x34
80013384:	e8bd80f0 	pop	{r4, r5, r6, r7, pc}
80013388:	e28d000c 	add	r0, sp, #12
8001338c:	ebfffe44 	bl	80012ca4 <_USBRequest>
80013390:	e3a00000 	mov	r0, #0
80013394:	e28dd034 	add	sp, sp, #52	; 0x34
80013398:	e8bd80f0 	pop	{r4, r5, r6, r7, pc}
8001339c:	e30823ec 	movw	r2, #33772	; 0x83ec
800133a0:	e3090084 	movw	r0, #36996	; 0x9084
800133a4:	e3482001 	movt	r2, #32769	; 0x8001
800133a8:	e3a01002 	mov	r1, #2
800133ac:	e3480001 	movt	r0, #32769	; 0x8001
800133b0:	ebfffc02 	bl	800123c0 <LogWrite>
800133b4:	e28d000c 	add	r0, sp, #12
800133b8:	ebfffe39 	bl	80012ca4 <_USBRequest>
800133bc:	e1a00004 	mov	r0, r4
800133c0:	e28dd034 	add	sp, sp, #52	; 0x34
800133c4:	e8bd80f0 	pop	{r4, r5, r6, r7, pc}

800133c8 <LAN7800DeviceWriteReg>:
800133c8:	e92d40f0 	push	{r4, r5, r6, r7, lr}
800133cc:	e24dd01c 	sub	sp, sp, #28
800133d0:	e28d4018 	add	r4, sp, #24
800133d4:	e1a05001 	mov	r5, r1
800133d8:	e1a07000 	mov	r7, r0
800133dc:	e5242004 	str	r2, [r4, #-4]!
800133e0:	ebfff407 	bl	80010404 <USBDeviceGetHost>
800133e4:	e1a06000 	mov	r6, r0
800133e8:	e1a00007 	mov	r0, r7
800133ec:	ebfff402 	bl	800103fc <USBDeviceGetEndpoint0>
800133f0:	e58d4008 	str	r4, [sp, #8]
800133f4:	e6ff3075 	uxth	r3, r5
800133f8:	e58d3004 	str	r3, [sp, #4]
800133fc:	e3a04000 	mov	r4, #0
80013400:	e58d4000 	str	r4, [sp]
80013404:	e3a03004 	mov	r3, #4
80013408:	e58d300c 	str	r3, [sp, #12]
8001340c:	e1a01000 	mov	r1, r0
80013410:	e3a030a0 	mov	r3, #160	; 0xa0
80013414:	e1a00006 	mov	r0, r6
80013418:	e3a02040 	mov	r2, #64	; 0x40
8001341c:	eb0006f3 	bl	80014ff0 <DWHCIDeviceControlMessage>
80013420:	e1500004 	cmp	r0, r4
80013424:	a3a00001 	movge	r0, #1
80013428:	ba000001 	blt	80013434 <LAN7800DeviceWriteReg+0x6c>
8001342c:	e28dd01c 	add	sp, sp, #28
80013430:	e8bd80f0 	pop	{r4, r5, r6, r7, pc}
80013434:	e309208c 	movw	r2, #37004	; 0x908c
80013438:	e3090084 	movw	r0, #36996	; 0x9084
8001343c:	e3482001 	movt	r2, #32769	; 0x8001
80013440:	e1a03005 	mov	r3, r5
80013444:	e3480001 	movt	r0, #32769	; 0x8001
80013448:	e3a01002 	mov	r1, #2
8001344c:	ebfffbdb 	bl	800123c0 <LogWrite>
80013450:	e1a00004 	mov	r0, r4
80013454:	e28dd01c 	add	sp, sp, #28
80013458:	e8bd80f0 	pop	{r4, r5, r6, r7, pc}

8001345c <LAN7800DeviceInitMACAddress>:
8001345c:	e92d40f0 	push	{r4, r5, r6, r7, lr}
80013460:	e24dd01c 	sub	sp, sp, #28
80013464:	e1a04000 	mov	r4, r0
80013468:	e28d0004 	add	r0, sp, #4
8001346c:	ebfffbd1 	bl	800123b8 <GetMACAddress>
80013470:	e3500000 	cmp	r0, #0
80013474:	1a000002 	bne	80013484 <LAN7800DeviceInitMACAddress+0x28>
80013478:	e3a00000 	mov	r0, #0
8001347c:	e28dd01c 	add	sp, sp, #28
80013480:	e8bd80f0 	pop	{r4, r5, r6, r7, pc}
80013484:	e2846044 	add	r6, r4, #68	; 0x44
80013488:	e28d1004 	add	r1, sp, #4
8001348c:	e1a00006 	mov	r0, r6
80013490:	ebfff508 	bl	800108b8 <MACAddressSet>
80013494:	e59d5004 	ldr	r5, [sp, #4]
80013498:	e3a01f47 	mov	r1, #284	; 0x11c
8001349c:	e1dd70b8 	ldrh	r7, [sp, #8]
800134a0:	e1a00004 	mov	r0, r4
800134a4:	e1a02005 	mov	r2, r5
800134a8:	ebffffc6 	bl	800133c8 <LAN7800DeviceWriteReg>
800134ac:	e3500000 	cmp	r0, #0
800134b0:	0afffff0 	beq	80013478 <LAN7800DeviceInitMACAddress+0x1c>
800134b4:	e1a02007 	mov	r2, r7
800134b8:	e3a01f46 	mov	r1, #280	; 0x118
800134bc:	e1a00004 	mov	r0, r4
800134c0:	ebffffc0 	bl	800133c8 <LAN7800DeviceWriteReg>
800134c4:	e3500000 	cmp	r0, #0
800134c8:	0affffea 	beq	80013478 <LAN7800DeviceInitMACAddress+0x1c>
800134cc:	e1a02005 	mov	r2, r5
800134d0:	e3001404 	movw	r1, #1028	; 0x404
800134d4:	e1a00004 	mov	r0, r4
800134d8:	ebffffba 	bl	800133c8 <LAN7800DeviceWriteReg>
800134dc:	e3500000 	cmp	r0, #0
800134e0:	0affffe4 	beq	80013478 <LAN7800DeviceInitMACAddress+0x1c>
800134e4:	e3872102 	orr	r2, r7, #-2147483648	; 0x80000000
800134e8:	e1a00004 	mov	r0, r4
800134ec:	e3a01b01 	mov	r1, #1024	; 0x400
800134f0:	ebffffb4 	bl	800133c8 <LAN7800DeviceWriteReg>
800134f4:	e3500000 	cmp	r0, #0
800134f8:	0affffde 	beq	80013478 <LAN7800DeviceInitMACAddress+0x1c>
800134fc:	e28d000c 	add	r0, sp, #12
80013500:	ebffd685 	bl	80008f1c <String>
80013504:	e28d100c 	add	r1, sp, #12
80013508:	e1a00006 	mov	r0, r6
8001350c:	ebfff50f 	bl	80010950 <MACAddressFormat>
80013510:	e28d000c 	add	r0, sp, #12
80013514:	ebffd69a 	bl	80008f84 <StringGet>
80013518:	e1a03000 	mov	r3, r0
8001351c:	e3082404 	movw	r2, #33796	; 0x8404
80013520:	e3482001 	movt	r2, #32769	; 0x8001
80013524:	e3090084 	movw	r0, #36996	; 0x9084
80013528:	e3480001 	movt	r0, #32769	; 0x8001
8001352c:	e3a01004 	mov	r1, #4
80013530:	ebfffba2 	bl	800123c0 <LogWrite>
80013534:	e28d000c 	add	r0, sp, #12
80013538:	ebffd687 	bl	80008f5c <_String>
8001353c:	e3a00001 	mov	r0, #1
80013540:	eaffffcd 	b	8001347c <LAN7800DeviceInitMACAddress+0x20>

80013544 <LAN7800DeviceReadReg>:
80013544:	e92d40f0 	push	{r4, r5, r6, r7, lr}
80013548:	e24dd014 	sub	sp, sp, #20
8001354c:	e1a04002 	mov	r4, r2
80013550:	e1a05001 	mov	r5, r1
80013554:	e1a07000 	mov	r7, r0
80013558:	ebfff3a9 	bl	80010404 <USBDeviceGetHost>
8001355c:	e1a06000 	mov	r6, r0
80013560:	e1a00007 	mov	r0, r7
80013564:	ebfff3a4 	bl	800103fc <USBDeviceGetEndpoint0>
80013568:	e58d4008 	str	r4, [sp, #8]
8001356c:	e6ff3075 	uxth	r3, r5
80013570:	e58d3004 	str	r3, [sp, #4]
80013574:	e3a04000 	mov	r4, #0
80013578:	e58d4000 	str	r4, [sp]
8001357c:	e3a03004 	mov	r3, #4
80013580:	e58d300c 	str	r3, [sp, #12]
80013584:	e1a01000 	mov	r1, r0
80013588:	e3a030a1 	mov	r3, #161	; 0xa1
8001358c:	e1a00006 	mov	r0, r6
80013590:	e3a020c0 	mov	r2, #192	; 0xc0
80013594:	eb000695 	bl	80014ff0 <DWHCIDeviceControlMessage>
80013598:	e3500004 	cmp	r0, #4
8001359c:	03a00001 	moveq	r0, #1
800135a0:	0a000007 	beq	800135c4 <LAN7800DeviceReadReg+0x80>
800135a4:	e30920a8 	movw	r2, #37032	; 0x90a8
800135a8:	e3090084 	movw	r0, #36996	; 0x9084
800135ac:	e3480001 	movt	r0, #32769	; 0x8001
800135b0:	e1a03005 	mov	r3, r5
800135b4:	e3482001 	movt	r2, #32769	; 0x8001
800135b8:	e3a01002 	mov	r1, #2
800135bc:	ebfffb7f 	bl	800123c0 <LogWrite>
800135c0:	e1a00004 	mov	r0, r4
800135c4:	e28dd014 	add	sp, sp, #20
800135c8:	e8bd80f0 	pop	{r4, r5, r6, r7, pc}

800135cc <LAN7800DeviceWaitReg>:
800135cc:	e92d41f0 	push	{r4, r5, r6, r7, r8, lr}
800135d0:	e1a06000 	mov	r6, r0
800135d4:	e24dd008 	sub	sp, sp, #8
800135d8:	e3a00001 	mov	r0, #1
800135dc:	e1a05001 	mov	r5, r1
800135e0:	e1a08002 	mov	r8, r2
800135e4:	e1a07003 	mov	r7, r3
800135e8:	e30043e7 	movw	r4, #999	; 0x3e7
800135ec:	ebfffb21 	bl	80012278 <MsDelay>
800135f0:	ea000006 	b	80013610 <LAN7800DeviceWaitReg+0x44>
800135f4:	e59d3004 	ldr	r3, [sp, #4]
800135f8:	e0033008 	and	r3, r3, r8
800135fc:	e1530007 	cmp	r3, r7
80013600:	0a00000a 	beq	80013630 <LAN7800DeviceWaitReg+0x64>
80013604:	ebfffb1b 	bl	80012278 <MsDelay>
80013608:	e2544001 	subs	r4, r4, #1
8001360c:	0a000006 	beq	8001362c <LAN7800DeviceWaitReg+0x60>
80013610:	e28d2004 	add	r2, sp, #4
80013614:	e1a01005 	mov	r1, r5
80013618:	e1a00006 	mov	r0, r6
8001361c:	ebffffc8 	bl	80013544 <LAN7800DeviceReadReg>
80013620:	e3500000 	cmp	r0, #0
80013624:	e3a00001 	mov	r0, #1
80013628:	1afffff1 	bne	800135f4 <LAN7800DeviceWaitReg+0x28>
8001362c:	e3a00000 	mov	r0, #0
80013630:	e28dd008 	add	sp, sp, #8
80013634:	e8bd81f0 	pop	{r4, r5, r6, r7, r8, pc}

80013638 <LAN7800DevicePHYWrite>:
80013638:	e92d4070 	push	{r4, r5, r6, lr}
8001363c:	e3a03000 	mov	r3, #0
80013640:	e1a04001 	mov	r4, r1
80013644:	e1a06002 	mov	r6, r2
80013648:	e3a01e12 	mov	r1, #288	; 0x120
8001364c:	e3a02001 	mov	r2, #1
80013650:	e1a05000 	mov	r5, r0
80013654:	ebffffdc 	bl	800135cc <LAN7800DeviceWaitReg>
80013658:	e3500000 	cmp	r0, #0
8001365c:	1a000001 	bne	80013668 <LAN7800DevicePHYWrite+0x30>
80013660:	e3a00000 	mov	r0, #0
80013664:	e8bd8070 	pop	{r4, r5, r6, pc}
80013668:	e1a02006 	mov	r2, r6
8001366c:	e3a01f49 	mov	r1, #292	; 0x124
80013670:	e1a00005 	mov	r0, r5
80013674:	ebffff53 	bl	800133c8 <LAN7800DeviceWriteReg>
80013678:	e3500000 	cmp	r0, #0
8001367c:	0afffff7 	beq	80013660 <LAN7800DevicePHYWrite+0x28>
80013680:	e1a02304 	lsl	r2, r4, #6
80013684:	e3a01e12 	mov	r1, #288	; 0x120
80013688:	e2022d1f 	and	r2, r2, #1984	; 0x7c0
8001368c:	e1a00005 	mov	r0, r5
80013690:	e3822b02 	orr	r2, r2, #2048	; 0x800
80013694:	e3822003 	orr	r2, r2, #3
80013698:	ebffff4a 	bl	800133c8 <LAN7800DeviceWriteReg>
8001369c:	e3500000 	cmp	r0, #0
800136a0:	0affffee 	beq	80013660 <LAN7800DevicePHYWrite+0x28>
800136a4:	e1a00005 	mov	r0, r5
800136a8:	e3a03000 	mov	r3, #0
800136ac:	e3a02001 	mov	r2, #1
800136b0:	e3a01e12 	mov	r1, #288	; 0x120
800136b4:	e8bd4070 	pop	{r4, r5, r6, lr}
800136b8:	eaffffc3 	b	800135cc <LAN7800DeviceWaitReg>

800136bc <LAN7800DevicePHYRead>:
800136bc:	e92d4070 	push	{r4, r5, r6, lr}
800136c0:	e3a03000 	mov	r3, #0
800136c4:	e24dd008 	sub	sp, sp, #8
800136c8:	e1a04001 	mov	r4, r1
800136cc:	e1a06002 	mov	r6, r2
800136d0:	e3a01e12 	mov	r1, #288	; 0x120
800136d4:	e3a02001 	mov	r2, #1
800136d8:	e1a05000 	mov	r5, r0
800136dc:	ebffffba 	bl	800135cc <LAN7800DeviceWaitReg>
800136e0:	e3500000 	cmp	r0, #0
800136e4:	1a000002 	bne	800136f4 <LAN7800DevicePHYRead+0x38>
800136e8:	e3a00000 	mov	r0, #0
800136ec:	e28dd008 	add	sp, sp, #8
800136f0:	e8bd8070 	pop	{r4, r5, r6, pc}
800136f4:	e1a02304 	lsl	r2, r4, #6
800136f8:	e3a01e12 	mov	r1, #288	; 0x120
800136fc:	e2022d1f 	and	r2, r2, #1984	; 0x7c0
80013700:	e1a00005 	mov	r0, r5
80013704:	e3822b02 	orr	r2, r2, #2048	; 0x800
80013708:	e3822001 	orr	r2, r2, #1
8001370c:	ebffff2d 	bl	800133c8 <LAN7800DeviceWriteReg>
80013710:	e3500000 	cmp	r0, #0
80013714:	0afffff3 	beq	800136e8 <LAN7800DevicePHYRead+0x2c>
80013718:	e3a03000 	mov	r3, #0
8001371c:	e3a02001 	mov	r2, #1
80013720:	e3a01e12 	mov	r1, #288	; 0x120
80013724:	e1a00005 	mov	r0, r5
80013728:	ebffffa7 	bl	800135cc <LAN7800DeviceWaitReg>
8001372c:	e3500000 	cmp	r0, #0
80013730:	0affffec 	beq	800136e8 <LAN7800DevicePHYRead+0x2c>
80013734:	e1a00005 	mov	r0, r5
80013738:	e28d2004 	add	r2, sp, #4
8001373c:	e3a01f49 	mov	r1, #292	; 0x124
80013740:	ebffff7f 	bl	80013544 <LAN7800DeviceReadReg>
80013744:	e3500000 	cmp	r0, #0
80013748:	13a00001 	movne	r0, #1
8001374c:	159d3004 	ldrne	r3, [sp, #4]
80013750:	11c630b0 	strhne	r3, [r6]
80013754:	eaffffe4 	b	800136ec <LAN7800DevicePHYRead+0x30>

80013758 <LAN7800DeviceIsLinkUp>:
80013758:	e52de004 	push	{lr}		; (str lr, [sp, #-4]!)
8001375c:	e24dd00c 	sub	sp, sp, #12
80013760:	e28d2006 	add	r2, sp, #6
80013764:	e3a01001 	mov	r1, #1
80013768:	ebffffd3 	bl	800136bc <LAN7800DevicePHYRead>
8001376c:	e3500000 	cmp	r0, #0
80013770:	11dd00b6 	ldrhne	r0, [sp, #6]
80013774:	17e00150 	ubfxne	r0, r0, #2, #1
80013778:	e28dd00c 	add	sp, sp, #12
8001377c:	e49df004 	pop	{pc}		; (ldr pc, [sp], #4)

80013780 <LAN7800DeviceInitPHY>:
80013780:	e92d4010 	push	{r4, lr}
80013784:	e24dd008 	sub	sp, sp, #8
80013788:	e28d2006 	add	r2, sp, #6
8001378c:	e3a0101d 	mov	r1, #29
80013790:	e1a04000 	mov	r4, r0
80013794:	ebffffc8 	bl	800136bc <LAN7800DevicePHYRead>
80013798:	e3500000 	cmp	r0, #0
8001379c:	0a000006 	beq	800137bc <LAN7800DeviceInitPHY+0x3c>
800137a0:	e1dd20b6 	ldrh	r2, [sp, #6]
800137a4:	e1a00004 	mov	r0, r4
800137a8:	e3a0101d 	mov	r1, #29
800137ac:	e3c220ff 	bic	r2, r2, #255	; 0xff
800137b0:	e3822061 	orr	r2, r2, #97	; 0x61
800137b4:	e1cd20b6 	strh	r2, [sp, #6]
800137b8:	ebffff9e 	bl	80013638 <LAN7800DevicePHYWrite>
800137bc:	e28dd008 	add	sp, sp, #8
800137c0:	e8bd8010 	pop	{r4, pc}

800137c4 <LAN7800DeviceReadWriteReg>:
800137c4:	e92d40f0 	push	{r4, r5, r6, r7, lr}
800137c8:	e24dd00c 	sub	sp, sp, #12
800137cc:	e1a05002 	mov	r5, r2
800137d0:	e28d2004 	add	r2, sp, #4
800137d4:	e1a04003 	mov	r4, r3
800137d8:	e1a06000 	mov	r6, r0
800137dc:	e1a07001 	mov	r7, r1
800137e0:	ebffff57 	bl	80013544 <LAN7800DeviceReadReg>
800137e4:	e3500000 	cmp	r0, #0
800137e8:	0a000006 	beq	80013808 <LAN7800DeviceReadWriteReg+0x44>
800137ec:	e59d2004 	ldr	r2, [sp, #4]
800137f0:	e1a01007 	mov	r1, r7
800137f4:	e1a00006 	mov	r0, r6
800137f8:	e0022004 	and	r2, r2, r4
800137fc:	e1822005 	orr	r2, r2, r5
80013800:	e58d2004 	str	r2, [sp, #4]
80013804:	ebfffeef 	bl	800133c8 <LAN7800DeviceWriteReg>
80013808:	e28dd00c 	add	sp, sp, #12
8001380c:	e8bd80f0 	pop	{r4, r5, r6, r7, pc}

80013810 <LAN7800DeviceConfigure>:
80013810:	e92d4070 	push	{r4, r5, r6, lr}
80013814:	e3a01002 	mov	r1, #2
80013818:	e24dd010 	sub	sp, sp, #16
8001381c:	e1a04000 	mov	r4, r0
80013820:	ebfff2fd 	bl	8001041c <USBDeviceGetDescriptor>
80013824:	e3500000 	cmp	r0, #0
80013828:	0a000002 	beq	80013838 <LAN7800DeviceConfigure+0x28>
8001382c:	e5d03004 	ldrb	r3, [r0, #4]
80013830:	e3530001 	cmp	r3, #1
80013834:	0a000007 	beq	80013858 <LAN7800DeviceConfigure+0x48>
80013838:	e3091084 	movw	r1, #36996	; 0x9084
8001383c:	e1a00004 	mov	r0, r4
80013840:	e3481001 	movt	r1, #32769	; 0x8001
80013844:	e3a05000 	mov	r5, #0
80013848:	ebfff2f5 	bl	80010424 <USBDeviceConfigurationError>
8001384c:	e1a00005 	mov	r0, r5
80013850:	e28dd010 	add	sp, sp, #16
80013854:	e8bd8070 	pop	{r4, r5, r6, pc}
80013858:	e3a01004 	mov	r1, #4
8001385c:	e1a00004 	mov	r0, r4
80013860:	ebfff2ed 	bl	8001041c <USBDeviceGetDescriptor>
80013864:	e3500000 	cmp	r0, #0
80013868:	0afffff2 	beq	80013838 <LAN7800DeviceConfigure+0x28>
8001386c:	e5d03002 	ldrb	r3, [r0, #2]
80013870:	e3530000 	cmp	r3, #0
80013874:	1affffef 	bne	80013838 <LAN7800DeviceConfigure+0x28>
80013878:	e5d03003 	ldrb	r3, [r0, #3]
8001387c:	e3530000 	cmp	r3, #0
80013880:	1affffec 	bne	80013838 <LAN7800DeviceConfigure+0x28>
80013884:	e5d03004 	ldrb	r3, [r0, #4]
80013888:	e3530003 	cmp	r3, #3
8001388c:	1affffe9 	bne	80013838 <LAN7800DeviceConfigure+0x28>
80013890:	ea000003 	b	800138a4 <LAN7800DeviceConfigure+0x94>
80013894:	e5d63003 	ldrb	r3, [r6, #3]
80013898:	e203303f 	and	r3, r3, #63	; 0x3f
8001389c:	e3530002 	cmp	r3, #2
800138a0:	0a00001f 	beq	80013924 <LAN7800DeviceConfigure+0x114>
800138a4:	e3a01005 	mov	r1, #5
800138a8:	e1a00004 	mov	r0, r4
800138ac:	ebfff2da 	bl	8001041c <USBDeviceGetDescriptor>
800138b0:	e2506000 	subs	r6, r0, #0
800138b4:	1afffff6 	bne	80013894 <LAN7800DeviceConfigure+0x84>
800138b8:	e594303c 	ldr	r3, [r4, #60]	; 0x3c
800138bc:	e3530000 	cmp	r3, #0
800138c0:	0affffdc 	beq	80013838 <LAN7800DeviceConfigure+0x28>
800138c4:	e5943040 	ldr	r3, [r4, #64]	; 0x40
800138c8:	e3530000 	cmp	r3, #0
800138cc:	0affffd9 	beq	80013838 <LAN7800DeviceConfigure+0x28>
800138d0:	e1a00004 	mov	r0, r4
800138d4:	ebfff129 	bl	8000fd80 <USBDeviceConfigure>
800138d8:	e2505000 	subs	r5, r0, #0
800138dc:	0a00001d 	beq	80013958 <LAN7800DeviceConfigure+0x148>
800138e0:	e1a0200d 	mov	r2, sp
800138e4:	e1a01006 	mov	r1, r6
800138e8:	e1a00004 	mov	r0, r4
800138ec:	ebffff14 	bl	80013544 <LAN7800DeviceReadReg>
800138f0:	e1dd30b2 	ldrh	r3, [sp, #2]
800138f4:	e3500000 	cmp	r0, #0
800138f8:	0a000001 	beq	80013904 <LAN7800DeviceConfigure+0xf4>
800138fc:	e3530b1e 	cmp	r3, #30720	; 0x7800
80013900:	0a000024 	beq	80013998 <LAN7800DeviceConfigure+0x188>
80013904:	e30920c4 	movw	r2, #37060	; 0x90c4
80013908:	e3090084 	movw	r0, #36996	; 0x9084
8001390c:	e3482001 	movt	r2, #32769	; 0x8001
80013910:	e3a01001 	mov	r1, #1
80013914:	e3480001 	movt	r0, #32769	; 0x8001
80013918:	e3a05000 	mov	r5, #0
8001391c:	ebfffaa7 	bl	800123c0 <LogWrite>
80013920:	eaffffc9 	b	8001384c <LAN7800DeviceConfigure+0x3c>
80013924:	e1d630d2 	ldrsb	r3, [r6, #2]
80013928:	e3a0001c 	mov	r0, #28
8001392c:	e3530000 	cmp	r3, #0
80013930:	ba00000f 	blt	80013974 <LAN7800DeviceConfigure+0x164>
80013934:	e5943040 	ldr	r3, [r4, #64]	; 0x40
80013938:	e3530000 	cmp	r3, #0
8001393c:	1affffbd 	bne	80013838 <LAN7800DeviceConfigure+0x28>
80013940:	ebfffa44 	bl	80012258 <malloc>
80013944:	e5840040 	str	r0, [r4, #64]	; 0x40
80013948:	e1a02006 	mov	r2, r6
8001394c:	e1a01004 	mov	r1, r4
80013950:	ebffda7a 	bl	8000a340 <USBEndpoint2>
80013954:	eaffffd2 	b	800138a4 <LAN7800DeviceConfigure+0x94>
80013958:	e3072c90 	movw	r2, #31888	; 0x7c90
8001395c:	e3090084 	movw	r0, #36996	; 0x9084
80013960:	e3482001 	movt	r2, #32769	; 0x8001
80013964:	e3a01001 	mov	r1, #1
80013968:	e3480001 	movt	r0, #32769	; 0x8001
8001396c:	ebfffa93 	bl	800123c0 <LogWrite>
80013970:	eaffffb5 	b	8001384c <LAN7800DeviceConfigure+0x3c>
80013974:	e594303c 	ldr	r3, [r4, #60]	; 0x3c
80013978:	e3530000 	cmp	r3, #0
8001397c:	1affffad 	bne	80013838 <LAN7800DeviceConfigure+0x28>
80013980:	ebfffa34 	bl	80012258 <malloc>
80013984:	e584003c 	str	r0, [r4, #60]	; 0x3c
80013988:	e1a02006 	mov	r2, r6
8001398c:	e1a01004 	mov	r1, r4
80013990:	ebffda6a 	bl	8000a340 <USBEndpoint2>
80013994:	eaffffc2 	b	800138a4 <LAN7800DeviceConfigure+0x94>
80013998:	e3e03000 	mvn	r3, #0
8001399c:	e3a02002 	mov	r2, #2
800139a0:	e3a01010 	mov	r1, #16
800139a4:	e1a00004 	mov	r0, r4
800139a8:	ebffff85 	bl	800137c4 <LAN7800DeviceReadWriteReg>
800139ac:	e3500000 	cmp	r0, #0
800139b0:	0a000006 	beq	800139d0 <LAN7800DeviceConfigure+0x1c0>
800139b4:	e1a03006 	mov	r3, r6
800139b8:	e3a02002 	mov	r2, #2
800139bc:	e3a01010 	mov	r1, #16
800139c0:	e1a00004 	mov	r0, r4
800139c4:	ebffff00 	bl	800135cc <LAN7800DeviceWaitReg>
800139c8:	e3500000 	cmp	r0, #0
800139cc:	1a000007 	bne	800139f0 <LAN7800DeviceConfigure+0x1e0>
800139d0:	e30920dc 	movw	r2, #37084	; 0x90dc
800139d4:	e3090084 	movw	r0, #36996	; 0x9084
800139d8:	e3482001 	movt	r2, #32769	; 0x8001
800139dc:	e3a01001 	mov	r1, #1
800139e0:	e3480001 	movt	r0, #32769	; 0x8001
800139e4:	e3a05000 	mov	r5, #0
800139e8:	ebfffa74 	bl	800123c0 <LogWrite>
800139ec:	eaffff96 	b	8001384c <LAN7800DeviceConfigure+0x3c>
800139f0:	e1a00004 	mov	r0, r4
800139f4:	ebfffe98 	bl	8001345c <LAN7800DeviceInitMACAddress>
800139f8:	e2505000 	subs	r5, r0, #0
800139fc:	0a000007 	beq	80013a20 <LAN7800DeviceConfigure+0x210>
80013a00:	e3a02018 	mov	r2, #24
80013a04:	e3a01090 	mov	r1, #144	; 0x90
80013a08:	e1a00004 	mov	r0, r4
80013a0c:	ebfffe6d 	bl	800133c8 <LAN7800DeviceWriteReg>
80013a10:	e3500000 	cmp	r0, #0
80013a14:	1a000008 	bne	80013a3c <LAN7800DeviceConfigure+0x22c>
80013a18:	e3a05000 	mov	r5, #0
80013a1c:	eaffff8a 	b	8001384c <LAN7800DeviceConfigure+0x3c>
80013a20:	e30920ec 	movw	r2, #37100	; 0x90ec
80013a24:	e3090084 	movw	r0, #36996	; 0x9084
80013a28:	e3482001 	movt	r2, #32769	; 0x8001
80013a2c:	e3a01001 	mov	r1, #1
80013a30:	e3480001 	movt	r0, #32769	; 0x8001
80013a34:	ebfffa61 	bl	800123c0 <LogWrite>
80013a38:	eaffff83 	b	8001384c <LAN7800DeviceConfigure+0x3c>
80013a3c:	e3a02b02 	mov	r2, #2048	; 0x800
80013a40:	e3a01094 	mov	r1, #148	; 0x94
80013a44:	e1a00004 	mov	r0, r4
80013a48:	ebfffe5e 	bl	800133c8 <LAN7800DeviceWriteReg>
80013a4c:	e3500000 	cmp	r0, #0
80013a50:	0afffff0 	beq	80013a18 <LAN7800DeviceConfigure+0x208>
80013a54:	e3e03010 	mvn	r3, #16
80013a58:	e3a02603 	mov	r2, #3145728	; 0x300000
80013a5c:	e3a01010 	mov	r1, #16
80013a60:	e1a00004 	mov	r0, r4
80013a64:	ebffff56 	bl	800137c4 <LAN7800DeviceReadWriteReg>
80013a68:	e3500000 	cmp	r0, #0
80013a6c:	0affffe9 	beq	80013a18 <LAN7800DeviceConfigure+0x208>
80013a70:	e3e03040 	mvn	r3, #64	; 0x40
80013a74:	e3a02020 	mov	r2, #32
80013a78:	e3a01080 	mov	r1, #128	; 0x80
80013a7c:	e1a00004 	mov	r0, r4
80013a80:	ebffff4f 	bl	800137c4 <LAN7800DeviceReadWriteReg>
80013a84:	e3500000 	cmp	r0, #0
80013a88:	0affffe2 	beq	80013a18 <LAN7800DeviceConfigure+0x208>
80013a8c:	e3a02017 	mov	r2, #23
80013a90:	e3a010c8 	mov	r1, #200	; 0xc8
80013a94:	e1a00004 	mov	r0, r4
80013a98:	ebfffe4a 	bl	800133c8 <LAN7800DeviceWriteReg>
80013a9c:	e3500000 	cmp	r0, #0
80013aa0:	0affffdc 	beq	80013a18 <LAN7800DeviceConfigure+0x208>
80013aa4:	e3a02017 	mov	r2, #23
80013aa8:	e3a010cc 	mov	r1, #204	; 0xcc
80013aac:	e1a00004 	mov	r0, r4
80013ab0:	ebfffe44 	bl	800133c8 <LAN7800DeviceWriteReg>
80013ab4:	e3500000 	cmp	r0, #0
80013ab8:	0affffd6 	beq	80013a18 <LAN7800DeviceConfigure+0x208>
80013abc:	e3a02000 	mov	r2, #0
80013ac0:	e3a01098 	mov	r1, #152	; 0x98
80013ac4:	e1a00004 	mov	r0, r4
80013ac8:	ebfffe3e 	bl	800133c8 <LAN7800DeviceWriteReg>
80013acc:	e3500000 	cmp	r0, #0
80013ad0:	0affffd0 	beq	80013a18 <LAN7800DeviceConfigure+0x208>
80013ad4:	e3e02000 	mvn	r2, #0
80013ad8:	e3a0100c 	mov	r1, #12
80013adc:	e1a00004 	mov	r0, r4
80013ae0:	ebfffe38 	bl	800133c8 <LAN7800DeviceWriteReg>
80013ae4:	e3500000 	cmp	r0, #0
80013ae8:	0affffca 	beq	80013a18 <LAN7800DeviceConfigure+0x208>
80013aec:	e3a02000 	mov	r2, #0
80013af0:	e3a01f43 	mov	r1, #268	; 0x10c
80013af4:	e1a00004 	mov	r0, r4
80013af8:	ebfffe32 	bl	800133c8 <LAN7800DeviceWriteReg>
80013afc:	e3500000 	cmp	r0, #0
80013b00:	0affffc4 	beq	80013a18 <LAN7800DeviceConfigure+0x208>
80013b04:	e3a02000 	mov	r2, #0
80013b08:	e3a010d0 	mov	r1, #208	; 0xd0
80013b0c:	e1a00004 	mov	r0, r4
80013b10:	ebfffe2c 	bl	800133c8 <LAN7800DeviceWriteReg>
80013b14:	e3500000 	cmp	r0, #0
80013b18:	0affffbe 	beq	80013a18 <LAN7800DeviceConfigure+0x208>
80013b1c:	e3e03000 	mvn	r3, #0
80013b20:	e3002402 	movw	r2, #1026	; 0x402
80013b24:	e3a010b0 	mov	r1, #176	; 0xb0
80013b28:	e1a00004 	mov	r0, r4
80013b2c:	ebffff24 	bl	800137c4 <LAN7800DeviceReadWriteReg>
80013b30:	e3500000 	cmp	r0, #0
80013b34:	0affffb7 	beq	80013a18 <LAN7800DeviceConfigure+0x208>
80013b38:	e3e03000 	mvn	r3, #0
80013b3c:	e3a02010 	mov	r2, #16
80013b40:	e3a01014 	mov	r1, #20
80013b44:	e1a00004 	mov	r0, r4
80013b48:	ebffff1d 	bl	800137c4 <LAN7800DeviceReadWriteReg>
80013b4c:	e3500000 	cmp	r0, #0
80013b50:	0a000006 	beq	80013b70 <LAN7800DeviceConfigure+0x360>
80013b54:	e3a03080 	mov	r3, #128	; 0x80
80013b58:	e3a02090 	mov	r2, #144	; 0x90
80013b5c:	e3a01014 	mov	r1, #20
80013b60:	e1a00004 	mov	r0, r4
80013b64:	ebfffe98 	bl	800135cc <LAN7800DeviceWaitReg>
80013b68:	e3500000 	cmp	r0, #0
80013b6c:	1a000007 	bne	80013b90 <LAN7800DeviceConfigure+0x380>
80013b70:	e3092104 	movw	r2, #37124	; 0x9104
80013b74:	e3090084 	movw	r0, #36996	; 0x9084
80013b78:	e3482001 	movt	r2, #32769	; 0x8001
80013b7c:	e3a01001 	mov	r1, #1
80013b80:	e3480001 	movt	r0, #32769	; 0x8001
80013b84:	e3a05000 	mov	r5, #0
80013b88:	ebfffa0c 	bl	800123c0 <LogWrite>
80013b8c:	eaffff2e 	b	8001384c <LAN7800DeviceConfigure+0x3c>
80013b90:	e3e03000 	mvn	r3, #0
80013b94:	e3a02b06 	mov	r2, #6144	; 0x1800
80013b98:	e3a01c01 	mov	r1, #256	; 0x100
80013b9c:	e1a00004 	mov	r0, r4
80013ba0:	ebffff07 	bl	800137c4 <LAN7800DeviceReadWriteReg>
80013ba4:	e3500000 	cmp	r0, #0
80013ba8:	0affff9a 	beq	80013a18 <LAN7800DeviceConfigure+0x208>
80013bac:	e3e03000 	mvn	r3, #0
80013bb0:	e3a02001 	mov	r2, #1
80013bb4:	e3a01f42 	mov	r1, #264	; 0x108
80013bb8:	e1a00004 	mov	r0, r4
80013bbc:	ebffff00 	bl	800137c4 <LAN7800DeviceReadWriteReg>
80013bc0:	e3500000 	cmp	r0, #0
80013bc4:	0affff93 	beq	80013a18 <LAN7800DeviceConfigure+0x208>
80013bc8:	e3e03000 	mvn	r3, #0
80013bcc:	e3a02102 	mov	r2, #-2147483648	; 0x80000000
80013bd0:	e3a010c4 	mov	r1, #196	; 0xc4
80013bd4:	e1a00004 	mov	r0, r4
80013bd8:	ebfffef9 	bl	800137c4 <LAN7800DeviceReadWriteReg>
80013bdc:	e3500000 	cmp	r0, #0
80013be0:	0affff8c 	beq	80013a18 <LAN7800DeviceConfigure+0x208>
80013be4:	e30f3fff 	movw	r3, #65535	; 0xffff
80013be8:	e3a02001 	mov	r2, #1
80013bec:	e34c3000 	movt	r3, #49152	; 0xc000
80013bf0:	e3a01f41 	mov	r1, #260	; 0x104
80013bf4:	e34025ee 	movt	r2, #1518	; 0x5ee
80013bf8:	e1a00004 	mov	r0, r4
80013bfc:	ebfffef0 	bl	800137c4 <LAN7800DeviceReadWriteReg>
80013c00:	e3500000 	cmp	r0, #0
80013c04:	0affff83 	beq	80013a18 <LAN7800DeviceConfigure+0x208>
80013c08:	e3e03000 	mvn	r3, #0
80013c0c:	e3a02102 	mov	r2, #-2147483648	; 0x80000000
80013c10:	e3a010c0 	mov	r1, #192	; 0xc0
80013c14:	e1a00004 	mov	r0, r4
80013c18:	ebfffee9 	bl	800137c4 <LAN7800DeviceReadWriteReg>
80013c1c:	e3500000 	cmp	r0, #0
80013c20:	0affff7c 	beq	80013a18 <LAN7800DeviceConfigure+0x208>
80013c24:	e1a00004 	mov	r0, r4
80013c28:	ebfffed4 	bl	80013780 <LAN7800DeviceInitPHY>
80013c2c:	e2505000 	subs	r5, r0, #0
80013c30:	0a000017 	beq	80013c94 <LAN7800DeviceConfigure+0x484>
80013c34:	e28d0004 	add	r0, sp, #4
80013c38:	e3a05001 	mov	r5, #1
80013c3c:	ebffd4b6 	bl	80008f1c <String>
80013c40:	e30a38d0 	movw	r3, #43216	; 0xa8d0
80013c44:	e308145c 	movw	r1, #33884	; 0x845c
80013c48:	e3483009 	movt	r3, #32777	; 0x8009
80013c4c:	e28d0004 	add	r0, sp, #4
80013c50:	e3481001 	movt	r1, #32769	; 0x8001
80013c54:	e5932000 	ldr	r2, [r3]
80013c58:	e082c005 	add	ip, r2, r5
80013c5c:	e583c000 	str	ip, [r3]
80013c60:	ebffd6ce 	bl	800097a0 <StringFormat>
80013c64:	eb000bee 	bl	80016c24 <DeviceNameServiceGet>
80013c68:	e1a06000 	mov	r6, r0
80013c6c:	e28d0004 	add	r0, sp, #4
80013c70:	ebffd4c3 	bl	80008f84 <StringGet>
80013c74:	e1a01000 	mov	r1, r0
80013c78:	e1a02004 	mov	r2, r4
80013c7c:	e1a00006 	mov	r0, r6
80013c80:	e3a03000 	mov	r3, #0
80013c84:	eb000bbc 	bl	80016b7c <DeviceNameServiceAddDevice>
80013c88:	e28d0004 	add	r0, sp, #4
80013c8c:	ebffd4b2 	bl	80008f5c <_String>
80013c90:	eafffeed 	b	8001384c <LAN7800DeviceConfigure+0x3c>
80013c94:	e3092118 	movw	r2, #37144	; 0x9118
80013c98:	e3090084 	movw	r0, #36996	; 0x9084
80013c9c:	e3482001 	movt	r2, #32769	; 0x8001
80013ca0:	e3a01001 	mov	r1, #1
80013ca4:	e3480001 	movt	r0, #32769	; 0x8001
80013ca8:	ebfff9c4 	bl	800123c0 <LogWrite>
80013cac:	eafffee6 	b	8001384c <LAN7800DeviceConfigure+0x3c>

80013cb0 <kfree>:
80013cb0:	e7eb2050 	ubfx	r2, r0, #0, #12
80013cb4:	e30f3df4 	movw	r3, #65012	; 0xfdf4
80013cb8:	e3483009 	movt	r3, #32777	; 0x8009
80013cbc:	e92d4070 	push	{r4, r5, r6, lr}
80013cc0:	e1500003 	cmp	r0, r3
80013cc4:	23520000 	cmpcs	r2, #0
80013cc8:	1a00001a 	bne	80013d38 <kfree+0x88>
80013ccc:	e30d2428 	movw	r2, #54312	; 0xd428
80013cd0:	e2803102 	add	r3, r0, #-2147483648	; 0x80000000
80013cd4:	e3482009 	movt	r2, #32777	; 0x8009
80013cd8:	e1a05000 	mov	r5, r0
80013cdc:	e5922000 	ldr	r2, [r2]
80013ce0:	e1520003 	cmp	r2, r3
80013ce4:	9a000013 	bls	80013d38 <kfree+0x88>
80013ce8:	e30d4e84 	movw	r4, #56964	; 0xde84
80013cec:	e3484009 	movt	r4, #32777	; 0x8009
80013cf0:	e5943034 	ldr	r3, [r4, #52]	; 0x34
80013cf4:	e3530000 	cmp	r3, #0
80013cf8:	1a000003 	bne	80013d0c <kfree+0x5c>
80013cfc:	e5943038 	ldr	r3, [r4, #56]	; 0x38
80013d00:	e5803000 	str	r3, [r0]
80013d04:	e5840038 	str	r0, [r4, #56]	; 0x38
80013d08:	e8bd8070 	pop	{r4, r5, r6, pc}
80013d0c:	e1a00004 	mov	r0, r4
80013d10:	ebffe217 	bl	8000c574 <acquire>
80013d14:	e5943034 	ldr	r3, [r4, #52]	; 0x34
80013d18:	e5942038 	ldr	r2, [r4, #56]	; 0x38
80013d1c:	e3530000 	cmp	r3, #0
80013d20:	e5852000 	str	r2, [r5]
80013d24:	e5845038 	str	r5, [r4, #56]	; 0x38
80013d28:	08bd8070 	popeq	{r4, r5, r6, pc}
80013d2c:	e1a00004 	mov	r0, r4
80013d30:	e8bd4070 	pop	{r4, r5, r6, lr}
80013d34:	eaffe244 	b	8000c64c <release>
80013d38:	e30800a4 	movw	r0, #32932	; 0x80a4
80013d3c:	e3480001 	movt	r0, #32769	; 0x8001
80013d40:	ebffe0af 	bl	8000c004 <panic>

80013d44 <freerange>:
80013d44:	e2800eff 	add	r0, r0, #4080	; 0xff0
80013d48:	e280000f 	add	r0, r0, #15
80013d4c:	e3c00eff 	bic	r0, r0, #4080	; 0xff0
80013d50:	e3c0000f 	bic	r0, r0, #15
80013d54:	e92d4070 	push	{r4, r5, r6, lr}
80013d58:	e2804a01 	add	r4, r0, #4096	; 0x1000
80013d5c:	e1510004 	cmp	r1, r4
80013d60:	38bd8070 	popcc	{r4, r5, r6, pc}
80013d64:	e1a05001 	mov	r5, r1
80013d68:	e2440a01 	sub	r0, r4, #4096	; 0x1000
80013d6c:	e2844a01 	add	r4, r4, #4096	; 0x1000
80013d70:	ebffffce 	bl	80013cb0 <kfree>
80013d74:	e1540005 	cmp	r4, r5
80013d78:	9afffffa 	bls	80013d68 <freerange+0x24>
80013d7c:	e8bd8070 	pop	{r4, r5, r6, pc}

80013d80 <kinit1>:
80013d80:	e92d4070 	push	{r4, r5, r6, lr}
80013d84:	e1a04000 	mov	r4, r0
80013d88:	e2844eff 	add	r4, r4, #4080	; 0xff0
80013d8c:	e30d3428 	movw	r3, #54312	; 0xd428
80013d90:	e3483009 	movt	r3, #32777	; 0x8009
80013d94:	e284400f 	add	r4, r4, #15
80013d98:	e3c44eff 	bic	r4, r4, #4080	; 0xff0
80013d9c:	e30d6e84 	movw	r6, #56964	; 0xde84
80013da0:	e3486009 	movt	r6, #32777	; 0x8009
80013da4:	e1a05001 	mov	r5, r1
80013da8:	e3c4400f 	bic	r4, r4, #15
80013dac:	e3091128 	movw	r1, #37160	; 0x9128
80013db0:	e3481001 	movt	r1, #32769	; 0x8001
80013db4:	e3a02402 	mov	r2, #33554432	; 0x2000000
80013db8:	e5832000 	str	r2, [r3]
80013dbc:	e1a00006 	mov	r0, r6
80013dc0:	e2844a01 	add	r4, r4, #4096	; 0x1000
80013dc4:	ebffe1cc 	bl	8000c4fc <initlock>
80013dc8:	e1550004 	cmp	r5, r4
80013dcc:	e3a03000 	mov	r3, #0
80013dd0:	e5863034 	str	r3, [r6, #52]	; 0x34
80013dd4:	e5863038 	str	r3, [r6, #56]	; 0x38
80013dd8:	38bd8070 	popcc	{r4, r5, r6, pc}
80013ddc:	e2440a01 	sub	r0, r4, #4096	; 0x1000
80013de0:	e2844a01 	add	r4, r4, #4096	; 0x1000
80013de4:	ebffffb1 	bl	80013cb0 <kfree>
80013de8:	e1550004 	cmp	r5, r4
80013dec:	2afffffa 	bcs	80013ddc <kinit1+0x5c>
80013df0:	e8bd8070 	pop	{r4, r5, r6, pc}

80013df4 <kinit2>:
80013df4:	e2800eff 	add	r0, r0, #4080	; 0xff0
80013df8:	e280000f 	add	r0, r0, #15
80013dfc:	e3c00eff 	bic	r0, r0, #4080	; 0xff0
80013e00:	e3c0000f 	bic	r0, r0, #15
80013e04:	e92d4070 	push	{r4, r5, r6, lr}
80013e08:	e2804a01 	add	r4, r0, #4096	; 0x1000
80013e0c:	e1510004 	cmp	r1, r4
80013e10:	21a05001 	movcs	r5, r1
80013e14:	3a000004 	bcc	80013e2c <kinit2+0x38>
80013e18:	e2440a01 	sub	r0, r4, #4096	; 0x1000
80013e1c:	e2844a01 	add	r4, r4, #4096	; 0x1000
80013e20:	ebffffa2 	bl	80013cb0 <kfree>
80013e24:	e1550004 	cmp	r5, r4
80013e28:	2afffffa 	bcs	80013e18 <kinit2+0x24>
80013e2c:	e30d3e84 	movw	r3, #56964	; 0xde84
80013e30:	e3a02001 	mov	r2, #1
80013e34:	e3483009 	movt	r3, #32777	; 0x8009
80013e38:	e5832034 	str	r2, [r3, #52]	; 0x34
80013e3c:	e8bd8070 	pop	{r4, r5, r6, pc}

80013e40 <kalloc>:
80013e40:	e92d4070 	push	{r4, r5, r6, lr}
80013e44:	e30d4e84 	movw	r4, #56964	; 0xde84
80013e48:	e3484009 	movt	r4, #32777	; 0x8009
80013e4c:	e5943034 	ldr	r3, [r4, #52]	; 0x34
80013e50:	e3530000 	cmp	r3, #0
80013e54:	1a00000b 	bne	80013e88 <kalloc+0x48>
80013e58:	e5945038 	ldr	r5, [r4, #56]	; 0x38
80013e5c:	e3550000 	cmp	r5, #0
80013e60:	0a000006 	beq	80013e80 <kalloc+0x40>
80013e64:	e5952000 	ldr	r2, [r5]
80013e68:	e5842038 	str	r2, [r4, #56]	; 0x38
80013e6c:	e3530000 	cmp	r3, #0
80013e70:	0a000002 	beq	80013e80 <kalloc+0x40>
80013e74:	e30d0e84 	movw	r0, #56964	; 0xde84
80013e78:	e3480009 	movt	r0, #32777	; 0x8009
80013e7c:	ebffe1f2 	bl	8000c64c <release>
80013e80:	e1a00005 	mov	r0, r5
80013e84:	e8bd8070 	pop	{r4, r5, r6, pc}
80013e88:	e1a00004 	mov	r0, r4
80013e8c:	ebffe1b8 	bl	8000c574 <acquire>
80013e90:	e5945038 	ldr	r5, [r4, #56]	; 0x38
80013e94:	e5943034 	ldr	r3, [r4, #52]	; 0x34
80013e98:	e3550000 	cmp	r5, #0
80013e9c:	1afffff0 	bne	80013e64 <kalloc+0x24>
80013ea0:	eafffff1 	b	80013e6c <kalloc+0x2c>

80013ea4 <uspi_memset>:
80013ea4:	e3520000 	cmp	r2, #0
80013ea8:	012fff1e 	bxeq	lr
80013eac:	e0802002 	add	r2, r0, r2
80013eb0:	e6ef1071 	uxtb	r1, r1
80013eb4:	e1a03000 	mov	r3, r0
80013eb8:	e4c31001 	strb	r1, [r3], #1
80013ebc:	e1530002 	cmp	r3, r2
80013ec0:	1afffffc 	bne	80013eb8 <uspi_memset+0x14>
80013ec4:	e12fff1e 	bx	lr

80013ec8 <uspi_memcpy>:
80013ec8:	e3520000 	cmp	r2, #0
80013ecc:	012fff1e 	bxeq	lr
80013ed0:	e0812002 	add	r2, r1, r2
80013ed4:	e2403001 	sub	r3, r0, #1
80013ed8:	e4d1c001 	ldrb	ip, [r1], #1
80013edc:	e1510002 	cmp	r1, r2
80013ee0:	e5e3c001 	strb	ip, [r3, #1]!
80013ee4:	1afffffb 	bne	80013ed8 <uspi_memcpy+0x10>
80013ee8:	e12fff1e 	bx	lr

80013eec <uspi_memcmp>:
80013eec:	e3520000 	cmp	r2, #0
80013ef0:	0a00000e 	beq	80013f30 <uspi_memcmp+0x44>
80013ef4:	e5d0c000 	ldrb	ip, [r0]
80013ef8:	e5d13000 	ldrb	r3, [r1]
80013efc:	e15c0003 	cmp	ip, r3
80013f00:	8a00000c 	bhi	80013f38 <uspi_memcmp+0x4c>
80013f04:	3a00000d 	bcc	80013f40 <uspi_memcmp+0x54>
80013f08:	e0812002 	add	r2, r1, r2
80013f0c:	e2811001 	add	r1, r1, #1
80013f10:	ea000004 	b	80013f28 <uspi_memcmp+0x3c>
80013f14:	e5f0c001 	ldrb	ip, [r0, #1]!
80013f18:	e4d13001 	ldrb	r3, [r1], #1
80013f1c:	e15c0003 	cmp	ip, r3
80013f20:	8a000004 	bhi	80013f38 <uspi_memcmp+0x4c>
80013f24:	3a000005 	bcc	80013f40 <uspi_memcmp+0x54>
80013f28:	e1510002 	cmp	r1, r2
80013f2c:	1afffff8 	bne	80013f14 <uspi_memcmp+0x28>
80013f30:	e3a00000 	mov	r0, #0
80013f34:	e12fff1e 	bx	lr
80013f38:	e3a00001 	mov	r0, #1
80013f3c:	e12fff1e 	bx	lr
80013f40:	e3e00000 	mvn	r0, #0
80013f44:	e12fff1e 	bx	lr

80013f48 <uspi_strlen>:
80013f48:	e5d01000 	ldrb	r1, [r0]
80013f4c:	e2803001 	add	r3, r0, #1
80013f50:	e3510000 	cmp	r1, #0
80013f54:	0a000003 	beq	80013f68 <uspi_strlen+0x20>
80013f58:	e0431000 	sub	r1, r3, r0
80013f5c:	e4d32001 	ldrb	r2, [r3], #1
80013f60:	e3520000 	cmp	r2, #0
80013f64:	1afffffb 	bne	80013f58 <uspi_strlen+0x10>
80013f68:	e1a00001 	mov	r0, r1
80013f6c:	e12fff1e 	bx	lr

80013f70 <uspi_strcmp>:
80013f70:	e5d03000 	ldrb	r3, [r0]
80013f74:	e3530000 	cmp	r3, #0
80013f78:	0a000011 	beq	80013fc4 <uspi_strcmp+0x54>
80013f7c:	e5d12000 	ldrb	r2, [r1]
80013f80:	e3520000 	cmp	r2, #0
80013f84:	0a000013 	beq	80013fd8 <uspi_strcmp+0x68>
80013f88:	e1520003 	cmp	r2, r3
80013f8c:	3a000011 	bcc	80013fd8 <uspi_strcmp+0x68>
80013f90:	92813001 	addls	r3, r1, #1
80013f94:	9a000006 	bls	80013fb4 <uspi_strcmp+0x44>
80013f98:	ea000010 	b	80013fe0 <uspi_strcmp+0x70>
80013f9c:	e4d31001 	ldrb	r1, [r3], #1
80013fa0:	e3510000 	cmp	r1, #0
80013fa4:	0a00000b 	beq	80013fd8 <uspi_strcmp+0x68>
80013fa8:	e1520001 	cmp	r2, r1
80013fac:	8a000009 	bhi	80013fd8 <uspi_strcmp+0x68>
80013fb0:	3a00000a 	bcc	80013fe0 <uspi_strcmp+0x70>
80013fb4:	e5f02001 	ldrb	r2, [r0, #1]!
80013fb8:	e1a01003 	mov	r1, r3
80013fbc:	e3520000 	cmp	r2, #0
80013fc0:	1afffff5 	bne	80013f9c <uspi_strcmp+0x2c>
80013fc4:	e5d10000 	ldrb	r0, [r1]
80013fc8:	e2900000 	adds	r0, r0, #0
80013fcc:	13a00001 	movne	r0, #1
80013fd0:	e2600000 	rsb	r0, r0, #0
80013fd4:	e12fff1e 	bx	lr
80013fd8:	e3a00001 	mov	r0, #1
80013fdc:	e12fff1e 	bx	lr
80013fe0:	e3e00000 	mvn	r0, #0
80013fe4:	e12fff1e 	bx	lr

80013fe8 <uspi_strcpy>:
80013fe8:	e5d13000 	ldrb	r3, [r1]
80013fec:	e1a02000 	mov	r2, r0
80013ff0:	e3530000 	cmp	r3, #0
80013ff4:	0a000003 	beq	80014008 <uspi_strcpy+0x20>
80013ff8:	e4c23001 	strb	r3, [r2], #1
80013ffc:	e5f13001 	ldrb	r3, [r1, #1]!
80014000:	e3530000 	cmp	r3, #0
80014004:	1afffffb 	bne	80013ff8 <uspi_strcpy+0x10>
80014008:	e3a03000 	mov	r3, #0
8001400c:	e5c23000 	strb	r3, [r2]
80014010:	e12fff1e 	bx	lr

80014014 <uspi_strncpy>:
80014014:	e3520000 	cmp	r2, #0
80014018:	012fff1e 	bxeq	lr
8001401c:	e5d1c000 	ldrb	ip, [r1]
80014020:	e35c0000 	cmp	ip, #0
80014024:	0a000009 	beq	80014050 <uspi_strncpy+0x3c>
80014028:	e0802002 	add	r2, r0, r2
8001402c:	e1a03000 	mov	r3, r0
80014030:	ea000002 	b	80014040 <uspi_strncpy+0x2c>
80014034:	e5f1c001 	ldrb	ip, [r1, #1]!
80014038:	e35c0000 	cmp	ip, #0
8001403c:	0a000004 	beq	80014054 <uspi_strncpy+0x40>
80014040:	e4c3c001 	strb	ip, [r3], #1
80014044:	e1530002 	cmp	r3, r2
80014048:	1afffff9 	bne	80014034 <uspi_strncpy+0x20>
8001404c:	e12fff1e 	bx	lr
80014050:	e1a03000 	mov	r3, r0
80014054:	e3a02000 	mov	r2, #0
80014058:	e5c32000 	strb	r2, [r3]
8001405c:	e12fff1e 	bx	lr

80014060 <uspi_strcat>:
80014060:	e5d03000 	ldrb	r3, [r0]
80014064:	e3530000 	cmp	r3, #0
80014068:	e1a03000 	mov	r3, r0
8001406c:	0a000002 	beq	8001407c <uspi_strcat+0x1c>
80014070:	e5f32001 	ldrb	r2, [r3, #1]!
80014074:	e3520000 	cmp	r2, #0
80014078:	1afffffc 	bne	80014070 <uspi_strcat+0x10>
8001407c:	e5d12000 	ldrb	r2, [r1]
80014080:	e3520000 	cmp	r2, #0
80014084:	0a000003 	beq	80014098 <uspi_strcat+0x38>
80014088:	e4c32001 	strb	r2, [r3], #1
8001408c:	e5f12001 	ldrb	r2, [r1, #1]!
80014090:	e3520000 	cmp	r2, #0
80014094:	1afffffb 	bne	80014088 <uspi_strcat+0x28>
80014098:	e3a02000 	mov	r2, #0
8001409c:	e5c32000 	strb	r2, [r3]
800140a0:	e12fff1e 	bx	lr

800140a4 <uspi_char2int>:
800140a4:	e350007f 	cmp	r0, #127	; 0x7f
800140a8:	c1e00c00 	mvngt	r0, r0, lsl #24
800140ac:	c1e00c20 	mvngt	r0, r0, lsr #24
800140b0:	e12fff1e 	bx	lr

800140b4 <uspi_le2be16>:
800140b4:	e6bf0fb0 	rev16	r0, r0
800140b8:	e6ff0070 	uxth	r0, r0
800140bc:	e12fff1e 	bx	lr

800140c0 <uspi_le2be32>:
800140c0:	e6bf0f30 	rev	r0, r0
800140c4:	e12fff1e 	bx	lr

800140c8 <DWHCIDeviceCompletionRoutine>:
800140c8:	e3a03000 	mov	r3, #0
800140cc:	e5823048 	str	r3, [r2, #72]	; 0x48
800140d0:	e12fff1e 	bx	lr

800140d4 <DWHCIDevice>:
800140d4:	e92d4070 	push	{r4, r5, r6, lr}
800140d8:	e1a04000 	mov	r4, r0
800140dc:	e3a05000 	mov	r5, #0
800140e0:	e1a01000 	mov	r1, r0
800140e4:	e5805004 	str	r5, [r0, #4]
800140e8:	e280004c 	add	r0, r0, #76	; 0x4c
800140ec:	e500504c 	str	r5, [r0, #-76]	; 0xffffffb4
800140f0:	e5845048 	str	r5, [r4, #72]	; 0x48
800140f4:	eb000dbf 	bl	800177f8 <DWHCIRootPort>
800140f8:	e1a01005 	mov	r1, r5
800140fc:	e2843004 	add	r3, r4, #4
80014100:	e2842044 	add	r2, r4, #68	; 0x44
80014104:	e5a31004 	str	r1, [r3, #4]!
80014108:	e1530002 	cmp	r3, r2
8001410c:	1afffffc 	bne	80014104 <DWHCIDevice+0x30>
80014110:	e8bd8070 	pop	{r4, r5, r6, pc}

80014114 <_DWHCIDevice>:
80014114:	e280004c 	add	r0, r0, #76	; 0x4c
80014118:	ea000db9 	b	80017804 <_DWHCIRootPort>

8001411c <DWHCIDeviceEnableGlobalInterrupts>:
8001411c:	e52de004 	push	{lr}		; (str lr, [sp, #-4]!)
80014120:	e3a01008 	mov	r1, #8
80014124:	e34d1098 	movt	r1, #53400	; 0xd098
80014128:	e24dd014 	sub	sp, sp, #20
8001412c:	e28d0004 	add	r0, sp, #4
80014130:	eb000679 	bl	80015b1c <DWHCIRegister>
80014134:	e28d0004 	add	r0, sp, #4
80014138:	eb000682 	bl	80015b48 <DWHCIRegisterRead>
8001413c:	e3a01001 	mov	r1, #1
80014140:	e28d0004 	add	r0, sp, #4
80014144:	eb000699 	bl	80015bb0 <DWHCIRegisterOr>
80014148:	e28d0004 	add	r0, sp, #4
8001414c:	eb000684 	bl	80015b64 <DWHCIRegisterWrite>
80014150:	e28d0004 	add	r0, sp, #4
80014154:	eb000678 	bl	80015b3c <_DWHCIRegister>
80014158:	e28dd014 	add	sp, sp, #20
8001415c:	e49df004 	pop	{pc}		; (ldr pc, [sp], #4)

80014160 <DWHCIDeviceEnableCommonInterrupts>:
80014160:	e52de004 	push	{lr}		; (str lr, [sp, #-4]!)
80014164:	e3a01014 	mov	r1, #20
80014168:	e34d1098 	movt	r1, #53400	; 0xd098
8001416c:	e24dd014 	sub	sp, sp, #20
80014170:	e28d0004 	add	r0, sp, #4
80014174:	eb000668 	bl	80015b1c <DWHCIRegister>
80014178:	e28d0004 	add	r0, sp, #4
8001417c:	eb00069e 	bl	80015bfc <DWHCIRegisterSetAll>
80014180:	e28d0004 	add	r0, sp, #4
80014184:	eb000676 	bl	80015b64 <DWHCIRegisterWrite>
80014188:	e28d0004 	add	r0, sp, #4
8001418c:	eb00066a 	bl	80015b3c <_DWHCIRegister>
80014190:	e28dd014 	add	sp, sp, #20
80014194:	e49df004 	pop	{pc}		; (ldr pc, [sp], #4)

80014198 <DWHCIDeviceEnableHostInterrupts>:
80014198:	e92d4010 	push	{r4, lr}
8001419c:	e3a01018 	mov	r1, #24
800141a0:	e34d1098 	movt	r1, #53400	; 0xd098
800141a4:	e24dd010 	sub	sp, sp, #16
800141a8:	e3a02000 	mov	r2, #0
800141ac:	e1a04000 	mov	r4, r0
800141b0:	e28d0004 	add	r0, sp, #4
800141b4:	eb00065c 	bl	80015b2c <DWHCIRegister2>
800141b8:	e28d0004 	add	r0, sp, #4
800141bc:	eb000668 	bl	80015b64 <DWHCIRegisterWrite>
800141c0:	e1a00004 	mov	r0, r4
800141c4:	ebffffe5 	bl	80014160 <DWHCIDeviceEnableCommonInterrupts>
800141c8:	e28d0004 	add	r0, sp, #4
800141cc:	eb00065d 	bl	80015b48 <DWHCIRegisterRead>
800141d0:	e3a01402 	mov	r1, #33554432	; 0x2000000
800141d4:	e28d0004 	add	r0, sp, #4
800141d8:	eb000674 	bl	80015bb0 <DWHCIRegisterOr>
800141dc:	e28d0004 	add	r0, sp, #4
800141e0:	eb00065f 	bl	80015b64 <DWHCIRegisterWrite>
800141e4:	e28d0004 	add	r0, sp, #4
800141e8:	eb000653 	bl	80015b3c <_DWHCIRegister>
800141ec:	e28dd010 	add	sp, sp, #16
800141f0:	e8bd8010 	pop	{r4, pc}

800141f4 <DWHCIDeviceEnableChannelInterrupt>:
800141f4:	e92d4010 	push	{r4, lr}
800141f8:	e1a04001 	mov	r4, r1
800141fc:	e24dd010 	sub	sp, sp, #16
80014200:	e3001418 	movw	r1, #1048	; 0x418
80014204:	e34d1098 	movt	r1, #53400	; 0xd098
80014208:	e28d0004 	add	r0, sp, #4
8001420c:	eb000642 	bl	80015b1c <DWHCIRegister>
80014210:	ebfffac4 	bl	80012d28 <uspi_EnterCritical>
80014214:	e28d0004 	add	r0, sp, #4
80014218:	eb00064a 	bl	80015b48 <DWHCIRegisterRead>
8001421c:	e3a01001 	mov	r1, #1
80014220:	e28d0004 	add	r0, sp, #4
80014224:	e1a01411 	lsl	r1, r1, r4
80014228:	eb000660 	bl	80015bb0 <DWHCIRegisterOr>
8001422c:	e28d0004 	add	r0, sp, #4
80014230:	eb00064b 	bl	80015b64 <DWHCIRegisterWrite>
80014234:	ebfffaca 	bl	80012d64 <uspi_LeaveCritical>
80014238:	e28d0004 	add	r0, sp, #4
8001423c:	eb00063e 	bl	80015b3c <_DWHCIRegister>
80014240:	e28dd010 	add	sp, sp, #16
80014244:	e8bd8010 	pop	{r4, pc}

80014248 <DWHCIDeviceDisableChannelInterrupt>:
80014248:	e92d4010 	push	{r4, lr}
8001424c:	e1a04001 	mov	r4, r1
80014250:	e24dd010 	sub	sp, sp, #16
80014254:	e3001418 	movw	r1, #1048	; 0x418
80014258:	e34d1098 	movt	r1, #53400	; 0xd098
8001425c:	e28d0004 	add	r0, sp, #4
80014260:	eb00062d 	bl	80015b1c <DWHCIRegister>
80014264:	ebfffaaf 	bl	80012d28 <uspi_EnterCritical>
80014268:	e28d0004 	add	r0, sp, #4
8001426c:	eb000635 	bl	80015b48 <DWHCIRegisterRead>
80014270:	e3a01001 	mov	r1, #1
80014274:	e28d0004 	add	r0, sp, #4
80014278:	e1e01411 	mvn	r1, r1, lsl r4
8001427c:	eb000647 	bl	80015ba0 <DWHCIRegisterAnd>
80014280:	e28d0004 	add	r0, sp, #4
80014284:	eb000636 	bl	80015b64 <DWHCIRegisterWrite>
80014288:	ebfffab5 	bl	80012d64 <uspi_LeaveCritical>
8001428c:	e28d0004 	add	r0, sp, #4
80014290:	eb000629 	bl	80015b3c <_DWHCIRegister>
80014294:	e28dd010 	add	sp, sp, #16
80014298:	e8bd8010 	pop	{r4, pc}

8001429c <DWHCIDeviceStartChannel>:
8001429c:	e92d4070 	push	{r4, r5, r6, lr}
800142a0:	e1a00001 	mov	r0, r1
800142a4:	e24dd048 	sub	sp, sp, #72	; 0x48
800142a8:	e1a04001 	mov	r4, r1
800142ac:	ebffeb32 	bl	8000ef7c <DWHCITransferStageDataGetChannelNumber>
800142b0:	e1a05000 	mov	r5, r0
800142b4:	e3a01001 	mov	r1, #1
800142b8:	e1a00004 	mov	r0, r4
800142bc:	e1a05285 	lsl	r5, r5, #5
800142c0:	ebffeb27 	bl	8000ef64 <DWHCITransferStageDataSetSubState>
800142c4:	e3001508 	movw	r1, #1288	; 0x508
800142c8:	e1a0000d 	mov	r0, sp
800142cc:	e34d1098 	movt	r1, #53400	; 0xd098
800142d0:	e0851001 	add	r1, r5, r1
800142d4:	eb000610 	bl	80015b1c <DWHCIRegister>
800142d8:	e1a0000d 	mov	r0, sp
800142dc:	eb000646 	bl	80015bfc <DWHCIRegisterSetAll>
800142e0:	e1a0000d 	mov	r0, sp
800142e4:	eb00061e 	bl	80015b64 <DWHCIRegisterWrite>
800142e8:	e3a01e51 	mov	r1, #1296	; 0x510
800142ec:	e3a02000 	mov	r2, #0
800142f0:	e34d1098 	movt	r1, #53400	; 0xd098
800142f4:	e28d000c 	add	r0, sp, #12
800142f8:	e0851001 	add	r1, r5, r1
800142fc:	eb00060a 	bl	80015b2c <DWHCIRegister2>
80014300:	e1a00004 	mov	r0, r4
80014304:	ebffeb4b 	bl	8000f038 <DWHCITransferStageDataGetBytesToTransfer>
80014308:	e7f21050 	ubfx	r1, r0, #0, #19
8001430c:	e28d000c 	add	r0, sp, #12
80014310:	eb000626 	bl	80015bb0 <DWHCIRegisterOr>
80014314:	e1a00004 	mov	r0, r4
80014318:	ebffeb48 	bl	8000f040 <DWHCITransferStageDataGetPacketsToTransfer>
8001431c:	e3a01000 	mov	r1, #0
80014320:	e3411ff8 	movt	r1, #8184	; 0x1ff8
80014324:	e0011980 	and	r1, r1, r0, lsl #19
80014328:	e28d000c 	add	r0, sp, #12
8001432c:	eb00061f 	bl	80015bb0 <DWHCIRegisterOr>
80014330:	e1a00004 	mov	r0, r4
80014334:	ebffeb2d 	bl	8000eff0 <DWHCITransferStageDataGetPID>
80014338:	e1a01e80 	lsl	r1, r0, #29
8001433c:	e28d000c 	add	r0, sp, #12
80014340:	eb00061a 	bl	80015bb0 <DWHCIRegisterOr>
80014344:	e28d000c 	add	r0, sp, #12
80014348:	eb000605 	bl	80015b64 <DWHCIRegisterWrite>
8001434c:	e1a00004 	mov	r0, r4
80014350:	ebffeb36 	bl	8000f030 <DWHCITransferStageDataGetDMAAddress>
80014354:	e3001514 	movw	r1, #1300	; 0x514
80014358:	e3802103 	orr	r2, r0, #-1073741824	; 0xc0000000
8001435c:	e34d1098 	movt	r1, #53400	; 0xd098
80014360:	e28d0018 	add	r0, sp, #24
80014364:	e0851001 	add	r1, r5, r1
80014368:	eb0005ef 	bl	80015b2c <DWHCIRegister2>
8001436c:	e28d0018 	add	r0, sp, #24
80014370:	eb0005fb 	bl	80015b64 <DWHCIRegisterWrite>
80014374:	e1a00004 	mov	r0, r4
80014378:	ebffeb2c 	bl	8000f030 <DWHCITransferStageDataGetDMAAddress>
8001437c:	e1a06000 	mov	r6, r0
80014380:	e1a00004 	mov	r0, r4
80014384:	ebffeb2b 	bl	8000f038 <DWHCITransferStageDataGetBytesToTransfer>
80014388:	e1a01000 	mov	r1, r0
8001438c:	e1a00006 	mov	r0, r6
80014390:	ebfffa82 	bl	80012da0 <uspi_CleanAndInvalidateDataCacheRange>
80014394:	f57ff05f 	dmb	sy
80014398:	e3001504 	movw	r1, #1284	; 0x504
8001439c:	e28d0024 	add	r0, sp, #36	; 0x24
800143a0:	e34d1098 	movt	r1, #53400	; 0xd098
800143a4:	e3a02000 	mov	r2, #0
800143a8:	e0851001 	add	r1, r5, r1
800143ac:	eb0005de 	bl	80015b2c <DWHCIRegister2>
800143b0:	e1a00004 	mov	r0, r4
800143b4:	ebffeb23 	bl	8000f048 <DWHCITransferStageDataIsSplit>
800143b8:	e3500000 	cmp	r0, #0
800143bc:	1a000079 	bne	800145a8 <DWHCIDeviceStartChannel+0x30c>
800143c0:	e28d0024 	add	r0, sp, #36	; 0x24
800143c4:	eb0005e6 	bl	80015b64 <DWHCIRegisterWrite>
800143c8:	e3a01c05 	mov	r1, #1280	; 0x500
800143cc:	e28d0030 	add	r0, sp, #48	; 0x30
800143d0:	e34d1098 	movt	r1, #53400	; 0xd098
800143d4:	e0851001 	add	r1, r5, r1
800143d8:	eb0005cf 	bl	80015b1c <DWHCIRegister>
800143dc:	e28d0030 	add	r0, sp, #48	; 0x30
800143e0:	eb0005d8 	bl	80015b48 <DWHCIRegisterRead>
800143e4:	e3a01b3e 	mov	r1, #63488	; 0xf800
800143e8:	e28d0030 	add	r0, sp, #48	; 0x30
800143ec:	e34f1fff 	movt	r1, #65535	; 0xffff
800143f0:	eb0005ea 	bl	80015ba0 <DWHCIRegisterAnd>
800143f4:	e1a00004 	mov	r0, r4
800143f8:	ebffeaf8 	bl	8000efe0 <DWHCITransferStageDataGetMaxPacketSize>
800143fc:	e7ea1050 	ubfx	r1, r0, #0, #11
80014400:	e28d0030 	add	r0, sp, #48	; 0x30
80014404:	eb0005e9 	bl	80015bb0 <DWHCIRegisterOr>
80014408:	e28d0030 	add	r0, sp, #48	; 0x30
8001440c:	e3e01603 	mvn	r1, #3145728	; 0x300000
80014410:	eb0005e2 	bl	80015ba0 <DWHCIRegisterAnd>
80014414:	e28d0030 	add	r0, sp, #48	; 0x30
80014418:	e3a01601 	mov	r1, #1048576	; 0x100000
8001441c:	eb0005e3 	bl	80015bb0 <DWHCIRegisterOr>
80014420:	e1a00004 	mov	r0, r4
80014424:	ebffeafd 	bl	8000f020 <DWHCITransferStageDataIsDirectionIn>
80014428:	e3500000 	cmp	r0, #0
8001442c:	0a000055 	beq	80014588 <DWHCIDeviceStartChannel+0x2ec>
80014430:	e3a01902 	mov	r1, #32768	; 0x8000
80014434:	e28d0030 	add	r0, sp, #48	; 0x30
80014438:	eb0005dc 	bl	80015bb0 <DWHCIRegisterOr>
8001443c:	e1a00004 	mov	r0, r4
80014440:	ebffeae8 	bl	8000efe8 <DWHCITransferStageDataGetSpeed>
80014444:	e3500000 	cmp	r0, #0
80014448:	1a00004a 	bne	80014578 <DWHCIDeviceStartChannel+0x2dc>
8001444c:	e3a01802 	mov	r1, #131072	; 0x20000
80014450:	e28d0030 	add	r0, sp, #48	; 0x30
80014454:	eb0005d5 	bl	80015bb0 <DWHCIRegisterOr>
80014458:	e3e0157f 	mvn	r1, #532676608	; 0x1fc00000
8001445c:	e28d0030 	add	r0, sp, #48	; 0x30
80014460:	eb0005ce 	bl	80015ba0 <DWHCIRegisterAnd>
80014464:	e1a00004 	mov	r0, r4
80014468:	ebffeacd 	bl	8000efa4 <DWHCITransferStageDataGetDeviceAddress>
8001446c:	e1a01b00 	lsl	r1, r0, #22
80014470:	e28d0030 	add	r0, sp, #48	; 0x30
80014474:	eb0005cd 	bl	80015bb0 <DWHCIRegisterOr>
80014478:	e3e01703 	mvn	r1, #786432	; 0xc0000
8001447c:	e28d0030 	add	r0, sp, #48	; 0x30
80014480:	eb0005c6 	bl	80015ba0 <DWHCIRegisterAnd>
80014484:	e1a00004 	mov	r0, r4
80014488:	ebffeac7 	bl	8000efac <DWHCITransferStageDataGetEndpointType>
8001448c:	e1a01900 	lsl	r1, r0, #18
80014490:	e28d0030 	add	r0, sp, #48	; 0x30
80014494:	eb0005c5 	bl	80015bb0 <DWHCIRegisterOr>
80014498:	e3e01b1e 	mvn	r1, #30720	; 0x7800
8001449c:	e28d0030 	add	r0, sp, #48	; 0x30
800144a0:	eb0005be 	bl	80015ba0 <DWHCIRegisterAnd>
800144a4:	e1a00004 	mov	r0, r4
800144a8:	ebffeaca 	bl	8000efd8 <DWHCITransferStageDataGetEndpointNumber>
800144ac:	e1a01580 	lsl	r1, r0, #11
800144b0:	e28d0030 	add	r0, sp, #48	; 0x30
800144b4:	eb0005bd 	bl	80015bb0 <DWHCIRegisterOr>
800144b8:	e1a00004 	mov	r0, r4
800144bc:	ebffeb05 	bl	8000f0d8 <DWHCITransferStageDataGetFrameScheduler>
800144c0:	e2506000 	subs	r6, r0, #0
800144c4:	0a000009 	beq	800144f0 <DWHCIDeviceStartChannel+0x254>
800144c8:	e5963010 	ldr	r3, [r6, #16]
800144cc:	e12fff33 	blx	r3
800144d0:	e5963014 	ldr	r3, [r6, #20]
800144d4:	e1a00006 	mov	r0, r6
800144d8:	e12fff33 	blx	r3
800144dc:	e3500000 	cmp	r0, #0
800144e0:	1a00002c 	bne	80014598 <DWHCIDeviceStartChannel+0x2fc>
800144e4:	e3e01202 	mvn	r1, #536870912	; 0x20000000
800144e8:	e28d0030 	add	r0, sp, #48	; 0x30
800144ec:	eb0005ab 	bl	80015ba0 <DWHCIRegisterAnd>
800144f0:	e300150c 	movw	r1, #1292	; 0x50c
800144f4:	e28d003c 	add	r0, sp, #60	; 0x3c
800144f8:	e34d1098 	movt	r1, #53400	; 0xd098
800144fc:	e0851001 	add	r1, r5, r1
80014500:	eb000585 	bl	80015b1c <DWHCIRegister>
80014504:	e1a00004 	mov	r0, r4
80014508:	ebffead8 	bl	8000f070 <DWHCITransferStageDataGetStatusMask>
8001450c:	e1a01000 	mov	r1, r0
80014510:	e28d003c 	add	r0, sp, #60	; 0x3c
80014514:	eb000598 	bl	80015b7c <DWHCIRegisterSet>
80014518:	e28d003c 	add	r0, sp, #60	; 0x3c
8001451c:	eb000590 	bl	80015b64 <DWHCIRegisterWrite>
80014520:	e28d0030 	add	r0, sp, #48	; 0x30
80014524:	e3a01102 	mov	r1, #-2147483648	; 0x80000000
80014528:	eb0005a0 	bl	80015bb0 <DWHCIRegisterOr>
8001452c:	e3e01101 	mvn	r1, #1073741824	; 0x40000000
80014530:	e28d0030 	add	r0, sp, #48	; 0x30
80014534:	eb000599 	bl	80015ba0 <DWHCIRegisterAnd>
80014538:	e28d0030 	add	r0, sp, #48	; 0x30
8001453c:	eb000588 	bl	80015b64 <DWHCIRegisterWrite>
80014540:	e28d003c 	add	r0, sp, #60	; 0x3c
80014544:	eb00057c 	bl	80015b3c <_DWHCIRegister>
80014548:	e28d0030 	add	r0, sp, #48	; 0x30
8001454c:	eb00057a 	bl	80015b3c <_DWHCIRegister>
80014550:	e28d0024 	add	r0, sp, #36	; 0x24
80014554:	eb000578 	bl	80015b3c <_DWHCIRegister>
80014558:	e28d0018 	add	r0, sp, #24
8001455c:	eb000576 	bl	80015b3c <_DWHCIRegister>
80014560:	e28d000c 	add	r0, sp, #12
80014564:	eb000574 	bl	80015b3c <_DWHCIRegister>
80014568:	e1a0000d 	mov	r0, sp
8001456c:	eb000572 	bl	80015b3c <_DWHCIRegister>
80014570:	e28dd048 	add	sp, sp, #72	; 0x48
80014574:	e8bd8070 	pop	{r4, r5, r6, pc}
80014578:	e3e01802 	mvn	r1, #131072	; 0x20000
8001457c:	e28d0030 	add	r0, sp, #48	; 0x30
80014580:	eb000586 	bl	80015ba0 <DWHCIRegisterAnd>
80014584:	eaffffb3 	b	80014458 <DWHCIDeviceStartChannel+0x1bc>
80014588:	e3e01902 	mvn	r1, #32768	; 0x8000
8001458c:	e28d0030 	add	r0, sp, #48	; 0x30
80014590:	eb000582 	bl	80015ba0 <DWHCIRegisterAnd>
80014594:	eaffffa8 	b	8001443c <DWHCIDeviceStartChannel+0x1a0>
80014598:	e3a01202 	mov	r1, #536870912	; 0x20000000
8001459c:	e28d0030 	add	r0, sp, #48	; 0x30
800145a0:	eb000582 	bl	80015bb0 <DWHCIRegisterOr>
800145a4:	eaffffd1 	b	800144f0 <DWHCIDeviceStartChannel+0x254>
800145a8:	e1a00004 	mov	r0, r4
800145ac:	ebffeaab 	bl	8000f060 <DWHCITransferStageDataGetHubPortAddress>
800145b0:	e1a01000 	mov	r1, r0
800145b4:	e28d0024 	add	r0, sp, #36	; 0x24
800145b8:	eb00057c 	bl	80015bb0 <DWHCIRegisterOr>
800145bc:	e1a00004 	mov	r0, r4
800145c0:	ebffeaa4 	bl	8000f058 <DWHCITransferStageDataGetHubAddress>
800145c4:	e1a01380 	lsl	r1, r0, #7
800145c8:	e28d0024 	add	r0, sp, #36	; 0x24
800145cc:	eb000577 	bl	80015bb0 <DWHCIRegisterOr>
800145d0:	e1a00004 	mov	r0, r4
800145d4:	ebffeaa3 	bl	8000f068 <DWHCITransferStageDataGetSplitPosition>
800145d8:	e1a01700 	lsl	r1, r0, #14
800145dc:	e28d0024 	add	r0, sp, #36	; 0x24
800145e0:	eb000572 	bl	80015bb0 <DWHCIRegisterOr>
800145e4:	e1a00004 	mov	r0, r4
800145e8:	ebffea98 	bl	8000f050 <DWHCITransferStageDataIsSplitComplete>
800145ec:	e3500000 	cmp	r0, #0
800145f0:	1a000003 	bne	80014604 <DWHCIDeviceStartChannel+0x368>
800145f4:	e3a01102 	mov	r1, #-2147483648	; 0x80000000
800145f8:	e28d0024 	add	r0, sp, #36	; 0x24
800145fc:	eb00056b 	bl	80015bb0 <DWHCIRegisterOr>
80014600:	eaffff6e 	b	800143c0 <DWHCIDeviceStartChannel+0x124>
80014604:	e3a01801 	mov	r1, #65536	; 0x10000
80014608:	e28d0024 	add	r0, sp, #36	; 0x24
8001460c:	eb000567 	bl	80015bb0 <DWHCIRegisterOr>
80014610:	eafffff7 	b	800145f4 <DWHCIDeviceStartChannel+0x358>

80014614 <DWHCIDeviceStartTransaction>:
80014614:	e92d4070 	push	{r4, r5, r6, lr}
80014618:	e1a06000 	mov	r6, r0
8001461c:	e24dd018 	sub	sp, sp, #24
80014620:	e1a00001 	mov	r0, r1
80014624:	e30c4028 	movw	r4, #49192	; 0xc028
80014628:	e1a05001 	mov	r5, r1
8001462c:	e3404684 	movt	r4, #1668	; 0x684
80014630:	ebffea51 	bl	8000ef7c <DWHCITransferStageDataGetChannelNumber>
80014634:	e0804004 	add	r4, r0, r4
80014638:	e1a0000d 	mov	r0, sp
8001463c:	e1a04284 	lsl	r4, r4, #5
80014640:	e1a01004 	mov	r1, r4
80014644:	eb000534 	bl	80015b1c <DWHCIRegister>
80014648:	e1a0000d 	mov	r0, sp
8001464c:	eb00053d 	bl	80015b48 <DWHCIRegisterRead>
80014650:	e1a0000d 	mov	r0, sp
80014654:	e3a01102 	mov	r1, #-2147483648	; 0x80000000
80014658:	eb00054b 	bl	80015b8c <DWHCIRegisterIsSet>
8001465c:	e3500000 	cmp	r0, #0
80014660:	1a000006 	bne	80014680 <DWHCIDeviceStartTransaction+0x6c>
80014664:	e1a01005 	mov	r1, r5
80014668:	e1a00006 	mov	r0, r6
8001466c:	ebffff0a 	bl	8001429c <DWHCIDeviceStartChannel>
80014670:	e1a0000d 	mov	r0, sp
80014674:	eb000530 	bl	80015b3c <_DWHCIRegister>
80014678:	e28dd018 	add	sp, sp, #24
8001467c:	e8bd8070 	pop	{r4, r5, r6, pc}
80014680:	e1a00005 	mov	r0, r5
80014684:	e3a01000 	mov	r1, #0
80014688:	ebffea35 	bl	8000ef64 <DWHCITransferStageDataSetSubState>
8001468c:	e1a0000d 	mov	r0, sp
80014690:	e3e01102 	mvn	r1, #-2147483648	; 0x80000000
80014694:	eb000541 	bl	80015ba0 <DWHCIRegisterAnd>
80014698:	e3a01101 	mov	r1, #1073741824	; 0x40000000
8001469c:	e1a0000d 	mov	r0, sp
800146a0:	eb000542 	bl	80015bb0 <DWHCIRegisterOr>
800146a4:	e1a0000d 	mov	r0, sp
800146a8:	eb00052d 	bl	80015b64 <DWHCIRegisterWrite>
800146ac:	e284100c 	add	r1, r4, #12
800146b0:	e28d000c 	add	r0, sp, #12
800146b4:	eb000518 	bl	80015b1c <DWHCIRegister>
800146b8:	e3a01002 	mov	r1, #2
800146bc:	e28d000c 	add	r0, sp, #12
800146c0:	eb00052d 	bl	80015b7c <DWHCIRegisterSet>
800146c4:	e28d000c 	add	r0, sp, #12
800146c8:	eb000525 	bl	80015b64 <DWHCIRegisterWrite>
800146cc:	e28d000c 	add	r0, sp, #12
800146d0:	eb000519 	bl	80015b3c <_DWHCIRegister>
800146d4:	e1a0000d 	mov	r0, sp
800146d8:	eb000517 	bl	80015b3c <_DWHCIRegister>
800146dc:	e28dd018 	add	sp, sp, #24
800146e0:	e8bd8070 	pop	{r4, r5, r6, pc}

800146e4 <DWHCIDeviceTimerHandler>:
800146e4:	e92d4070 	push	{r4, r5, r6, lr}
800146e8:	e1a04001 	mov	r4, r1
800146ec:	e1a05002 	mov	r5, r2
800146f0:	f57ff05f 	dmb	sy
800146f4:	e1a00001 	mov	r0, r1
800146f8:	ebffea52 	bl	8000f048 <DWHCITransferStageDataIsSplit>
800146fc:	e2501000 	subs	r1, r0, #0
80014700:	1a000006 	bne	80014720 <DWHCIDeviceTimerHandler+0x3c>
80014704:	e1a00004 	mov	r0, r4
80014708:	ebffea11 	bl	8000ef54 <DWHCITransferStageDataSetState>
8001470c:	e1a01004 	mov	r1, r4
80014710:	e1a00005 	mov	r0, r5
80014714:	ebffffbe 	bl	80014614 <DWHCIDeviceStartTransaction>
80014718:	f57ff05f 	dmb	sy
8001471c:	e8bd8070 	pop	{r4, r5, r6, pc}
80014720:	e1a00004 	mov	r0, r4
80014724:	e3a01001 	mov	r1, #1
80014728:	ebffea09 	bl	8000ef54 <DWHCITransferStageDataSetState>
8001472c:	e3a01000 	mov	r1, #0
80014730:	e1a00004 	mov	r0, r4
80014734:	ebffea04 	bl	8000ef4c <DWHCITransferStageDataSetSplitComplete>
80014738:	e1a00004 	mov	r0, r4
8001473c:	ebffea65 	bl	8000f0d8 <DWHCITransferStageDataGetFrameScheduler>
80014740:	e5903004 	ldr	r3, [r0, #4]
80014744:	e12fff33 	blx	r3
80014748:	eaffffef 	b	8001470c <DWHCIDeviceTimerHandler+0x28>

8001474c <DWHCIDeviceChannelInterruptHandler>:
8001474c:	e92d4ff0 	push	{r4, r5, r6, r7, r8, r9, sl, fp, lr}
80014750:	e1a05000 	mov	r5, r0
80014754:	e0807101 	add	r7, r0, r1, lsl #2
80014758:	e24dd01c 	sub	sp, sp, #28
8001475c:	e1a06001 	mov	r6, r1
80014760:	e5974008 	ldr	r4, [r7, #8]
80014764:	e1a00004 	mov	r0, r4
80014768:	ebffea5a 	bl	8000f0d8 <DWHCITransferStageDataGetFrameScheduler>
8001476c:	e1a09000 	mov	r9, r0
80014770:	e1a00004 	mov	r0, r4
80014774:	ebffea55 	bl	8000f0d0 <DWHCITransferStageDataGetURB>
80014778:	e1a08000 	mov	r8, r0
8001477c:	e1a00004 	mov	r0, r4
80014780:	ebffe9f9 	bl	8000ef6c <DWHCITransferStageDataGetSubState>
80014784:	e3500000 	cmp	r0, #0
80014788:	0a00005c 	beq	80014900 <DWHCIDeviceChannelInterruptHandler+0x1b4>
8001478c:	e3500001 	cmp	r0, #1
80014790:	1a00002a 	bne	80014840 <DWHCIDeviceChannelInterruptHandler+0xf4>
80014794:	e1a00004 	mov	r0, r4
80014798:	ebffea24 	bl	8000f030 <DWHCITransferStageDataGetDMAAddress>
8001479c:	e1a0a000 	mov	sl, r0
800147a0:	e1a00004 	mov	r0, r4
800147a4:	ebffea23 	bl	8000f038 <DWHCITransferStageDataGetBytesToTransfer>
800147a8:	e1a01000 	mov	r1, r0
800147ac:	e1a0000a 	mov	r0, sl
800147b0:	ebfff97a 	bl	80012da0 <uspi_CleanAndInvalidateDataCacheRange>
800147b4:	f57ff05f 	dmb	sy
800147b8:	e3a01e51 	mov	r1, #1296	; 0x510
800147bc:	e1a0000d 	mov	r0, sp
800147c0:	e1a0a286 	lsl	sl, r6, #5
800147c4:	e34d1098 	movt	r1, #53400	; 0xd098
800147c8:	e08a1001 	add	r1, sl, r1
800147cc:	eb0004d2 	bl	80015b1c <DWHCIRegister>
800147d0:	e1a0000d 	mov	r0, sp
800147d4:	eb0004db 	bl	80015b48 <DWHCIRegisterRead>
800147d8:	e3001508 	movw	r1, #1288	; 0x508
800147dc:	e28d000c 	add	r0, sp, #12
800147e0:	e34d1098 	movt	r1, #53400	; 0xd098
800147e4:	e08a1001 	add	r1, sl, r1
800147e8:	eb0004cb 	bl	80015b1c <DWHCIRegister>
800147ec:	e28d000c 	add	r0, sp, #12
800147f0:	eb0004d4 	bl	80015b48 <DWHCIRegisterRead>
800147f4:	e3500002 	cmp	r0, #2
800147f8:	0a00003b 	beq	800148ec <DWHCIDeviceChannelInterruptHandler+0x1a0>
800147fc:	e28d000c 	add	r0, sp, #12
80014800:	eb0004d0 	bl	80015b48 <DWHCIRegisterRead>
80014804:	e1a0b000 	mov	fp, r0
80014808:	e1a0000d 	mov	r0, sp
8001480c:	eb0004d8 	bl	80015b74 <DWHCIRegisterGet>
80014810:	e1a0a000 	mov	sl, r0
80014814:	e1a0000d 	mov	r0, sp
80014818:	eb0004d5 	bl	80015b74 <DWHCIRegisterGet>
8001481c:	e7f23050 	ubfx	r3, r0, #0, #19
80014820:	e1a0100b 	mov	r1, fp
80014824:	e7e929da 	ubfx	r2, sl, #19, #10
80014828:	e1a00004 	mov	r0, r4
8001482c:	ebffe98b 	bl	8000ee60 <DWHCITransferStageDataTransactionComplete>
80014830:	e28d000c 	add	r0, sp, #12
80014834:	eb0004c0 	bl	80015b3c <_DWHCIRegister>
80014838:	e1a0000d 	mov	r0, sp
8001483c:	eb0004be 	bl	80015b3c <_DWHCIRegister>
80014840:	e1a00004 	mov	r0, r4
80014844:	ebffe9c4 	bl	8000ef5c <DWHCITransferStageDataGetState>
80014848:	e3500001 	cmp	r0, #1
8001484c:	e1a0a000 	mov	sl, r0
80014850:	0a00002f 	beq	80014914 <DWHCIDeviceChannelInterruptHandler+0x1c8>
80014854:	3a00003e 	bcc	80014954 <DWHCIDeviceChannelInterruptHandler+0x208>
80014858:	e3500002 	cmp	r0, #2
8001485c:	1a000025 	bne	800148f8 <DWHCIDeviceChannelInterruptHandler+0x1ac>
80014860:	e1a00004 	mov	r0, r4
80014864:	ebffea0e 	bl	8000f0a4 <DWHCITransferStageDataGetTransactionStatus>
80014868:	e300378c 	movw	r3, #1932	; 0x78c
8001486c:	e1a01000 	mov	r1, r0
80014870:	e1100003 	tst	r0, r3
80014874:	1a000082 	bne	80014a84 <DWHCIDeviceChannelInterruptHandler+0x338>
80014878:	e599300c 	ldr	r3, [r9, #12]
8001487c:	e1a00009 	mov	r0, r9
80014880:	e12fff33 	blx	r3
80014884:	e5993008 	ldr	r3, [r9, #8]
80014888:	e1a00009 	mov	r0, r9
8001488c:	e12fff33 	blx	r3
80014890:	e3500000 	cmp	r0, #0
80014894:	1a000014 	bne	800148ec <DWHCIDeviceChannelInterruptHandler+0x1a0>
80014898:	e1a00004 	mov	r0, r4
8001489c:	ebffea02 	bl	8000f0ac <DWHCITransferStageDataIsStageComplete>
800148a0:	e3500000 	cmp	r0, #0
800148a4:	1a000050 	bne	800149ec <DWHCIDeviceChannelInterruptHandler+0x2a0>
800148a8:	e1a00004 	mov	r0, r4
800148ac:	ebffe9b0 	bl	8000ef74 <DWHCITransferStageDataBeginSplitCycle>
800148b0:	e250a000 	subs	sl, r0, #0
800148b4:	0a00007b 	beq	80014aa8 <DWHCIDeviceChannelInterruptHandler+0x35c>
800148b8:	e1a00004 	mov	r0, r4
800148bc:	ebffe9b0 	bl	8000ef84 <DWHCITransferStageDataIsPeriodic>
800148c0:	e2506000 	subs	r6, r0, #0
800148c4:	1a000083 	bne	80014ad8 <DWHCIDeviceChannelInterruptHandler+0x38c>
800148c8:	e3a01001 	mov	r1, #1
800148cc:	e1a00004 	mov	r0, r4
800148d0:	ebffe99f 	bl	8000ef54 <DWHCITransferStageDataSetState>
800148d4:	e1a00004 	mov	r0, r4
800148d8:	e1a01006 	mov	r1, r6
800148dc:	ebffe99a 	bl	8000ef4c <DWHCITransferStageDataSetSplitComplete>
800148e0:	e5993004 	ldr	r3, [r9, #4]
800148e4:	e1a00009 	mov	r0, r9
800148e8:	e12fff33 	blx	r3
800148ec:	e1a01004 	mov	r1, r4
800148f0:	e1a00005 	mov	r0, r5
800148f4:	ebffff46 	bl	80014614 <DWHCIDeviceStartTransaction>
800148f8:	e28dd01c 	add	sp, sp, #28
800148fc:	e8bd8ff0 	pop	{r4, r5, r6, r7, r8, r9, sl, fp, pc}
80014900:	e1a01004 	mov	r1, r4
80014904:	e1a00005 	mov	r0, r5
80014908:	ebfffe63 	bl	8001429c <DWHCIDeviceStartChannel>
8001490c:	e28dd01c 	add	sp, sp, #28
80014910:	e8bd8ff0 	pop	{r4, r5, r6, r7, r8, r9, sl, fp, pc}
80014914:	e1a00004 	mov	r0, r4
80014918:	ebffe9e1 	bl	8000f0a4 <DWHCITransferStageDataGetTransactionStatus>
8001491c:	e30037dc 	movw	r3, #2012	; 0x7dc
80014920:	e1a01000 	mov	r1, r0
80014924:	e1100003 	tst	r0, r3
80014928:	1a00003a 	bne	80014a18 <DWHCIDeviceChannelInterruptHandler+0x2cc>
8001492c:	e599300c 	ldr	r3, [r9, #12]
80014930:	e1a00009 	mov	r0, r9
80014934:	e12fff33 	blx	r3
80014938:	e1a00004 	mov	r0, r4
8001493c:	e3a01002 	mov	r1, #2
80014940:	ebffe983 	bl	8000ef54 <DWHCITransferStageDataSetState>
80014944:	e1a0100a 	mov	r1, sl
80014948:	e1a00004 	mov	r0, r4
8001494c:	ebffe97e 	bl	8000ef4c <DWHCITransferStageDataSetSplitComplete>
80014950:	eaffffcb 	b	80014884 <DWHCIDeviceChannelInterruptHandler+0x138>
80014954:	e1a00004 	mov	r0, r4
80014958:	ebffe9d1 	bl	8000f0a4 <DWHCITransferStageDataGetTransactionStatus>
8001495c:	e300278c 	movw	r2, #1932	; 0x78c
80014960:	e1a03000 	mov	r3, r0
80014964:	e1100002 	tst	r0, r2
80014968:	1a00006c 	bne	80014b20 <DWHCIDeviceChannelInterruptHandler+0x3d4>
8001496c:	e3100050 	tst	r0, #80	; 0x50
80014970:	0a000003 	beq	80014984 <DWHCIDeviceChannelInterruptHandler+0x238>
80014974:	e1a00004 	mov	r0, r4
80014978:	ebffe981 	bl	8000ef84 <DWHCITransferStageDataIsPeriodic>
8001497c:	e3500000 	cmp	r0, #0
80014980:	1a000054 	bne	80014ad8 <DWHCIDeviceChannelInterruptHandler+0x38c>
80014984:	e1a00004 	mov	r0, r4
80014988:	ebffe9a6 	bl	8000f028 <DWHCITransferStageDataIsStatusStage>
8001498c:	e3500000 	cmp	r0, #0
80014990:	0a00006c 	beq	80014b48 <DWHCIDeviceChannelInterruptHandler+0x3fc>
80014994:	e3a01001 	mov	r1, #1
80014998:	e1a00008 	mov	r0, r8
8001499c:	ebfff8c8 	bl	80012cc4 <USBRequestSetStatus>
800149a0:	e1a01006 	mov	r1, r6
800149a4:	e1a00005 	mov	r0, r5
800149a8:	ebfffe26 	bl	80014248 <DWHCIDeviceDisableChannelInterrupt>
800149ac:	e1a00004 	mov	r0, r4
800149b0:	ebffe913 	bl	8000ee04 <_DWHCITransferStageData>
800149b4:	e1a00004 	mov	r0, r4
800149b8:	ebfff62d 	bl	80012274 <free>
800149bc:	e3a03000 	mov	r3, #0
800149c0:	e5873008 	str	r3, [r7, #8]
800149c4:	ebfff8d7 	bl	80012d28 <uspi_EnterCritical>
800149c8:	e5953004 	ldr	r3, [r5, #4]
800149cc:	e3a02001 	mov	r2, #1
800149d0:	e1c36612 	bic	r6, r3, r2, lsl r6
800149d4:	e5856004 	str	r6, [r5, #4]
800149d8:	ebfff8e1 	bl	80012d64 <uspi_LeaveCritical>
800149dc:	e1a00008 	mov	r0, r8
800149e0:	ebfff8c9 	bl	80012d0c <USBRequestCallCompletionRoutine>
800149e4:	e28dd01c 	add	sp, sp, #28
800149e8:	e8bd8ff0 	pop	{r4, r5, r6, r7, r8, r9, sl, fp, pc}
800149ec:	e1a01006 	mov	r1, r6
800149f0:	e1a00005 	mov	r0, r5
800149f4:	ebfffe13 	bl	80014248 <DWHCIDeviceDisableChannelInterrupt>
800149f8:	e1a00004 	mov	r0, r4
800149fc:	ebffe989 	bl	8000f028 <DWHCITransferStageDataIsStatusStage>
80014a00:	e3500000 	cmp	r0, #0
80014a04:	0a000055 	beq	80014b60 <DWHCIDeviceChannelInterruptHandler+0x414>
80014a08:	e3a01001 	mov	r1, #1
80014a0c:	e1a00008 	mov	r0, r8
80014a10:	ebfff8ab 	bl	80012cc4 <USBRequestSetStatus>
80014a14:	eaffffe4 	b	800149ac <DWHCIDeviceChannelInterruptHandler+0x260>
80014a18:	e3092144 	movw	r2, #37188	; 0x9144
80014a1c:	e3090130 	movw	r0, #37168	; 0x9130
80014a20:	e3482001 	movt	r2, #32769	; 0x8001
80014a24:	e1a03001 	mov	r3, r1
80014a28:	e3480001 	movt	r0, #32769	; 0x8001
80014a2c:	e1a0100a 	mov	r1, sl
80014a30:	ebfff662 	bl	800123c0 <LogWrite>
80014a34:	e1a00008 	mov	r0, r8
80014a38:	e3a01000 	mov	r1, #0
80014a3c:	ebfff8a0 	bl	80012cc4 <USBRequestSetStatus>
80014a40:	e1a01006 	mov	r1, r6
80014a44:	e1a00005 	mov	r0, r5
80014a48:	ebfffdfe 	bl	80014248 <DWHCIDeviceDisableChannelInterrupt>
80014a4c:	e1a00004 	mov	r0, r4
80014a50:	ebffe8eb 	bl	8000ee04 <_DWHCITransferStageData>
80014a54:	e1a00004 	mov	r0, r4
80014a58:	ebfff605 	bl	80012274 <free>
80014a5c:	e3a03000 	mov	r3, #0
80014a60:	e5873008 	str	r3, [r7, #8]
80014a64:	ebfff8af 	bl	80012d28 <uspi_EnterCritical>
80014a68:	e5953004 	ldr	r3, [r5, #4]
80014a6c:	e1c3661a 	bic	r6, r3, sl, lsl r6
80014a70:	e5856004 	str	r6, [r5, #4]
80014a74:	ebfff8ba 	bl	80012d64 <uspi_LeaveCritical>
80014a78:	e1a00008 	mov	r0, r8
80014a7c:	ebfff8a2 	bl	80012d0c <USBRequestCallCompletionRoutine>
80014a80:	eaffff9c 	b	800148f8 <DWHCIDeviceChannelInterruptHandler+0x1ac>
80014a84:	e3092144 	movw	r2, #37188	; 0x9144
80014a88:	e3090130 	movw	r0, #37168	; 0x9130
80014a8c:	e3482001 	movt	r2, #32769	; 0x8001
80014a90:	e1a03001 	mov	r3, r1
80014a94:	e3480001 	movt	r0, #32769	; 0x8001
80014a98:	e3a01001 	mov	r1, #1
80014a9c:	ebfff647 	bl	800123c0 <LogWrite>
80014aa0:	e3a01000 	mov	r1, #0
80014aa4:	eaffffbb 	b	80014998 <DWHCIDeviceChannelInterruptHandler+0x24c>
80014aa8:	e1a0100a 	mov	r1, sl
80014aac:	e1a00008 	mov	r0, r8
80014ab0:	ebfff883 	bl	80012cc4 <USBRequestSetStatus>
80014ab4:	e1a01006 	mov	r1, r6
80014ab8:	e1a00005 	mov	r0, r5
80014abc:	ebfffde1 	bl	80014248 <DWHCIDeviceDisableChannelInterrupt>
80014ac0:	e1a00004 	mov	r0, r4
80014ac4:	ebffe8ce 	bl	8000ee04 <_DWHCITransferStageData>
80014ac8:	e1a00004 	mov	r0, r4
80014acc:	ebfff5e8 	bl	80012274 <free>
80014ad0:	e587a008 	str	sl, [r7, #8]
80014ad4:	eaffffba 	b	800149c4 <DWHCIDeviceChannelInterruptHandler+0x278>
80014ad8:	e3a01003 	mov	r1, #3
80014adc:	e1a00004 	mov	r0, r4
80014ae0:	ebffe91b 	bl	8000ef54 <DWHCITransferStageDataSetState>
80014ae4:	e1a00008 	mov	r0, r8
80014ae8:	ebfff873 	bl	80012cbc <USBRequestGetEndpoint>
80014aec:	ebffd66d 	bl	8000a4a8 <USBEndpointGetInterval>
80014af0:	e3a03064 	mov	r3, #100	; 0x64
80014af4:	e3042dd3 	movw	r2, #19923	; 0x4dd3
80014af8:	e0000093 	mul	r0, r3, r0
80014afc:	e3412062 	movt	r2, #4194	; 0x1062
80014b00:	e30416e4 	movw	r1, #18148	; 0x46e4
80014b04:	e0803092 	umull	r3, r0, r2, r0
80014b08:	e3481001 	movt	r1, #32769	; 0x8001
80014b0c:	e1a03005 	mov	r3, r5
80014b10:	e1a00320 	lsr	r0, r0, #6
80014b14:	e1a02004 	mov	r2, r4
80014b18:	ebfff5ef 	bl	800122dc <StartKernelTimer>
80014b1c:	eaffff75 	b	800148f8 <DWHCIDeviceChannelInterruptHandler+0x1ac>
80014b20:	e3092144 	movw	r2, #37188	; 0x9144
80014b24:	e3090130 	movw	r0, #37168	; 0x9130
80014b28:	e3482001 	movt	r2, #32769	; 0x8001
80014b2c:	e3a01001 	mov	r1, #1
80014b30:	e3480001 	movt	r0, #32769	; 0x8001
80014b34:	ebfff621 	bl	800123c0 <LogWrite>
80014b38:	e3a01000 	mov	r1, #0
80014b3c:	e1a00008 	mov	r0, r8
80014b40:	ebfff85f 	bl	80012cc4 <USBRequestSetStatus>
80014b44:	eaffff95 	b	800149a0 <DWHCIDeviceChannelInterruptHandler+0x254>
80014b48:	e1a00004 	mov	r0, r4
80014b4c:	ebffe95a 	bl	8000f0bc <DWHCITransferStageDataGetResultLen>
80014b50:	e1a01000 	mov	r1, r0
80014b54:	e1a00008 	mov	r0, r8
80014b58:	ebfff85b 	bl	80012ccc <USBRequestSetResultLen>
80014b5c:	eaffff8c 	b	80014994 <DWHCIDeviceChannelInterruptHandler+0x248>
80014b60:	e1a00004 	mov	r0, r4
80014b64:	ebffe954 	bl	8000f0bc <DWHCITransferStageDataGetResultLen>
80014b68:	e1a01000 	mov	r1, r0
80014b6c:	e1a00008 	mov	r0, r8
80014b70:	ebfff855 	bl	80012ccc <USBRequestSetResultLen>
80014b74:	eaffffa3 	b	80014a08 <DWHCIDeviceChannelInterruptHandler+0x2bc>

80014b78 <DWHCIDeviceInterruptHandler>:
80014b78:	e92d40f0 	push	{r4, r5, r6, r7, lr}
80014b7c:	e1a07000 	mov	r7, r0
80014b80:	e24dd02c 	sub	sp, sp, #44	; 0x2c
80014b84:	f57ff05f 	dmb	sy
80014b88:	e3a01014 	mov	r1, #20
80014b8c:	e28d0004 	add	r0, sp, #4
80014b90:	e34d1098 	movt	r1, #53400	; 0xd098
80014b94:	eb0003e0 	bl	80015b1c <DWHCIRegister>
80014b98:	e28d0004 	add	r0, sp, #4
80014b9c:	eb0003e9 	bl	80015b48 <DWHCIRegisterRead>
80014ba0:	e28d0004 	add	r0, sp, #4
80014ba4:	eb0003f2 	bl	80015b74 <DWHCIRegisterGet>
80014ba8:	e3100402 	tst	r0, #33554432	; 0x2000000
80014bac:	1a000006 	bne	80014bcc <DWHCIDeviceInterruptHandler+0x54>
80014bb0:	e28d0004 	add	r0, sp, #4
80014bb4:	eb0003ea 	bl	80015b64 <DWHCIRegisterWrite>
80014bb8:	f57ff05f 	dmb	sy
80014bbc:	e28d0004 	add	r0, sp, #4
80014bc0:	eb0003dd 	bl	80015b3c <_DWHCIRegister>
80014bc4:	e28dd02c 	add	sp, sp, #44	; 0x2c
80014bc8:	e8bd80f0 	pop	{r4, r5, r6, r7, pc}
80014bcc:	e3001414 	movw	r1, #1044	; 0x414
80014bd0:	e28d0010 	add	r0, sp, #16
80014bd4:	e34d1098 	movt	r1, #53400	; 0xd098
80014bd8:	eb0003cf 	bl	80015b1c <DWHCIRegister>
80014bdc:	e28d0010 	add	r0, sp, #16
80014be0:	eb0003d8 	bl	80015b48 <DWHCIRegisterRead>
80014be4:	e28d0010 	add	r0, sp, #16
80014be8:	eb0003dd 	bl	80015b64 <DWHCIRegisterWrite>
80014bec:	e5973000 	ldr	r3, [r7]
80014bf0:	e3530000 	cmp	r3, #0
80014bf4:	1300650c 	movwne	r6, #1292	; 0x50c
80014bf8:	13a04000 	movne	r4, #0
80014bfc:	134d6098 	movtne	r6, #53400	; 0xd098
80014c00:	13a05001 	movne	r5, #1
80014c04:	1a000005 	bne	80014c20 <DWHCIDeviceInterruptHandler+0xa8>
80014c08:	ea000015 	b	80014c64 <DWHCIDeviceInterruptHandler+0xec>
80014c0c:	e5973000 	ldr	r3, [r7]
80014c10:	e2844001 	add	r4, r4, #1
80014c14:	e2866020 	add	r6, r6, #32
80014c18:	e1530004 	cmp	r3, r4
80014c1c:	9a000010 	bls	80014c64 <DWHCIDeviceInterruptHandler+0xec>
80014c20:	e28d0010 	add	r0, sp, #16
80014c24:	eb0003d2 	bl	80015b74 <DWHCIRegisterGet>
80014c28:	e1100005 	tst	r0, r5
80014c2c:	e1a05085 	lsl	r5, r5, #1
80014c30:	0afffff5 	beq	80014c0c <DWHCIDeviceInterruptHandler+0x94>
80014c34:	e3a02000 	mov	r2, #0
80014c38:	e1a01006 	mov	r1, r6
80014c3c:	e28d001c 	add	r0, sp, #28
80014c40:	eb0003b9 	bl	80015b2c <DWHCIRegister2>
80014c44:	e28d001c 	add	r0, sp, #28
80014c48:	eb0003c5 	bl	80015b64 <DWHCIRegisterWrite>
80014c4c:	e1a00007 	mov	r0, r7
80014c50:	e1a01004 	mov	r1, r4
80014c54:	ebfffebc 	bl	8001474c <DWHCIDeviceChannelInterruptHandler>
80014c58:	e28d001c 	add	r0, sp, #28
80014c5c:	eb0003b6 	bl	80015b3c <_DWHCIRegister>
80014c60:	eaffffe9 	b	80014c0c <DWHCIDeviceInterruptHandler+0x94>
80014c64:	e28d0010 	add	r0, sp, #16
80014c68:	eb0003b3 	bl	80015b3c <_DWHCIRegister>
80014c6c:	eaffffcf 	b	80014bb0 <DWHCIDeviceInterruptHandler+0x38>

80014c70 <DWHCIDeviceAllocateChannel>:
80014c70:	e92d4070 	push	{r4, r5, r6, lr}
80014c74:	e1a05000 	mov	r5, r0
80014c78:	ebfff82a 	bl	80012d28 <uspi_EnterCritical>
80014c7c:	e5951000 	ldr	r1, [r5]
80014c80:	e3510000 	cmp	r1, #0
80014c84:	0a00000b 	beq	80014cb8 <DWHCIDeviceAllocateChannel+0x48>
80014c88:	e5953004 	ldr	r3, [r5, #4]
80014c8c:	e2133001 	ands	r3, r3, #1
80014c90:	0a00000c 	beq	80014cc8 <DWHCIDeviceAllocateChannel+0x58>
80014c94:	e3a04000 	mov	r4, #0
80014c98:	ea000002 	b	80014ca8 <DWHCIDeviceAllocateChannel+0x38>
80014c9c:	e5952004 	ldr	r2, [r5, #4]
80014ca0:	e1120003 	tst	r2, r3
80014ca4:	0a000009 	beq	80014cd0 <DWHCIDeviceAllocateChannel+0x60>
80014ca8:	e1a03083 	lsl	r3, r3, #1
80014cac:	e2844001 	add	r4, r4, #1
80014cb0:	e1540001 	cmp	r4, r1
80014cb4:	1afffff8 	bne	80014c9c <DWHCIDeviceAllocateChannel+0x2c>
80014cb8:	e3a04010 	mov	r4, #16
80014cbc:	ebfff828 	bl	80012d64 <uspi_LeaveCritical>
80014cc0:	e1a00004 	mov	r0, r4
80014cc4:	e8bd8070 	pop	{r4, r5, r6, pc}
80014cc8:	e1a04003 	mov	r4, r3
80014ccc:	e3a03001 	mov	r3, #1
80014cd0:	e5952004 	ldr	r2, [r5, #4]
80014cd4:	e1823003 	orr	r3, r2, r3
80014cd8:	e5853004 	str	r3, [r5, #4]
80014cdc:	ebfff820 	bl	80012d64 <uspi_LeaveCritical>
80014ce0:	e1a00004 	mov	r0, r4
80014ce4:	e8bd8070 	pop	{r4, r5, r6, pc}

80014ce8 <DWHCIDeviceTransferStageAsync>:
80014ce8:	e92d47f0 	push	{r4, r5, r6, r7, r8, r9, sl, lr}
80014cec:	e1a04000 	mov	r4, r0
80014cf0:	e24dd008 	sub	sp, sp, #8
80014cf4:	e1a07001 	mov	r7, r1
80014cf8:	e1a09003 	mov	r9, r3
80014cfc:	e1a08002 	mov	r8, r2
80014d00:	ebffffda 	bl	80014c70 <DWHCIDeviceAllocateChannel>
80014d04:	e5943000 	ldr	r3, [r4]
80014d08:	e1500003 	cmp	r0, r3
80014d0c:	23a07000 	movcs	r7, #0
80014d10:	3a000002 	bcc	80014d20 <DWHCIDeviceTransferStageAsync+0x38>
80014d14:	e1a00007 	mov	r0, r7
80014d18:	e28dd008 	add	sp, sp, #8
80014d1c:	e8bd87f0 	pop	{r4, r5, r6, r7, r8, r9, sl, pc}
80014d20:	e1a05000 	mov	r5, r0
80014d24:	e3a00054 	mov	r0, #84	; 0x54
80014d28:	ebfff54a 	bl	80012258 <malloc>
80014d2c:	e084a105 	add	sl, r4, r5, lsl #2
80014d30:	e1a06000 	mov	r6, r0
80014d34:	e58d9000 	str	r9, [sp]
80014d38:	e1a03008 	mov	r3, r8
80014d3c:	e1a02007 	mov	r2, r7
80014d40:	e1a01005 	mov	r1, r5
80014d44:	ebffe7ba 	bl	8000ec34 <DWHCITransferStageData>
80014d48:	e58a6008 	str	r6, [sl, #8]
80014d4c:	e1a01005 	mov	r1, r5
80014d50:	e1a00004 	mov	r0, r4
80014d54:	ebfffd26 	bl	800141f4 <DWHCIDeviceEnableChannelInterrupt>
80014d58:	e1a00006 	mov	r0, r6
80014d5c:	ebffe8b9 	bl	8000f048 <DWHCITransferStageDataIsSplit>
80014d60:	e2501000 	subs	r1, r0, #0
80014d64:	e1a00006 	mov	r0, r6
80014d68:	0a000013 	beq	80014dbc <DWHCIDeviceTransferStageAsync+0xd4>
80014d6c:	ebffe880 	bl	8000ef74 <DWHCITransferStageDataBeginSplitCycle>
80014d70:	e2507000 	subs	r7, r0, #0
80014d74:	0a000012 	beq	80014dc4 <DWHCIDeviceTransferStageAsync+0xdc>
80014d78:	e3a01001 	mov	r1, #1
80014d7c:	e1a00006 	mov	r0, r6
80014d80:	ebffe873 	bl	8000ef54 <DWHCITransferStageDataSetState>
80014d84:	e3a01000 	mov	r1, #0
80014d88:	e1a00006 	mov	r0, r6
80014d8c:	ebffe86e 	bl	8000ef4c <DWHCITransferStageDataSetSplitComplete>
80014d90:	e1a00006 	mov	r0, r6
80014d94:	ebffe8cf 	bl	8000f0d8 <DWHCITransferStageDataGetFrameScheduler>
80014d98:	e5903004 	ldr	r3, [r0, #4]
80014d9c:	e12fff33 	blx	r3
80014da0:	e1a00004 	mov	r0, r4
80014da4:	e1a01006 	mov	r1, r6
80014da8:	e3a07001 	mov	r7, #1
80014dac:	ebfffe18 	bl	80014614 <DWHCIDeviceStartTransaction>
80014db0:	e1a00007 	mov	r0, r7
80014db4:	e28dd008 	add	sp, sp, #8
80014db8:	e8bd87f0 	pop	{r4, r5, r6, r7, r8, r9, sl, pc}
80014dbc:	ebffe864 	bl	8000ef54 <DWHCITransferStageDataSetState>
80014dc0:	eafffff6 	b	80014da0 <DWHCIDeviceTransferStageAsync+0xb8>
80014dc4:	e1a01005 	mov	r1, r5
80014dc8:	e1a00004 	mov	r0, r4
80014dcc:	ebfffd1d 	bl	80014248 <DWHCIDeviceDisableChannelInterrupt>
80014dd0:	e1a00006 	mov	r0, r6
80014dd4:	ebffe80a 	bl	8000ee04 <_DWHCITransferStageData>
80014dd8:	e1a00006 	mov	r0, r6
80014ddc:	ebfff524 	bl	80012274 <free>
80014de0:	e58a7008 	str	r7, [sl, #8]
80014de4:	ebfff7cf 	bl	80012d28 <uspi_EnterCritical>
80014de8:	e5943004 	ldr	r3, [r4, #4]
80014dec:	e3a02001 	mov	r2, #1
80014df0:	e1c35512 	bic	r5, r3, r2, lsl r5
80014df4:	e5845004 	str	r5, [r4, #4]
80014df8:	ebfff7d9 	bl	80012d64 <uspi_LeaveCritical>
80014dfc:	eaffffc4 	b	80014d14 <DWHCIDeviceTransferStageAsync+0x2c>

80014e00 <DWHCIDeviceSubmitAsyncRequest>:
80014e00:	e92d4070 	push	{r4, r5, r6, lr}
80014e04:	e1a05000 	mov	r5, r0
80014e08:	e1a04001 	mov	r4, r1
80014e0c:	f57ff05f 	dmb	sy
80014e10:	e3a01000 	mov	r1, #0
80014e14:	e1a00004 	mov	r0, r4
80014e18:	ebfff7a9 	bl	80012cc4 <USBRequestSetStatus>
80014e1c:	e1a00004 	mov	r0, r4
80014e20:	ebfff7a5 	bl	80012cbc <USBRequestGetEndpoint>
80014e24:	ebffd599 	bl	8000a490 <USBEndpointIsDirectionIn>
80014e28:	e1a02000 	mov	r2, r0
80014e2c:	e1a01004 	mov	r1, r4
80014e30:	e1a00005 	mov	r0, r5
80014e34:	e3a03000 	mov	r3, #0
80014e38:	ebffffaa 	bl	80014ce8 <DWHCIDeviceTransferStageAsync>
80014e3c:	f57ff05f 	dmb	sy
80014e40:	e8bd8070 	pop	{r4, r5, r6, pc}

80014e44 <DWHCIDeviceTransferStage>:
80014e44:	e92d41f0 	push	{r4, r5, r6, r7, r8, lr}
80014e48:	e1a04000 	mov	r4, r0
80014e4c:	e1a05001 	mov	r5, r1
80014e50:	e30410c8 	movw	r1, #16584	; 0x40c8
80014e54:	e3481001 	movt	r1, #32769	; 0x8001
80014e58:	e1a06002 	mov	r6, r2
80014e5c:	e1a07003 	mov	r7, r3
80014e60:	e1a00005 	mov	r0, r5
80014e64:	e1a03004 	mov	r3, r4
80014e68:	e3a02000 	mov	r2, #0
80014e6c:	ebfff7a2 	bl	80012cfc <USBRequestSetCompletionRoutine>
80014e70:	e3a02001 	mov	r2, #1
80014e74:	e1a03007 	mov	r3, r7
80014e78:	e5842048 	str	r2, [r4, #72]	; 0x48
80014e7c:	e1a01005 	mov	r1, r5
80014e80:	e1a02006 	mov	r2, r6
80014e84:	e1a00004 	mov	r0, r4
80014e88:	ebffff96 	bl	80014ce8 <DWHCIDeviceTransferStageAsync>
80014e8c:	e2503000 	subs	r3, r0, #0
80014e90:	0a000005 	beq	80014eac <DWHCIDeviceTransferStage+0x68>
80014e94:	e5943048 	ldr	r3, [r4, #72]	; 0x48
80014e98:	e3530000 	cmp	r3, #0
80014e9c:	1afffffc 	bne	80014e94 <DWHCIDeviceTransferStage+0x50>
80014ea0:	e1a00005 	mov	r0, r5
80014ea4:	e8bd41f0 	pop	{r4, r5, r6, r7, r8, lr}
80014ea8:	eafff789 	b	80012cd4 <USBRequestGetStatus>
80014eac:	e5843048 	str	r3, [r4, #72]	; 0x48
80014eb0:	e8bd81f0 	pop	{r4, r5, r6, r7, r8, pc}

80014eb4 <DWHCIDeviceSubmitBlockingRequest>:
80014eb4:	e92d4070 	push	{r4, r5, r6, lr}
80014eb8:	e1a05000 	mov	r5, r0
80014ebc:	e1a04001 	mov	r4, r1
80014ec0:	f57ff05f 	dmb	sy
80014ec4:	e3a01000 	mov	r1, #0
80014ec8:	e1a00004 	mov	r0, r4
80014ecc:	ebfff77c 	bl	80012cc4 <USBRequestSetStatus>
80014ed0:	e1a00004 	mov	r0, r4
80014ed4:	ebfff778 	bl	80012cbc <USBRequestGetEndpoint>
80014ed8:	ebffd56a 	bl	8000a488 <USBEndpointGetType>
80014edc:	e2506000 	subs	r6, r0, #0
80014ee0:	e1a00004 	mov	r0, r4
80014ee4:	1a000017 	bne	80014f48 <DWHCIDeviceSubmitBlockingRequest+0x94>
80014ee8:	ebfff77d 	bl	80012ce4 <USBRequestGetSetupData>
80014eec:	e1d030d0 	ldrsb	r3, [r0]
80014ef0:	e3530000 	cmp	r3, #0
80014ef4:	ba00001f 	blt	80014f78 <DWHCIDeviceSubmitBlockingRequest+0xc4>
80014ef8:	e1a00004 	mov	r0, r4
80014efc:	ebfff77c 	bl	80012cf4 <USBRequestGetBufLen>
80014f00:	e2503000 	subs	r3, r0, #0
80014f04:	0a000007 	beq	80014f28 <DWHCIDeviceSubmitBlockingRequest+0x74>
80014f08:	e1a03006 	mov	r3, r6
80014f0c:	e1a02006 	mov	r2, r6
80014f10:	e1a01004 	mov	r1, r4
80014f14:	e1a00005 	mov	r0, r5
80014f18:	ebffffc9 	bl	80014e44 <DWHCIDeviceTransferStage>
80014f1c:	e3500000 	cmp	r0, #0
80014f20:	0a000006 	beq	80014f40 <DWHCIDeviceSubmitBlockingRequest+0x8c>
80014f24:	e1a03006 	mov	r3, r6
80014f28:	e1a02003 	mov	r2, r3
80014f2c:	e1a01004 	mov	r1, r4
80014f30:	e1a00005 	mov	r0, r5
80014f34:	ebffffc2 	bl	80014e44 <DWHCIDeviceTransferStage>
80014f38:	e3500000 	cmp	r0, #0
80014f3c:	1a000023 	bne	80014fd0 <DWHCIDeviceSubmitBlockingRequest+0x11c>
80014f40:	e3a00000 	mov	r0, #0
80014f44:	e8bd8070 	pop	{r4, r5, r6, pc}
80014f48:	ebfff75b 	bl	80012cbc <USBRequestGetEndpoint>
80014f4c:	ebffd54f 	bl	8000a490 <USBEndpointIsDirectionIn>
80014f50:	e1a02000 	mov	r2, r0
80014f54:	e1a01004 	mov	r1, r4
80014f58:	e1a00005 	mov	r0, r5
80014f5c:	e3a03000 	mov	r3, #0
80014f60:	ebffffb7 	bl	80014e44 <DWHCIDeviceTransferStage>
80014f64:	e3500000 	cmp	r0, #0
80014f68:	0afffff4 	beq	80014f40 <DWHCIDeviceSubmitBlockingRequest+0x8c>
80014f6c:	f57ff05f 	dmb	sy
80014f70:	e3a00001 	mov	r0, #1
80014f74:	e8bd8070 	pop	{r4, r5, r6, pc}
80014f78:	e1a03006 	mov	r3, r6
80014f7c:	e1a02006 	mov	r2, r6
80014f80:	e1a01004 	mov	r1, r4
80014f84:	e1a00005 	mov	r0, r5
80014f88:	ebffffad 	bl	80014e44 <DWHCIDeviceTransferStage>
80014f8c:	e3500000 	cmp	r0, #0
80014f90:	0affffea 	beq	80014f40 <DWHCIDeviceSubmitBlockingRequest+0x8c>
80014f94:	e1a03006 	mov	r3, r6
80014f98:	e3a02001 	mov	r2, #1
80014f9c:	e1a01004 	mov	r1, r4
80014fa0:	e1a00005 	mov	r0, r5
80014fa4:	ebffffa6 	bl	80014e44 <DWHCIDeviceTransferStage>
80014fa8:	e3500000 	cmp	r0, #0
80014fac:	0affffe3 	beq	80014f40 <DWHCIDeviceSubmitBlockingRequest+0x8c>
80014fb0:	e1a02006 	mov	r2, r6
80014fb4:	e1a01004 	mov	r1, r4
80014fb8:	e1a00005 	mov	r0, r5
80014fbc:	e3a03001 	mov	r3, #1
80014fc0:	ebffff9f 	bl	80014e44 <DWHCIDeviceTransferStage>
80014fc4:	e3500000 	cmp	r0, #0
80014fc8:	1affffe7 	bne	80014f6c <DWHCIDeviceSubmitBlockingRequest+0xb8>
80014fcc:	eaffffdb 	b	80014f40 <DWHCIDeviceSubmitBlockingRequest+0x8c>
80014fd0:	e3a03001 	mov	r3, #1
80014fd4:	e1a01004 	mov	r1, r4
80014fd8:	e1a00005 	mov	r0, r5
80014fdc:	e1a02003 	mov	r2, r3
80014fe0:	ebffff97 	bl	80014e44 <DWHCIDeviceTransferStage>
80014fe4:	e3500000 	cmp	r0, #0
80014fe8:	1affffdf 	bne	80014f6c <DWHCIDeviceSubmitBlockingRequest+0xb8>
80014fec:	eaffffd3 	b	80014f40 <DWHCIDeviceSubmitBlockingRequest+0x8c>

80014ff0 <DWHCIDeviceControlMessage>:
80014ff0:	e92d4ff0 	push	{r4, r5, r6, r7, r8, r9, sl, fp, lr}
80014ff4:	e24dd034 	sub	sp, sp, #52	; 0x34
80014ff8:	e1a06000 	mov	r6, r0
80014ffc:	e3a00008 	mov	r0, #8
80015000:	e1dd56b4 	ldrh	r5, [sp, #100]	; 0x64
80015004:	e1a0b002 	mov	fp, r2
80015008:	e1dd95b8 	ldrh	r9, [sp, #88]	; 0x58
8001500c:	e1a0a003 	mov	sl, r3
80015010:	e1dd75bc 	ldrh	r7, [sp, #92]	; 0x5c
80015014:	e1a08001 	mov	r8, r1
80015018:	ebfff48e 	bl	80012258 <malloc>
8001501c:	e5c0b000 	strb	fp, [r0]
80015020:	e1a04000 	mov	r4, r0
80015024:	e5c0a001 	strb	sl, [r0, #1]
80015028:	e1a03005 	mov	r3, r5
8001502c:	e1c090b2 	strh	r9, [r0, #2]
80015030:	e1a01008 	mov	r1, r8
80015034:	e1c070b4 	strh	r7, [r0, #4]
80015038:	e1c050b6 	strh	r5, [r0, #6]
8001503c:	e28d000c 	add	r0, sp, #12
80015040:	e59d2060 	ldr	r2, [sp, #96]	; 0x60
80015044:	e58d4000 	str	r4, [sp]
80015048:	ebfff709 	bl	80012c74 <USBRequest>
8001504c:	e28d100c 	add	r1, sp, #12
80015050:	e1a00006 	mov	r0, r6
80015054:	ebffff96 	bl	80014eb4 <DWHCIDeviceSubmitBlockingRequest>
80015058:	e3500000 	cmp	r0, #0
8001505c:	0a000009 	beq	80015088 <DWHCIDeviceControlMessage+0x98>
80015060:	e28d000c 	add	r0, sp, #12
80015064:	ebfff71c 	bl	80012cdc <USBRequestGetResultLength>
80015068:	e1a05000 	mov	r5, r0
8001506c:	e1a00004 	mov	r0, r4
80015070:	ebfff47f 	bl	80012274 <free>
80015074:	e28d000c 	add	r0, sp, #12
80015078:	ebfff709 	bl	80012ca4 <_USBRequest>
8001507c:	e1a00005 	mov	r0, r5
80015080:	e28dd034 	add	sp, sp, #52	; 0x34
80015084:	e8bd8ff0 	pop	{r4, r5, r6, r7, r8, r9, sl, fp, pc}
80015088:	e3e05000 	mvn	r5, #0
8001508c:	eafffff6 	b	8001506c <DWHCIDeviceControlMessage+0x7c>

80015090 <DWHCIDeviceGetDescriptor>:
80015090:	e92d4030 	push	{r4, r5, lr}
80015094:	e24dd014 	sub	sp, sp, #20
80015098:	e1833402 	orr	r3, r3, r2, lsl #8
8001509c:	e3a0c000 	mov	ip, #0
800150a0:	e59d4020 	ldr	r4, [sp, #32]
800150a4:	e5dd5028 	ldrb	r5, [sp, #40]	; 0x28
800150a8:	e1dde2b4 	ldrh	lr, [sp, #36]	; 0x24
800150ac:	e58d3000 	str	r3, [sp]
800150b0:	e1a02005 	mov	r2, r5
800150b4:	e58d4008 	str	r4, [sp, #8]
800150b8:	e3a03006 	mov	r3, #6
800150bc:	e58de00c 	str	lr, [sp, #12]
800150c0:	e58dc004 	str	ip, [sp, #4]
800150c4:	ebffffc9 	bl	80014ff0 <DWHCIDeviceControlMessage>
800150c8:	e28dd014 	add	sp, sp, #20
800150cc:	e8bd8030 	pop	{r4, r5, pc}

800150d0 <DWHCIDeviceSetAddress>:
800150d0:	e92d4010 	push	{r4, lr}
800150d4:	e24dd010 	sub	sp, sp, #16
800150d8:	e3a04000 	mov	r4, #0
800150dc:	e3a03005 	mov	r3, #5
800150e0:	e58d2000 	str	r2, [sp]
800150e4:	e1a02004 	mov	r2, r4
800150e8:	e58d400c 	str	r4, [sp, #12]
800150ec:	e58d4008 	str	r4, [sp, #8]
800150f0:	e58d4004 	str	r4, [sp, #4]
800150f4:	ebffffbd 	bl	80014ff0 <DWHCIDeviceControlMessage>
800150f8:	e1500004 	cmp	r0, r4
800150fc:	b1a00004 	movlt	r0, r4
80015100:	ba000002 	blt	80015110 <DWHCIDeviceSetAddress+0x40>
80015104:	e3a00032 	mov	r0, #50	; 0x32
80015108:	ebfff45a 	bl	80012278 <MsDelay>
8001510c:	e3a00001 	mov	r0, #1
80015110:	e28dd010 	add	sp, sp, #16
80015114:	e8bd8010 	pop	{r4, pc}

80015118 <DWHCIDeviceSetConfiguration>:
80015118:	e92d4010 	push	{r4, lr}
8001511c:	e24dd010 	sub	sp, sp, #16
80015120:	e3a04000 	mov	r4, #0
80015124:	e3a03009 	mov	r3, #9
80015128:	e58d2000 	str	r2, [sp]
8001512c:	e1a02004 	mov	r2, r4
80015130:	e58d400c 	str	r4, [sp, #12]
80015134:	e58d4008 	str	r4, [sp, #8]
80015138:	e58d4004 	str	r4, [sp, #4]
8001513c:	ebffffab 	bl	80014ff0 <DWHCIDeviceControlMessage>
80015140:	e1500004 	cmp	r0, r4
80015144:	b1a00004 	movlt	r0, r4
80015148:	ba000002 	blt	80015158 <DWHCIDeviceSetConfiguration+0x40>
8001514c:	e3a00032 	mov	r0, #50	; 0x32
80015150:	ebfff448 	bl	80012278 <MsDelay>
80015154:	e3a00001 	mov	r0, #1
80015158:	e28dd010 	add	sp, sp, #16
8001515c:	e8bd8010 	pop	{r4, pc}

80015160 <DWHCIDeviceTransfer>:
80015160:	e92d4010 	push	{r4, lr}
80015164:	e24dd030 	sub	sp, sp, #48	; 0x30
80015168:	e3a0c000 	mov	ip, #0
8001516c:	e1a04000 	mov	r4, r0
80015170:	e58dc000 	str	ip, [sp]
80015174:	e28d000c 	add	r0, sp, #12
80015178:	ebfff6bd 	bl	80012c74 <USBRequest>
8001517c:	e28d100c 	add	r1, sp, #12
80015180:	e1a00004 	mov	r0, r4
80015184:	ebffff4a 	bl	80014eb4 <DWHCIDeviceSubmitBlockingRequest>
80015188:	e3500000 	cmp	r0, #0
8001518c:	0a000007 	beq	800151b0 <DWHCIDeviceTransfer+0x50>
80015190:	e28d000c 	add	r0, sp, #12
80015194:	ebfff6d0 	bl	80012cdc <USBRequestGetResultLength>
80015198:	e1a04000 	mov	r4, r0
8001519c:	e28d000c 	add	r0, sp, #12
800151a0:	ebfff6bf 	bl	80012ca4 <_USBRequest>
800151a4:	e1a00004 	mov	r0, r4
800151a8:	e28dd030 	add	sp, sp, #48	; 0x30
800151ac:	e8bd8010 	pop	{r4, pc}
800151b0:	e3e04000 	mvn	r4, #0
800151b4:	eafffff8 	b	8001519c <DWHCIDeviceTransfer+0x3c>

800151b8 <DWHCIDeviceFreeChannel>:
800151b8:	e92d4070 	push	{r4, r5, r6, lr}
800151bc:	e1a04000 	mov	r4, r0
800151c0:	e1a05001 	mov	r5, r1
800151c4:	ebfff6d7 	bl	80012d28 <uspi_EnterCritical>
800151c8:	e5943004 	ldr	r3, [r4, #4]
800151cc:	e3a01001 	mov	r1, #1
800151d0:	e1c31511 	bic	r1, r3, r1, lsl r5
800151d4:	e5841004 	str	r1, [r4, #4]
800151d8:	e8bd4070 	pop	{r4, r5, r6, lr}
800151dc:	eafff6e0 	b	80012d64 <uspi_LeaveCritical>

800151e0 <DWHCIDeviceWaitForBit>:
800151e0:	e92d41f0 	push	{r4, r5, r6, r7, r8, lr}
800151e4:	e1a07001 	mov	r7, r1
800151e8:	e59d4018 	ldr	r4, [sp, #24]
800151ec:	e1a06002 	mov	r6, r2
800151f0:	e1a05003 	mov	r5, r3
800151f4:	ea000002 	b	80015204 <DWHCIDeviceWaitForBit+0x24>
800151f8:	ebfff41e 	bl	80012278 <MsDelay>
800151fc:	e2544001 	subs	r4, r4, #1
80015200:	0a00000b 	beq	80015234 <DWHCIDeviceWaitForBit+0x54>
80015204:	e1a00007 	mov	r0, r7
80015208:	eb00024e 	bl	80015b48 <DWHCIRegisterRead>
8001520c:	e1100006 	tst	r0, r6
80015210:	e16f3f15 	clz	r3, r5
80015214:	11a032a3 	lsrne	r3, r3, #5
80015218:	1a000001 	bne	80015224 <DWHCIDeviceWaitForBit+0x44>
8001521c:	e2953000 	adds	r3, r5, #0
80015220:	13a03001 	movne	r3, #1
80015224:	e3530000 	cmp	r3, #0
80015228:	e3a00001 	mov	r0, #1
8001522c:	1afffff1 	bne	800151f8 <DWHCIDeviceWaitForBit+0x18>
80015230:	e8bd81f0 	pop	{r4, r5, r6, r7, r8, pc}
80015234:	e1a00004 	mov	r0, r4
80015238:	e8bd81f0 	pop	{r4, r5, r6, r7, r8, pc}

8001523c <DWHCIDeviceEnableRootPort>:
8001523c:	e92d4030 	push	{r4, r5, lr}
80015240:	e3a01d11 	mov	r1, #1088	; 0x440
80015244:	e34d1098 	movt	r1, #53400	; 0xd098
80015248:	e24dd01c 	sub	sp, sp, #28
8001524c:	e1a04000 	mov	r4, r0
80015250:	e28d000c 	add	r0, sp, #12
80015254:	e3a05014 	mov	r5, #20
80015258:	eb00022f 	bl	80015b1c <DWHCIRegister>
8001525c:	e58d5000 	str	r5, [sp]
80015260:	e3a03001 	mov	r3, #1
80015264:	e1a00004 	mov	r0, r4
80015268:	e28d100c 	add	r1, sp, #12
8001526c:	e1a02003 	mov	r2, r3
80015270:	ebffffda 	bl	800151e0 <DWHCIDeviceWaitForBit>
80015274:	e2504000 	subs	r4, r0, #0
80015278:	0a00001a 	beq	800152e8 <DWHCIDeviceEnableRootPort+0xac>
8001527c:	e3a00064 	mov	r0, #100	; 0x64
80015280:	e3a04001 	mov	r4, #1
80015284:	ebfff3fb 	bl	80012278 <MsDelay>
80015288:	e28d000c 	add	r0, sp, #12
8001528c:	eb00022d 	bl	80015b48 <DWHCIRegisterRead>
80015290:	e3e0102e 	mvn	r1, #46	; 0x2e
80015294:	e28d000c 	add	r0, sp, #12
80015298:	eb000240 	bl	80015ba0 <DWHCIRegisterAnd>
8001529c:	e3a01c01 	mov	r1, #256	; 0x100
800152a0:	e28d000c 	add	r0, sp, #12
800152a4:	eb000241 	bl	80015bb0 <DWHCIRegisterOr>
800152a8:	e28d000c 	add	r0, sp, #12
800152ac:	eb00022c 	bl	80015b64 <DWHCIRegisterWrite>
800152b0:	e3a00032 	mov	r0, #50	; 0x32
800152b4:	ebfff3ef 	bl	80012278 <MsDelay>
800152b8:	e28d000c 	add	r0, sp, #12
800152bc:	eb000221 	bl	80015b48 <DWHCIRegisterRead>
800152c0:	e3e0102e 	mvn	r1, #46	; 0x2e
800152c4:	e28d000c 	add	r0, sp, #12
800152c8:	eb000234 	bl	80015ba0 <DWHCIRegisterAnd>
800152cc:	e3e01c01 	mvn	r1, #256	; 0x100
800152d0:	e28d000c 	add	r0, sp, #12
800152d4:	eb000231 	bl	80015ba0 <DWHCIRegisterAnd>
800152d8:	e28d000c 	add	r0, sp, #12
800152dc:	eb000220 	bl	80015b64 <DWHCIRegisterWrite>
800152e0:	e1a00005 	mov	r0, r5
800152e4:	ebfff3e3 	bl	80012278 <MsDelay>
800152e8:	e28d000c 	add	r0, sp, #12
800152ec:	eb000212 	bl	80015b3c <_DWHCIRegister>
800152f0:	e1a00004 	mov	r0, r4
800152f4:	e28dd01c 	add	sp, sp, #28
800152f8:	e8bd8030 	pop	{r4, r5, pc}

800152fc <DWHCIDeviceReset>:
800152fc:	e92d4030 	push	{r4, r5, lr}
80015300:	e3a01010 	mov	r1, #16
80015304:	e34d1098 	movt	r1, #53400	; 0xd098
80015308:	e24dd01c 	sub	sp, sp, #28
8001530c:	e1a04000 	mov	r4, r0
80015310:	e3a02000 	mov	r2, #0
80015314:	e28d000c 	add	r0, sp, #12
80015318:	e3a05064 	mov	r5, #100	; 0x64
8001531c:	eb000202 	bl	80015b2c <DWHCIRegister2>
80015320:	e58d5000 	str	r5, [sp]
80015324:	e28d100c 	add	r1, sp, #12
80015328:	e1a00004 	mov	r0, r4
8001532c:	e3a03001 	mov	r3, #1
80015330:	e3a02102 	mov	r2, #-2147483648	; 0x80000000
80015334:	ebffffa9 	bl	800151e0 <DWHCIDeviceWaitForBit>
80015338:	e3500000 	cmp	r0, #0
8001533c:	0a000014 	beq	80015394 <DWHCIDeviceReset+0x98>
80015340:	e3a01001 	mov	r1, #1
80015344:	e28d000c 	add	r0, sp, #12
80015348:	eb000218 	bl	80015bb0 <DWHCIRegisterOr>
8001534c:	e28d000c 	add	r0, sp, #12
80015350:	eb000203 	bl	80015b64 <DWHCIRegisterWrite>
80015354:	e3a0300a 	mov	r3, #10
80015358:	e1a00004 	mov	r0, r4
8001535c:	e58d3000 	str	r3, [sp]
80015360:	e3a02001 	mov	r2, #1
80015364:	e3a03000 	mov	r3, #0
80015368:	e28d100c 	add	r1, sp, #12
8001536c:	ebffff9b 	bl	800151e0 <DWHCIDeviceWaitForBit>
80015370:	e3500000 	cmp	r0, #0
80015374:	0a000006 	beq	80015394 <DWHCIDeviceReset+0x98>
80015378:	e1a00005 	mov	r0, r5
8001537c:	ebfff3bd 	bl	80012278 <MsDelay>
80015380:	e28d000c 	add	r0, sp, #12
80015384:	eb0001ec 	bl	80015b3c <_DWHCIRegister>
80015388:	e3a00001 	mov	r0, #1
8001538c:	e28dd01c 	add	sp, sp, #28
80015390:	e8bd8030 	pop	{r4, r5, pc}
80015394:	e28d000c 	add	r0, sp, #12
80015398:	eb0001e7 	bl	80015b3c <_DWHCIRegister>
8001539c:	e3a00000 	mov	r0, #0
800153a0:	e28dd01c 	add	sp, sp, #28
800153a4:	e8bd8030 	pop	{r4, r5, pc}

800153a8 <DWHCIDeviceInitCore>:
800153a8:	e92d4030 	push	{r4, r5, lr}
800153ac:	e3a0100c 	mov	r1, #12
800153b0:	e34d1098 	movt	r1, #53400	; 0xd098
800153b4:	e24dd02c 	sub	sp, sp, #44	; 0x2c
800153b8:	e1a04000 	mov	r4, r0
800153bc:	e28d0004 	add	r0, sp, #4
800153c0:	eb0001d5 	bl	80015b1c <DWHCIRegister>
800153c4:	e28d0004 	add	r0, sp, #4
800153c8:	eb0001de 	bl	80015b48 <DWHCIRegisterRead>
800153cc:	e28d0004 	add	r0, sp, #4
800153d0:	e3e01601 	mvn	r1, #1048576	; 0x100000
800153d4:	eb0001f1 	bl	80015ba0 <DWHCIRegisterAnd>
800153d8:	e3e01501 	mvn	r1, #4194304	; 0x400000
800153dc:	e28d0004 	add	r0, sp, #4
800153e0:	eb0001ee 	bl	80015ba0 <DWHCIRegisterAnd>
800153e4:	e28d0004 	add	r0, sp, #4
800153e8:	eb0001dd 	bl	80015b64 <DWHCIRegisterWrite>
800153ec:	e1a00004 	mov	r0, r4
800153f0:	ebffffc1 	bl	800152fc <DWHCIDeviceReset>
800153f4:	e2505000 	subs	r5, r0, #0
800153f8:	0a00004a 	beq	80015528 <DWHCIDeviceInitCore+0x180>
800153fc:	e28d0004 	add	r0, sp, #4
80015400:	eb0001d0 	bl	80015b48 <DWHCIRegisterRead>
80015404:	e3e01010 	mvn	r1, #16
80015408:	e28d0004 	add	r0, sp, #4
8001540c:	eb0001e3 	bl	80015ba0 <DWHCIRegisterAnd>
80015410:	e3e01008 	mvn	r1, #8
80015414:	e28d0004 	add	r0, sp, #4
80015418:	eb0001e0 	bl	80015ba0 <DWHCIRegisterAnd>
8001541c:	e28d0004 	add	r0, sp, #4
80015420:	eb0001cf 	bl	80015b64 <DWHCIRegisterWrite>
80015424:	e3a01048 	mov	r1, #72	; 0x48
80015428:	e28d0010 	add	r0, sp, #16
8001542c:	e34d1098 	movt	r1, #53400	; 0xd098
80015430:	eb0001b9 	bl	80015b1c <DWHCIRegister>
80015434:	e28d0010 	add	r0, sp, #16
80015438:	eb0001c2 	bl	80015b48 <DWHCIRegisterRead>
8001543c:	e28d0004 	add	r0, sp, #4
80015440:	eb0001c0 	bl	80015b48 <DWHCIRegisterRead>
80015444:	e28d0010 	add	r0, sp, #16
80015448:	eb0001c9 	bl	80015b74 <DWHCIRegisterGet>
8001544c:	e7e10350 	ubfx	r0, r0, #6, #2
80015450:	e3500002 	cmp	r0, #2
80015454:	0a00003c 	beq	8001554c <DWHCIDeviceInitCore+0x1a4>
80015458:	e3e01802 	mvn	r1, #131072	; 0x20000
8001545c:	e28d0004 	add	r0, sp, #4
80015460:	eb0001ce 	bl	80015ba0 <DWHCIRegisterAnd>
80015464:	e3e01702 	mvn	r1, #524288	; 0x80000
80015468:	e28d0004 	add	r0, sp, #4
8001546c:	eb0001cb 	bl	80015ba0 <DWHCIRegisterAnd>
80015470:	e28d0004 	add	r0, sp, #4
80015474:	e3a05001 	mov	r5, #1
80015478:	eb0001b9 	bl	80015b64 <DWHCIRegisterWrite>
8001547c:	e28d0010 	add	r0, sp, #16
80015480:	eb0001bb 	bl	80015b74 <DWHCIRegisterGet>
80015484:	e7e30750 	ubfx	r0, r0, #14, #4
80015488:	e3a01008 	mov	r1, #8
8001548c:	e34d1098 	movt	r1, #53400	; 0xd098
80015490:	e2800001 	add	r0, r0, #1
80015494:	e5840000 	str	r0, [r4]
80015498:	e28d001c 	add	r0, sp, #28
8001549c:	eb00019e 	bl	80015b1c <DWHCIRegister>
800154a0:	e28d001c 	add	r0, sp, #28
800154a4:	eb0001a7 	bl	80015b48 <DWHCIRegisterRead>
800154a8:	e28d001c 	add	r0, sp, #28
800154ac:	e3a01020 	mov	r1, #32
800154b0:	eb0001be 	bl	80015bb0 <DWHCIRegisterOr>
800154b4:	e28d001c 	add	r0, sp, #28
800154b8:	e3a01010 	mov	r1, #16
800154bc:	eb0001bb 	bl	80015bb0 <DWHCIRegisterOr>
800154c0:	e3e01006 	mvn	r1, #6
800154c4:	e28d001c 	add	r0, sp, #28
800154c8:	eb0001b4 	bl	80015ba0 <DWHCIRegisterAnd>
800154cc:	e28d001c 	add	r0, sp, #28
800154d0:	eb0001a3 	bl	80015b64 <DWHCIRegisterWrite>
800154d4:	e28d0004 	add	r0, sp, #4
800154d8:	eb00019a 	bl	80015b48 <DWHCIRegisterRead>
800154dc:	e28d0004 	add	r0, sp, #4
800154e0:	e3e01c02 	mvn	r1, #512	; 0x200
800154e4:	eb0001ad 	bl	80015ba0 <DWHCIRegisterAnd>
800154e8:	e3e01c01 	mvn	r1, #256	; 0x100
800154ec:	e28d0004 	add	r0, sp, #4
800154f0:	eb0001aa 	bl	80015ba0 <DWHCIRegisterAnd>
800154f4:	e28d0004 	add	r0, sp, #4
800154f8:	eb000199 	bl	80015b64 <DWHCIRegisterWrite>
800154fc:	e1a00004 	mov	r0, r4
80015500:	ebfffb16 	bl	80014160 <DWHCIDeviceEnableCommonInterrupts>
80015504:	e28d001c 	add	r0, sp, #28
80015508:	eb00018b 	bl	80015b3c <_DWHCIRegister>
8001550c:	e28d0010 	add	r0, sp, #16
80015510:	eb000189 	bl	80015b3c <_DWHCIRegister>
80015514:	e28d0004 	add	r0, sp, #4
80015518:	eb000187 	bl	80015b3c <_DWHCIRegister>
8001551c:	e1a00005 	mov	r0, r5
80015520:	e28dd02c 	add	sp, sp, #44	; 0x2c
80015524:	e8bd8030 	pop	{r4, r5, pc}
80015528:	e3092168 	movw	r2, #37224	; 0x9168
8001552c:	e3090130 	movw	r0, #37168	; 0x9130
80015530:	e3482001 	movt	r2, #32769	; 0x8001
80015534:	e3a01001 	mov	r1, #1
80015538:	e3480001 	movt	r0, #32769	; 0x8001
8001553c:	ebfff39f 	bl	800123c0 <LogWrite>
80015540:	e1a00005 	mov	r0, r5
80015544:	e28dd02c 	add	sp, sp, #44	; 0x2c
80015548:	e8bd8030 	pop	{r4, r5, pc}
8001554c:	e28d0010 	add	r0, sp, #16
80015550:	eb000187 	bl	80015b74 <DWHCIRegisterGet>
80015554:	e7e10450 	ubfx	r0, r0, #8, #2
80015558:	e3500001 	cmp	r0, #1
8001555c:	1affffbd 	bne	80015458 <DWHCIDeviceInitCore+0xb0>
80015560:	e28d0004 	add	r0, sp, #4
80015564:	e3a01802 	mov	r1, #131072	; 0x20000
80015568:	eb000190 	bl	80015bb0 <DWHCIRegisterOr>
8001556c:	e3a01702 	mov	r1, #524288	; 0x80000
80015570:	e28d0004 	add	r0, sp, #4
80015574:	eb00018d 	bl	80015bb0 <DWHCIRegisterOr>
80015578:	eaffffbc 	b	80015470 <DWHCIDeviceInitCore+0xc8>

8001557c <DWHCIDeviceFlushTxFIFO>:
8001557c:	e92d4030 	push	{r4, r5, lr}
80015580:	e1a05001 	mov	r5, r1
80015584:	e24dd01c 	sub	sp, sp, #28
80015588:	e3a01010 	mov	r1, #16
8001558c:	e34d1098 	movt	r1, #53400	; 0xd098
80015590:	e3a02000 	mov	r2, #0
80015594:	e1a04000 	mov	r4, r0
80015598:	e28d000c 	add	r0, sp, #12
8001559c:	eb000162 	bl	80015b2c <DWHCIRegister2>
800155a0:	e28d000c 	add	r0, sp, #12
800155a4:	e3a01020 	mov	r1, #32
800155a8:	eb000180 	bl	80015bb0 <DWHCIRegisterOr>
800155ac:	e28d000c 	add	r0, sp, #12
800155b0:	e3e01d1f 	mvn	r1, #1984	; 0x7c0
800155b4:	eb000179 	bl	80015ba0 <DWHCIRegisterAnd>
800155b8:	e1a01305 	lsl	r1, r5, #6
800155bc:	e28d000c 	add	r0, sp, #12
800155c0:	eb00017a 	bl	80015bb0 <DWHCIRegisterOr>
800155c4:	e28d000c 	add	r0, sp, #12
800155c8:	eb000165 	bl	80015b64 <DWHCIRegisterWrite>
800155cc:	e3a0300a 	mov	r3, #10
800155d0:	e1a00004 	mov	r0, r4
800155d4:	e58d3000 	str	r3, [sp]
800155d8:	e28d100c 	add	r1, sp, #12
800155dc:	e3a03000 	mov	r3, #0
800155e0:	e3a02020 	mov	r2, #32
800155e4:	ebfffefd 	bl	800151e0 <DWHCIDeviceWaitForBit>
800155e8:	e3500000 	cmp	r0, #0
800155ec:	0a000001 	beq	800155f8 <DWHCIDeviceFlushTxFIFO+0x7c>
800155f0:	e3a00001 	mov	r0, #1
800155f4:	ebfff32c 	bl	800122ac <usDelay>
800155f8:	e28d000c 	add	r0, sp, #12
800155fc:	eb00014e 	bl	80015b3c <_DWHCIRegister>
80015600:	e28dd01c 	add	sp, sp, #28
80015604:	e8bd8030 	pop	{r4, r5, pc}

80015608 <DWHCIDeviceFlushRxFIFO>:
80015608:	e92d4010 	push	{r4, lr}
8001560c:	e3a01010 	mov	r1, #16
80015610:	e34d1098 	movt	r1, #53400	; 0xd098
80015614:	e24dd018 	sub	sp, sp, #24
80015618:	e3a02000 	mov	r2, #0
8001561c:	e1a04000 	mov	r4, r0
80015620:	e28d000c 	add	r0, sp, #12
80015624:	eb000140 	bl	80015b2c <DWHCIRegister2>
80015628:	e3a01010 	mov	r1, #16
8001562c:	e28d000c 	add	r0, sp, #12
80015630:	eb00015e 	bl	80015bb0 <DWHCIRegisterOr>
80015634:	e28d000c 	add	r0, sp, #12
80015638:	eb000149 	bl	80015b64 <DWHCIRegisterWrite>
8001563c:	e3a0300a 	mov	r3, #10
80015640:	e1a00004 	mov	r0, r4
80015644:	e58d3000 	str	r3, [sp]
80015648:	e28d100c 	add	r1, sp, #12
8001564c:	e3a03000 	mov	r3, #0
80015650:	e3a02010 	mov	r2, #16
80015654:	ebfffee1 	bl	800151e0 <DWHCIDeviceWaitForBit>
80015658:	e3500000 	cmp	r0, #0
8001565c:	0a000001 	beq	80015668 <DWHCIDeviceFlushRxFIFO+0x60>
80015660:	e3a00001 	mov	r0, #1
80015664:	ebfff310 	bl	800122ac <usDelay>
80015668:	e28d000c 	add	r0, sp, #12
8001566c:	eb000132 	bl	80015b3c <_DWHCIRegister>
80015670:	e28dd018 	add	sp, sp, #24
80015674:	e8bd8010 	pop	{r4, pc}

80015678 <DWHCIDeviceInitHost>:
80015678:	e92d4030 	push	{r4, r5, lr}
8001567c:	e3a01c0e 	mov	r1, #3584	; 0xe00
80015680:	e34d1098 	movt	r1, #53400	; 0xd098
80015684:	e24dd064 	sub	sp, sp, #100	; 0x64
80015688:	e3a02000 	mov	r2, #0
8001568c:	e1a04000 	mov	r4, r0
80015690:	e1a0000d 	mov	r0, sp
80015694:	eb000124 	bl	80015b2c <DWHCIRegister2>
80015698:	e1a0000d 	mov	r0, sp
8001569c:	eb000130 	bl	80015b64 <DWHCIRegisterWrite>
800156a0:	e3a01b01 	mov	r1, #1024	; 0x400
800156a4:	e28d000c 	add	r0, sp, #12
800156a8:	e34d1098 	movt	r1, #53400	; 0xd098
800156ac:	eb00011a 	bl	80015b1c <DWHCIRegister>
800156b0:	e28d000c 	add	r0, sp, #12
800156b4:	eb000123 	bl	80015b48 <DWHCIRegisterRead>
800156b8:	e28d000c 	add	r0, sp, #12
800156bc:	e3e01003 	mvn	r1, #3
800156c0:	eb000136 	bl	80015ba0 <DWHCIRegisterAnd>
800156c4:	e3a01048 	mov	r1, #72	; 0x48
800156c8:	e28d0018 	add	r0, sp, #24
800156cc:	e34d1098 	movt	r1, #53400	; 0xd098
800156d0:	eb000111 	bl	80015b1c <DWHCIRegister>
800156d4:	e3a0100c 	mov	r1, #12
800156d8:	e28d0024 	add	r0, sp, #36	; 0x24
800156dc:	e34d1098 	movt	r1, #53400	; 0xd098
800156e0:	eb00010d 	bl	80015b1c <DWHCIRegister>
800156e4:	e28d0018 	add	r0, sp, #24
800156e8:	eb000116 	bl	80015b48 <DWHCIRegisterRead>
800156ec:	e7e10350 	ubfx	r0, r0, #6, #2
800156f0:	e3500002 	cmp	r0, #2
800156f4:	0a000051 	beq	80015840 <DWHCIDeviceInitHost+0x1c8>
800156f8:	e3a01000 	mov	r1, #0
800156fc:	e28d000c 	add	r0, sp, #12
80015700:	eb00012a 	bl	80015bb0 <DWHCIRegisterOr>
80015704:	e28d000c 	add	r0, sp, #12
80015708:	eb000115 	bl	80015b64 <DWHCIRegisterWrite>
8001570c:	e3a01024 	mov	r1, #36	; 0x24
80015710:	e3a02b01 	mov	r2, #1024	; 0x400
80015714:	e34d1098 	movt	r1, #53400	; 0xd098
80015718:	e28d0030 	add	r0, sp, #48	; 0x30
8001571c:	eb000102 	bl	80015b2c <DWHCIRegister2>
80015720:	e28d0030 	add	r0, sp, #48	; 0x30
80015724:	eb00010e 	bl	80015b64 <DWHCIRegisterWrite>
80015728:	e3a01028 	mov	r1, #40	; 0x28
8001572c:	e3a02000 	mov	r2, #0
80015730:	e34d1098 	movt	r1, #53400	; 0xd098
80015734:	e28d003c 	add	r0, sp, #60	; 0x3c
80015738:	eb0000fb 	bl	80015b2c <DWHCIRegister2>
8001573c:	e28d003c 	add	r0, sp, #60	; 0x3c
80015740:	e3a01b01 	mov	r1, #1024	; 0x400
80015744:	eb000119 	bl	80015bb0 <DWHCIRegisterOr>
80015748:	e3a01301 	mov	r1, #67108864	; 0x4000000
8001574c:	e28d003c 	add	r0, sp, #60	; 0x3c
80015750:	eb000116 	bl	80015bb0 <DWHCIRegisterOr>
80015754:	e28d003c 	add	r0, sp, #60	; 0x3c
80015758:	eb000101 	bl	80015b64 <DWHCIRegisterWrite>
8001575c:	e3a01c01 	mov	r1, #256	; 0x100
80015760:	e3a02000 	mov	r2, #0
80015764:	e34d1098 	movt	r1, #53400	; 0xd098
80015768:	e28d0048 	add	r0, sp, #72	; 0x48
8001576c:	eb0000ee 	bl	80015b2c <DWHCIRegister2>
80015770:	e28d0048 	add	r0, sp, #72	; 0x48
80015774:	e3a01b02 	mov	r1, #2048	; 0x800
80015778:	eb00010c 	bl	80015bb0 <DWHCIRegisterOr>
8001577c:	e3a01301 	mov	r1, #67108864	; 0x4000000
80015780:	e28d0048 	add	r0, sp, #72	; 0x48
80015784:	eb000109 	bl	80015bb0 <DWHCIRegisterOr>
80015788:	e28d0048 	add	r0, sp, #72	; 0x48
8001578c:	eb0000f4 	bl	80015b64 <DWHCIRegisterWrite>
80015790:	e3a01010 	mov	r1, #16
80015794:	e1a00004 	mov	r0, r4
80015798:	ebffff77 	bl	8001557c <DWHCIDeviceFlushTxFIFO>
8001579c:	e1a00004 	mov	r0, r4
800157a0:	ebffff98 	bl	80015608 <DWHCIDeviceFlushRxFIFO>
800157a4:	e3a01d11 	mov	r1, #1088	; 0x440
800157a8:	e28d0054 	add	r0, sp, #84	; 0x54
800157ac:	e34d1098 	movt	r1, #53400	; 0xd098
800157b0:	eb0000d9 	bl	80015b1c <DWHCIRegister>
800157b4:	e28d0054 	add	r0, sp, #84	; 0x54
800157b8:	eb0000e2 	bl	80015b48 <DWHCIRegisterRead>
800157bc:	e28d0054 	add	r0, sp, #84	; 0x54
800157c0:	e3e0102e 	mvn	r1, #46	; 0x2e
800157c4:	eb0000f5 	bl	80015ba0 <DWHCIRegisterAnd>
800157c8:	e28d0054 	add	r0, sp, #84	; 0x54
800157cc:	eb0000e8 	bl	80015b74 <DWHCIRegisterGet>
800157d0:	e3100a01 	tst	r0, #4096	; 0x1000
800157d4:	1a000004 	bne	800157ec <DWHCIDeviceInitHost+0x174>
800157d8:	e28d0054 	add	r0, sp, #84	; 0x54
800157dc:	e3a01a01 	mov	r1, #4096	; 0x1000
800157e0:	eb0000f2 	bl	80015bb0 <DWHCIRegisterOr>
800157e4:	e28d0054 	add	r0, sp, #84	; 0x54
800157e8:	eb0000dd 	bl	80015b64 <DWHCIRegisterWrite>
800157ec:	e1a00004 	mov	r0, r4
800157f0:	ebfffa68 	bl	80014198 <DWHCIDeviceEnableHostInterrupts>
800157f4:	e28d0054 	add	r0, sp, #84	; 0x54
800157f8:	eb0000cf 	bl	80015b3c <_DWHCIRegister>
800157fc:	e28d0048 	add	r0, sp, #72	; 0x48
80015800:	eb0000cd 	bl	80015b3c <_DWHCIRegister>
80015804:	e28d003c 	add	r0, sp, #60	; 0x3c
80015808:	eb0000cb 	bl	80015b3c <_DWHCIRegister>
8001580c:	e28d0030 	add	r0, sp, #48	; 0x30
80015810:	eb0000c9 	bl	80015b3c <_DWHCIRegister>
80015814:	e28d0024 	add	r0, sp, #36	; 0x24
80015818:	eb0000c7 	bl	80015b3c <_DWHCIRegister>
8001581c:	e28d0018 	add	r0, sp, #24
80015820:	eb0000c5 	bl	80015b3c <_DWHCIRegister>
80015824:	e28d000c 	add	r0, sp, #12
80015828:	eb0000c3 	bl	80015b3c <_DWHCIRegister>
8001582c:	e1a0000d 	mov	r0, sp
80015830:	eb0000c1 	bl	80015b3c <_DWHCIRegister>
80015834:	e3a00001 	mov	r0, #1
80015838:	e28dd064 	add	sp, sp, #100	; 0x64
8001583c:	e8bd8030 	pop	{r4, r5, pc}
80015840:	e28d0018 	add	r0, sp, #24
80015844:	eb0000ca 	bl	80015b74 <DWHCIRegisterGet>
80015848:	e7e15450 	ubfx	r5, r0, #8, #2
8001584c:	e3550001 	cmp	r5, #1
80015850:	1affffa8 	bne	800156f8 <DWHCIDeviceInitHost+0x80>
80015854:	e28d0024 	add	r0, sp, #36	; 0x24
80015858:	eb0000ba 	bl	80015b48 <DWHCIRegisterRead>
8001585c:	e3100802 	tst	r0, #131072	; 0x20000
80015860:	0affffa4 	beq	800156f8 <DWHCIDeviceInitHost+0x80>
80015864:	e1a01005 	mov	r1, r5
80015868:	e28d000c 	add	r0, sp, #12
8001586c:	eb0000cf 	bl	80015bb0 <DWHCIRegisterOr>
80015870:	eaffffa3 	b	80015704 <DWHCIDeviceInitHost+0x8c>

80015874 <DWHCIDeviceInitialize>:
80015874:	e92d4030 	push	{r4, r5, lr}
80015878:	e1a05000 	mov	r5, r0
8001587c:	e24dd01c 	sub	sp, sp, #28
80015880:	f57ff05f 	dmb	sy
80015884:	e3a01040 	mov	r1, #64	; 0x40
80015888:	e1a0000d 	mov	r0, sp
8001588c:	e34d1098 	movt	r1, #53400	; 0xd098
80015890:	eb0000a1 	bl	80015b1c <DWHCIRegister>
80015894:	e1a0000d 	mov	r0, sp
80015898:	eb0000aa 	bl	80015b48 <DWHCIRegisterRead>
8001589c:	e302380a 	movw	r3, #10250	; 0x280a
800158a0:	e3443f54 	movt	r3, #20308	; 0x4f54
800158a4:	e1500003 	cmp	r0, r3
800158a8:	0a00000e 	beq	800158e8 <DWHCIDeviceInitialize+0x74>
800158ac:	e1a0000d 	mov	r0, sp
800158b0:	e3a04000 	mov	r4, #0
800158b4:	eb0000ae 	bl	80015b74 <DWHCIRegisterGet>
800158b8:	e1a03000 	mov	r3, r0
800158bc:	e3092178 	movw	r2, #37240	; 0x9178
800158c0:	e3482001 	movt	r2, #32769	; 0x8001
800158c4:	e3090130 	movw	r0, #37168	; 0x9130
800158c8:	e3480001 	movt	r0, #32769	; 0x8001
800158cc:	e3a01001 	mov	r1, #1
800158d0:	ebfff2ba 	bl	800123c0 <LogWrite>
800158d4:	e1a0000d 	mov	r0, sp
800158d8:	eb000097 	bl	80015b3c <_DWHCIRegister>
800158dc:	e1a00004 	mov	r0, r4
800158e0:	e28dd01c 	add	sp, sp, #28
800158e4:	e8bd8030 	pop	{r4, r5, pc}
800158e8:	e3a00003 	mov	r0, #3
800158ec:	ebfff28e 	bl	8001232c <SetPowerStateOn>
800158f0:	e2504000 	subs	r4, r0, #0
800158f4:	0a000035 	beq	800159d0 <DWHCIDeviceInitialize+0x15c>
800158f8:	e3a01008 	mov	r1, #8
800158fc:	e28d000c 	add	r0, sp, #12
80015900:	e34d1098 	movt	r1, #53400	; 0xd098
80015904:	eb000084 	bl	80015b1c <DWHCIRegister>
80015908:	e28d000c 	add	r0, sp, #12
8001590c:	eb00008d 	bl	80015b48 <DWHCIRegisterRead>
80015910:	e3e01001 	mvn	r1, #1
80015914:	e28d000c 	add	r0, sp, #12
80015918:	eb0000a0 	bl	80015ba0 <DWHCIRegisterAnd>
8001591c:	e28d000c 	add	r0, sp, #12
80015920:	eb00008f 	bl	80015b64 <DWHCIRegisterWrite>
80015924:	e3041b78 	movw	r1, #19320	; 0x4b78
80015928:	e1a02005 	mov	r2, r5
8001592c:	e3481001 	movt	r1, #32769	; 0x8001
80015930:	e3a00009 	mov	r0, #9
80015934:	ebffcd26 	bl	80008dd4 <ConnectInterrupt>
80015938:	e1a00005 	mov	r0, r5
8001593c:	ebfffe99 	bl	800153a8 <DWHCIDeviceInitCore>
80015940:	e2504000 	subs	r4, r0, #0
80015944:	0a000014 	beq	8001599c <DWHCIDeviceInitialize+0x128>
80015948:	e1a00005 	mov	r0, r5
8001594c:	ebfff9f2 	bl	8001411c <DWHCIDeviceEnableGlobalInterrupts>
80015950:	e1a00005 	mov	r0, r5
80015954:	ebffff47 	bl	80015678 <DWHCIDeviceInitHost>
80015958:	e2504000 	subs	r4, r0, #0
8001595c:	0a000026 	beq	800159fc <DWHCIDeviceInitialize+0x188>
80015960:	e1a00005 	mov	r0, r5
80015964:	ebfffe34 	bl	8001523c <DWHCIDeviceEnableRootPort>
80015968:	e3500000 	cmp	r0, #0
8001596c:	0a00002f 	beq	80015a30 <DWHCIDeviceInitialize+0x1bc>
80015970:	e285004c 	add	r0, r5, #76	; 0x4c
80015974:	eb0007af 	bl	80017838 <DWHCIRootPortInitialize>
80015978:	e3500000 	cmp	r0, #0
8001597c:	0a000024 	beq	80015a14 <DWHCIDeviceInitialize+0x1a0>
80015980:	f57ff05f 	dmb	sy
80015984:	e28d000c 	add	r0, sp, #12
80015988:	e3a04001 	mov	r4, #1
8001598c:	eb00006a 	bl	80015b3c <_DWHCIRegister>
80015990:	e1a0000d 	mov	r0, sp
80015994:	eb000068 	bl	80015b3c <_DWHCIRegister>
80015998:	eaffffcf 	b	800158dc <DWHCIDeviceInitialize+0x68>
8001599c:	e30921a0 	movw	r2, #37280	; 0x91a0
800159a0:	e3090130 	movw	r0, #37168	; 0x9130
800159a4:	e3482001 	movt	r2, #32769	; 0x8001
800159a8:	e3a01001 	mov	r1, #1
800159ac:	e3480001 	movt	r0, #32769	; 0x8001
800159b0:	ebfff282 	bl	800123c0 <LogWrite>
800159b4:	e28d000c 	add	r0, sp, #12
800159b8:	eb00005f 	bl	80015b3c <_DWHCIRegister>
800159bc:	e1a0000d 	mov	r0, sp
800159c0:	eb00005d 	bl	80015b3c <_DWHCIRegister>
800159c4:	e1a00004 	mov	r0, r4
800159c8:	e28dd01c 	add	sp, sp, #28
800159cc:	e8bd8030 	pop	{r4, r5, pc}
800159d0:	e3092190 	movw	r2, #37264	; 0x9190
800159d4:	e3090130 	movw	r0, #37168	; 0x9130
800159d8:	e3482001 	movt	r2, #32769	; 0x8001
800159dc:	e3a01001 	mov	r1, #1
800159e0:	e3480001 	movt	r0, #32769	; 0x8001
800159e4:	ebfff275 	bl	800123c0 <LogWrite>
800159e8:	e1a0000d 	mov	r0, sp
800159ec:	eb000052 	bl	80015b3c <_DWHCIRegister>
800159f0:	e1a00004 	mov	r0, r4
800159f4:	e28dd01c 	add	sp, sp, #28
800159f8:	e8bd8030 	pop	{r4, r5, pc}
800159fc:	e30921b8 	movw	r2, #37304	; 0x91b8
80015a00:	e3090130 	movw	r0, #37168	; 0x9130
80015a04:	e3482001 	movt	r2, #32769	; 0x8001
80015a08:	e3a01001 	mov	r1, #1
80015a0c:	e3480001 	movt	r0, #32769	; 0x8001
80015a10:	eaffffe6 	b	800159b0 <DWHCIDeviceInitialize+0x13c>
80015a14:	e30921f4 	movw	r2, #37364	; 0x91f4
80015a18:	e3090130 	movw	r0, #37168	; 0x9130
80015a1c:	e3482001 	movt	r2, #32769	; 0x8001
80015a20:	e3480001 	movt	r0, #32769	; 0x8001
80015a24:	e3a01002 	mov	r1, #2
80015a28:	e3a04001 	mov	r4, #1
80015a2c:	eaffffdf 	b	800159b0 <DWHCIDeviceInitialize+0x13c>
80015a30:	e30921d0 	movw	r2, #37328	; 0x91d0
80015a34:	e3090130 	movw	r0, #37168	; 0x9130
80015a38:	e3482001 	movt	r2, #32769	; 0x8001
80015a3c:	eafffff7 	b	80015a20 <DWHCIDeviceInitialize+0x1ac>

80015a40 <DWHCIDeviceGetPortSpeed>:
80015a40:	e92d4010 	push	{r4, lr}
80015a44:	e3a01d11 	mov	r1, #1088	; 0x440
80015a48:	e34d1098 	movt	r1, #53400	; 0xd098
80015a4c:	e24dd010 	sub	sp, sp, #16
80015a50:	e28d0004 	add	r0, sp, #4
80015a54:	eb000030 	bl	80015b1c <DWHCIRegister>
80015a58:	e28d0004 	add	r0, sp, #4
80015a5c:	eb000039 	bl	80015b48 <DWHCIRegisterRead>
80015a60:	e7e148d0 	ubfx	r4, r0, #17, #2
80015a64:	e3540003 	cmp	r4, #3
80015a68:	13093130 	movwne	r3, #37168	; 0x9130
80015a6c:	13483001 	movtne	r3, #32769	; 0x8001
80015a70:	10830104 	addne	r0, r3, r4, lsl #2
80015a74:	15904008 	ldrne	r4, [r0, #8]
80015a78:	e28d0004 	add	r0, sp, #4
80015a7c:	eb00002e 	bl	80015b3c <_DWHCIRegister>
80015a80:	e1a00004 	mov	r0, r4
80015a84:	e28dd010 	add	sp, sp, #16
80015a88:	e8bd8010 	pop	{r4, pc}

80015a8c <DWHCIDeviceOvercurrentDetected>:
80015a8c:	e92d4010 	push	{r4, lr}
80015a90:	e3a01d11 	mov	r1, #1088	; 0x440
80015a94:	e34d1098 	movt	r1, #53400	; 0xd098
80015a98:	e24dd010 	sub	sp, sp, #16
80015a9c:	e28d0004 	add	r0, sp, #4
80015aa0:	eb00001d 	bl	80015b1c <DWHCIRegister>
80015aa4:	e28d0004 	add	r0, sp, #4
80015aa8:	eb000026 	bl	80015b48 <DWHCIRegisterRead>
80015aac:	e2104010 	ands	r4, r0, #16
80015ab0:	e28d0004 	add	r0, sp, #4
80015ab4:	1a000003 	bne	80015ac8 <DWHCIDeviceOvercurrentDetected+0x3c>
80015ab8:	eb00001f 	bl	80015b3c <_DWHCIRegister>
80015abc:	e1a00004 	mov	r0, r4
80015ac0:	e28dd010 	add	sp, sp, #16
80015ac4:	e8bd8010 	pop	{r4, pc}
80015ac8:	eb00001b 	bl	80015b3c <_DWHCIRegister>
80015acc:	e3a00001 	mov	r0, #1
80015ad0:	e28dd010 	add	sp, sp, #16
80015ad4:	e8bd8010 	pop	{r4, pc}

80015ad8 <DWHCIDeviceDisableRootPort>:
80015ad8:	e52de004 	push	{lr}		; (str lr, [sp, #-4]!)
80015adc:	e3a01d11 	mov	r1, #1088	; 0x440
80015ae0:	e34d1098 	movt	r1, #53400	; 0xd098
80015ae4:	e24dd014 	sub	sp, sp, #20
80015ae8:	e28d0004 	add	r0, sp, #4
80015aec:	eb00000a 	bl	80015b1c <DWHCIRegister>
80015af0:	e28d0004 	add	r0, sp, #4
80015af4:	eb000013 	bl	80015b48 <DWHCIRegisterRead>
80015af8:	e3e01a01 	mvn	r1, #4096	; 0x1000
80015afc:	e28d0004 	add	r0, sp, #4
80015b00:	eb000026 	bl	80015ba0 <DWHCIRegisterAnd>
80015b04:	e28d0004 	add	r0, sp, #4
80015b08:	eb000015 	bl	80015b64 <DWHCIRegisterWrite>
80015b0c:	e28d0004 	add	r0, sp, #4
80015b10:	eb000009 	bl	80015b3c <_DWHCIRegister>
80015b14:	e28dd014 	add	sp, sp, #20
80015b18:	e49df004 	pop	{pc}		; (ldr pc, [sp], #4)

80015b1c <DWHCIRegister>:
80015b1c:	e5801004 	str	r1, [r0, #4]
80015b20:	e3a03000 	mov	r3, #0
80015b24:	e5803000 	str	r3, [r0]
80015b28:	e12fff1e 	bx	lr

80015b2c <DWHCIRegister2>:
80015b2c:	e3a03001 	mov	r3, #1
80015b30:	e9800006 	stmib	r0, {r1, r2}
80015b34:	e5803000 	str	r3, [r0]
80015b38:	e12fff1e 	bx	lr

80015b3c <_DWHCIRegister>:
80015b3c:	e3a03000 	mov	r3, #0
80015b40:	e5803000 	str	r3, [r0]
80015b44:	e12fff1e 	bx	lr

80015b48 <DWHCIRegisterRead>:
80015b48:	e5901004 	ldr	r1, [r0, #4]
80015b4c:	e1a03000 	mov	r3, r0
80015b50:	e3a02001 	mov	r2, #1
80015b54:	e5910000 	ldr	r0, [r1]
80015b58:	e5832000 	str	r2, [r3]
80015b5c:	e5830008 	str	r0, [r3, #8]
80015b60:	e12fff1e 	bx	lr

80015b64 <DWHCIRegisterWrite>:
80015b64:	e5902008 	ldr	r2, [r0, #8]
80015b68:	e5903004 	ldr	r3, [r0, #4]
80015b6c:	e5832000 	str	r2, [r3]
80015b70:	e12fff1e 	bx	lr

80015b74 <DWHCIRegisterGet>:
80015b74:	e5900008 	ldr	r0, [r0, #8]
80015b78:	e12fff1e 	bx	lr

80015b7c <DWHCIRegisterSet>:
80015b7c:	e5801008 	str	r1, [r0, #8]
80015b80:	e3a03001 	mov	r3, #1
80015b84:	e5803000 	str	r3, [r0]
80015b88:	e12fff1e 	bx	lr

80015b8c <DWHCIRegisterIsSet>:
80015b8c:	e5903008 	ldr	r3, [r0, #8]
80015b90:	e1110003 	tst	r1, r3
80015b94:	13a00001 	movne	r0, #1
80015b98:	03a00000 	moveq	r0, #0
80015b9c:	e12fff1e 	bx	lr

80015ba0 <DWHCIRegisterAnd>:
80015ba0:	e5903008 	ldr	r3, [r0, #8]
80015ba4:	e0011003 	and	r1, r1, r3
80015ba8:	e5801008 	str	r1, [r0, #8]
80015bac:	e12fff1e 	bx	lr

80015bb0 <DWHCIRegisterOr>:
80015bb0:	e5903008 	ldr	r3, [r0, #8]
80015bb4:	e1831001 	orr	r1, r3, r1
80015bb8:	e5801008 	str	r1, [r0, #8]
80015bbc:	e12fff1e 	bx	lr

80015bc0 <DWHCIRegisterClearBit>:
80015bc0:	e5903008 	ldr	r3, [r0, #8]
80015bc4:	e3a02001 	mov	r2, #1
80015bc8:	e1c31112 	bic	r1, r3, r2, lsl r1
80015bcc:	e5801008 	str	r1, [r0, #8]
80015bd0:	e12fff1e 	bx	lr

80015bd4 <DWHCIRegisterSetBit>:
80015bd4:	e5903008 	ldr	r3, [r0, #8]
80015bd8:	e3a02001 	mov	r2, #1
80015bdc:	e1831112 	orr	r1, r3, r2, lsl r1
80015be0:	e5801008 	str	r1, [r0, #8]
80015be4:	e12fff1e 	bx	lr

80015be8 <DWHCIRegisterClearAll>:
80015be8:	e3a03000 	mov	r3, #0
80015bec:	e5803008 	str	r3, [r0, #8]
80015bf0:	e3a03001 	mov	r3, #1
80015bf4:	e5803000 	str	r3, [r0]
80015bf8:	e12fff1e 	bx	lr

80015bfc <DWHCIRegisterSetAll>:
80015bfc:	e3e03000 	mvn	r3, #0
80015c00:	e5803008 	str	r3, [r0, #8]
80015c04:	e3a03001 	mov	r3, #1
80015c08:	e5803000 	str	r3, [r0]
80015c0c:	e12fff1e 	bx	lr

80015c10 <allocproc>:
80015c10:	e92d4070 	push	{r4, r5, r6, lr}
80015c14:	e30d0ec0 	movw	r0, #57024	; 0xdec0
80015c18:	e59f40d4 	ldr	r4, [pc, #212]	; 80015cf4 <allocproc+0xe4>
80015c1c:	e3480009 	movt	r0, #32777	; 0x8009
80015c20:	ebffda53 	bl	8000c574 <acquire>
80015c24:	e2843c1f 	add	r3, r4, #7936	; 0x1f00
80015c28:	ea000002 	b	80015c38 <allocproc+0x28>
80015c2c:	e284407c 	add	r4, r4, #124	; 0x7c
80015c30:	e1540003 	cmp	r4, r3
80015c34:	2a000028 	bcs	80015cdc <allocproc+0xcc>
80015c38:	e594500c 	ldr	r5, [r4, #12]
80015c3c:	e3550000 	cmp	r5, #0
80015c40:	1afffff9 	bne	80015c2c <allocproc+0x1c>
80015c44:	e30a38d4 	movw	r3, #43220	; 0xa8d4
80015c48:	e3a02001 	mov	r2, #1
80015c4c:	e3483009 	movt	r3, #32777	; 0x8009
80015c50:	e30d0ec0 	movw	r0, #57024	; 0xdec0
80015c54:	e584200c 	str	r2, [r4, #12]
80015c58:	e5932000 	ldr	r2, [r3]
80015c5c:	e3480009 	movt	r0, #32777	; 0x8009
80015c60:	e5842010 	str	r2, [r4, #16]
80015c64:	e2822001 	add	r2, r2, #1
80015c68:	e5832000 	str	r2, [r3]
80015c6c:	ebffda76 	bl	8000c64c <release>
80015c70:	ebfff872 	bl	80013e40 <kalloc>
80015c74:	e5840008 	str	r0, [r4, #8]
80015c78:	e3500000 	cmp	r0, #0
80015c7c:	0584000c 	streq	r0, [r4, #12]
80015c80:	01a04000 	moveq	r4, r0
80015c84:	0a000012 	beq	80015cd4 <allocproc+0xc4>
80015c88:	e3a02a01 	mov	r2, #4096	; 0x1000
80015c8c:	e1a01005 	mov	r1, r5
80015c90:	ebfff290 	bl	800126d8 <memset>
80015c94:	e5940008 	ldr	r0, [r4, #8]
80015c98:	e1a01005 	mov	r1, r5
80015c9c:	e3a0202c 	mov	r2, #44	; 0x2c
80015ca0:	e2803efa 	add	r3, r0, #4000	; 0xfa0
80015ca4:	e2800d3e 	add	r0, r0, #3968	; 0xf80
80015ca8:	e584001c 	str	r0, [r4, #28]
80015cac:	e283300c 	add	r3, r3, #12
80015cb0:	e5843018 	str	r3, [r4, #24]
80015cb4:	ebfff287 	bl	800126d8 <memset>
80015cb8:	e594101c 	ldr	r1, [r4, #28]
80015cbc:	e3052cf8 	movw	r2, #23800	; 0x5cf8
80015cc0:	e3482001 	movt	r2, #32769	; 0x8001
80015cc4:	e3083338 	movw	r3, #33592	; 0x8338
80015cc8:	e3483000 	movt	r3, #32768	; 0x8000
80015ccc:	e5812028 	str	r2, [r1, #40]	; 0x28
80015cd0:	e5813024 	str	r3, [r1, #36]	; 0x24
80015cd4:	e1a00004 	mov	r0, r4
80015cd8:	e8bd8070 	pop	{r4, r5, r6, pc}
80015cdc:	e30d0ec0 	movw	r0, #57024	; 0xdec0
80015ce0:	e3a04000 	mov	r4, #0
80015ce4:	e3480009 	movt	r0, #32777	; 0x8009
80015ce8:	ebffda57 	bl	8000c64c <release>
80015cec:	e1a00004 	mov	r0, r4
80015cf0:	e8bd8070 	pop	{r4, r5, r6, pc}
80015cf4:	8009def4 	.word	0x8009def4

80015cf8 <forkret>:
80015cf8:	e30d0ec0 	movw	r0, #57024	; 0xdec0
80015cfc:	e92d4010 	push	{r4, lr}
80015d00:	e3480009 	movt	r0, #32777	; 0x8009
80015d04:	ebffda50 	bl	8000c64c <release>
80015d08:	e30a38d4 	movw	r3, #43220	; 0xa8d4
80015d0c:	e3483009 	movt	r3, #32777	; 0x8009
80015d10:	e5932004 	ldr	r2, [r3, #4]
80015d14:	e3520000 	cmp	r2, #0
80015d18:	08bd8010 	popeq	{r4, pc}
80015d1c:	e3a02000 	mov	r2, #0
80015d20:	e8bd4010 	pop	{r4, lr}
80015d24:	e5832004 	str	r2, [r3, #4]
80015d28:	eaffea3d 	b	80010624 <initlog>

80015d2c <pinit>:
80015d2c:	e92d4010 	push	{r4, lr}
80015d30:	e30d4ec0 	movw	r4, #57024	; 0xdec0
80015d34:	e3484009 	movt	r4, #32777	; 0x8009
80015d38:	e3a01000 	mov	r1, #0
80015d3c:	e1a00004 	mov	r0, r4
80015d40:	e3012f34 	movw	r2, #7988	; 0x1f34
80015d44:	ebfff263 	bl	800126d8 <memset>
80015d48:	e3091210 	movw	r1, #37392	; 0x9210
80015d4c:	e1a00004 	mov	r0, r4
80015d50:	e3481001 	movt	r1, #32769	; 0x8001
80015d54:	e8bd4010 	pop	{r4, lr}
80015d58:	eaffd9e7 	b	8000c4fc <initlock>

80015d5c <userinit>:
80015d5c:	e92d4070 	push	{r4, r5, r6, lr}
80015d60:	e30a2850 	movw	r2, #43088	; 0xa850
80015d64:	e3482001 	movt	r2, #32769	; 0x8001
80015d68:	e30a6800 	movw	r6, #43008	; 0xa800
80015d6c:	e3486001 	movt	r6, #32769	; 0x8001
80015d70:	e0425006 	sub	r5, r2, r6
80015d74:	ebffffa5 	bl	80015c10 <allocproc>
80015d78:	e30a3af0 	movw	r3, #43760	; 0xaaf0
80015d7c:	e1a04000 	mov	r4, r0
80015d80:	e3483009 	movt	r3, #32777	; 0x8009
80015d84:	e5830000 	str	r0, [r3]
80015d88:	ebffdd41 	bl	8000d294 <setupkvm>
80015d8c:	e5840004 	str	r0, [r4, #4]
80015d90:	e3500000 	cmp	r0, #0
80015d94:	0a000019 	beq	80015e00 <userinit+0xa4>
80015d98:	e1a02005 	mov	r2, r5
80015d9c:	e1a01006 	mov	r1, r6
80015da0:	e3a05a01 	mov	r5, #4096	; 0x1000
80015da4:	ebffdd90 	bl	8000d3ec <inituvm>
80015da8:	e5845000 	str	r5, [r4]
80015dac:	e3a02054 	mov	r2, #84	; 0x54
80015db0:	e5940018 	ldr	r0, [r4, #24]
80015db4:	e3a01000 	mov	r1, #0
80015db8:	ebfff246 	bl	800126d8 <memset>
80015dbc:	e5943018 	ldr	r3, [r4, #24]
80015dc0:	e3a01000 	mov	r1, #0
80015dc4:	e3a02010 	mov	r2, #16
80015dc8:	e284006c 	add	r0, r4, #108	; 0x6c
80015dcc:	e5831050 	str	r1, [r3, #80]	; 0x50
80015dd0:	e3091234 	movw	r1, #37428	; 0x9234
80015dd4:	e5835000 	str	r5, [r3]
80015dd8:	e583204c 	str	r2, [r3, #76]	; 0x4c
80015ddc:	e3481001 	movt	r1, #32769	; 0x8001
80015de0:	ebfff2b4 	bl	800128b8 <safestrcpy>
80015de4:	e30809c8 	movw	r0, #35272	; 0x89c8
80015de8:	e3480001 	movt	r0, #32769	; 0x8001
80015dec:	ebffd70e 	bl	8000ba2c <namei>
80015df0:	e5840068 	str	r0, [r4, #104]	; 0x68
80015df4:	e3a03003 	mov	r3, #3
80015df8:	e584300c 	str	r3, [r4, #12]
80015dfc:	e8bd8070 	pop	{r4, r5, r6, pc}
80015e00:	e3090218 	movw	r0, #37400	; 0x9218
80015e04:	e3480001 	movt	r0, #32769	; 0x8001
80015e08:	ebffd87d 	bl	8000c004 <panic>

80015e0c <growproc>:
80015e0c:	e92d4010 	push	{r4, lr}
80015e10:	e30a4af4 	movw	r4, #43764	; 0xaaf4
80015e14:	e3484009 	movt	r4, #32777	; 0x8009
80015e18:	e2502000 	subs	r2, r0, #0
80015e1c:	e5940018 	ldr	r0, [r4, #24]
80015e20:	e5901000 	ldr	r1, [r0]
80015e24:	da000009 	ble	80015e50 <growproc+0x44>
80015e28:	e0822001 	add	r2, r2, r1
80015e2c:	e5900004 	ldr	r0, [r0, #4]
80015e30:	ebffddc4 	bl	8000d548 <allocuvm>
80015e34:	e2501000 	subs	r1, r0, #0
80015e38:	0a00000a 	beq	80015e68 <growproc+0x5c>
80015e3c:	e5940018 	ldr	r0, [r4, #24]
80015e40:	e5801000 	str	r1, [r0]
80015e44:	ebffdd56 	bl	8000d3a4 <switchuvm>
80015e48:	e3a00000 	mov	r0, #0
80015e4c:	e8bd8010 	pop	{r4, pc}
80015e50:	0afffffa 	beq	80015e40 <growproc+0x34>
80015e54:	e0822001 	add	r2, r2, r1
80015e58:	e5900004 	ldr	r0, [r0, #4]
80015e5c:	ebffddf6 	bl	8000d63c <deallocuvm>
80015e60:	e2501000 	subs	r1, r0, #0
80015e64:	1afffff4 	bne	80015e3c <growproc+0x30>
80015e68:	e3e00000 	mvn	r0, #0
80015e6c:	e8bd8010 	pop	{r4, pc}

80015e70 <fork>:
80015e70:	e92d41f0 	push	{r4, r5, r6, r7, r8, lr}
80015e74:	ebffff65 	bl	80015c10 <allocproc>
80015e78:	e2507000 	subs	r7, r0, #0
80015e7c:	0a00002d 	beq	80015f38 <fork+0xc8>
80015e80:	e30a6af4 	movw	r6, #43764	; 0xaaf4
80015e84:	e3486009 	movt	r6, #32777	; 0x8009
80015e88:	e5963018 	ldr	r3, [r6, #24]
80015e8c:	e5931000 	ldr	r1, [r3]
80015e90:	e5930004 	ldr	r0, [r3, #4]
80015e94:	ebffde16 	bl	8000d6f4 <copyuvm>
80015e98:	e5870004 	str	r0, [r7, #4]
80015e9c:	e3500000 	cmp	r0, #0
80015ea0:	e1a04000 	mov	r4, r0
80015ea4:	0a000025 	beq	80015f40 <fork+0xd0>
80015ea8:	e5968018 	ldr	r8, [r6, #24]
80015eac:	e3a02054 	mov	r2, #84	; 0x54
80015eb0:	e5973018 	ldr	r3, [r7, #24]
80015eb4:	e2875028 	add	r5, r7, #40	; 0x28
80015eb8:	e5980000 	ldr	r0, [r8]
80015ebc:	e3a04000 	mov	r4, #0
80015ec0:	e5981018 	ldr	r1, [r8, #24]
80015ec4:	e5870000 	str	r0, [r7]
80015ec8:	e1a00003 	mov	r0, r3
80015ecc:	e5878014 	str	r8, [r7, #20]
80015ed0:	ebfff246 	bl	800127f0 <memcpy>
80015ed4:	e5804004 	str	r4, [r0, #4]
80015ed8:	e284300a 	add	r3, r4, #10
80015edc:	e2844001 	add	r4, r4, #1
80015ee0:	e7983103 	ldr	r3, [r8, r3, lsl #2]
80015ee4:	e2530000 	subs	r0, r3, #0
80015ee8:	0a000002 	beq	80015ef8 <fork+0x88>
80015eec:	ebffef18 	bl	80011b54 <filedup>
80015ef0:	e5968018 	ldr	r8, [r6, #24]
80015ef4:	e5850000 	str	r0, [r5]
80015ef8:	e3540010 	cmp	r4, #16
80015efc:	e2855004 	add	r5, r5, #4
80015f00:	1afffff4 	bne	80015ed8 <fork+0x68>
80015f04:	e5980068 	ldr	r0, [r8, #104]	; 0x68
80015f08:	ebffd4a2 	bl	8000b198 <idup>
80015f0c:	e5961018 	ldr	r1, [r6, #24]
80015f10:	e3a03003 	mov	r3, #3
80015f14:	e5870068 	str	r0, [r7, #104]	; 0x68
80015f18:	e1a02004 	mov	r2, r4
80015f1c:	e587300c 	str	r3, [r7, #12]
80015f20:	e281106c 	add	r1, r1, #108	; 0x6c
80015f24:	e5975010 	ldr	r5, [r7, #16]
80015f28:	e287006c 	add	r0, r7, #108	; 0x6c
80015f2c:	ebfff261 	bl	800128b8 <safestrcpy>
80015f30:	e1a00005 	mov	r0, r5
80015f34:	e8bd81f0 	pop	{r4, r5, r6, r7, r8, pc}
80015f38:	e3e05000 	mvn	r5, #0
80015f3c:	eafffffb 	b	80015f30 <fork+0xc0>
80015f40:	e5970008 	ldr	r0, [r7, #8]
80015f44:	e3e05000 	mvn	r5, #0
80015f48:	ebfff758 	bl	80013cb0 <kfree>
80015f4c:	e5874008 	str	r4, [r7, #8]
80015f50:	e587400c 	str	r4, [r7, #12]
80015f54:	eafffff5 	b	80015f30 <fork+0xc0>

80015f58 <scheduler>:
80015f58:	e30aa8d4 	movw	sl, #43220	; 0xa8d4
80015f5c:	e30a5af4 	movw	r5, #43764	; 0xaaf4
80015f60:	e348a009 	movt	sl, #32777	; 0x8009
80015f64:	e30d9ec0 	movw	r9, #57024	; 0xdec0
80015f68:	e3485009 	movt	r5, #32777	; 0x8009
80015f6c:	e3a08000 	mov	r8, #0
80015f70:	e59a3008 	ldr	r3, [sl, #8]
80015f74:	e92d4890 	push	{r4, r7, fp, lr}
80015f78:	e3530000 	cmp	r3, #0
80015f7c:	e59fb08c 	ldr	fp, [pc, #140]	; 80016010 <scheduler+0xb8>
80015f80:	e3489009 	movt	r9, #32777	; 0x8009
80015f84:	158a8008 	strne	r8, [sl, #8]
80015f88:	0a00001e 	beq	80016008 <scheduler+0xb0>
80015f8c:	e59f4080 	ldr	r4, [pc, #128]	; 80016014 <scheduler+0xbc>
80015f90:	e1a00009 	mov	r0, r9
80015f94:	e59f707c 	ldr	r7, [pc, #124]	; 80016018 <scheduler+0xc0>
80015f98:	e3a06004 	mov	r6, #4
80015f9c:	ebffd974 	bl	8000c574 <acquire>
80015fa0:	ea000002 	b	80015fb0 <scheduler+0x58>
80015fa4:	e284407c 	add	r4, r4, #124	; 0x7c
80015fa8:	e154000b 	cmp	r4, fp
80015fac:	2a00000f 	bcs	80015ff0 <scheduler+0x98>
80015fb0:	e594300c 	ldr	r3, [r4, #12]
80015fb4:	e3530003 	cmp	r3, #3
80015fb8:	1afffff9 	bne	80015fa4 <scheduler+0x4c>
80015fbc:	e5854018 	str	r4, [r5, #24]
80015fc0:	e1a00004 	mov	r0, r4
80015fc4:	e284407c 	add	r4, r4, #124	; 0x7c
80015fc8:	ebffdcf5 	bl	8000d3a4 <switchuvm>
80015fcc:	e5953018 	ldr	r3, [r5, #24]
80015fd0:	e1a00007 	mov	r0, r7
80015fd4:	e5046070 	str	r6, [r4, #-112]	; 0xffffff90
80015fd8:	e593101c 	ldr	r1, [r3, #28]
80015fdc:	ebffc938 	bl	800084c4 <swtch>
80015fe0:	ebffdce3 	bl	8000d374 <switchkvm>
80015fe4:	e154000b 	cmp	r4, fp
80015fe8:	e5858018 	str	r8, [r5, #24]
80015fec:	3affffef 	bcc	80015fb0 <scheduler+0x58>
80015ff0:	e1a00009 	mov	r0, r9
80015ff4:	ebffd994 	bl	8000c64c <release>
80015ff8:	e59a3008 	ldr	r3, [sl, #8]
80015ffc:	e3530000 	cmp	r3, #0
80016000:	158a8008 	strne	r8, [sl, #8]
80016004:	1affffe0 	bne	80015f8c <scheduler+0x34>
80016008:	ebffc929 	bl	800084b4 <sti>
8001600c:	eaffffde 	b	80015f8c <scheduler+0x34>
80016010:	8009fdf4 	.word	0x8009fdf4
80016014:	8009def4 	.word	0x8009def4
80016018:	8009aaf8 	.word	0x8009aaf8

8001601c <sched>:
8001601c:	e30d0ec0 	movw	r0, #57024	; 0xdec0
80016020:	e92d4070 	push	{r4, r5, r6, lr}
80016024:	e3480009 	movt	r0, #32777	; 0x8009
80016028:	ebffd939 	bl	8000c514 <holding>
8001602c:	e3500000 	cmp	r0, #0
80016030:	0a000012 	beq	80016080 <sched+0x64>
80016034:	e30a4af4 	movw	r4, #43764	; 0xaaf4
80016038:	e3484009 	movt	r4, #32777	; 0x8009
8001603c:	e594300c 	ldr	r3, [r4, #12]
80016040:	e3530001 	cmp	r3, #1
80016044:	1a000016 	bne	800160a4 <sched+0x88>
80016048:	e5943018 	ldr	r3, [r4, #24]
8001604c:	e593300c 	ldr	r3, [r3, #12]
80016050:	e3530004 	cmp	r3, #4
80016054:	0a00000f 	beq	80016098 <sched+0x7c>
80016058:	ebffc90f 	bl	8000849c <readcpsr>
8001605c:	e3100080 	tst	r0, #128	; 0x80
80016060:	0a000009 	beq	8001608c <sched+0x70>
80016064:	e5940018 	ldr	r0, [r4, #24]
80016068:	e5945010 	ldr	r5, [r4, #16]
8001606c:	e5941004 	ldr	r1, [r4, #4]
80016070:	e280001c 	add	r0, r0, #28
80016074:	ebffc912 	bl	800084c4 <swtch>
80016078:	e5845010 	str	r5, [r4, #16]
8001607c:	e8bd8070 	pop	{r4, r5, r6, pc}
80016080:	e3090240 	movw	r0, #37440	; 0x9240
80016084:	e3480001 	movt	r0, #32769	; 0x8001
80016088:	ebffd7dd 	bl	8000c004 <panic>
8001608c:	e3090270 	movw	r0, #37488	; 0x9270
80016090:	e3480001 	movt	r0, #32769	; 0x8001
80016094:	ebffd7da 	bl	8000c004 <panic>
80016098:	e3090260 	movw	r0, #37472	; 0x9260
8001609c:	e3480001 	movt	r0, #32769	; 0x8001
800160a0:	ebffd7d7 	bl	8000c004 <panic>
800160a4:	e3090254 	movw	r0, #37460	; 0x9254
800160a8:	e3480001 	movt	r0, #32769	; 0x8001
800160ac:	ebffd7d4 	bl	8000c004 <panic>

800160b0 <exit>:
800160b0:	e92d41f0 	push	{r4, r5, r6, r7, r8, lr}
800160b4:	e30a7af4 	movw	r7, #43764	; 0xaaf4
800160b8:	e3487009 	movt	r7, #32777	; 0x8009
800160bc:	e30a6af0 	movw	r6, #43760	; 0xaaf0
800160c0:	e3486009 	movt	r6, #32777	; 0x8009
800160c4:	e5973018 	ldr	r3, [r7, #24]
800160c8:	e5962000 	ldr	r2, [r6]
800160cc:	e1530002 	cmp	r3, r2
800160d0:	13a04000 	movne	r4, #0
800160d4:	11a08004 	movne	r8, r4
800160d8:	0a000043 	beq	800161ec <exit+0x13c>
800160dc:	e284500a 	add	r5, r4, #10
800160e0:	e7930105 	ldr	r0, [r3, r5, lsl #2]
800160e4:	e3500000 	cmp	r0, #0
800160e8:	0a000002 	beq	800160f8 <exit+0x48>
800160ec:	ebffeeaa 	bl	80011b9c <fileclose>
800160f0:	e5973018 	ldr	r3, [r7, #24]
800160f4:	e7838105 	str	r8, [r3, r5, lsl #2]
800160f8:	e2844001 	add	r4, r4, #1
800160fc:	e3540010 	cmp	r4, #16
80016100:	1afffff5 	bne	800160dc <exit+0x2c>
80016104:	e5930068 	ldr	r0, [r3, #104]	; 0x68
80016108:	ebffd489 	bl	8000b334 <iput>
8001610c:	e5973018 	ldr	r3, [r7, #24]
80016110:	e3a02000 	mov	r2, #0
80016114:	e30d0ec0 	movw	r0, #57024	; 0xdec0
80016118:	e5832068 	str	r2, [r3, #104]	; 0x68
8001611c:	e3480009 	movt	r0, #32777	; 0x8009
80016120:	ebffd913 	bl	8000c574 <acquire>
80016124:	e597c018 	ldr	ip, [r7, #24]
80016128:	e3a0e003 	mov	lr, #3
8001612c:	e59f30c4 	ldr	r3, [pc, #196]	; 800161f8 <exit+0x148>
80016130:	e59c0014 	ldr	r0, [ip, #20]
80016134:	e2831c1f 	add	r1, r3, #7936	; 0x1f00
80016138:	ea000002 	b	80016148 <exit+0x98>
8001613c:	e283307c 	add	r3, r3, #124	; 0x7c
80016140:	e1530001 	cmp	r3, r1
80016144:	2a000008 	bcs	8001616c <exit+0xbc>
80016148:	e593200c 	ldr	r2, [r3, #12]
8001614c:	e3520002 	cmp	r2, #2
80016150:	1afffff9 	bne	8001613c <exit+0x8c>
80016154:	e5932020 	ldr	r2, [r3, #32]
80016158:	e283307c 	add	r3, r3, #124	; 0x7c
8001615c:	e1500002 	cmp	r0, r2
80016160:	0503e070 	streq	lr, [r3, #-112]	; 0xffffff90
80016164:	e1530001 	cmp	r3, r1
80016168:	3afffff6 	bcc	80016148 <exit+0x98>
8001616c:	e596e000 	ldr	lr, [r6]
80016170:	e3a04003 	mov	r4, #3
80016174:	e59f007c 	ldr	r0, [pc, #124]	; 800161f8 <exit+0x148>
80016178:	ea000002 	b	80016188 <exit+0xd8>
8001617c:	e280007c 	add	r0, r0, #124	; 0x7c
80016180:	e1500001 	cmp	r0, r1
80016184:	2a000012 	bcs	800161d4 <exit+0x124>
80016188:	e5903014 	ldr	r3, [r0, #20]
8001618c:	e15c0003 	cmp	ip, r3
80016190:	1afffff9 	bne	8001617c <exit+0xcc>
80016194:	e590300c 	ldr	r3, [r0, #12]
80016198:	e580e014 	str	lr, [r0, #20]
8001619c:	e3530005 	cmp	r3, #5
800161a0:	1afffff5 	bne	8001617c <exit+0xcc>
800161a4:	e59f304c 	ldr	r3, [pc, #76]	; 800161f8 <exit+0x148>
800161a8:	ea000002 	b	800161b8 <exit+0x108>
800161ac:	e283307c 	add	r3, r3, #124	; 0x7c
800161b0:	e1530001 	cmp	r3, r1
800161b4:	2afffff0 	bcs	8001617c <exit+0xcc>
800161b8:	e593200c 	ldr	r2, [r3, #12]
800161bc:	e3520002 	cmp	r2, #2
800161c0:	1afffff9 	bne	800161ac <exit+0xfc>
800161c4:	e5932020 	ldr	r2, [r3, #32]
800161c8:	e15e0002 	cmp	lr, r2
800161cc:	0583400c 	streq	r4, [r3, #12]
800161d0:	eafffff5 	b	800161ac <exit+0xfc>
800161d4:	e3a03005 	mov	r3, #5
800161d8:	e58c300c 	str	r3, [ip, #12]
800161dc:	ebffff8e 	bl	8001601c <sched>
800161e0:	e3090294 	movw	r0, #37524	; 0x9294
800161e4:	e3480001 	movt	r0, #32769	; 0x8001
800161e8:	ebffd785 	bl	8000c004 <panic>
800161ec:	e3090284 	movw	r0, #37508	; 0x9284
800161f0:	e3480001 	movt	r0, #32769	; 0x8001
800161f4:	ebffd782 	bl	8000c004 <panic>
800161f8:	8009def4 	.word	0x8009def4

800161fc <yield>:
800161fc:	e92d4010 	push	{r4, lr}
80016200:	e30d4ec0 	movw	r4, #57024	; 0xdec0
80016204:	e3484009 	movt	r4, #32777	; 0x8009
80016208:	e1a00004 	mov	r0, r4
8001620c:	ebffd8d8 	bl	8000c574 <acquire>
80016210:	e30a3af4 	movw	r3, #43764	; 0xaaf4
80016214:	e3a02003 	mov	r2, #3
80016218:	e3483009 	movt	r3, #32777	; 0x8009
8001621c:	e5933018 	ldr	r3, [r3, #24]
80016220:	e583200c 	str	r2, [r3, #12]
80016224:	ebffff7c 	bl	8001601c <sched>
80016228:	e1a00004 	mov	r0, r4
8001622c:	e8bd4010 	pop	{r4, lr}
80016230:	eaffd905 	b	8000c64c <release>

80016234 <sleep>:
80016234:	e92d41f0 	push	{r4, r5, r6, r7, r8, lr}
80016238:	e30a4af4 	movw	r4, #43764	; 0xaaf4
8001623c:	e3484009 	movt	r4, #32777	; 0x8009
80016240:	e5943018 	ldr	r3, [r4, #24]
80016244:	e3530000 	cmp	r3, #0
80016248:	0a000023 	beq	800162dc <sleep+0xa8>
8001624c:	e3510000 	cmp	r1, #0
80016250:	e1a06001 	mov	r6, r1
80016254:	0a00001d 	beq	800162d0 <sleep+0x9c>
80016258:	e30d5ec0 	movw	r5, #57024	; 0xdec0
8001625c:	e1a07000 	mov	r7, r0
80016260:	e3485009 	movt	r5, #32777	; 0x8009
80016264:	e1510005 	cmp	r1, r5
80016268:	0a000010 	beq	800162b0 <sleep+0x7c>
8001626c:	e1a00005 	mov	r0, r5
80016270:	ebffd8bf 	bl	8000c574 <acquire>
80016274:	e1a00006 	mov	r0, r6
80016278:	ebffd8f3 	bl	8000c64c <release>
8001627c:	e5943018 	ldr	r3, [r4, #24]
80016280:	e3a02002 	mov	r2, #2
80016284:	e5837020 	str	r7, [r3, #32]
80016288:	e583200c 	str	r2, [r3, #12]
8001628c:	ebffff62 	bl	8001601c <sched>
80016290:	e5943018 	ldr	r3, [r4, #24]
80016294:	e3a02000 	mov	r2, #0
80016298:	e1a00005 	mov	r0, r5
8001629c:	e5832020 	str	r2, [r3, #32]
800162a0:	ebffd8e9 	bl	8000c64c <release>
800162a4:	e1a00006 	mov	r0, r6
800162a8:	e8bd41f0 	pop	{r4, r5, r6, r7, r8, lr}
800162ac:	eaffd8b0 	b	8000c574 <acquire>
800162b0:	e5830020 	str	r0, [r3, #32]
800162b4:	e3a02002 	mov	r2, #2
800162b8:	e583200c 	str	r2, [r3, #12]
800162bc:	ebffff56 	bl	8001601c <sched>
800162c0:	e5943018 	ldr	r3, [r4, #24]
800162c4:	e3a02000 	mov	r2, #0
800162c8:	e5832020 	str	r2, [r3, #32]
800162cc:	e8bd81f0 	pop	{r4, r5, r6, r7, r8, pc}
800162d0:	e30902a8 	movw	r0, #37544	; 0x92a8
800162d4:	e3480001 	movt	r0, #32769	; 0x8001
800162d8:	ebffd749 	bl	8000c004 <panic>
800162dc:	e30902a0 	movw	r0, #37536	; 0x92a0
800162e0:	e3480001 	movt	r0, #32769	; 0x8001
800162e4:	ebffd746 	bl	8000c004 <panic>

800162e8 <wait>:
800162e8:	e30d0ec0 	movw	r0, #57024	; 0xdec0
800162ec:	e92d4070 	push	{r4, r5, r6, lr}
800162f0:	e30a6af4 	movw	r6, #43764	; 0xaaf4
800162f4:	e3480009 	movt	r0, #32777	; 0x8009
800162f8:	e59f50bc 	ldr	r5, [pc, #188]	; 800163bc <wait+0xd4>
800162fc:	e3486009 	movt	r6, #32777	; 0x8009
80016300:	ebffd89b 	bl	8000c574 <acquire>
80016304:	e5960018 	ldr	r0, [r6, #24]
80016308:	e3a02000 	mov	r2, #0
8001630c:	e59f40ac 	ldr	r4, [pc, #172]	; 800163c0 <wait+0xd8>
80016310:	ea000002 	b	80016320 <wait+0x38>
80016314:	e284407c 	add	r4, r4, #124	; 0x7c
80016318:	e1540005 	cmp	r4, r5
8001631c:	2a000017 	bcs	80016380 <wait+0x98>
80016320:	e5943014 	ldr	r3, [r4, #20]
80016324:	e1500003 	cmp	r0, r3
80016328:	1afffff9 	bne	80016314 <wait+0x2c>
8001632c:	e594300c 	ldr	r3, [r4, #12]
80016330:	e3a02001 	mov	r2, #1
80016334:	e3530005 	cmp	r3, #5
80016338:	1afffff5 	bne	80016314 <wait+0x2c>
8001633c:	e5940008 	ldr	r0, [r4, #8]
80016340:	e3a05000 	mov	r5, #0
80016344:	e5946010 	ldr	r6, [r4, #16]
80016348:	ebfff658 	bl	80013cb0 <kfree>
8001634c:	e5940004 	ldr	r0, [r4, #4]
80016350:	e5845008 	str	r5, [r4, #8]
80016354:	ebffdcbd 	bl	8000d650 <freevm>
80016358:	e584500c 	str	r5, [r4, #12]
8001635c:	e30d0ec0 	movw	r0, #57024	; 0xdec0
80016360:	e3480009 	movt	r0, #32777	; 0x8009
80016364:	e5845010 	str	r5, [r4, #16]
80016368:	e5845014 	str	r5, [r4, #20]
8001636c:	e5c4506c 	strb	r5, [r4, #108]	; 0x6c
80016370:	e5845024 	str	r5, [r4, #36]	; 0x24
80016374:	ebffd8b4 	bl	8000c64c <release>
80016378:	e1a00006 	mov	r0, r6
8001637c:	e8bd8070 	pop	{r4, r5, r6, pc}
80016380:	e3520000 	cmp	r2, #0
80016384:	0a000006 	beq	800163a4 <wait+0xbc>
80016388:	e5903024 	ldr	r3, [r0, #36]	; 0x24
8001638c:	e3530000 	cmp	r3, #0
80016390:	1a000003 	bne	800163a4 <wait+0xbc>
80016394:	e30d1ec0 	movw	r1, #57024	; 0xdec0
80016398:	e3481009 	movt	r1, #32777	; 0x8009
8001639c:	ebffffa4 	bl	80016234 <sleep>
800163a0:	eaffffd7 	b	80016304 <wait+0x1c>
800163a4:	e30d0ec0 	movw	r0, #57024	; 0xdec0
800163a8:	e3e06000 	mvn	r6, #0
800163ac:	e3480009 	movt	r0, #32777	; 0x8009
800163b0:	ebffd8a5 	bl	8000c64c <release>
800163b4:	e1a00006 	mov	r0, r6
800163b8:	e8bd8070 	pop	{r4, r5, r6, pc}
800163bc:	8009fdf4 	.word	0x8009fdf4
800163c0:	8009def4 	.word	0x8009def4

800163c4 <wakeup>:
800163c4:	e92d4010 	push	{r4, lr}
800163c8:	e1a04000 	mov	r4, r0
800163cc:	e30d0ec0 	movw	r0, #57024	; 0xdec0
800163d0:	e3480009 	movt	r0, #32777	; 0x8009
800163d4:	ebffd866 	bl	8000c574 <acquire>
800163d8:	e59f3048 	ldr	r3, [pc, #72]	; 80016428 <wakeup+0x64>
800163dc:	e3a00003 	mov	r0, #3
800163e0:	e2831c1f 	add	r1, r3, #7936	; 0x1f00
800163e4:	ea000002 	b	800163f4 <wakeup+0x30>
800163e8:	e283307c 	add	r3, r3, #124	; 0x7c
800163ec:	e1530001 	cmp	r3, r1
800163f0:	2a000008 	bcs	80016418 <wakeup+0x54>
800163f4:	e593200c 	ldr	r2, [r3, #12]
800163f8:	e3520002 	cmp	r2, #2
800163fc:	1afffff9 	bne	800163e8 <wakeup+0x24>
80016400:	e5932020 	ldr	r2, [r3, #32]
80016404:	e283307c 	add	r3, r3, #124	; 0x7c
80016408:	e1540002 	cmp	r4, r2
8001640c:	05030070 	streq	r0, [r3, #-112]	; 0xffffff90
80016410:	e1530001 	cmp	r3, r1
80016414:	3afffff6 	bcc	800163f4 <wakeup+0x30>
80016418:	e30d0ec0 	movw	r0, #57024	; 0xdec0
8001641c:	e3480009 	movt	r0, #32777	; 0x8009
80016420:	e8bd4010 	pop	{r4, lr}
80016424:	eaffd888 	b	8000c64c <release>
80016428:	8009def4 	.word	0x8009def4

8001642c <kill>:
8001642c:	e92d4010 	push	{r4, lr}
80016430:	e1a04000 	mov	r4, r0
80016434:	e30d0ec0 	movw	r0, #57024	; 0xdec0
80016438:	e3480009 	movt	r0, #32777	; 0x8009
8001643c:	ebffd84c 	bl	8000c574 <acquire>
80016440:	e59f305c 	ldr	r3, [pc, #92]	; 800164a4 <kill+0x78>
80016444:	e2831c1f 	add	r1, r3, #7936	; 0x1f00
80016448:	ea000002 	b	80016458 <kill+0x2c>
8001644c:	e283307c 	add	r3, r3, #124	; 0x7c
80016450:	e1530001 	cmp	r3, r1
80016454:	2a00000d 	bcs	80016490 <kill+0x64>
80016458:	e5932010 	ldr	r2, [r3, #16]
8001645c:	e1520004 	cmp	r2, r4
80016460:	1afffff9 	bne	8001644c <kill+0x20>
80016464:	e593200c 	ldr	r2, [r3, #12]
80016468:	e3a01001 	mov	r1, #1
8001646c:	e5831024 	str	r1, [r3, #36]	; 0x24
80016470:	e30d0ec0 	movw	r0, #57024	; 0xdec0
80016474:	e3480009 	movt	r0, #32777	; 0x8009
80016478:	e3520002 	cmp	r2, #2
8001647c:	03a02003 	moveq	r2, #3
80016480:	0583200c 	streq	r2, [r3, #12]
80016484:	ebffd870 	bl	8000c64c <release>
80016488:	e3a00000 	mov	r0, #0
8001648c:	e8bd8010 	pop	{r4, pc}
80016490:	e30d0ec0 	movw	r0, #57024	; 0xdec0
80016494:	e3480009 	movt	r0, #32777	; 0x8009
80016498:	ebffd86b 	bl	8000c64c <release>
8001649c:	e3e00000 	mvn	r0, #0
800164a0:	e8bd8010 	pop	{r4, pc}
800164a4:	8009def4 	.word	0x8009def4

800164a8 <procdump>:
800164a8:	e12fff1e 	bx	lr

800164ac <USBKeyboardDeviceStartRequest>:
800164ac:	e92d4030 	push	{r4, r5, lr}
800164b0:	e1a04000 	mov	r4, r0
800164b4:	e24dd00c 	sub	sp, sp, #12
800164b8:	e3a00024 	mov	r0, #36	; 0x24
800164bc:	e3a05000 	mov	r5, #0
800164c0:	ebffef64 	bl	80012258 <malloc>
800164c4:	e5840054 	str	r0, [r4, #84]	; 0x54
800164c8:	e3a03008 	mov	r3, #8
800164cc:	e5942058 	ldr	r2, [r4, #88]	; 0x58
800164d0:	e5941040 	ldr	r1, [r4, #64]	; 0x40
800164d4:	e58d5000 	str	r5, [sp]
800164d8:	ebfff1e5 	bl	80012c74 <USBRequest>
800164dc:	e5940054 	ldr	r0, [r4, #84]	; 0x54
800164e0:	e306178c 	movw	r1, #26508	; 0x678c
800164e4:	e3481001 	movt	r1, #32769	; 0x8001
800164e8:	e1a03004 	mov	r3, r4
800164ec:	e1a02005 	mov	r2, r5
800164f0:	ebfff201 	bl	80012cfc <USBRequestSetCompletionRoutine>
800164f4:	e1a00004 	mov	r0, r4
800164f8:	ebffe7c1 	bl	80010404 <USBDeviceGetHost>
800164fc:	e5941054 	ldr	r1, [r4, #84]	; 0x54
80016500:	e28dd00c 	add	sp, sp, #12
80016504:	e8bd4030 	pop	{r4, r5, lr}
80016508:	eafffa3c 	b	80014e00 <DWHCIDeviceSubmitAsyncRequest>

8001650c <USBKeyboardDeviceConfigure>:
8001650c:	e92d4070 	push	{r4, r5, r6, lr}
80016510:	e3a01002 	mov	r1, #2
80016514:	e24dd020 	sub	sp, sp, #32
80016518:	e1a04000 	mov	r4, r0
8001651c:	ebffe7be 	bl	8001041c <USBDeviceGetDescriptor>
80016520:	e3500000 	cmp	r0, #0
80016524:	0a000074 	beq	800166fc <USBKeyboardDeviceConfigure+0x1f0>
80016528:	e5d03004 	ldrb	r3, [r0, #4]
8001652c:	e3530000 	cmp	r3, #0
80016530:	0a000071 	beq	800166fc <USBKeyboardDeviceConfigure+0x1f0>
80016534:	e3a01004 	mov	r1, #4
80016538:	e1a00004 	mov	r0, r4
8001653c:	ebffe7b6 	bl	8001041c <USBDeviceGetDescriptor>
80016540:	e2503000 	subs	r3, r0, #0
80016544:	0a000021 	beq	800165d0 <USBKeyboardDeviceConfigure+0xc4>
80016548:	e5d32004 	ldrb	r2, [r3, #4]
8001654c:	e3520000 	cmp	r2, #0
80016550:	0afffff7 	beq	80016534 <USBKeyboardDeviceConfigure+0x28>
80016554:	e5d32005 	ldrb	r2, [r3, #5]
80016558:	e3520003 	cmp	r2, #3
8001655c:	1afffff4 	bne	80016534 <USBKeyboardDeviceConfigure+0x28>
80016560:	e5d32006 	ldrb	r2, [r3, #6]
80016564:	e3520001 	cmp	r2, #1
80016568:	1afffff1 	bne	80016534 <USBKeyboardDeviceConfigure+0x28>
8001656c:	e5d32007 	ldrb	r2, [r3, #7]
80016570:	e3520001 	cmp	r2, #1
80016574:	1affffee 	bne	80016534 <USBKeyboardDeviceConfigure+0x28>
80016578:	e5d32002 	ldrb	r2, [r3, #2]
8001657c:	e3a01005 	mov	r1, #5
80016580:	e1a00004 	mov	r0, r4
80016584:	e5c4203c 	strb	r2, [r4, #60]	; 0x3c
80016588:	e5d33003 	ldrb	r3, [r3, #3]
8001658c:	e5c4303d 	strb	r3, [r4, #61]	; 0x3d
80016590:	ebffe7a1 	bl	8001041c <USBDeviceGetDescriptor>
80016594:	e2505000 	subs	r5, r0, #0
80016598:	0affffe5 	beq	80016534 <USBKeyboardDeviceConfigure+0x28>
8001659c:	e1d530d2 	ldrsb	r3, [r5, #2]
800165a0:	e3530000 	cmp	r3, #0
800165a4:	aaffffe2 	bge	80016534 <USBKeyboardDeviceConfigure+0x28>
800165a8:	e5d53003 	ldrb	r3, [r5, #3]
800165ac:	e203303f 	and	r3, r3, #63	; 0x3f
800165b0:	e3530003 	cmp	r3, #3
800165b4:	1affffde 	bne	80016534 <USBKeyboardDeviceConfigure+0x28>
800165b8:	e3a0001c 	mov	r0, #28
800165bc:	ebffef25 	bl	80012258 <malloc>
800165c0:	e5840040 	str	r0, [r4, #64]	; 0x40
800165c4:	e1a02005 	mov	r2, r5
800165c8:	e1a01004 	mov	r1, r4
800165cc:	ebffcf5b 	bl	8000a340 <USBEndpoint2>
800165d0:	e5945040 	ldr	r5, [r4, #64]	; 0x40
800165d4:	e3550000 	cmp	r5, #0
800165d8:	0a00005f 	beq	8001675c <USBKeyboardDeviceConfigure+0x250>
800165dc:	e1a00004 	mov	r0, r4
800165e0:	ebffe5e6 	bl	8000fd80 <USBDeviceConfigure>
800165e4:	e2505000 	subs	r5, r0, #0
800165e8:	0a00004b 	beq	8001671c <USBKeyboardDeviceConfigure+0x210>
800165ec:	e5d4303d 	ldrb	r3, [r4, #61]	; 0x3d
800165f0:	e3530000 	cmp	r3, #0
800165f4:	0a000012 	beq	80016644 <USBKeyboardDeviceConfigure+0x138>
800165f8:	e1a00004 	mov	r0, r4
800165fc:	e3a05000 	mov	r5, #0
80016600:	ebffe77f 	bl	80010404 <USBDeviceGetHost>
80016604:	e1a06000 	mov	r6, r0
80016608:	e1a00004 	mov	r0, r4
8001660c:	ebffe77a 	bl	800103fc <USBDeviceGetEndpoint0>
80016610:	e5d4303c 	ldrb	r3, [r4, #60]	; 0x3c
80016614:	e1a01000 	mov	r1, r0
80016618:	e5d4203d 	ldrb	r2, [r4, #61]	; 0x3d
8001661c:	e1a00006 	mov	r0, r6
80016620:	e58d3004 	str	r3, [sp, #4]
80016624:	e3a0300b 	mov	r3, #11
80016628:	e58d2000 	str	r2, [sp]
8001662c:	e3a02001 	mov	r2, #1
80016630:	e58d500c 	str	r5, [sp, #12]
80016634:	e58d5008 	str	r5, [sp, #8]
80016638:	ebfffa6c 	bl	80014ff0 <DWHCIDeviceControlMessage>
8001663c:	e1500005 	cmp	r0, r5
80016640:	ba00004a 	blt	80016770 <USBKeyboardDeviceConfigure+0x264>
80016644:	e1a00004 	mov	r0, r4
80016648:	e3a05000 	mov	r5, #0
8001664c:	ebffe76c 	bl	80010404 <USBDeviceGetHost>
80016650:	e1a06000 	mov	r6, r0
80016654:	e1a00004 	mov	r0, r4
80016658:	ebffe767 	bl	800103fc <USBDeviceGetEndpoint0>
8001665c:	e5d4303c 	ldrb	r3, [r4, #60]	; 0x3c
80016660:	e1a01000 	mov	r1, r0
80016664:	e58d500c 	str	r5, [sp, #12]
80016668:	e1a00006 	mov	r0, r6
8001666c:	e58d3004 	str	r3, [sp, #4]
80016670:	e3a02021 	mov	r2, #33	; 0x21
80016674:	e58d5008 	str	r5, [sp, #8]
80016678:	e3a0300b 	mov	r3, #11
8001667c:	e58d5000 	str	r5, [sp]
80016680:	ebfffa5a 	bl	80014ff0 <DWHCIDeviceControlMessage>
80016684:	e1500005 	cmp	r0, r5
80016688:	ba00002c 	blt	80016740 <USBKeyboardDeviceConfigure+0x234>
8001668c:	e28d0014 	add	r0, sp, #20
80016690:	ebffca21 	bl	80008f1c <String>
80016694:	e30a38e0 	movw	r3, #43232	; 0xa8e0
80016698:	e30912c4 	movw	r1, #37572	; 0x92c4
8001669c:	e3483009 	movt	r3, #32777	; 0x8009
800166a0:	e28d0014 	add	r0, sp, #20
800166a4:	e3481001 	movt	r1, #32769	; 0x8001
800166a8:	e5932000 	ldr	r2, [r3]
800166ac:	e282c001 	add	ip, r2, #1
800166b0:	e583c000 	str	ip, [r3]
800166b4:	ebffcc39 	bl	800097a0 <StringFormat>
800166b8:	eb000159 	bl	80016c24 <DeviceNameServiceGet>
800166bc:	e1a06000 	mov	r6, r0
800166c0:	e28d0014 	add	r0, sp, #20
800166c4:	ebffca2e 	bl	80008f84 <StringGet>
800166c8:	e1a01000 	mov	r1, r0
800166cc:	e1a03005 	mov	r3, r5
800166d0:	e1a02004 	mov	r2, r4
800166d4:	e1a00006 	mov	r0, r6
800166d8:	eb000127 	bl	80016b7c <DeviceNameServiceAddDevice>
800166dc:	e28d0014 	add	r0, sp, #20
800166e0:	ebffca1d 	bl	80008f5c <_String>
800166e4:	e1a00004 	mov	r0, r4
800166e8:	ebffff6f 	bl	800164ac <USBKeyboardDeviceStartRequest>
800166ec:	e1a05000 	mov	r5, r0
800166f0:	e1a00005 	mov	r0, r5
800166f4:	e28dd020 	add	sp, sp, #32
800166f8:	e8bd8070 	pop	{r4, r5, r6, pc}
800166fc:	e30912bc 	movw	r1, #37564	; 0x92bc
80016700:	e1a00004 	mov	r0, r4
80016704:	e3481001 	movt	r1, #32769	; 0x8001
80016708:	e3a05000 	mov	r5, #0
8001670c:	ebffe744 	bl	80010424 <USBDeviceConfigurationError>
80016710:	e1a00005 	mov	r0, r5
80016714:	e28dd020 	add	sp, sp, #32
80016718:	e8bd8070 	pop	{r4, r5, r6, pc}
8001671c:	e3072c90 	movw	r2, #31888	; 0x7c90
80016720:	e30902bc 	movw	r0, #37564	; 0x92bc
80016724:	e3482001 	movt	r2, #32769	; 0x8001
80016728:	e3a01001 	mov	r1, #1
8001672c:	e3480001 	movt	r0, #32769	; 0x8001
80016730:	ebffef22 	bl	800123c0 <LogWrite>
80016734:	e1a00005 	mov	r0, r5
80016738:	e28dd020 	add	sp, sp, #32
8001673c:	e8bd8070 	pop	{r4, r5, r6, pc}
80016740:	e309205c 	movw	r2, #36956	; 0x905c
80016744:	e30902bc 	movw	r0, #37564	; 0x92bc
80016748:	e3482001 	movt	r2, #32769	; 0x8001
8001674c:	e3a01001 	mov	r1, #1
80016750:	e3480001 	movt	r0, #32769	; 0x8001
80016754:	ebffef19 	bl	800123c0 <LogWrite>
80016758:	eaffffe4 	b	800166f0 <USBKeyboardDeviceConfigure+0x1e4>
8001675c:	e30912bc 	movw	r1, #37564	; 0x92bc
80016760:	e1a00004 	mov	r0, r4
80016764:	e3481001 	movt	r1, #32769	; 0x8001
80016768:	ebffe72d 	bl	80010424 <USBDeviceConfigurationError>
8001676c:	eaffffdf 	b	800166f0 <USBKeyboardDeviceConfigure+0x1e4>
80016770:	e3082380 	movw	r2, #33664	; 0x8380
80016774:	e30902bc 	movw	r0, #37564	; 0x92bc
80016778:	e3482001 	movt	r2, #32769	; 0x8001
8001677c:	e3a01001 	mov	r1, #1
80016780:	e3480001 	movt	r0, #32769	; 0x8001
80016784:	ebffef0d 	bl	800123c0 <LogWrite>
80016788:	eaffffd8 	b	800166f0 <USBKeyboardDeviceConfigure+0x1e4>

8001678c <USBKeyboardDeviceCompletionRoutine>:
8001678c:	e92d4070 	push	{r4, r5, r6, lr}
80016790:	e24dd008 	sub	sp, sp, #8
80016794:	e1a04002 	mov	r4, r2
80016798:	e1a05000 	mov	r5, r0
8001679c:	ebfff14c 	bl	80012cd4 <USBRequestGetStatus>
800167a0:	e3500000 	cmp	r0, #0
800167a4:	1a000009 	bne	800167d0 <USBKeyboardDeviceCompletionRoutine+0x44>
800167a8:	e5940054 	ldr	r0, [r4, #84]	; 0x54
800167ac:	ebfff13c 	bl	80012ca4 <_USBRequest>
800167b0:	e5940054 	ldr	r0, [r4, #84]	; 0x54
800167b4:	ebffeeae 	bl	80012274 <free>
800167b8:	e3a03000 	mov	r3, #0
800167bc:	e1a00004 	mov	r0, r4
800167c0:	e5843054 	str	r3, [r4, #84]	; 0x54
800167c4:	ebffff38 	bl	800164ac <USBKeyboardDeviceStartRequest>
800167c8:	e28dd008 	add	sp, sp, #8
800167cc:	e8bd8070 	pop	{r4, r5, r6, pc}
800167d0:	e1a00005 	mov	r0, r5
800167d4:	ebfff140 	bl	80012cdc <USBRequestGetResultLength>
800167d8:	e3500008 	cmp	r0, #8
800167dc:	1afffff1 	bne	800167a8 <USBKeyboardDeviceCompletionRoutine+0x1c>
800167e0:	e5943050 	ldr	r3, [r4, #80]	; 0x50
800167e4:	e3530000 	cmp	r3, #0
800167e8:	0a000004 	beq	80016800 <USBKeyboardDeviceCompletionRoutine+0x74>
800167ec:	e5941058 	ldr	r1, [r4, #88]	; 0x58
800167f0:	e5d10000 	ldrb	r0, [r1]
800167f4:	e2811002 	add	r1, r1, #2
800167f8:	e12fff33 	blx	r3
800167fc:	eaffffe9 	b	800167a8 <USBKeyboardDeviceCompletionRoutine+0x1c>
80016800:	e5940058 	ldr	r0, [r4, #88]	; 0x58
80016804:	e2803008 	add	r3, r0, #8
80016808:	e2802002 	add	r2, r0, #2
8001680c:	e5731001 	ldrb	r1, [r3, #-1]!
80016810:	e3510000 	cmp	r1, #0
80016814:	1a00000b 	bne	80016848 <USBKeyboardDeviceCompletionRoutine+0xbc>
80016818:	e1530002 	cmp	r3, r2
8001681c:	1afffffa 	bne	8001680c <USBKeyboardDeviceCompletionRoutine+0x80>
80016820:	e5d4305c 	ldrb	r3, [r4, #92]	; 0x5c
80016824:	e3530000 	cmp	r3, #0
80016828:	15c4105c 	strbne	r1, [r4, #92]	; 0x5c
8001682c:	e5940060 	ldr	r0, [r4, #96]	; 0x60
80016830:	e3500000 	cmp	r0, #0
80016834:	0affffdb 	beq	800167a8 <USBKeyboardDeviceCompletionRoutine+0x1c>
80016838:	ebffeeb5 	bl	80012314 <CancelKernelTimer>
8001683c:	e3a03000 	mov	r3, #0
80016840:	e5843060 	str	r3, [r4, #96]	; 0x60
80016844:	eaffffd7 	b	800167a8 <USBKeyboardDeviceCompletionRoutine+0x1c>
80016848:	e5d4305c 	ldrb	r3, [r4, #92]	; 0x5c
8001684c:	e1530001 	cmp	r3, r1
80016850:	0afffff5 	beq	8001682c <USBKeyboardDeviceCompletionRoutine+0xa0>
80016854:	e5c4105c 	strb	r1, [r4, #92]	; 0x5c
80016858:	e2846064 	add	r6, r4, #100	; 0x64
8001685c:	e5d05000 	ldrb	r5, [r0]
80016860:	e1a00006 	mov	r0, r6
80016864:	e1a02005 	mov	r2, r5
80016868:	ebffe248 	bl	8000f190 <KeyMapTranslate>
8001686c:	e2403e13 	sub	r3, r0, #304	; 0x130
80016870:	e2433003 	sub	r3, r3, #3
80016874:	e353000f 	cmp	r3, #15
80016878:	979ff103 	ldrls	pc, [pc, r3, lsl #2]
8001687c:	ea00001b 	b	800168f0 <USBKeyboardDeviceCompletionRoutine+0x164>
80016880:	800167a8 	.word	0x800167a8
80016884:	800167a8 	.word	0x800167a8
80016888:	800167a8 	.word	0x800167a8
8001688c:	800168d4 	.word	0x800168d4
80016890:	800168d4 	.word	0x800168d4
80016894:	800168d4 	.word	0x800168d4
80016898:	800168d4 	.word	0x800168d4
8001689c:	800168d4 	.word	0x800168d4
800168a0:	800168d4 	.word	0x800168d4
800168a4:	800168d4 	.word	0x800168d4
800168a8:	800168d4 	.word	0x800168d4
800168ac:	800168d4 	.word	0x800168d4
800168b0:	800168d4 	.word	0x800168d4
800168b4:	800168d4 	.word	0x800168d4
800168b8:	800168d4 	.word	0x800168d4
800168bc:	800168c0 	.word	0x800168c0
800168c0:	e594304c 	ldr	r3, [r4, #76]	; 0x4c
800168c4:	e3530000 	cmp	r3, #0
800168c8:	0affffb6 	beq	800167a8 <USBKeyboardDeviceCompletionRoutine+0x1c>
800168cc:	e12fff33 	blx	r3
800168d0:	eaffffb4 	b	800167a8 <USBKeyboardDeviceCompletionRoutine+0x1c>
800168d4:	e5943048 	ldr	r3, [r4, #72]	; 0x48
800168d8:	e3530000 	cmp	r3, #0
800168dc:	0affffb1 	beq	800167a8 <USBKeyboardDeviceCompletionRoutine+0x1c>
800168e0:	e2400f4d 	sub	r0, r0, #308	; 0x134
800168e4:	e2400002 	sub	r0, r0, #2
800168e8:	e12fff33 	blx	r3
800168ec:	eaffffad 	b	800167a8 <USBKeyboardDeviceCompletionRoutine+0x1c>
800168f0:	e1a01000 	mov	r1, r0
800168f4:	e1a02005 	mov	r2, r5
800168f8:	e1a00006 	mov	r0, r6
800168fc:	e28d3004 	add	r3, sp, #4
80016900:	ebffe26a 	bl	8000f2b0 <KeyMapGetString>
80016904:	e3500000 	cmp	r0, #0
80016908:	0affffa6 	beq	800167a8 <USBKeyboardDeviceCompletionRoutine+0x1c>
8001690c:	e5943044 	ldr	r3, [r4, #68]	; 0x44
80016910:	e3530000 	cmp	r3, #0
80016914:	0affffa3 	beq	800167a8 <USBKeyboardDeviceCompletionRoutine+0x1c>
80016918:	e12fff33 	blx	r3
8001691c:	eaffffa1 	b	800167a8 <USBKeyboardDeviceCompletionRoutine+0x1c>

80016920 <USBKeyboardDevice>:
80016920:	e92d4010 	push	{r4, lr}
80016924:	e1a04000 	mov	r4, r0
80016928:	ebffe549 	bl	8000fe54 <USBDeviceCopy>
8001692c:	e306250c 	movw	r2, #25868	; 0x650c
80016930:	e3a03000 	mov	r3, #0
80016934:	e3482001 	movt	r2, #32769	; 0x8001
80016938:	e2840064 	add	r0, r4, #100	; 0x64
8001693c:	e5842000 	str	r2, [r4]
80016940:	e5843040 	str	r3, [r4, #64]	; 0x40
80016944:	e5843044 	str	r3, [r4, #68]	; 0x44
80016948:	e5843048 	str	r3, [r4, #72]	; 0x48
8001694c:	e584304c 	str	r3, [r4, #76]	; 0x4c
80016950:	e5843050 	str	r3, [r4, #80]	; 0x50
80016954:	e5843054 	str	r3, [r4, #84]	; 0x54
80016958:	e5843058 	str	r3, [r4, #88]	; 0x58
8001695c:	e5c4305c 	strb	r3, [r4, #92]	; 0x5c
80016960:	e5843060 	str	r3, [r4, #96]	; 0x60
80016964:	ebffe1dd 	bl	8000f0e0 <KeyMap>
80016968:	e3a00008 	mov	r0, #8
8001696c:	ebffee39 	bl	80012258 <malloc>
80016970:	e5840058 	str	r0, [r4, #88]	; 0x58
80016974:	e8bd8010 	pop	{r4, pc}

80016978 <_CUSBKeyboardDevice>:
80016978:	e92d4010 	push	{r4, lr}
8001697c:	e1a04000 	mov	r4, r0
80016980:	e5900058 	ldr	r0, [r0, #88]	; 0x58
80016984:	e3500000 	cmp	r0, #0
80016988:	0a000002 	beq	80016998 <_CUSBKeyboardDevice+0x20>
8001698c:	ebffee38 	bl	80012274 <free>
80016990:	e3a03000 	mov	r3, #0
80016994:	e5843058 	str	r3, [r4, #88]	; 0x58
80016998:	e5940040 	ldr	r0, [r4, #64]	; 0x40
8001699c:	e3500000 	cmp	r0, #0
800169a0:	0a000004 	beq	800169b8 <_CUSBKeyboardDevice+0x40>
800169a4:	ebffceb0 	bl	8000a46c <_USBEndpoint>
800169a8:	e5940040 	ldr	r0, [r4, #64]	; 0x40
800169ac:	ebffee30 	bl	80012274 <free>
800169b0:	e3a03000 	mov	r3, #0
800169b4:	e5843040 	str	r3, [r4, #64]	; 0x40
800169b8:	e2840064 	add	r0, r4, #100	; 0x64
800169bc:	ebffe1d0 	bl	8000f104 <_KeyMap>
800169c0:	e1a00004 	mov	r0, r4
800169c4:	e8bd4010 	pop	{r4, lr}
800169c8:	eaffe55e 	b	8000ff48 <_USBDevice>

800169cc <USBKeyboardDeviceRegisterKeyPressedHandler>:
800169cc:	e5801044 	str	r1, [r0, #68]	; 0x44
800169d0:	e12fff1e 	bx	lr

800169d4 <USBKeyboardDeviceRegisterSelectConsoleHandler>:
800169d4:	e5801048 	str	r1, [r0, #72]	; 0x48
800169d8:	e12fff1e 	bx	lr

800169dc <USBKeyboardDeviceRegisterShutdownHandler>:
800169dc:	e580104c 	str	r1, [r0, #76]	; 0x4c
800169e0:	e12fff1e 	bx	lr

800169e4 <USBKeyboardDeviceRegisterKeyStatusHandlerRaw>:
800169e4:	e5801050 	str	r1, [r0, #80]	; 0x50
800169e8:	e12fff1e 	bx	lr

800169ec <enabletimer3irq>:
800169ec:	e3a03cb2 	mov	r3, #45568	; 0xb200
800169f0:	e34d3000 	movt	r3, #53248	; 0xd000
800169f4:	e5932010 	ldr	r2, [r3, #16]
800169f8:	e3822008 	orr	r2, r2, #8
800169fc:	e5832010 	str	r2, [r3, #16]
80016a00:	e12fff1e 	bx	lr

80016a04 <timer3init>:
80016a04:	e3a02cb2 	mov	r2, #45568	; 0xb200
80016a08:	e3033004 	movw	r3, #12292	; 0x3004
80016a0c:	e34d2000 	movt	r2, #53248	; 0xd000
80016a10:	e34d3000 	movt	r3, #53248	; 0xd000
80016a14:	e5921010 	ldr	r1, [r2, #16]
80016a18:	e3811008 	orr	r1, r1, #8
80016a1c:	e5821010 	str	r1, [r2, #16]
80016a20:	e5933000 	ldr	r3, [r3]
80016a24:	e3032018 	movw	r2, #12312	; 0x3018
80016a28:	e2833cc3 	add	r3, r3, #49920	; 0xc300
80016a2c:	e34d2000 	movt	r2, #53248	; 0xd000
80016a30:	e2833050 	add	r3, r3, #80	; 0x50
80016a34:	e5823000 	str	r3, [r2]
80016a38:	e30a3c18 	movw	r3, #44056	; 0xac18
80016a3c:	e3a02000 	mov	r2, #0
80016a40:	e3483009 	movt	r3, #32777	; 0x8009
80016a44:	e5832000 	str	r2, [r3]
80016a48:	e12fff1e 	bx	lr

80016a4c <timer3intr>:
80016a4c:	e3a03a03 	mov	r3, #12288	; 0x3000
80016a50:	e3a02008 	mov	r2, #8
80016a54:	e92d4010 	push	{r4, lr}
80016a58:	e34d3000 	movt	r3, #53248	; 0xd000
80016a5c:	e5832000 	str	r2, [r3]
80016a60:	e30a3c18 	movw	r3, #44056	; 0xac18
80016a64:	e3483009 	movt	r3, #32777	; 0x8009
80016a68:	e1a00003 	mov	r0, r3
80016a6c:	e5932000 	ldr	r2, [r3]
80016a70:	e2822001 	add	r2, r2, #1
80016a74:	e5832000 	str	r2, [r3]
80016a78:	ebfffe51 	bl	800163c4 <wakeup>
80016a7c:	e3033004 	movw	r3, #12292	; 0x3004
80016a80:	e34d3000 	movt	r3, #53248	; 0xd000
80016a84:	e5933000 	ldr	r3, [r3]
80016a88:	e3032018 	movw	r2, #12312	; 0x3018
80016a8c:	e2833cc3 	add	r3, r3, #49920	; 0xc300
80016a90:	e34d2000 	movt	r2, #53248	; 0xd000
80016a94:	e2833050 	add	r3, r3, #80	; 0x50
80016a98:	e5823000 	str	r3, [r2]
80016a9c:	e8bd8010 	pop	{r4, pc}

80016aa0 <delay>:
80016aa0:	e92d4070 	push	{r4, r5, r6, lr}
80016aa4:	e2506000 	subs	r6, r0, #0
80016aa8:	08bd8070 	popeq	{r4, r5, r6, pc}
80016aac:	ebffc5f4 	bl	80008284 <getsystemtime>
80016ab0:	e0904006 	adds	r4, r0, r6
80016ab4:	e2a15000 	adc	r5, r1, #0
80016ab8:	ebffc5f1 	bl	80008284 <getsystemtime>
80016abc:	e1550001 	cmp	r5, r1
80016ac0:	01540000 	cmpeq	r4, r0
80016ac4:	1afffffb 	bne	80016ab8 <delay+0x18>
80016ac8:	e8bd8070 	pop	{r4, r5, r6, pc}

80016acc <led_on>:
80016acc:	e92d4010 	push	{r4, lr}
80016ad0:	e3a01001 	mov	r1, #1
80016ad4:	e3a00012 	mov	r0, #18
80016ad8:	ebffe803 	bl	80010aec <setgpiofunc>
80016adc:	e3a01001 	mov	r1, #1
80016ae0:	e3a00012 	mov	r0, #18
80016ae4:	e8bd4010 	pop	{r4, lr}
80016ae8:	eaffe7e6 	b	80010a88 <setgpioval>

80016aec <led_off>:
80016aec:	e92d4010 	push	{r4, lr}
80016af0:	e3a01001 	mov	r1, #1
80016af4:	e3a00012 	mov	r0, #18
80016af8:	ebffe7fb 	bl	80010aec <setgpiofunc>
80016afc:	e3a01000 	mov	r1, #0
80016b00:	e3a00012 	mov	r0, #18
80016b04:	e8bd4010 	pop	{r4, lr}
80016b08:	eaffe7de 	b	80010a88 <setgpioval>

80016b0c <DeviceNameService>:
80016b0c:	e30a38e4 	movw	r3, #43236	; 0xa8e4
80016b10:	e3a02000 	mov	r2, #0
80016b14:	e3483009 	movt	r3, #32777	; 0x8009
80016b18:	e5802000 	str	r2, [r0]
80016b1c:	e5830000 	str	r0, [r3]
80016b20:	e12fff1e 	bx	lr

80016b24 <_DeviceNameService>:
80016b24:	e92d4070 	push	{r4, r5, r6, lr}
80016b28:	e5904000 	ldr	r4, [r0]
80016b2c:	e3540000 	cmp	r4, #0
80016b30:	11a05000 	movne	r5, r0
80016b34:	13a06000 	movne	r6, #0
80016b38:	0a00000a 	beq	80016b68 <_DeviceNameService+0x44>
80016b3c:	e5940004 	ldr	r0, [r4, #4]
80016b40:	e5944000 	ldr	r4, [r4]
80016b44:	ebffedca 	bl	80012274 <free>
80016b48:	e5953000 	ldr	r3, [r5]
80016b4c:	e5836004 	str	r6, [r3, #4]
80016b50:	e1a00003 	mov	r0, r3
80016b54:	e5836008 	str	r6, [r3, #8]
80016b58:	ebffedc5 	bl	80012274 <free>
80016b5c:	e5854000 	str	r4, [r5]
80016b60:	e3540000 	cmp	r4, #0
80016b64:	1afffff4 	bne	80016b3c <_DeviceNameService+0x18>
80016b68:	e30a38e4 	movw	r3, #43236	; 0xa8e4
80016b6c:	e3a02000 	mov	r2, #0
80016b70:	e3483009 	movt	r3, #32777	; 0x8009
80016b74:	e5832000 	str	r2, [r3]
80016b78:	e8bd8070 	pop	{r4, r5, r6, pc}

80016b7c <DeviceNameServiceAddDevice>:
80016b7c:	e92d41f0 	push	{r4, r5, r6, r7, r8, lr}
80016b80:	e1a05000 	mov	r5, r0
80016b84:	e3a00010 	mov	r0, #16
80016b88:	e1a06001 	mov	r6, r1
80016b8c:	e1a08002 	mov	r8, r2
80016b90:	e1a07003 	mov	r7, r3
80016b94:	ebffedaf 	bl	80012258 <malloc>
80016b98:	e1a04000 	mov	r4, r0
80016b9c:	e1a00006 	mov	r0, r6
80016ba0:	ebfff4e8 	bl	80013f48 <uspi_strlen>
80016ba4:	e2800001 	add	r0, r0, #1
80016ba8:	ebffedaa 	bl	80012258 <malloc>
80016bac:	e5840004 	str	r0, [r4, #4]
80016bb0:	e1a01006 	mov	r1, r6
80016bb4:	ebfff50b 	bl	80013fe8 <uspi_strcpy>
80016bb8:	e5951000 	ldr	r1, [r5]
80016bbc:	e5848008 	str	r8, [r4, #8]
80016bc0:	e584700c 	str	r7, [r4, #12]
80016bc4:	e5841000 	str	r1, [r4]
80016bc8:	e5854000 	str	r4, [r5]
80016bcc:	e8bd81f0 	pop	{r4, r5, r6, r7, r8, pc}

80016bd0 <DeviceNameServiceGetDevice>:
80016bd0:	e92d4070 	push	{r4, r5, r6, lr}
80016bd4:	e5904000 	ldr	r4, [r0]
80016bd8:	e3540000 	cmp	r4, #0
80016bdc:	11a05001 	movne	r5, r1
80016be0:	11a06002 	movne	r6, r2
80016be4:	0a00000a 	beq	80016c14 <DeviceNameServiceGetDevice+0x44>
80016be8:	e5941004 	ldr	r1, [r4, #4]
80016bec:	e1a00005 	mov	r0, r5
80016bf0:	ebfff4de 	bl	80013f70 <uspi_strcmp>
80016bf4:	e3500000 	cmp	r0, #0
80016bf8:	1a000002 	bne	80016c08 <DeviceNameServiceGetDevice+0x38>
80016bfc:	e594300c 	ldr	r3, [r4, #12]
80016c00:	e1530006 	cmp	r3, r6
80016c04:	0a000004 	beq	80016c1c <DeviceNameServiceGetDevice+0x4c>
80016c08:	e5944000 	ldr	r4, [r4]
80016c0c:	e3540000 	cmp	r4, #0
80016c10:	1afffff4 	bne	80016be8 <DeviceNameServiceGetDevice+0x18>
80016c14:	e3a00000 	mov	r0, #0
80016c18:	e8bd8070 	pop	{r4, r5, r6, pc}
80016c1c:	e5940008 	ldr	r0, [r4, #8]
80016c20:	e8bd8070 	pop	{r4, r5, r6, pc}

80016c24 <DeviceNameServiceGet>:
80016c24:	e30a38e4 	movw	r3, #43236	; 0xa8e4
80016c28:	e3483009 	movt	r3, #32777	; 0x8009
80016c2c:	e5930000 	ldr	r0, [r3]
80016c30:	e12fff1e 	bx	lr

80016c34 <BitGetUnsigned>:
80016c34:	e92d4ff0 	push	{r4, r5, r6, r7, r8, r9, sl, fp, lr}
80016c38:	e24dd00c 	sub	sp, sp, #12
80016c3c:	e0814002 	add	r4, r1, r2
80016c40:	e1a0e1a1 	lsr	lr, r1, #3
80016c44:	e2846007 	add	r6, r4, #7
80016c48:	e1a061a6 	lsr	r6, r6, #3
80016c4c:	e15e0006 	cmp	lr, r6
80016c50:	2a000036 	bcs	80016d30 <BitGetUnsigned+0xfc>
80016c54:	e080c00e 	add	ip, r0, lr
80016c58:	e2011007 	and	r1, r1, #7
80016c5c:	e0828001 	add	r8, r2, r1
80016c60:	e3a07001 	mov	r7, #1
80016c64:	e2444001 	sub	r4, r4, #1
80016c68:	e3a05000 	mov	r5, #0
80016c6c:	e1a08817 	lsl	r8, r7, r8
80016c70:	e261b008 	rsb	fp, r1, #8
80016c74:	e6ef8078 	uxtb	r8, r8
80016c78:	e1a00005 	mov	r0, r5
80016c7c:	e1a07117 	lsl	r7, r7, r1
80016c80:	e2483001 	sub	r3, r8, #1
80016c84:	e6ef7077 	uxtb	r7, r7
80016c88:	e6ef3073 	uxtb	r3, r3
80016c8c:	e0488007 	sub	r8, r8, r7
80016c90:	e2677000 	rsb	r7, r7, #0
80016c94:	e6ef8078 	uxtb	r8, r8
80016c98:	e58d3004 	str	r3, [sp, #4]
80016c9c:	e6ef7077 	uxtb	r7, r7
80016ca0:	e1a041a4 	lsr	r4, r4, #3
80016ca4:	e1a0300e 	mov	r3, lr
80016ca8:	ea00000e 	b	80016ce8 <BitGetUnsigned+0xb4>
80016cac:	e15e0003 	cmp	lr, r3
80016cb0:	0a000017 	beq	80016d14 <BitGetUnsigned+0xe0>
80016cb4:	e1530004 	cmp	r3, r4
80016cb8:	12855008 	addne	r5, r5, #8
80016cbc:	05dc9000 	ldrbeq	r9, [ip]
80016cc0:	059da004 	ldreq	sl, [sp, #4]
80016cc4:	15dca000 	ldrbne	sl, [ip]
80016cc8:	10429005 	subne	r9, r2, r5
80016ccc:	0009900a 	andeq	r9, r9, sl
80016cd0:	01800009 	orreq	r0, r0, r9
80016cd4:	1180091a 	orrne	r0, r0, sl, lsl r9
80016cd8:	e2833001 	add	r3, r3, #1
80016cdc:	e28cc001 	add	ip, ip, #1
80016ce0:	e1530006 	cmp	r3, r6
80016ce4:	0a000008 	beq	80016d0c <BitGetUnsigned+0xd8>
80016ce8:	e15e0004 	cmp	lr, r4
80016cec:	1affffee 	bne	80016cac <BitGetUnsigned+0x78>
80016cf0:	e5dc0000 	ldrb	r0, [ip]
80016cf4:	e2833001 	add	r3, r3, #1
80016cf8:	e1530006 	cmp	r3, r6
80016cfc:	e28cc001 	add	ip, ip, #1
80016d00:	e0000008 	and	r0, r0, r8
80016d04:	e1a00150 	asr	r0, r0, r1
80016d08:	1afffff6 	bne	80016ce8 <BitGetUnsigned+0xb4>
80016d0c:	e28dd00c 	add	sp, sp, #12
80016d10:	e8bd8ff0 	pop	{r4, r5, r6, r7, r8, r9, sl, fp, pc}
80016d14:	e5dc0000 	ldrb	r0, [ip]
80016d18:	e085500b 	add	r5, r5, fp
80016d1c:	e0429005 	sub	r9, r2, r5
80016d20:	e0000007 	and	r0, r0, r7
80016d24:	e1a00150 	asr	r0, r0, r1
80016d28:	e1a00910 	lsl	r0, r0, r9
80016d2c:	eaffffe9 	b	80016cd8 <BitGetUnsigned+0xa4>
80016d30:	e3a00000 	mov	r0, #0
80016d34:	eafffff4 	b	80016d0c <BitGetUnsigned+0xd8>

80016d38 <USBGamePadDeviceDecodeReport>:
80016d38:	e92d4ff0 	push	{r4, r5, r6, r7, r8, r9, sl, fp, lr}
80016d3c:	e24dd03c 	sub	sp, sp, #60	; 0x3c
80016d40:	e1d04cb0 	ldrh	r4, [r0, #192]	; 0xc0
80016d44:	e58d001c 	str	r0, [sp, #28]
80016d48:	e59020cc 	ldr	r2, [r0, #204]	; 0xcc
80016d4c:	e3540000 	cmp	r4, #0
80016d50:	e59050c4 	ldr	r5, [r0, #196]	; 0xc4
80016d54:	0a000108 	beq	8001717c <USBGamePadDeviceDecodeReport+0x444>
80016d58:	e303b2eb 	movw	fp, #13035	; 0x32eb
80016d5c:	e3a06000 	mov	r6, #0
80016d60:	e34fb8a4 	movt	fp, #63652	; 0xf8a4
80016d64:	e1a08006 	mov	r8, r6
80016d68:	e58db010 	str	fp, [sp, #16]
80016d6c:	e1a09006 	mov	r9, r6
80016d70:	e58db014 	str	fp, [sp, #20]
80016d74:	e1a0a006 	mov	sl, r6
80016d78:	e58db008 	str	fp, [sp, #8]
80016d7c:	e58db00c 	str	fp, [sp, #12]
80016d80:	e1a0b002 	mov	fp, r2
80016d84:	e58d6020 	str	r6, [sp, #32]
80016d88:	e58d6018 	str	r6, [sp, #24]
80016d8c:	e58d6004 	str	r6, [sp, #4]
80016d90:	ea00000b 	b	80016dc4 <USBGamePadDeviceDecodeReport+0x8c>
80016d94:	e3530008 	cmp	r3, #8
80016d98:	0a000052 	beq	80016ee8 <USBGamePadDeviceDecodeReport+0x1b0>
80016d9c:	9a000060 	bls	80016f24 <USBGamePadDeviceDecodeReport+0x1ec>
80016da0:	e3530014 	cmp	r3, #20
80016da4:	058d0014 	streq	r0, [sp, #20]
80016da8:	0a000003 	beq	80016dbc <USBGamePadDeviceDecodeReport+0x84>
80016dac:	e59d2008 	ldr	r2, [sp, #8]
80016db0:	e3530024 	cmp	r3, #36	; 0x24
80016db4:	01a02000 	moveq	r2, r0
80016db8:	e58d2008 	str	r2, [sp, #8]
80016dbc:	e3540000 	cmp	r4, #0
80016dc0:	0a00001c 	beq	80016e38 <USBGamePadDeviceDecodeReport+0x100>
80016dc4:	e5d53000 	ldrb	r3, [r5]
80016dc8:	e2032003 	and	r2, r3, #3
80016dcc:	e3520001 	cmp	r2, #1
80016dd0:	0a000038 	beq	80016eb8 <USBGamePadDeviceDecodeReport+0x180>
80016dd4:	3a000032 	bcc	80016ea4 <USBGamePadDeviceDecodeReport+0x16c>
80016dd8:	e3520002 	cmp	r2, #2
80016ddc:	1a00002b 	bne	80016e90 <USBGamePadDeviceDecodeReport+0x158>
80016de0:	e1d500b1 	ldrh	r0, [r5, #1]
80016de4:	e2444003 	sub	r4, r4, #3
80016de8:	e6ff4074 	uxth	r4, r4
80016dec:	e2855003 	add	r5, r5, #3
80016df0:	e20330fc 	and	r3, r3, #252	; 0xfc
80016df4:	e3530084 	cmp	r3, #132	; 0x84
80016df8:	0a000018 	beq	80016e60 <USBGamePadDeviceDecodeReport+0x128>
80016dfc:	e3530034 	cmp	r3, #52	; 0x34
80016e00:	0a000040 	beq	80016f08 <USBGamePadDeviceDecodeReport+0x1d0>
80016e04:	9affffe2 	bls	80016d94 <USBGamePadDeviceDecodeReport+0x5c>
80016e08:	e3530074 	cmp	r3, #116	; 0x74
80016e0c:	01a09000 	moveq	r9, r0
80016e10:	0affffe9 	beq	80016dbc <USBGamePadDeviceDecodeReport+0x84>
80016e14:	9a00003d 	bls	80016f10 <USBGamePadDeviceDecodeReport+0x1d8>
80016e18:	e3530080 	cmp	r3, #128	; 0x80
80016e1c:	0a00002a 	beq	80016ecc <USBGamePadDeviceDecodeReport+0x194>
80016e20:	e59d2004 	ldr	r2, [sp, #4]
80016e24:	e3530094 	cmp	r3, #148	; 0x94
80016e28:	01a02000 	moveq	r2, r0
80016e2c:	e3540000 	cmp	r4, #0
80016e30:	e58d2004 	str	r2, [sp, #4]
80016e34:	1affffe2 	bne	80016dc4 <USBGamePadDeviceDecodeReport+0x8c>
80016e38:	e28a4007 	add	r4, sl, #7
80016e3c:	e7ef41d4 	ubfx	r4, r4, #3, #16
80016e40:	e59d301c 	ldr	r3, [sp, #28]
80016e44:	e59d2018 	ldr	r2, [sp, #24]
80016e48:	e1c34db0 	strh	r4, [r3, #208]	; 0xd0
80016e4c:	e583204c 	str	r2, [r3, #76]	; 0x4c
80016e50:	e59d2020 	ldr	r2, [sp, #32]
80016e54:	e5832098 	str	r2, [r3, #152]	; 0x98
80016e58:	e28dd03c 	add	sp, sp, #60	; 0x3c
80016e5c:	e8bd8ff0 	pop	{r4, r5, r6, r7, r8, r9, sl, fp, pc}
80016e60:	e3580000 	cmp	r8, #0
80016e64:	1afffff3 	bne	80016e38 <USBGamePadDeviceDecodeReport+0x100>
80016e68:	e1a01008 	mov	r1, r8
80016e6c:	e3a02008 	mov	r2, #8
80016e70:	e1a08000 	mov	r8, r0
80016e74:	e1a0000b 	mov	r0, fp
80016e78:	ebffff6d 	bl	80016c34 <BitGetUnsigned>
80016e7c:	e3500000 	cmp	r0, #0
80016e80:	11500008 	cmpne	r0, r8
80016e84:	1afffff3 	bne	80016e58 <USBGamePadDeviceDecodeReport+0x120>
80016e88:	e3a0a008 	mov	sl, #8
80016e8c:	eaffffca 	b	80016dbc <USBGamePadDeviceDecodeReport+0x84>
80016e90:	e5950001 	ldr	r0, [r5, #1]
80016e94:	e2444005 	sub	r4, r4, #5
80016e98:	e6ff4074 	uxth	r4, r4
80016e9c:	e2855005 	add	r5, r5, #5
80016ea0:	eaffffd2 	b	80016df0 <USBGamePadDeviceDecodeReport+0xb8>
80016ea4:	e2444001 	sub	r4, r4, #1
80016ea8:	e2855001 	add	r5, r5, #1
80016eac:	e6ff4074 	uxth	r4, r4
80016eb0:	e3a00000 	mov	r0, #0
80016eb4:	eaffffcd 	b	80016df0 <USBGamePadDeviceDecodeReport+0xb8>
80016eb8:	e5d50001 	ldrb	r0, [r5, #1]
80016ebc:	e2444002 	sub	r4, r4, #2
80016ec0:	e6ff4074 	uxth	r4, r4
80016ec4:	e2855002 	add	r5, r5, #2
80016ec8:	eaffffc8 	b	80016df0 <USBGamePadDeviceDecodeReport+0xb8>
80016ecc:	e2000003 	and	r0, r0, #3
80016ed0:	e3500002 	cmp	r0, #2
80016ed4:	0a00001e 	beq	80016f54 <USBGamePadDeviceDecodeReport+0x21c>
80016ed8:	e59d3004 	ldr	r3, [sp, #4]
80016edc:	e0070993 	mul	r7, r3, r9
80016ee0:	e08aa007 	add	sl, sl, r7
80016ee4:	eaffffb4 	b	80016dbc <USBGamePadDeviceDecodeReport+0x84>
80016ee8:	e3500036 	cmp	r0, #54	; 0x36
80016eec:	ca000013 	bgt	80016f40 <USBGamePadDeviceDecodeReport+0x208>
80016ef0:	e3500030 	cmp	r0, #48	; 0x30
80016ef4:	aa000027 	bge	80016f98 <USBGamePadDeviceDecodeReport+0x260>
80016ef8:	e2400004 	sub	r0, r0, #4
80016efc:	e3500001 	cmp	r0, #1
80016f00:	93a06001 	movls	r6, #1
80016f04:	eaffffac 	b	80016dbc <USBGamePadDeviceDecodeReport+0x84>
80016f08:	e58d0010 	str	r0, [sp, #16]
80016f0c:	eaffffaa 	b	80016dbc <USBGamePadDeviceDecodeReport+0x84>
80016f10:	e59d200c 	ldr	r2, [sp, #12]
80016f14:	e3530044 	cmp	r3, #68	; 0x44
80016f18:	01a02000 	moveq	r2, r0
80016f1c:	e58d200c 	str	r2, [sp, #12]
80016f20:	eaffffa5 	b	80016dbc <USBGamePadDeviceDecodeReport+0x84>
80016f24:	e3530004 	cmp	r3, #4
80016f28:	1affffa3 	bne	80016dbc <USBGamePadDeviceDecodeReport+0x84>
80016f2c:	e3500009 	cmp	r0, #9
80016f30:	1affffa1 	bne	80016dbc <USBGamePadDeviceDecodeReport+0x84>
80016f34:	e3560001 	cmp	r6, #1
80016f38:	03a06002 	moveq	r6, #2
80016f3c:	eaffff9e 	b	80016dbc <USBGamePadDeviceDecodeReport+0x84>
80016f40:	e3500039 	cmp	r0, #57	; 0x39
80016f44:	1affff9c 	bne	80016dbc <USBGamePadDeviceDecodeReport+0x84>
80016f48:	e3560001 	cmp	r6, #1
80016f4c:	03a06004 	moveq	r6, #4
80016f50:	eaffff99 	b	80016dbc <USBGamePadDeviceDecodeReport+0x84>
80016f54:	e3560003 	cmp	r6, #3
80016f58:	0a000011 	beq	80016fa4 <USBGamePadDeviceDecodeReport+0x26c>
80016f5c:	e3560004 	cmp	r6, #4
80016f60:	0a00005c 	beq	800170d8 <USBGamePadDeviceDecodeReport+0x3a0>
80016f64:	e59d3004 	ldr	r3, [sp, #4]
80016f68:	e3560002 	cmp	r6, #2
80016f6c:	e0070993 	mul	r7, r3, r9
80016f70:	1affffda 	bne	80016ee0 <USBGamePadDeviceDecodeReport+0x1a8>
80016f74:	e59d601c 	ldr	r6, [sp, #28]
80016f78:	e1a0100a 	mov	r1, sl
80016f7c:	e1a02007 	mov	r2, r7
80016f80:	e1a0000b 	mov	r0, fp
80016f84:	e58630b4 	str	r3, [r6, #180]	; 0xb4
80016f88:	ebffff29 	bl	80016c34 <BitGetUnsigned>
80016f8c:	e58600b8 	str	r0, [r6, #184]	; 0xb8
80016f90:	e3a06001 	mov	r6, #1
80016f94:	eaffffd1 	b	80016ee0 <USBGamePadDeviceDecodeReport+0x1a8>
80016f98:	e3560001 	cmp	r6, #1
80016f9c:	03a06003 	moveq	r6, #3
80016fa0:	eaffff85 	b	80016dbc <USBGamePadDeviceDecodeReport+0x84>
80016fa4:	e59d3004 	ldr	r3, [sp, #4]
80016fa8:	e3530000 	cmp	r3, #0
80016fac:	0a00006f 	beq	80017170 <USBGamePadDeviceDecodeReport+0x438>
80016fb0:	e58d402c 	str	r4, [sp, #44]	; 0x2c
80016fb4:	e2492001 	sub	r2, r9, #1
80016fb8:	e58d8030 	str	r8, [sp, #48]	; 0x30
80016fbc:	e3a00001 	mov	r0, #1
80016fc0:	e58da034 	str	sl, [sp, #52]	; 0x34
80016fc4:	e3a01001 	mov	r1, #1
80016fc8:	e1a02210 	lsl	r2, r0, r2
80016fcc:	e303c2eb 	movw	ip, #13035	; 0x32eb
80016fd0:	e1a01911 	lsl	r1, r1, r9
80016fd4:	e303e2eb 	movw	lr, #13035	; 0x32eb
80016fd8:	e58d2024 	str	r2, [sp, #36]	; 0x24
80016fdc:	e1a0400a 	mov	r4, sl
80016fe0:	e2612000 	rsb	r2, r1, #0
80016fe4:	e1a0a009 	mov	sl, r9
80016fe8:	e59d1014 	ldr	r1, [sp, #20]
80016fec:	e3a07000 	mov	r7, #0
80016ff0:	e59d0010 	ldr	r0, [sp, #16]
80016ff4:	e34fc8a4 	movt	ip, #63652	; 0xf8a4
80016ff8:	e151000c 	cmp	r1, ip
80016ffc:	e58d2028 	str	r2, [sp, #40]	; 0x28
80017000:	e1a02001 	mov	r2, r1
80017004:	e59dc00c 	ldr	ip, [sp, #12]
80017008:	01a02000 	moveq	r2, r0
8001700c:	e59d0008 	ldr	r0, [sp, #8]
80017010:	e34fe8a4 	movt	lr, #63652	; 0xf8a4
80017014:	e150000e 	cmp	r0, lr
80017018:	e1a01000 	mov	r1, r0
8001701c:	e59de01c 	ldr	lr, [sp, #28]
80017020:	01a0100c 	moveq	r1, ip
80017024:	e59d0018 	ldr	r0, [sp, #24]
80017028:	e3a0c00c 	mov	ip, #12
8001702c:	e58d5018 	str	r5, [sp, #24]
80017030:	e1a09001 	mov	r9, r1
80017034:	e026e09c 	mla	r6, ip, r0, lr
80017038:	e1a05002 	mov	r5, r2
8001703c:	e1a08000 	mov	r8, r0
80017040:	ea00000d 	b	8001707c <USBGamePadDeviceDecodeReport+0x344>
80017044:	ebfffefa 	bl	80016c34 <BitGetUnsigned>
80017048:	e59d2004 	ldr	r2, [sp, #4]
8001704c:	e2877001 	add	r7, r7, #1
80017050:	e5860050 	str	r0, [r6, #80]	; 0x50
80017054:	e2888001 	add	r8, r8, #1
80017058:	e1570002 	cmp	r7, r2
8001705c:	e286600c 	add	r6, r6, #12
80017060:	e084400a 	add	r4, r4, sl
80017064:	23a02000 	movcs	r2, #0
80017068:	33a02001 	movcc	r2, #1
8001706c:	e3570005 	cmp	r7, #5
80017070:	c3a02000 	movgt	r2, #0
80017074:	e3520000 	cmp	r2, #0
80017078:	0a00000c 	beq	800170b0 <USBGamePadDeviceDecodeReport+0x378>
8001707c:	e5865054 	str	r5, [r6, #84]	; 0x54
80017080:	e3550000 	cmp	r5, #0
80017084:	e5869058 	str	r9, [r6, #88]	; 0x58
80017088:	e1a01004 	mov	r1, r4
8001708c:	e1a0200a 	mov	r2, sl
80017090:	e1a0000b 	mov	r0, fp
80017094:	aaffffea 	bge	80017044 <USBGamePadDeviceDecodeReport+0x30c>
80017098:	ebfffee5 	bl	80016c34 <BitGetUnsigned>
8001709c:	e59d3024 	ldr	r3, [sp, #36]	; 0x24
800170a0:	e1100003 	tst	r0, r3
800170a4:	159d3028 	ldrne	r3, [sp, #40]	; 0x28
800170a8:	11800003 	orrne	r0, r0, r3
800170ac:	eaffffe5 	b	80017048 <USBGamePadDeviceDecodeReport+0x310>
800170b0:	e59d3004 	ldr	r3, [sp, #4]
800170b4:	e1a0900a 	mov	r9, sl
800170b8:	e59d5018 	ldr	r5, [sp, #24]
800170bc:	e3a06001 	mov	r6, #1
800170c0:	e58d8018 	str	r8, [sp, #24]
800170c4:	e59d402c 	ldr	r4, [sp, #44]	; 0x2c
800170c8:	e59d8030 	ldr	r8, [sp, #48]	; 0x30
800170cc:	e59da034 	ldr	sl, [sp, #52]	; 0x34
800170d0:	e0070993 	mul	r7, r3, r9
800170d4:	eaffff81 	b	80016ee0 <USBGamePadDeviceDecodeReport+0x1a8>
800170d8:	e59d2004 	ldr	r2, [sp, #4]
800170dc:	e3520000 	cmp	r2, #0
800170e0:	0a000022 	beq	80017170 <USBGamePadDeviceDecodeReport+0x438>
800170e4:	e59d1020 	ldr	r1, [sp, #32]
800170e8:	e1a0700a 	mov	r7, sl
800170ec:	e59d001c 	ldr	r0, [sp, #28]
800170f0:	e3a06000 	mov	r6, #0
800170f4:	e58d5020 	str	r5, [sp, #32]
800170f8:	e0803101 	add	r3, r0, r1, lsl #2
800170fc:	e58d4024 	str	r4, [sp, #36]	; 0x24
80017100:	e2833098 	add	r3, r3, #152	; 0x98
80017104:	e58d8028 	str	r8, [sp, #40]	; 0x28
80017108:	e1a04001 	mov	r4, r1
8001710c:	e1a05003 	mov	r5, r3
80017110:	e1a08002 	mov	r8, r2
80017114:	e1a02009 	mov	r2, r9
80017118:	e2866001 	add	r6, r6, #1
8001711c:	e1a01007 	mov	r1, r7
80017120:	e1a0000b 	mov	r0, fp
80017124:	e0877009 	add	r7, r7, r9
80017128:	ebfffec1 	bl	80016c34 <BitGetUnsigned>
8001712c:	e1580006 	cmp	r8, r6
80017130:	e2844001 	add	r4, r4, #1
80017134:	e5a50004 	str	r0, [r5, #4]!
80017138:	93a02000 	movls	r2, #0
8001713c:	83a02001 	movhi	r2, #1
80017140:	e3560005 	cmp	r6, #5
80017144:	c3a02000 	movgt	r2, #0
80017148:	e3520000 	cmp	r2, #0
8001714c:	1afffff0 	bne	80017114 <USBGamePadDeviceDecodeReport+0x3dc>
80017150:	e59d3004 	ldr	r3, [sp, #4]
80017154:	e3a06001 	mov	r6, #1
80017158:	e59d5020 	ldr	r5, [sp, #32]
8001715c:	e59d8028 	ldr	r8, [sp, #40]	; 0x28
80017160:	e58d4020 	str	r4, [sp, #32]
80017164:	e0070993 	mul	r7, r3, r9
80017168:	e59d4024 	ldr	r4, [sp, #36]	; 0x24
8001716c:	eaffff5b 	b	80016ee0 <USBGamePadDeviceDecodeReport+0x1a8>
80017170:	e3a07000 	mov	r7, #0
80017174:	e3a06001 	mov	r6, #1
80017178:	eaffff58 	b	80016ee0 <USBGamePadDeviceDecodeReport+0x1a8>
8001717c:	e58d4020 	str	r4, [sp, #32]
80017180:	e58d4018 	str	r4, [sp, #24]
80017184:	eaffff2d 	b	80016e40 <USBGamePadDeviceDecodeReport+0x108>

80017188 <USBGamePadDeviceStartRequest>:
80017188:	e92d4030 	push	{r4, r5, lr}
8001718c:	e1a04000 	mov	r4, r0
80017190:	e24dd00c 	sub	sp, sp, #12
80017194:	e3a00024 	mov	r0, #36	; 0x24
80017198:	e3a05000 	mov	r5, #0
8001719c:	ebffec2d 	bl	80012258 <malloc>
800171a0:	e58400c8 	str	r0, [r4, #200]	; 0xc8
800171a4:	e1d43db0 	ldrh	r3, [r4, #208]	; 0xd0
800171a8:	e59420cc 	ldr	r2, [r4, #204]	; 0xcc
800171ac:	e5941044 	ldr	r1, [r4, #68]	; 0x44
800171b0:	e58d5000 	str	r5, [sp]
800171b4:	ebffeeae 	bl	80012c74 <USBRequest>
800171b8:	e59400c8 	ldr	r0, [r4, #200]	; 0xc8
800171bc:	e30715e8 	movw	r1, #30184	; 0x75e8
800171c0:	e3481001 	movt	r1, #32769	; 0x8001
800171c4:	e1a03004 	mov	r3, r4
800171c8:	e1a02005 	mov	r2, r5
800171cc:	ebffeeca 	bl	80012cfc <USBRequestSetCompletionRoutine>
800171d0:	e1a00004 	mov	r0, r4
800171d4:	ebffe48a 	bl	80010404 <USBDeviceGetHost>
800171d8:	e59410c8 	ldr	r1, [r4, #200]	; 0xc8
800171dc:	e28dd00c 	add	sp, sp, #12
800171e0:	e8bd4030 	pop	{r4, r5, lr}
800171e4:	eafff705 	b	80014e00 <DWHCIDeviceSubmitAsyncRequest>

800171e8 <USBGamePadDeviceConfigure>:
800171e8:	e92d40f0 	push	{r4, r5, r6, r7, lr}
800171ec:	e3a01002 	mov	r1, #2
800171f0:	e24dd024 	sub	sp, sp, #36	; 0x24
800171f4:	e1a04000 	mov	r4, r0
800171f8:	ebffe487 	bl	8001041c <USBDeviceGetDescriptor>
800171fc:	e3500000 	cmp	r0, #0
80017200:	0a000002 	beq	80017210 <USBGamePadDeviceConfigure+0x28>
80017204:	e5d03004 	ldrb	r3, [r0, #4]
80017208:	e3530000 	cmp	r3, #0
8001720c:	1a000007 	bne	80017230 <USBGamePadDeviceConfigure+0x48>
80017210:	e30912cc 	movw	r1, #37580	; 0x92cc
80017214:	e1a00004 	mov	r0, r4
80017218:	e3481001 	movt	r1, #32769	; 0x8001
8001721c:	e3a05000 	mov	r5, #0
80017220:	ebffe47f 	bl	80010424 <USBDeviceConfigurationError>
80017224:	e1a00005 	mov	r0, r5
80017228:	e28dd024 	add	sp, sp, #36	; 0x24
8001722c:	e8bd80f0 	pop	{r4, r5, r6, r7, pc}
80017230:	e3a01004 	mov	r1, #4
80017234:	e1a00004 	mov	r0, r4
80017238:	ebffe477 	bl	8001041c <USBDeviceGetDescriptor>
8001723c:	e2503000 	subs	r3, r0, #0
80017240:	0afffff2 	beq	80017210 <USBGamePadDeviceConfigure+0x28>
80017244:	e5d32004 	ldrb	r2, [r3, #4]
80017248:	e3520000 	cmp	r2, #0
8001724c:	0affffef 	beq	80017210 <USBGamePadDeviceConfigure+0x28>
80017250:	e5d32005 	ldrb	r2, [r3, #5]
80017254:	e3520003 	cmp	r2, #3
80017258:	1affffec 	bne	80017210 <USBGamePadDeviceConfigure+0x28>
8001725c:	e5d32006 	ldrb	r2, [r3, #6]
80017260:	e3520000 	cmp	r2, #0
80017264:	1affffe9 	bne	80017210 <USBGamePadDeviceConfigure+0x28>
80017268:	e5d32007 	ldrb	r2, [r3, #7]
8001726c:	e3520000 	cmp	r2, #0
80017270:	1affffe6 	bne	80017210 <USBGamePadDeviceConfigure+0x28>
80017274:	e5d32002 	ldrb	r2, [r3, #2]
80017278:	e3a01021 	mov	r1, #33	; 0x21
8001727c:	e1a00004 	mov	r0, r4
80017280:	e5c42040 	strb	r2, [r4, #64]	; 0x40
80017284:	e5d33003 	ldrb	r3, [r3, #3]
80017288:	e5c43041 	strb	r3, [r4, #65]	; 0x41
8001728c:	ebffe462 	bl	8001041c <USBDeviceGetDescriptor>
80017290:	e2507000 	subs	r7, r0, #0
80017294:	0affffdd 	beq	80017210 <USBGamePadDeviceConfigure+0x28>
80017298:	e1d730b7 	ldrh	r3, [r7, #7]
8001729c:	e3530000 	cmp	r3, #0
800172a0:	1a000004 	bne	800172b8 <USBGamePadDeviceConfigure+0xd0>
800172a4:	eaffffd9 	b	80017210 <USBGamePadDeviceConfigure+0x28>
800172a8:	e5d63003 	ldrb	r3, [r6, #3]
800172ac:	e203303f 	and	r3, r3, #63	; 0x3f
800172b0:	e3530003 	cmp	r3, #3
800172b4:	0a000029 	beq	80017360 <USBGamePadDeviceConfigure+0x178>
800172b8:	e3a01005 	mov	r1, #5
800172bc:	e1a00004 	mov	r0, r4
800172c0:	ebffe455 	bl	8001041c <USBDeviceGetDescriptor>
800172c4:	e2506000 	subs	r6, r0, #0
800172c8:	1afffff6 	bne	800172a8 <USBGamePadDeviceConfigure+0xc0>
800172cc:	e5945044 	ldr	r5, [r4, #68]	; 0x44
800172d0:	e3550000 	cmp	r5, #0
800172d4:	0a000063 	beq	80017468 <USBGamePadDeviceConfigure+0x280>
800172d8:	e1d700b7 	ldrh	r0, [r7, #7]
800172dc:	e1c40cb0 	strh	r0, [r4, #192]	; 0xc0
800172e0:	ebffebdc 	bl	80012258 <malloc>
800172e4:	e58400c4 	str	r0, [r4, #196]	; 0xc4
800172e8:	e1a00004 	mov	r0, r4
800172ec:	ebffe444 	bl	80010404 <USBDeviceGetHost>
800172f0:	e1a05000 	mov	r5, r0
800172f4:	e1a00004 	mov	r0, r4
800172f8:	ebffe43f 	bl	800103fc <USBDeviceGetEndpoint0>
800172fc:	e1d730b7 	ldrh	r3, [r7, #7]
80017300:	e1a01000 	mov	r1, r0
80017304:	e59420c4 	ldr	r2, [r4, #196]	; 0xc4
80017308:	e1a00005 	mov	r0, r5
8001730c:	e5d4c040 	ldrb	ip, [r4, #64]	; 0x40
80017310:	e58d300c 	str	r3, [sp, #12]
80017314:	e3a03006 	mov	r3, #6
80017318:	e58d2008 	str	r2, [sp, #8]
8001731c:	e3a02081 	mov	r2, #129	; 0x81
80017320:	e58dc004 	str	ip, [sp, #4]
80017324:	e5d7c006 	ldrb	ip, [r7, #6]
80017328:	e1a0c40c 	lsl	ip, ip, #8
8001732c:	e58dc000 	str	ip, [sp]
80017330:	ebfff72e 	bl	80014ff0 <DWHCIDeviceControlMessage>
80017334:	e1d730b7 	ldrh	r3, [r7, #7]
80017338:	e1500003 	cmp	r0, r3
8001733c:	0a000014 	beq	80017394 <USBGamePadDeviceConfigure+0x1ac>
80017340:	e30922dc 	movw	r2, #37596	; 0x92dc
80017344:	e30902cc 	movw	r0, #37580	; 0x92cc
80017348:	e3482001 	movt	r2, #32769	; 0x8001
8001734c:	e3a01001 	mov	r1, #1
80017350:	e3480001 	movt	r0, #32769	; 0x8001
80017354:	e1a05006 	mov	r5, r6
80017358:	ebffec18 	bl	800123c0 <LogWrite>
8001735c:	eaffffb0 	b	80017224 <USBGamePadDeviceConfigure+0x3c>
80017360:	e1d630d2 	ldrsb	r3, [r6, #2]
80017364:	e3a0001c 	mov	r0, #28
80017368:	e3530000 	cmp	r3, #0
8001736c:	ba000034 	blt	80017444 <USBGamePadDeviceConfigure+0x25c>
80017370:	e5943048 	ldr	r3, [r4, #72]	; 0x48
80017374:	e3530000 	cmp	r3, #0
80017378:	1affffa4 	bne	80017210 <USBGamePadDeviceConfigure+0x28>
8001737c:	ebffebb5 	bl	80012258 <malloc>
80017380:	e5840048 	str	r0, [r4, #72]	; 0x48
80017384:	e1a02006 	mov	r2, r6
80017388:	e1a01004 	mov	r1, r4
8001738c:	ebffcbeb 	bl	8000a340 <USBEndpoint2>
80017390:	eaffffc8 	b	800172b8 <USBGamePadDeviceConfigure+0xd0>
80017394:	e59430cc 	ldr	r3, [r4, #204]	; 0xcc
80017398:	e1a00004 	mov	r0, r4
8001739c:	e5c36000 	strb	r6, [r3]
800173a0:	ebfffe64 	bl	80016d38 <USBGamePadDeviceDecodeReport>
800173a4:	e1a00004 	mov	r0, r4
800173a8:	ebffe274 	bl	8000fd80 <USBDeviceConfigure>
800173ac:	e2505000 	subs	r5, r0, #0
800173b0:	0a000085 	beq	800175cc <USBGamePadDeviceConfigure+0x3e4>
800173b4:	e5d43041 	ldrb	r3, [r4, #65]	; 0x41
800173b8:	e3530000 	cmp	r3, #0
800173bc:	1a00002e 	bne	8001747c <USBGamePadDeviceConfigure+0x294>
800173c0:	e5942018 	ldr	r2, [r4, #24]
800173c4:	e30a58e8 	movw	r5, #43240	; 0xa8e8
800173c8:	e3485009 	movt	r5, #32777	; 0x8009
800173cc:	e300154c 	movw	r1, #1356	; 0x54c
800173d0:	e5953000 	ldr	r3, [r5]
800173d4:	e584303c 	str	r3, [r4, #60]	; 0x3c
800173d8:	e2833001 	add	r3, r3, #1
800173dc:	e5853000 	str	r3, [r5]
800173e0:	e1d230b8 	ldrh	r3, [r2, #8]
800173e4:	e1530001 	cmp	r3, r1
800173e8:	0a00003c 	beq	800174e0 <USBGamePadDeviceConfigure+0x2f8>
800173ec:	e28d0014 	add	r0, sp, #20
800173f0:	ebffc6c9 	bl	80008f1c <String>
800173f4:	e594203c 	ldr	r2, [r4, #60]	; 0x3c
800173f8:	e3081ad0 	movw	r1, #35536	; 0x8ad0
800173fc:	e3481001 	movt	r1, #32769	; 0x8001
80017400:	e28d0014 	add	r0, sp, #20
80017404:	ebffc8e5 	bl	800097a0 <StringFormat>
80017408:	ebfffe05 	bl	80016c24 <DeviceNameServiceGet>
8001740c:	e1a05000 	mov	r5, r0
80017410:	e28d0014 	add	r0, sp, #20
80017414:	ebffc6da 	bl	80008f84 <StringGet>
80017418:	e1a01000 	mov	r1, r0
8001741c:	e3a03000 	mov	r3, #0
80017420:	e1a00005 	mov	r0, r5
80017424:	e1a02004 	mov	r2, r4
80017428:	ebfffdd3 	bl	80016b7c <DeviceNameServiceAddDevice>
8001742c:	e28d0014 	add	r0, sp, #20
80017430:	ebffc6c9 	bl	80008f5c <_String>
80017434:	e1a00004 	mov	r0, r4
80017438:	ebffff52 	bl	80017188 <USBGamePadDeviceStartRequest>
8001743c:	e1a05000 	mov	r5, r0
80017440:	eaffff77 	b	80017224 <USBGamePadDeviceConfigure+0x3c>
80017444:	e5943044 	ldr	r3, [r4, #68]	; 0x44
80017448:	e3530000 	cmp	r3, #0
8001744c:	1affff6f 	bne	80017210 <USBGamePadDeviceConfigure+0x28>
80017450:	ebffeb80 	bl	80012258 <malloc>
80017454:	e5840044 	str	r0, [r4, #68]	; 0x44
80017458:	e1a02006 	mov	r2, r6
8001745c:	e1a01004 	mov	r1, r4
80017460:	ebffcbb6 	bl	8000a340 <USBEndpoint2>
80017464:	eaffff93 	b	800172b8 <USBGamePadDeviceConfigure+0xd0>
80017468:	e30912cc 	movw	r1, #37580	; 0x92cc
8001746c:	e1a00004 	mov	r0, r4
80017470:	e3481001 	movt	r1, #32769	; 0x8001
80017474:	ebffe3ea 	bl	80010424 <USBDeviceConfigurationError>
80017478:	eaffff69 	b	80017224 <USBGamePadDeviceConfigure+0x3c>
8001747c:	e1a00004 	mov	r0, r4
80017480:	ebffe3df 	bl	80010404 <USBDeviceGetHost>
80017484:	e1a05000 	mov	r5, r0
80017488:	e1a00004 	mov	r0, r4
8001748c:	ebffe3da 	bl	800103fc <USBDeviceGetEndpoint0>
80017490:	e5d4e040 	ldrb	lr, [r4, #64]	; 0x40
80017494:	e1a01000 	mov	r1, r0
80017498:	e5d4c041 	ldrb	ip, [r4, #65]	; 0x41
8001749c:	e1a00005 	mov	r0, r5
800174a0:	e58d600c 	str	r6, [sp, #12]
800174a4:	e3a0300b 	mov	r3, #11
800174a8:	e58d6008 	str	r6, [sp, #8]
800174ac:	e3a02001 	mov	r2, #1
800174b0:	e88d5000 	stm	sp, {ip, lr}
800174b4:	ebfff6cd 	bl	80014ff0 <DWHCIDeviceControlMessage>
800174b8:	e3500000 	cmp	r0, #0
800174bc:	aaffffbf 	bge	800173c0 <USBGamePadDeviceConfigure+0x1d8>
800174c0:	e3082380 	movw	r2, #33664	; 0x8380
800174c4:	e30902cc 	movw	r0, #37580	; 0x92cc
800174c8:	e3482001 	movt	r2, #32769	; 0x8001
800174cc:	e3a01001 	mov	r1, #1
800174d0:	e3480001 	movt	r0, #32769	; 0x8001
800174d4:	e1a05006 	mov	r5, r6
800174d8:	ebffebb8 	bl	800123c0 <LogWrite>
800174dc:	eaffff50 	b	80017224 <USBGamePadDeviceConfigure+0x3c>
800174e0:	e1d230ba 	ldrh	r3, [r2, #10]
800174e4:	e3530f9a 	cmp	r3, #616	; 0x268
800174e8:	1affffbf 	bne	800173ec <USBGamePadDeviceConfigure+0x204>
800174ec:	e59430cc 	ldr	r3, [r4, #204]	; 0xcc
800174f0:	e3a02042 	mov	r2, #66	; 0x42
800174f4:	e3a0100c 	mov	r1, #12
800174f8:	e1a00004 	mov	r0, r4
800174fc:	e5c32000 	strb	r2, [r3]
80017500:	e3a03000 	mov	r3, #0
80017504:	e59420cc 	ldr	r2, [r4, #204]	; 0xcc
80017508:	e2855004 	add	r5, r5, #4
8001750c:	e5c21001 	strb	r1, [r2, #1]
80017510:	e59420cc 	ldr	r2, [r4, #204]	; 0xcc
80017514:	e5c23002 	strb	r3, [r2, #2]
80017518:	e59420cc 	ldr	r2, [r4, #204]	; 0xcc
8001751c:	e5c23003 	strb	r3, [r2, #3]
80017520:	ebffe3b7 	bl	80010404 <USBDeviceGetHost>
80017524:	e1a06000 	mov	r6, r0
80017528:	e1a00004 	mov	r0, r4
8001752c:	ebffe3b2 	bl	800103fc <USBDeviceGetEndpoint0>
80017530:	e5d4c040 	ldrb	ip, [r4, #64]	; 0x40
80017534:	e3a03004 	mov	r3, #4
80017538:	e59410cc 	ldr	r1, [r4, #204]	; 0xcc
8001753c:	e3a02ffd 	mov	r2, #1012	; 0x3f4
80017540:	e58dc004 	str	ip, [sp, #4]
80017544:	e58d1008 	str	r1, [sp, #8]
80017548:	e1a01000 	mov	r1, r0
8001754c:	e58d300c 	str	r3, [sp, #12]
80017550:	e1a00006 	mov	r0, r6
80017554:	e58d2000 	str	r2, [sp]
80017558:	e3a03009 	mov	r3, #9
8001755c:	e3a02021 	mov	r2, #33	; 0x21
80017560:	ebfff6a2 	bl	80014ff0 <DWHCIDeviceControlMessage>
80017564:	e594203c 	ldr	r2, [r4, #60]	; 0x3c
80017568:	e30932cc 	movw	r3, #37580	; 0x92cc
8001756c:	e3483001 	movt	r3, #32769	; 0x8001
80017570:	e1a00004 	mov	r0, r4
80017574:	e0833002 	add	r3, r3, r2
80017578:	e5d52009 	ldrb	r2, [r5, #9]
8001757c:	e5d33008 	ldrb	r3, [r3, #8]
80017580:	e1823083 	orr	r3, r2, r3, lsl #1
80017584:	e5c53009 	strb	r3, [r5, #9]
80017588:	ebffe39d 	bl	80010404 <USBDeviceGetHost>
8001758c:	e1a06000 	mov	r6, r0
80017590:	e1a00004 	mov	r0, r4
80017594:	ebffe398 	bl	800103fc <USBDeviceGetEndpoint0>
80017598:	e5d43040 	ldrb	r3, [r4, #64]	; 0x40
8001759c:	e3a02030 	mov	r2, #48	; 0x30
800175a0:	e58d200c 	str	r2, [sp, #12]
800175a4:	e1a01000 	mov	r1, r0
800175a8:	e58d3004 	str	r3, [sp, #4]
800175ac:	e3003201 	movw	r3, #513	; 0x201
800175b0:	e58d3000 	str	r3, [sp]
800175b4:	e1a00006 	mov	r0, r6
800175b8:	e58d5008 	str	r5, [sp, #8]
800175bc:	e3a03009 	mov	r3, #9
800175c0:	e3a02021 	mov	r2, #33	; 0x21
800175c4:	ebfff689 	bl	80014ff0 <DWHCIDeviceControlMessage>
800175c8:	eaffff87 	b	800173ec <USBGamePadDeviceConfigure+0x204>
800175cc:	e3072c90 	movw	r2, #31888	; 0x7c90
800175d0:	e30902cc 	movw	r0, #37580	; 0x92cc
800175d4:	e3482001 	movt	r2, #32769	; 0x8001
800175d8:	e3a01001 	mov	r1, #1
800175dc:	e3480001 	movt	r0, #32769	; 0x8001
800175e0:	ebffeb76 	bl	800123c0 <LogWrite>
800175e4:	eaffff0e 	b	80017224 <USBGamePadDeviceConfigure+0x3c>

800175e8 <USBGamePadDeviceCompletionRoutine>:
800175e8:	e92d4070 	push	{r4, r5, r6, lr}
800175ec:	e1a04002 	mov	r4, r2
800175f0:	e1a05000 	mov	r5, r0
800175f4:	ebffedb6 	bl	80012cd4 <USBRequestGetStatus>
800175f8:	e3500000 	cmp	r0, #0
800175fc:	1a000008 	bne	80017624 <USBGamePadDeviceCompletionRoutine+0x3c>
80017600:	e59400c8 	ldr	r0, [r4, #200]	; 0xc8
80017604:	ebffeda6 	bl	80012ca4 <_USBRequest>
80017608:	e59400c8 	ldr	r0, [r4, #200]	; 0xc8
8001760c:	ebffeb18 	bl	80012274 <free>
80017610:	e3a03000 	mov	r3, #0
80017614:	e1a00004 	mov	r0, r4
80017618:	e58430c8 	str	r3, [r4, #200]	; 0xc8
8001761c:	e8bd4070 	pop	{r4, r5, r6, lr}
80017620:	eafffed8 	b	80017188 <USBGamePadDeviceStartRequest>
80017624:	e1a00005 	mov	r0, r5
80017628:	ebffedab 	bl	80012cdc <USBRequestGetResultLength>
8001762c:	e3500000 	cmp	r0, #0
80017630:	0afffff2 	beq	80017600 <USBGamePadDeviceCompletionRoutine+0x18>
80017634:	e59430c4 	ldr	r3, [r4, #196]	; 0xc4
80017638:	e3530000 	cmp	r3, #0
8001763c:	0affffef 	beq	80017600 <USBGamePadDeviceCompletionRoutine+0x18>
80017640:	e59430bc 	ldr	r3, [r4, #188]	; 0xbc
80017644:	e3530000 	cmp	r3, #0
80017648:	0affffec 	beq	80017600 <USBGamePadDeviceCompletionRoutine+0x18>
8001764c:	e1a00004 	mov	r0, r4
80017650:	ebfffdb8 	bl	80016d38 <USBGamePadDeviceDecodeReport>
80017654:	e594003c 	ldr	r0, [r4, #60]	; 0x3c
80017658:	e284104c 	add	r1, r4, #76	; 0x4c
8001765c:	e59430bc 	ldr	r3, [r4, #188]	; 0xbc
80017660:	e2400001 	sub	r0, r0, #1
80017664:	e12fff33 	blx	r3
80017668:	eaffffe4 	b	80017600 <USBGamePadDeviceCompletionRoutine+0x18>

8001766c <USBGamePadDevice>:
8001766c:	e92d4010 	push	{r4, lr}
80017670:	e1a04000 	mov	r4, r0
80017674:	ebffe1f6 	bl	8000fe54 <USBDeviceCopy>
80017678:	e30721e8 	movw	r2, #29160	; 0x71e8
8001767c:	e3a01000 	mov	r1, #0
80017680:	e3482001 	movt	r2, #32769	; 0x8001
80017684:	e1a03004 	mov	r3, r4
80017688:	e5842000 	str	r2, [r4]
8001768c:	e2840048 	add	r0, r4, #72	; 0x48
80017690:	e5841044 	str	r1, [r4, #68]	; 0x44
80017694:	e1a02001 	mov	r2, r1
80017698:	e5841048 	str	r1, [r4, #72]	; 0x48
8001769c:	e58410bc 	str	r1, [r4, #188]	; 0xbc
800176a0:	e58410c8 	str	r1, [r4, #200]	; 0xc8
800176a4:	e58410c4 	str	r1, [r4, #196]	; 0xc4
800176a8:	e1c41cb0 	strh	r1, [r4, #192]	; 0xc0
800176ac:	e1c41db0 	strh	r1, [r4, #208]	; 0xd0
800176b0:	e584104c 	str	r1, [r4, #76]	; 0x4c
800176b4:	e5832050 	str	r2, [r3, #80]	; 0x50
800176b8:	e283300c 	add	r3, r3, #12
800176bc:	e5832048 	str	r2, [r3, #72]	; 0x48
800176c0:	e583204c 	str	r2, [r3, #76]	; 0x4c
800176c4:	e1530000 	cmp	r3, r0
800176c8:	1afffff9 	bne	800176b4 <USBGamePadDevice+0x48>
800176cc:	e5842098 	str	r2, [r4, #152]	; 0x98
800176d0:	e3a00040 	mov	r0, #64	; 0x40
800176d4:	e584209c 	str	r2, [r4, #156]	; 0x9c
800176d8:	e58420a0 	str	r2, [r4, #160]	; 0xa0
800176dc:	e58420a4 	str	r2, [r4, #164]	; 0xa4
800176e0:	e58420a8 	str	r2, [r4, #168]	; 0xa8
800176e4:	e58420ac 	str	r2, [r4, #172]	; 0xac
800176e8:	e58420b0 	str	r2, [r4, #176]	; 0xb0
800176ec:	e58420b4 	str	r2, [r4, #180]	; 0xb4
800176f0:	e58420b8 	str	r2, [r4, #184]	; 0xb8
800176f4:	ebffead7 	bl	80012258 <malloc>
800176f8:	e58400cc 	str	r0, [r4, #204]	; 0xcc
800176fc:	e8bd8010 	pop	{r4, pc}

80017700 <_CUSBGamePadDevice>:
80017700:	e92d4010 	push	{r4, lr}
80017704:	e1a04000 	mov	r4, r0
80017708:	e59000c4 	ldr	r0, [r0, #196]	; 0xc4
8001770c:	e3500000 	cmp	r0, #0
80017710:	0a000002 	beq	80017720 <_CUSBGamePadDevice+0x20>
80017714:	ebffead6 	bl	80012274 <free>
80017718:	e3a03000 	mov	r3, #0
8001771c:	e58430c4 	str	r3, [r4, #196]	; 0xc4
80017720:	e59400cc 	ldr	r0, [r4, #204]	; 0xcc
80017724:	e3500000 	cmp	r0, #0
80017728:	0a000002 	beq	80017738 <_CUSBGamePadDevice+0x38>
8001772c:	ebffead0 	bl	80012274 <free>
80017730:	e3a03000 	mov	r3, #0
80017734:	e58430cc 	str	r3, [r4, #204]	; 0xcc
80017738:	e5940044 	ldr	r0, [r4, #68]	; 0x44
8001773c:	e3500000 	cmp	r0, #0
80017740:	0a000004 	beq	80017758 <_CUSBGamePadDevice+0x58>
80017744:	ebffcb48 	bl	8000a46c <_USBEndpoint>
80017748:	e5940044 	ldr	r0, [r4, #68]	; 0x44
8001774c:	ebffeac8 	bl	80012274 <free>
80017750:	e3a03000 	mov	r3, #0
80017754:	e5843044 	str	r3, [r4, #68]	; 0x44
80017758:	e5940048 	ldr	r0, [r4, #72]	; 0x48
8001775c:	e3500000 	cmp	r0, #0
80017760:	0a000004 	beq	80017778 <_CUSBGamePadDevice+0x78>
80017764:	ebffcb40 	bl	8000a46c <_USBEndpoint>
80017768:	e5940048 	ldr	r0, [r4, #72]	; 0x48
8001776c:	ebffeac0 	bl	80012274 <free>
80017770:	e3a03000 	mov	r3, #0
80017774:	e5843048 	str	r3, [r4, #72]	; 0x48
80017778:	e1a00004 	mov	r0, r4
8001777c:	e8bd4010 	pop	{r4, lr}
80017780:	eaffe1f0 	b	8000ff48 <_USBDevice>

80017784 <USBGamePadDeviceRegisterStatusHandler>:
80017784:	e58010bc 	str	r1, [r0, #188]	; 0xbc
80017788:	e12fff1e 	bx	lr

8001778c <USBGamePadDeviceGetReport>:
8001778c:	e92d4030 	push	{r4, r5, lr}
80017790:	e24dd014 	sub	sp, sp, #20
80017794:	e1a04000 	mov	r4, r0
80017798:	ebffe319 	bl	80010404 <USBDeviceGetHost>
8001779c:	e1a05000 	mov	r5, r0
800177a0:	e1a00004 	mov	r0, r4
800177a4:	ebffe314 	bl	800103fc <USBDeviceGetEndpoint0>
800177a8:	e1d43db0 	ldrh	r3, [r4, #208]	; 0xd0
800177ac:	e3a0cc01 	mov	ip, #256	; 0x100
800177b0:	e59420cc 	ldr	r2, [r4, #204]	; 0xcc
800177b4:	e1a01000 	mov	r1, r0
800177b8:	e5d4e040 	ldrb	lr, [r4, #64]	; 0x40
800177bc:	e1a00005 	mov	r0, r5
800177c0:	e58d300c 	str	r3, [sp, #12]
800177c4:	e3a03001 	mov	r3, #1
800177c8:	e58d2008 	str	r2, [sp, #8]
800177cc:	e3a020a1 	mov	r2, #161	; 0xa1
800177d0:	e88d5000 	stm	sp, {ip, lr}
800177d4:	ebfff605 	bl	80014ff0 <DWHCIDeviceControlMessage>
800177d8:	e3500000 	cmp	r0, #0
800177dc:	da000003 	ble	800177f0 <USBGamePadDeviceGetReport+0x64>
800177e0:	e1a00004 	mov	r0, r4
800177e4:	e28dd014 	add	sp, sp, #20
800177e8:	e8bd4030 	pop	{r4, r5, lr}
800177ec:	eafffd51 	b	80016d38 <USBGamePadDeviceDecodeReport>
800177f0:	e28dd014 	add	sp, sp, #20
800177f4:	e8bd8030 	pop	{r4, r5, pc}

800177f8 <DWHCIRootPort>:
800177f8:	e3a03000 	mov	r3, #0
800177fc:	e880000a 	stm	r0, {r1, r3}
80017800:	e12fff1e 	bx	lr

80017804 <_DWHCIRootPort>:
80017804:	e92d4010 	push	{r4, lr}
80017808:	e1a04000 	mov	r4, r0
8001780c:	e5900004 	ldr	r0, [r0, #4]
80017810:	e3500000 	cmp	r0, #0
80017814:	0a000004 	beq	8001782c <_DWHCIRootPort+0x28>
80017818:	ebffe1ca 	bl	8000ff48 <_USBDevice>
8001781c:	e5940004 	ldr	r0, [r4, #4]
80017820:	ebffea93 	bl	80012274 <free>
80017824:	e3a03000 	mov	r3, #0
80017828:	e5843004 	str	r3, [r4, #4]
8001782c:	e3a03000 	mov	r3, #0
80017830:	e5843000 	str	r3, [r4]
80017834:	e8bd8010 	pop	{r4, pc}

80017838 <DWHCIRootPortInitialize>:
80017838:	e92d40f0 	push	{r4, r5, r6, r7, lr}
8001783c:	e1a04000 	mov	r4, r0
80017840:	e5900000 	ldr	r0, [r0]
80017844:	e24dd00c 	sub	sp, sp, #12
80017848:	ebfff87c 	bl	80015a40 <DWHCIDeviceGetPortSpeed>
8001784c:	e3500003 	cmp	r0, #3
80017850:	0a000054 	beq	800179a8 <DWHCIRootPortInitialize+0x170>
80017854:	e1a05000 	mov	r5, r0
80017858:	e3a0003c 	mov	r0, #60	; 0x3c
8001785c:	e3a06001 	mov	r6, #1
80017860:	ebffea7c 	bl	80012258 <malloc>
80017864:	e5840004 	str	r0, [r4, #4]
80017868:	e1a02005 	mov	r2, r5
8001786c:	e5941000 	ldr	r1, [r4]
80017870:	e3a03000 	mov	r3, #0
80017874:	e58d6000 	str	r6, [sp]
80017878:	ebffe159 	bl	8000fde4 <USBDevice>
8001787c:	e5940004 	ldr	r0, [r4, #4]
80017880:	ebffe1d6 	bl	8000ffe0 <USBDeviceInitialize>
80017884:	e2505000 	subs	r5, r0, #0
80017888:	e5940004 	ldr	r0, [r4, #4]
8001788c:	0a00003e 	beq	8001798c <DWHCIRootPortInitialize+0x154>
80017890:	ebffd8b8 	bl	8000db78 <USBStandardHubGetDeviceNames>
80017894:	e1a05000 	mov	r5, r0
80017898:	ebffc5b9 	bl	80008f84 <StringGet>
8001789c:	e1a03000 	mov	r3, r0
800178a0:	e3092324 	movw	r2, #37668	; 0x9324
800178a4:	e3482001 	movt	r2, #32769	; 0x8001
800178a8:	e3090300 	movw	r0, #37632	; 0x9300
800178ac:	e3480001 	movt	r0, #32769	; 0x8001
800178b0:	e3a01003 	mov	r1, #3
800178b4:	ebffeac1 	bl	800123c0 <LogWrite>
800178b8:	e1a00005 	mov	r0, r5
800178bc:	ebffc5a6 	bl	80008f5c <_String>
800178c0:	e1a00005 	mov	r0, r5
800178c4:	ebffea6a 	bl	80012274 <free>
800178c8:	e5940004 	ldr	r0, [r4, #4]
800178cc:	ebffccf3 	bl	8000aca0 <USBDeviceFactoryGetDevice>
800178d0:	e2507000 	subs	r7, r0, #0
800178d4:	0a00003d 	beq	800179d0 <DWHCIRootPortInitialize+0x198>
800178d8:	e5940004 	ldr	r0, [r4, #4]
800178dc:	ebffe199 	bl	8000ff48 <_USBDevice>
800178e0:	e5940004 	ldr	r0, [r4, #4]
800178e4:	ebffea62 	bl	80012274 <free>
800178e8:	e5847004 	str	r7, [r4, #4]
800178ec:	e1a00007 	mov	r0, r7
800178f0:	e5973000 	ldr	r3, [r7]
800178f4:	e12fff33 	blx	r3
800178f8:	e2505000 	subs	r5, r0, #0
800178fc:	0a00001b 	beq	80017970 <DWHCIRootPortInitialize+0x138>
80017900:	e309234c 	movw	r2, #37708	; 0x934c
80017904:	e3090300 	movw	r0, #37632	; 0x9300
80017908:	e3482001 	movt	r2, #32769	; 0x8001
8001790c:	e3a01004 	mov	r1, #4
80017910:	e3480001 	movt	r0, #32769	; 0x8001
80017914:	ebffeaa9 	bl	800123c0 <LogWrite>
80017918:	e5940000 	ldr	r0, [r4]
8001791c:	ebfff85a 	bl	80015a8c <DWHCIDeviceOvercurrentDetected>
80017920:	e3500000 	cmp	r0, #0
80017924:	01a05006 	moveq	r5, r6
80017928:	0a00001b 	beq	8001799c <DWHCIRootPortInitialize+0x164>
8001792c:	e3092378 	movw	r2, #37752	; 0x9378
80017930:	e3090300 	movw	r0, #37632	; 0x9300
80017934:	e3482001 	movt	r2, #32769	; 0x8001
80017938:	e1a01006 	mov	r1, r6
8001793c:	e3480001 	movt	r0, #32769	; 0x8001
80017940:	e3a05000 	mov	r5, #0
80017944:	ebffea9d 	bl	800123c0 <LogWrite>
80017948:	e5940000 	ldr	r0, [r4]
8001794c:	ebfff861 	bl	80015ad8 <DWHCIDeviceDisableRootPort>
80017950:	e5940004 	ldr	r0, [r4, #4]
80017954:	ebffe17b 	bl	8000ff48 <_USBDevice>
80017958:	e5940004 	ldr	r0, [r4, #4]
8001795c:	ebffea44 	bl	80012274 <free>
80017960:	e5845004 	str	r5, [r4, #4]
80017964:	e1a00005 	mov	r0, r5
80017968:	e28dd00c 	add	sp, sp, #12
8001796c:	e8bd80f0 	pop	{r4, r5, r6, r7, pc}
80017970:	e3092334 	movw	r2, #37684	; 0x9334
80017974:	e3090300 	movw	r0, #37632	; 0x9300
80017978:	e3480001 	movt	r0, #32769	; 0x8001
8001797c:	e1a01006 	mov	r1, r6
80017980:	e3482001 	movt	r2, #32769	; 0x8001
80017984:	ebffea8d 	bl	800123c0 <LogWrite>
80017988:	e5940004 	ldr	r0, [r4, #4]
8001798c:	ebffe16d 	bl	8000ff48 <_USBDevice>
80017990:	e5940004 	ldr	r0, [r4, #4]
80017994:	ebffea36 	bl	80012274 <free>
80017998:	e5845004 	str	r5, [r4, #4]
8001799c:	e1a00005 	mov	r0, r5
800179a0:	e28dd00c 	add	sp, sp, #12
800179a4:	e8bd80f0 	pop	{r4, r5, r6, r7, pc}
800179a8:	e3092308 	movw	r2, #37640	; 0x9308
800179ac:	e3090300 	movw	r0, #37632	; 0x9300
800179b0:	e3482001 	movt	r2, #32769	; 0x8001
800179b4:	e3a01001 	mov	r1, #1
800179b8:	e3480001 	movt	r0, #32769	; 0x8001
800179bc:	e3a05000 	mov	r5, #0
800179c0:	ebffea7e 	bl	800123c0 <LogWrite>
800179c4:	e1a00005 	mov	r0, r5
800179c8:	e28dd00c 	add	sp, sp, #12
800179cc:	e8bd80f0 	pop	{r4, r5, r6, r7, pc}
800179d0:	e3092360 	movw	r2, #37728	; 0x9360
800179d4:	e3090300 	movw	r0, #37632	; 0x9300
800179d8:	e3482001 	movt	r2, #32769	; 0x8001
800179dc:	e3a01003 	mov	r1, #3
800179e0:	e3480001 	movt	r0, #32769	; 0x8001
800179e4:	e1a05007 	mov	r5, r7
800179e8:	ebffea74 	bl	800123c0 <LogWrite>
800179ec:	e5940004 	ldr	r0, [r4, #4]
800179f0:	ebffe154 	bl	8000ff48 <_USBDevice>
800179f4:	e5940004 	ldr	r0, [r4, #4]
800179f8:	ebffea1d 	bl	80012274 <free>
800179fc:	e5847004 	str	r7, [r4, #4]
80017a00:	eaffffe5 	b	8001799c <DWHCIRootPortInitialize+0x164>
