
Allocating common symbols
Common symbol       size              file

uart_lock           0x4               build/uart_pl011.o
log                 0x70              build/log.o
kmem                0x3c              build/kalloc.o
pUSBParam           0x4               build/trap.o
bcache              0x173c            build/bio.o
pUSBTimerParam      0x4               build/trap.o
input               0xc0              build/console.o
uart_disabled       0x4               build/uart.o
device_handler      0xa0              build/usb_storagedriver.o
nUSBTimerIRQ        0x4               build/trap.o
kpgdir              0x4               build/vm.o
mb_data             0x28              build/main.o
tickslock           0x34              build/trap.o
ftable              0x994             build/file.o
cpus                0xe0              build/exec.o
mailbuffer          0x4               build/mailbox.o
pUSBTimerHandler    0x4               build/trap.o
pm_size             0x4               build/mmu.o
ticks               0x4               build/trap.o
pUSBHandler         0x4               build/trap.o
ptable              0x1f34            build/proc.o
nUSBIRQ             0x4               build/trap.o
devsw               0x50              build/file.o
icache              0xfd4             build/fs.o

Discarded input sections

 .note.GNU-stack
                0x00000000        0x0 build/uspi_dwhciframeschednsplit.o
 .note.GNU-stack
                0x00000000        0x0 build/exec.o
 .note.GNU-stack
                0x00000000        0x0 build/uart_pl011.o
 .note.GNU-stack
                0x00000000        0x0 build/uspi_string.o
 .note.GNU-stack
                0x00000000        0x0 build/usb_storagedriver.o
 .note.GNU-stack
                0x00000000        0x0 build/sysfile.o
 .note.GNU-stack
                0x00000000        0x0 build/string.o
 .note.GNU-stack
                0x00000000        0x0 build/uspi_usbmidi.o
 .note.GNU-stack
                0x00000000        0x0 build/uspi_usbdevice.o
 .note.GNU-stack
                0x00000000        0x0 build/uspi_usbdevicefactory.o
 .note.GNU-stack
                0x00000000        0x0 build/console.o
 .note.GNU-stack
                0x00000000        0x0 build/spinlock.o
 .note.GNU-stack
                0x00000000        0x0 build/trap.o
 .note.GNU-stack
                0x00000000        0x0 build/uspi_dwhciframeschednper.o
 .note.GNU-stack
                0x00000000        0x0 build/uspienv_timer.o
 .note.GNU-stack
                0x00000000        0x0 build/main.o
 .note.GNU-stack
                0x00000000        0x0 build/bio.o
 .note.GNU-stack
                0x00000000        0x0 build/syscall.o
 .note.GNU-stack
                0x00000000        0x0 build/uspi_usbendpoint.o
 .note.GNU-stack
                0x00000000        0x0 build/uspi_usbconfigparser.o
 .note.GNU-stack
                0x00000000        0x0 build/mailbox.o
 .note.GNU-stack
                0x00000000        0x0 build/uspi_usbstandardhub.o
 .note.GNU-stack
                0x00000000        0x0 build/memide.o
 .note.GNU-stack
                0x00000000        0x0 build/uspi_dwhciframeschedper.o
 .note.GNU-stack
                0x00000000        0x0 build/uspi_usbmassdevice.o
 .note.GNU-stack
                0x00000000        0x0 build/mmu.o
 .note.GNU-stack
                0x00000000        0x0 build/uspi_smsc951x.o
 .note.GNU-stack
                0x00000000        0x0 build/log.o
 .note.GNU-stack
                0x00000000        0x0 build/uart.o
 .note.GNU-stack
                0x00000000        0x0 build/uspi_dwhcixferstagedata.o
 .note.GNU-stack
                0x00000000        0x0 build/uspi_keymap.o
 .note.GNU-stack
                0x00000000        0x0 build/file.o
 .note.GNU-stack
                0x00000000        0x0 build/uspi_usbstring.o
 .note.GNU-stack
                0x00000000        0x0 build/uspi_library.o
 .note.GNU-stack
                0x00000000        0x0 build/vm.o
 .note.GNU-stack
                0x00000000        0x0 build/usb.o
 .note.GNU-stack
                0x00000000        0x0 build/sysproc.o
 .note.GNU-stack
                0x00000000        0x0 build/uspi_macaddress.o
 .note.GNU-stack
                0x00000000        0x0 build/pipe.o
 .note.GNU-stack
                0x00000000        0x0 build/uspi_usbrequest.o
 .note.GNU-stack
                0x00000000        0x0 build/uspi_synchronize.o
 .note.GNU-stack
                0x00000000        0x0 build/uspi_usbmouse.o
 .note.GNU-stack
                0x00000000        0x0 build/kalloc.o
 .note.GNU-stack
                0x00000000        0x0 build/uspi_util.o
 .note.GNU-stack
                0x00000000        0x0 build/uspi_lan7800.o
 .note.GNU-stack
                0x00000000        0x0 build/uspienv_memio.o
 .note.GNU-stack
                0x00000000        0x0 build/uspi_dwhcidevice.o
 .note.GNU-stack
                0x00000000        0x0 build/uspi_dwhciregister.o
 .note.GNU-stack
                0x00000000        0x0 build/proc.o
 .note.GNU-stack
                0x00000000        0x0 build/uspi_usbkeyboard.o
 .note.GNU-stack
                0x00000000        0x0 build/timer.o
 .note.GNU-stack
                0x00000000        0x0 build/uspi_devicenameservice.o
 .note.GNU-stack
                0x00000000        0x0 build/uspi_usbgamepad.o
 .note.GNU-stack
                0x00000000        0x0 build/fs.o
 .note.GNU-stack
                0x00000000        0x0 build/uspi_dwhcirootport.o

Memory Configuration

Name             Origin             Length             Attributes
*default*        0x00000000         0xffffffff

Linker script and memory map

LOAD build/entry.o
LOAD build/exception.o
LOAD build/uspienv_delayloop.o
LOAD build/uspi_dwhciframeschednsplit.o
LOAD build/exec.o
LOAD build/uart_pl011.o
LOAD build/uspi_string.o
LOAD build/usb_storagedriver.o
LOAD build/sysfile.o
LOAD build/string.o
LOAD build/uspi_usbmidi.o
LOAD build/uspi_usbdevice.o
LOAD build/uspi_usbdevicefactory.o
LOAD build/console.o
LOAD build/spinlock.o
LOAD build/trap.o
LOAD build/uspi_dwhciframeschednper.o
LOAD build/uspienv_timer.o
LOAD build/main.o
LOAD build/bio.o
LOAD build/syscall.o
LOAD build/uspi_usbendpoint.o
LOAD build/uspi_usbconfigparser.o
LOAD build/mailbox.o
LOAD build/uspi_usbstandardhub.o
LOAD build/memide.o
LOAD build/uspi_dwhciframeschedper.o
LOAD build/uspi_usbmassdevice.o
LOAD build/mmu.o
LOAD build/uspi_smsc951x.o
LOAD build/log.o
LOAD build/uart.o
LOAD build/uspi_dwhcixferstagedata.o
LOAD build/uspi_keymap.o
LOAD build/file.o
LOAD build/uspi_usbstring.o
LOAD build/uspi_library.o
LOAD build/vm.o
LOAD build/usb.o
LOAD build/sysproc.o
LOAD build/uspi_macaddress.o
LOAD build/pipe.o
LOAD build/uspi_usbrequest.o
LOAD build/uspi_synchronize.o
LOAD build/uspi_usbmouse.o
LOAD build/kalloc.o
LOAD build/uspi_util.o
LOAD build/uspi_lan7800.o
LOAD build/uspienv_memio.o
LOAD build/uspi_dwhcidevice.o
LOAD build/uspi_dwhciregister.o
LOAD build/proc.o
LOAD build/uspi_usbkeyboard.o
LOAD build/timer.o
LOAD build/uspi_devicenameservice.o
LOAD build/uspi_usbgamepad.o
LOAD build/fs.o
LOAD build/uspi_dwhcirootport.o
                0x00000000                PHYSTART = 0x0
                0x10000000                PHYSIZE = 0x10000000
                0x80000000                KERNBASE = 0x80000000
                0x3f000000                MMIO_PA = 0x3f000000
                0xd0000000                MMIO_VA = 0xd0000000
                0x01000000                MMIO_SIZE = 0x1000000
                0xdf000000                PERIPHBASE = 0xdf000000
                0x00004000                K_PDX_BASE = 0x4000
                0x00003000                K_PTX_BASE = 0x3000
                0x00008000                PHYSOFFSET = 0x8000
                0x80008000                KERNOFFSET = 0x80008000
                0x80008000                PHYSOFFSET = DEFINED (PHYSOFFSET)?PHYSOFFSET:0x80008000
                0xc0008000                KERNOFFSET = DEFINED (KERNOFFSET)?KERNOFFSET:0xc0008000
                0x80000000                SHIFT = (KERNOFFSET - PHYSOFFSET)

.init           0x00008000      0x1d4
 *(.init)
 .init          0x00008000      0x1d4 build/entry.o
                0x00008000                _start
                0x00008200                . = ALIGN (0x100)
                0x00008200                INIT_END = .
                0x80008200                . = (. + SHIFT)

.text           0x80008200     0xfbc0 load address 0x00008200
 *.c.o(.text)
 *(.text .stub .text.*)
 .text          0x80008200       0x94 build/entry.o
                0x80008200                _pagingstart
                0x80008208                acknowledge
                0x8000822c                dsb_barrier
                0x80008238                flush_dcache_all
                0x80008244                flush_idcache
                0x80008250                flush_tlb
                0x80008270                flush_dcache
                0x8000827c                set_pgtbase
                0x80008284                getsystemtime
 *fill*         0x80008294        0xc 
 .text          0x800082a0      0x284 build/exception.o
                0x800082a0                vectors
                0x80008338                trapret
                0x80008478                set_mode_sp
                0x8000849c                readcpsr
                0x800084a4                cli
                0x800084b4                sti
                0x800084c4                swtch
 *fill*         0x80008524        0x4 
 .text          0x80008528        0xc build/uspienv_delayloop.o
                0x80008528                DelayLoop
 .text          0x80008534       0xdc build/uspi_dwhciframeschednsplit.o
                0x80008534                _DWHCIFrameSchedulerNoSplit
                0x80008538                DWHCIFrameSchedulerNoSplitCompleteSplit
                0x80008540                DWHCIFrameSchedulerNoSplitTransactionComplete
                0x80008544                DWHCIFrameSchedulerNoSplitIsOddFrame
                0x80008550                DWHCIFrameSchedulerNoSplitWaitForFrame
                0x800085b8                DWHCIFrameSchedulerNoSplitStartSplit
                0x800085bc                DWHCIFrameSchedulerNoSplit
 .text          0x80008610      0x2c4 build/exec.o
                0x80008610                exec
 .text          0x800088d4       0x94 build/uart_pl011.o
                0x800088d4                uartinit_fvp
                0x80008908                uartputc_fvp
                0x8000894c                uartgetc_fvp
 .text          0x80008968      0xa04 build/uspi_string.o
                0x800089c8                String
                0x800089d8                String2
                0x80008a08                _String
                0x80008a30                StringGet
                0x80008a48                StringSet
                0x80008a8c                StringGetLength
                0x80008a9c                StringAppend
                0x80008b18                StringCompare
                0x80008b20                StringFind
                0x80008b68                StringPutChar
                0x80008ba8                StringPutString
                0x80008bec                StringFormatV
                0x800092ac                StringFormat
                0x800092d8                StringReserveSpace
                0x800092e4                ntoa
 .text          0x8000936c      0x4b4 build/usb_storagedriver.o
                0x8000936c                storageinit
                0x80009380                dhandlerinit
                0x80009384                storage_free
                0x80009388                usb_storage_write
                0x80009604                usb_storage_read
 .text          0x80009820      0xb7c build/sysfile.o
                0x800099f8                sys_dup
                0x80009a70                sys_read
                0x80009af4                sys_write
                0x80009b78                sys_close
                0x80009bcc                sys_fstat
                0x80009c18                sys_link
                0x80009d24                sys_unlink
                0x80009edc                sys_open
                0x8000a010                sys_mkdir
                0x8000a06c                sys_mknod
                0x8000a108                sys_chdir
                0x8000a184                sys_exec
                0x8000a240                sys_pipe
                0x8000a308                sys_lseek
 .text          0x8000a39c      0x2d4 build/string.o
                0x8000a39c                memsetw
                0x8000a3c0                memsetb
                0x8000a3e4                memset
                0x8000a44c                memcmp
                0x8000a498                memmove
                0x8000a4f4                memcpy
                0x8000a4f8                strncmp
                0x8000a558                strncpy
                0x8000a5bc                safestrcpy
                0x8000a604                strlen
                0x8000a634                div
 .text          0x8000a670      0x390 build/uspi_usbmidi.o
                0x8000a6d0                USBMIDIDeviceConfigure
                0x8000a97c                USBMIDIDevice
                0x8000a9ac                _CUSBMIDIDevice
                0x8000a9f8                USBMIDIDeviceRegisterPacketHandler
 .text          0x8000aa00      0x6a4 build/uspi_usbdevice.o
                0x8000aa00                USBDeviceConfigure
                0x8000aa64                USBDevice
                0x8000aad4                USBDeviceCopy
                0x8000abc8                _USBDevice
                0x8000ac60                USBDeviceInitialize
                0x8000af4c                USBDeviceGetName
                0x8000b04c                USBDeviceGetAddress
                0x8000b054                USBDeviceGetSpeed
                0x8000b05c                USBDeviceGetHubAddress
                0x8000b064                USBDeviceGetHubPortNumber
                0x8000b06c                USBDeviceGetEndpoint0
                0x8000b074                USBDeviceGetHost
                0x8000b07c                USBDeviceGetDeviceDescriptor
                0x8000b084                USBDeviceGetConfigurationDescriptor
                0x8000b08c                USBDeviceGetDescriptor
                0x8000b094                USBDeviceConfigurationError
                0x8000b09c                USBDeviceSetAddress
 .text          0x8000b0a4      0x230 build/uspi_usbdevicefactory.o
                0x8000b0a4                GetDevice
                0x8000b274                USBDeviceFactoryGetDevice
 .text          0x8000b2d4      0xab4 build/console.o
                0x8000b2d4                consoleread
                0x8000b3e4                setgpucolour
                0x8000b3f4                initframebuf
                0x8000b44c                drawpixel
                0x8000b48c                drawcursor
                0x8000b4f8                drawcharacter
                0x8000b58c                gpuputc
                0x8000b780                consolewrite
                0x8000b884                panic
                0x8000b8f8                cprintf
                0x8000ba98                consputc
                0x8000bb34                consoleintr
                0x8000bc90                gpuinit
                0x8000bcec                consoleinit
 .text          0x8000bd88      0x194 build/spinlock.o
                0x8000bd88                initlock
                0x8000bd9c                getcallerpcs
                0x8000bda0                holding
                0x8000bdc8                pushcli
                0x8000be00                acquire
                0x8000be7c                popcli
                0x8000bed8                release
 .text          0x8000bf1c      0x620 build/trap.o
                0x8000bf1c                led25_on
                0x8000bf3c                led25_off
                0x8000bf5c                enable_intrs
                0x8000bf80                disable_intrs
                0x8000bfa4                tvinit
                0x8000c090                trap_oops
                0x8000c134                handle_irq
                0x8000c198                trap
                0x8000c44c                ConnectInterrupt
                0x8000c4c4                ConnectTimerInterrupt
 .text          0x8000c53c      0x190 build/uspi_dwhciframeschednper.o
                0x8000c53c                _DWHCIFrameSchedulerNonPeriodic
                0x8000c548                DWHCIFrameSchedulerNonPeriodicStartSplit
                0x8000c554                DWHCIFrameSchedulerNonPeriodicWaitForFrame
                0x8000c558                DWHCIFrameSchedulerNonPeriodicIsOddFrame
                0x8000c560                DWHCIFrameSchedulerNonPeriodicCompleteSplit
                0x8000c5b8                DWHCIFrameSchedulerNonPeriodicTransactionComplete
                0x8000c678                DWHCIFrameSchedulerNonPeriodic
 .text          0x8000c6cc      0x3a0 build/uspienv_timer.o
                0x8000c70c                TimerEnvInit
                0x8000c75c                _Timer
                0x8000c770                TimerGetClockTicks
                0x8000c78c                TimerGetTicks
                0x8000c794                TimerGetTime
                0x8000c79c                TimerStartKernelTimer
                0x8000c814                TimerCancelKernelTimer
                0x8000c828                TimerMsDelay
                0x8000c83c                TimerusDelay
                0x8000c850                TimerGet
                0x8000c860                TimerSimpleMsDelay
                0x8000c87c                TimerSimpleusDelay
                0x8000c888                TimerPollKernelTimers
                0x8000c8e8                TimerInterruptHandler
                0x8000c9a0                TimerTuneMsDelay
                0x8000ca04                TimerInitialize
 .text          0x8000ca6c      0x270 build/main.o
                0x8000ca6c                OkLoop
                0x8000cab0                NotOkLoop
                0x8000caf4                getpmsize
                0x8000cb68                machinit
                0x8000cb7c                cmain
 .text          0x8000ccdc      0x238 build/bio.o
                0x8000ccdc                binit
                0x8000cd64                bread
                0x8000ce6c                bwrite
                0x8000ce94                brelse
 .text          0x8000cf14      0x254 build/syscall.o
                0x8000cf14                fetchint
                0x8000cf50                fetchstr
                0x8000cfb8                argint
                0x8000d000                argptr
                0x8000d060                argstr
                0x8000d0dc                syscall
 .text          0x8000d168      0x200 build/uspi_usbendpoint.o
                0x8000d168                USBEndpoint
                0x8000d194                USBEndpoint2
                0x8000d280                USBEndpointCopy
                0x8000d2b4                _USBEndpoint
                0x8000d2c0                USBEndpointGetDevice
                0x8000d2c8                USBEndpointGetNumber
                0x8000d2d0                USBEndpointGetType
                0x8000d2d8                USBEndpointIsDirectionIn
                0x8000d2e0                USBEndpointSetMaxPacketSize
                0x8000d2e8                USBEndpointGetMaxPacketSize
                0x8000d2f0                USBEndpointGetInterval
                0x8000d2f8                USBEndpointGetNextPID
                0x8000d308                USBEndpointSkipPID
                0x8000d35c                USBEndpointResetPID
 .text          0x8000d368      0x1e8 build/uspi_usbconfigparser.o
                0x8000d368                USBConfigurationParser
                0x8000d478                _USBConfigurationParser
                0x8000d484                USBConfigurationParserIsValid
                0x8000d48c                USBConfigurationParserGetDescriptor
                0x8000d530                USBConfigurationParserError
 .text          0x8000d550      0x120 build/mailbox.o
                0x8000d550                create_request
                0x8000d5e4                mailboxinit
                0x8000d5fc                readmailbox
                0x8000d634                writemailbox
 .text          0x8000d670      0xa24 build/uspi_usbstandardhub.o
                0x8000d670                USBStandardHub
                0x8000d6b4                _USBStandardHub
                0x8000d73c                USBStandardHubInitialize
                0x8000d740                USBStandardHubGetDeviceNames
                0x8000d810                USBStandardHubEnumeratePorts
                0x8000dde4                USBStandardHubConfigure
 .text          0x8000e094      0x104 build/memide.o
                0x8000e094                ideinit
                0x8000e0c8                ideintr
                0x8000e0cc                iderw
                0x8000e17c                usbrw
 .text          0x8000e198      0x214 build/uspi_dwhciframeschedper.o
                0x8000e198                _DWHCIFrameSchedulerPeriodic
                0x8000e1a4                DWHCIFrameSchedulerPeriodicStartSplit
                0x8000e1b8                DWHCIFrameSchedulerPeriodicIsOddFrame
                0x8000e1c4                DWHCIFrameSchedulerPeriodicWaitForFrame
                0x8000e238                DWHCIFrameSchedulerPeriodicCompleteSplit
                0x8000e298                DWHCIFrameSchedulerPeriodicTransactionComplete
                0x8000e350                DWHCIFrameSchedulerPeriodic
 .text          0x8000e3ac      0xa5c build/uspi_usbmassdevice.o
                0x8000e3ac                USBBulkOnlyMassStorageDevice
                0x8000e3e8                _USBBulkOnlyMassStorageDevice
                0x8000e43c                USBBulkOnlyMassStorageDeviceSeek
                0x8000e44c                USBBulkOnlyMassStorageDeviceGetCapacity
                0x8000e454                USBBulkOnlyMassStorageDeviceCommand
                0x8000e65c                USBBulkOnlyMassStorageDeviceConfigure
                0x8000ea50                USBBulkOnlyMassStorageDeviceTryRead
                0x8000eb2c                USBBulkOnlyMassStorageDeviceTryWrite
                0x8000ec04                USBBulkOnlyMassStorageDeviceReset
                0x8000ed38                USBBulkOnlyMassStorageDeviceRead
                0x8000eda0                USBBulkOnlyMassStorageDeviceWrite
 .text          0x8000ee08      0x108 build/mmu.o
                0x8000ee08                mmuinit0
                0x8000eeac                mmuinit1
 .text          0x8000ef10      0x5d0 build/uspi_smsc951x.o
                0x8000ef10                SMSC951xDevice
                0x8000ef48                _SMSC951xDevice
                0x8000efb4                SMSC951xDeviceGetMACAddress
                0x8000efbc                SMSC951xDeviceSendFrame
                0x8000f01c                SMSC951xDeviceReceiveFrame
                0x8000f104                SMSC951xDeviceWriteReg
                0x8000f16c                SMSC951xDeviceConfigure
                0x8000f478                SMSC951xDeviceReadReg
 .text          0x8000f4e0      0x33c build/log.o
                0x8000f5c4                initlog
                0x8000f66c                begin_trans
                0x8000f6c4                commit_trans
                0x8000f720                log_write
 .text          0x8000f81c      0x3b4 build/uart.o
                0x8000f8c0                led18_on
                0x8000f8e4                led18_off
                0x8000f908                setgpioval
                0x8000f954                setgpiofunc
                0x8000f960                enableirqminiuart
                0x8000f978                disableirqminiuart
                0x8000f990                uartputc
                0x8000fa1c                miniuartintr
                0x8000fafc                uartinit
 .text          0x8000fbd0      0x49c build/uspi_dwhcixferstagedata.o
                0x8000fbd0                DWHCITransferStageData
                0x8000fda0                _DWHCITransferStageData
                0x8000fdfc                DWHCITransferStageDataTransactionComplete
                0x8000fed8                DWHCITransferStageDataSetSplitComplete
                0x8000fee0                DWHCITransferStageDataSetState
                0x8000fee8                DWHCITransferStageDataGetState
                0x8000fef0                DWHCITransferStageDataSetSubState
                0x8000fef8                DWHCITransferStageDataGetSubState
                0x8000ff00                DWHCITransferStageDataBeginSplitCycle
                0x8000ff08                DWHCITransferStageDataGetChannelNumber
                0x8000ff10                DWHCITransferStageDataIsPeriodic
                0x8000ff30                DWHCITransferStageDataGetDeviceAddress
                0x8000ff38                DWHCITransferStageDataGetEndpointType
                0x8000ff64                DWHCITransferStageDataGetEndpointNumber
                0x8000ff6c                DWHCITransferStageDataGetMaxPacketSize
                0x8000ff74                DWHCITransferStageDataGetSpeed
                0x8000ff7c                DWHCITransferStageDataGetPID
                0x8000ffac                DWHCITransferStageDataIsDirectionIn
                0x8000ffb4                DWHCITransferStageDataIsStatusStage
                0x8000ffbc                DWHCITransferStageDataGetDMAAddress
                0x8000ffc4                DWHCITransferStageDataGetBytesToTransfer
                0x8000ffcc                DWHCITransferStageDataGetPacketsToTransfer
                0x8000ffd4                DWHCITransferStageDataIsSplit
                0x8000ffdc                DWHCITransferStageDataIsSplitComplete
                0x8000ffe4                DWHCITransferStageDataGetHubAddress
                0x8000ffec                DWHCITransferStageDataGetHubPortAddress
                0x8000fff4                DWHCITransferStageDataGetSplitPosition
                0x8000fffc                DWHCITransferStageDataGetStatusMask
                0x80010030                DWHCITransferStageDataGetTransactionStatus
                0x80010038                DWHCITransferStageDataIsStageComplete
                0x80010048                DWHCITransferStageDataGetResultLen
                0x8001005c                DWHCITransferStageDataGetURB
                0x80010064                DWHCITransferStageDataGetFrameScheduler
 .text          0x8001006c      0x2b4 build/uspi_keymap.o
                0x8001006c                KeyMap
                0x80010090                _KeyMap
                0x80010094                KeyMapClearTable
                0x800100cc                KeyMapSetEntry
                0x8001011c                KeyMapTranslate
                0x80010238                KeyMapGetString
                0x800102f0                KeyMapGetLEDStatus
 .text          0x80010320      0x348 build/file.o
                0x80010320                fileinit
                0x80010350                filealloc
                0x800103bc                filedup
                0x80010404                fileclose
                0x800104a4                filestat
                0x800104e8                fileread
                0x80010574                filewrite
 .text          0x80010668      0x404 build/uspi_usbstring.o
                0x80010668                USBString
                0x80010690                USBStringCopy
                0x800106f8                _USBString
                0x80010738                USBStringGetFromDescriptor
                0x80010904                USBStringGet
                0x8001090c                USBStringGetLanguageID
 .text          0x80010a6c      0x748 build/uspi_library.o
                0x80010a6c                USPiInitialize
                0x80010c7c                USPiKeyboardAvailable
                0x80010c98                USPiKeyboardRegisterKeyPressedHandler
                0x80010cb0                USPiKeyboardRegisterShutdownHandler
                0x80010cc8                USPiKeyboardRegisterKeyStatusHandlerRaw
                0x80010ce0                USPiMouseAvailable
                0x80010cfc                USPiMouseRegisterStatusHandler
                0x80010d14                USPiMassStorageDeviceAvailable
                0x80010d44                USPiMassStorageDeviceRead
                0x80010db8                USPiMassStorageDeviceWrite
                0x80010e2c                USPiMassStorageDeviceGetCapacity
                0x80010e5c                USPiEthernetAvailable
                0x80010e8c                USPiGetMACAddress
                0x80010ed0                USPiSendFrame
                0x80010f24                USPiReceiveFrame
                0x80010f78                USPiGamePadAvailable
                0x80010fa8                USPiGamePadRegisterStatusHandler
                0x80010fe8                USPiGamePadGetStatus
                0x8001102c                USPiMIDIAvailable
                0x80011048                USPiMIDIRegisterPacketHandler
                0x80011060                USPiDeviceGetInformation
 .text          0x800111b4      0x7e0 build/vm.o
                0x800113b0                setupkvm
                0x800113d4                setupkvm_new
                0x80011478                kvmalloc
                0x80011490                switchkvm
                0x80011494                switchkvm_new
                0x800114c0                switchuvm
                0x80011508                inituvm
                0x80011580                loaduvm
                0x80011658                allocuvm
                0x80011748                deallocuvm
                0x8001175c                freevm
                0x800117cc                clearpteu
                0x80011800                copyuvm
                0x800118e0                uva2ka
                0x80011914                copyout
 .text          0x80011994      0x304 build/usb.o
                0x80011a0c                malloc
                0x80011a28                free
                0x80011a2c                MsDelay
                0x80011a60                usDelay
                0x80011a90                StartKernelTimer
                0x80011ac8                CancelKernelTimer
                0x80011ae0                SetPowerStateOn
                0x80011b6c                GetMACAddress
                0x80011b74                LogWrite
                0x80011bd0                usbinit
 .text          0x80011c98      0x1b0 build/sysproc.o
                0x80011c98                sys_fork
                0x80011c9c                sys_exit
                0x80011cac                sys_wait
                0x80011cb0                sys_kill
                0x80011ce4                sys_getpid
                0x80011cf8                sys_sbrk
                0x80011d48                sys_sleep
                0x80011e18                sys_uptime
 .text          0x80011e48      0x114 build/uspi_macaddress.o
                0x80011e48                MACAddress
                0x80011e54                MACAddress2
                0x80011e74                _MACAddress
                0x80011e80                MACAddressIsEqual
                0x80011ea0                MACAddressSet
                0x80011ea4                MACAddressSetBroadcast
                0x80011ec8                MACAddressGet
                0x80011ed0                MACAddressCopyTo
                0x80011ee4                MACAddressIsBroadcast
                0x80011f10                MACAddressGetSize
                0x80011f18                MACAddressFormat
 .text          0x80011f5c      0x320 build/pipe.o
                0x80011f5c                pipealloc
                0x80012034                pipeclose
                0x80012094                pipewrite
                0x8001216c                piperead
 .text          0x8001227c       0xac build/uspi_usbrequest.o
                0x8001227c                USBRequest
                0x800122a8                _USBRequest
                0x800122c0                USBRequestGetEndpoint
                0x800122c8                USBRequestSetStatus
                0x800122d0                USBRequestSetResultLen
                0x800122d8                USBRequestGetStatus
                0x800122e0                USBRequestGetResultLength
                0x800122e8                USBRequestGetSetupData
                0x800122f0                USBRequestGetBuffer
                0x800122f8                USBRequestGetBufLen
                0x80012300                USBRequestSetCompletionRoutine
                0x8001230c                USBRequestCallCompletionRoutine
 .text          0x80012328       0xa8 build/uspi_synchronize.o
                0x80012328                uspi_EnterCritical
                0x80012364                uspi_LeaveCritical
                0x800123a0                uspi_CleanAndInvalidateDataCacheRange
 .text          0x800123d0      0x3fc build/uspi_usbmouse.o
                0x80012430                USBMouseDeviceConfigure
                0x8001273c                USBMouseDevice
                0x80012778                _CUSBMouseDevice
                0x800127c4                USBMouseDeviceRegisterStatusHandler
 .text          0x800127cc      0x1fc build/kalloc.o
                0x800127cc                kfree
                0x80012860                freerange
                0x8001289c                kinit1
                0x80012910                kinit2
                0x8001295c                kalloc
 .text          0x800129c8      0x200 build/uspi_util.o
                0x800129c8                uspi_memset
                0x800129ec                uspi_memcpy
                0x80012a10                uspi_memcmp
                0x80012a6c                uspi_strlen
                0x80012a94                uspi_strcmp
                0x80012aec                uspi_strcpy
                0x80012b18                uspi_strncpy
                0x80012b60                uspi_strcat
                0x80012ba4                uspi_char2int
                0x80012bb4                uspi_le2be16
                0x80012bc0                uspi_le2be32
 .text          0x80012bc8      0xae8 build/uspi_lan7800.o
                0x80012bc8                LAN7800Device
                0x80012c00                _LAN7800Device
                0x80012c6c                LAN7800DeviceGetMACAddress
                0x80012c74                LAN7800DeviceSendFrame
                0x80012cd8                LAN7800DeviceReceiveFrame
                0x80012db4                LAN7800DeviceWriteReg
                0x80012e48                LAN7800DeviceInitMACAddress
                0x80012f30                LAN7800DeviceReadReg
                0x80012fc0                LAN7800DeviceWaitReg
                0x8001302c                LAN7800DevicePHYWrite
                0x800130b0                LAN7800DevicePHYRead
                0x80013158                LAN7800DeviceIsLinkUp
                0x80013180                LAN7800DeviceInitPHY
                0x800131c4                LAN7800DeviceReadWriteReg
                0x80013210                LAN7800DeviceConfigure
 .text          0x800136b0       0x10 build/uspienv_memio.o
                0x800136b0                read32
                0x800136b8                write32
 .text          0x800136c0     0x1ac8 build/uspi_dwhcidevice.o
                0x800136c0                DWHCIDeviceCompletionRoutine
                0x800136cc                DWHCIDevice
                0x8001370c                _DWHCIDevice
                0x80013714                DWHCIDeviceEnableGlobalInterrupts
                0x80013758                DWHCIDeviceEnableCommonInterrupts
                0x80013790                DWHCIDeviceEnableHostInterrupts
                0x800137ec                DWHCIDeviceEnableChannelInterrupt
                0x80013840                DWHCIDeviceDisableChannelInterrupt
                0x80013894                DWHCIDeviceStartChannel
                0x80013c18                DWHCIDeviceStartTransaction
                0x80013ce8                DWHCIDeviceTimerHandler
                0x80013d50                DWHCIDeviceChannelInterruptHandler
                0x800141a8                DWHCIDeviceInterruptHandler
                0x800142a8                DWHCIDeviceAllocateChannel
                0x80014320                DWHCIDeviceTransferStageAsync
                0x80014438                DWHCIDeviceSubmitAsyncRequest
                0x8001447c                DWHCIDeviceTransferStage
                0x8001450c                DWHCIDeviceSubmitBlockingRequest
                0x80014648                DWHCIDeviceControlMessage
                0x800146e8                DWHCIDeviceGetDescriptor
                0x80014724                DWHCIDeviceSetAddress
                0x8001476c                DWHCIDeviceSetConfiguration
                0x800147b4                DWHCIDeviceTransfer
                0x8001480c                DWHCIDeviceFreeChannel
                0x80014834                DWHCIDeviceWaitForBit
                0x80014888                DWHCIDeviceEnableRootPort
                0x80014948                DWHCIDeviceReset
                0x800149f4                DWHCIDeviceInitCore
                0x80014bc8                DWHCIDeviceFlushTxFIFO
                0x80014c64                DWHCIDeviceFlushRxFIFO
                0x80014ce4                DWHCIDeviceInitHost
                0x80014ee4                DWHCIDeviceInitialize
                0x800150ac                DWHCIDeviceGetPortSpeed
                0x800150f8                DWHCIDeviceOvercurrentDetected
                0x80015144                DWHCIDeviceDisableRootPort
 .text          0x80015188       0xf4 build/uspi_dwhciregister.o
                0x80015188                DWHCIRegister
                0x80015198                DWHCIRegister2
                0x800151a8                _DWHCIRegister
                0x800151b4                DWHCIRegisterRead
                0x800151d0                DWHCIRegisterWrite
                0x800151e0                DWHCIRegisterGet
                0x800151e8                DWHCIRegisterSet
                0x800151f8                DWHCIRegisterIsSet
                0x8001520c                DWHCIRegisterAnd
                0x8001521c                DWHCIRegisterOr
                0x8001522c                DWHCIRegisterClearBit
                0x80015240                DWHCIRegisterSetBit
                0x80015254                DWHCIRegisterClearAll
                0x80015268                DWHCIRegisterSetAll
 .text          0x8001527c      0x874 build/proc.o
                0x8001536c                forkret
                0x800153a0                pinit
                0x800153d0                userinit
                0x80015480                growproc
                0x800154e8                fork
                0x800155cc                scheduler
                0x80015680                sched
                0x80015714                exit
                0x80015854                yield
                0x8001588c                sleep
                0x80015940                wait
                0x80015a18                wakeup
                0x80015a70                kill
                0x80015aec                procdump
 .text          0x80015af0      0x53c build/uspi_usbkeyboard.o
                0x80015b50                USBKeyboardDeviceConfigure
                0x80015f60                USBKeyboardDevice
                0x80015fb8                _CUSBKeyboardDevice
                0x8001600c                USBKeyboardDeviceRegisterKeyPressedHandler
                0x80016014                USBKeyboardDeviceRegisterSelectConsoleHandler
                0x8001601c                USBKeyboardDeviceRegisterShutdownHandler
                0x80016024                USBKeyboardDeviceRegisterKeyStatusHandlerRaw
 .text          0x8001602c      0x120 build/timer.o
                0x8001602c                enabletimer3irq
                0x80016044                timer3init
                0x8001608c                timer3intr
                0x800160e0                delay
                0x8001610c                led_on
                0x8001612c                led_off
 .text          0x8001614c      0x128 build/uspi_devicenameservice.o
                0x8001614c                DeviceNameService
                0x80016164                _DeviceNameService
                0x800161bc                DeviceNameServiceAddDevice
                0x80016210                DeviceNameServiceGetDevice
                0x80016264                DeviceNameServiceGet
 .text          0x80016274      0xbb8 build/uspi_usbgamepad.o
                0x80016818                USBGamePadDeviceConfigure
                0x80016c9c                USBGamePadDevice
                0x80016d30                _CUSBGamePadDevice
                0x80016db4                USBGamePadDeviceRegisterStatusHandler
                0x80016dbc                USBGamePadDeviceGetReport
 .text          0x80016e2c      0xd84 build/fs.o
                0x80016f28                readsb
                0x80017188                iinit
                0x800171b8                ialloc
                0x80017268                iupdate
                0x800172e4                idup
                0x80017318                ilock
                0x80017420                iunlock
                0x80017480                iput
                0x800175c8                iunlockput
                0x800175e0                stati
                0x80017608                readi
                0x800176f8                writei
                0x80017818                namecmp
                0x80017820                dirlookup
                0x80017ab0                dirlink
                0x80017b88                namei
                0x80017ba4                nameiparent
 .text          0x80017bb0      0x210 build/uspi_dwhcirootport.o
                0x80017bb0                DWHCIRootPort
                0x80017bbc                _DWHCIRootPort
                0x80017bf0                DWHCIRootPortInitialize

.glue_7         0x80017dc0        0x0 load address 0x00017dc0
 .glue_7        0x80017dc0        0x0 linker stubs

.glue_7t        0x80017dc0        0x0 load address 0x00017dc0
 .glue_7t       0x80017dc0        0x0 linker stubs

.vfp11_veneer   0x80017dc0        0x0 load address 0x00017dc0
 .vfp11_veneer  0x80017dc0        0x0 linker stubs

.v4_bx          0x80017dc0        0x0 load address 0x00017dc0
 .v4_bx         0x80017dc0        0x0 linker stubs

.iplt           0x80017dc0        0x0 load address 0x00017dc0
 .iplt          0x80017dc0        0x0 build/entry.o

.rodata         0x80017dc0     0x1a6c load address 0x00017dc0
 *(.rodata .rodata.*)
 .rodata.str1.4
                0x80017dc0        0x0 build/uspi_string.o
                                  0x1 (size before relaxing)
 .rodata.str1.4
                0x80017dc0      0x101 build/usb_storagedriver.o
 *fill*         0x80017ec1        0x3 
 .rodata.str1.4
                0x80017ec4       0x6b build/sysfile.o
 *fill*         0x80017f2f        0x1 
 .rodata        0x80017f30       0x48 build/uspi_usbmidi.o
 .rodata.str1.4
                0x80017f78       0x24 build/uspi_usbmidi.o
 .rodata        0x80017f9c        0x7 build/uspi_usbdevice.o
 *fill*         0x80017fa3        0x1 
 .rodata.str1.4
                0x80017fa4      0x150 build/uspi_usbdevice.o
 .rodata.str1.4
                0x800180f4       0x77 build/uspi_usbdevicefactory.o
 *fill*         0x8001816b        0x1 
 .rodata        0x8001816c       0x11 build/console.o
 *fill*         0x8001817d        0x3 
 .rodata.str1.4
                0x80018180       0x5e build/console.o
                                 0x62 (size before relaxing)
 *fill*         0x800181de        0x2 
 .rodata.str1.4
                0x800181e0       0x60 build/spinlock.o
 .rodata.str1.4
                0x80018240      0x1aa build/trap.o
 *fill*         0x800183ea        0x2 
 .rodata.str1.4
                0x800183ec       0x1c build/uspi_dwhciframeschednper.o
 .rodata.str1.4
                0x80018408       0xf9 build/main.o
 *fill*         0x80018501        0x3 
 .rodata.str1.4
                0x80018504       0x2b build/bio.o
 *fill*         0x8001852f        0x1 
 .rodata        0x80018530       0x5c build/syscall.o
 .rodata.str1.4
                0x8001858c       0x1c build/syscall.o
 .rodata.str1.4
                0x800185a8       0x2f build/uspi_usbconfigparser.o
 *fill*         0x800185d7        0x1 
 .rodata        0x800185d8        0x7 build/uspi_usbstandardhub.o
 *fill*         0x800185df        0x1 
 .rodata.str1.4
                0x800185e0      0x1c0 build/uspi_usbstandardhub.o
                                0x1e4 (size before relaxing)
 .rodata.str1.4
                0x800187a0       0x6e build/memide.o
 .rodata.str1.4
                0x8001880e       0x1c build/uspi_dwhciframeschedper.o
 *fill*         0x8001880e        0x2 
 .rodata        0x80018810        0x5 build/uspi_usbmassdevice.o
 *fill*         0x80018815        0x3 
 .rodata.str1.4
                0x80018818      0x1cc build/uspi_usbmassdevice.o
                                0x1e8 (size before relaxing)
 .rodata        0x800189e4        0x9 build/uspi_smsc951x.o
 *fill*         0x800189ed        0x3 
 .rodata.str1.4
                0x800189f0       0x76 build/uspi_smsc951x.o
                                 0x92 (size before relaxing)
 *fill*         0x80018a66        0x2 
 .rodata.str1.4
                0x80018a68       0x33 build/log.o
 *fill*         0x80018a9b        0x1 
 .rodata        0x80018a9c      0x4cc build/uspi_keymap.o
 .rodata.str1.4
                0x80018f68       0xce build/uspi_keymap.o
                                 0xde (size before relaxing)
 *fill*         0x80019036        0x2 
 .rodata.str1.4
                0x80019038       0x42 build/file.o
 *fill*         0x8001907a        0x2 
 .rodata        0x8001907c        0x5 build/uspi_library.o
 *fill*         0x80019081        0x3 
 .rodata.str1.4
                0x80019084       0x86 build/uspi_library.o
                                 0x8e (size before relaxing)
 *fill*         0x8001910a        0x2 
 .rodata.str1.4
                0x8001910c      0x16e build/vm.o
 *fill*         0x8001927a        0x2 
 .rodata.str1.4
                0x8001927c      0x122 build/usb.o
 *fill*         0x8001939e        0x2 
 .rodata.str1.4
                0x800193a0       0x1e build/uspi_macaddress.o
 *fill*         0x800193be        0x2 
 .rodata.str1.4
                0x800193c0        0x5 build/pipe.o
 *fill*         0x800193c5        0x3 
 .rodata        0x800193c8        0x7 build/uspi_usbmouse.o
 *fill*         0x800193cf        0x1 
 .rodata.str1.4
                0x800193d0       0x25 build/uspi_usbmouse.o
                                 0x59 (size before relaxing)
 *fill*         0x800193f5        0x3 
 .rodata.str1.4
                0x800193f8        0x5 build/kalloc.o
                                  0xd (size before relaxing)
 *fill*         0x800193fd        0x3 
 .rodata        0x80019400        0x8 build/uspi_lan7800.o
 .rodata.str1.4
                0x80019408       0x9c build/uspi_lan7800.o
                                 0xea (size before relaxing)
 .rodata        0x800194a4       0x14 build/uspi_dwhcidevice.o
 .rodata.str1.4
                0x800194b8      0x138 build/uspi_dwhcidevice.o
 .rodata.str1.4
                0x800195f0       0xa9 build/proc.o
                                 0xad (size before relaxing)
 *fill*         0x80019699        0x3 
 .rodata        0x8001969c        0x7 build/uspi_usbkeyboard.o
 *fill*         0x800196a3        0x1 
 .rodata.str1.4
                0x800196a4        0x7 build/uspi_usbkeyboard.o
                                 0x57 (size before relaxing)
 *fill*         0x800196ab        0x1 
 .rodata        0x800196ac        0xd build/uspi_usbgamepad.o
 *fill*         0x800196b9        0x3 
 .rodata.str1.4
                0x800196bc       0x21 build/uspi_usbgamepad.o
                                 0x5f (size before relaxing)
 *fill*         0x800196dd        0x3 
 .rodata.str1.4
                0x800196e0       0xb9 build/fs.o
                                 0xc4 (size before relaxing)
 *fill*         0x80019799        0x3 
 .rodata        0x8001979c        0x7 build/uspi_dwhcirootport.o
 *fill*         0x800197a3        0x1 
 .rodata.str1.4
                0x800197a4       0x88 build/uspi_dwhcirootport.o
                                 0x87 (size before relaxing)

.rel.dyn        0x8001982c        0x0 load address 0x0001982c
 .rel.iplt      0x8001982c        0x0 build/entry.o
                0x8001a000                . = ALIGN (0x1000)

.data           0x8001a000    0x80940 load address 0x0001a000
 *(.data)
 .data          0x8001a000    0x80850 build/entry.o
                0x8001a000                font
                0x8001a800                _binary_initcode_start
                0x8001a850                _binary_fs_img_start
                0x8001a850                _binary_initcode_end
                0x8009a850                _binary_fs_img_end
 .data          0x8009a850        0x0 build/exception.o
 .data          0x8009a850        0x0 build/uspienv_delayloop.o
 .data          0x8009a850        0x0 build/uspi_dwhciframeschednsplit.o
 .data          0x8009a850        0x0 build/exec.o
 .data          0x8009a850        0x0 build/uart_pl011.o
 .data          0x8009a850        0x0 build/uspi_string.o
 .data          0x8009a850       0x15 build/usb_storagedriver.o
                0x8009a850                name
 .data          0x8009a865        0x0 build/sysfile.o
 .data          0x8009a865        0x0 build/string.o
 *fill*         0x8009a865        0x3 
 .data          0x8009a868        0x4 build/uspi_usbmidi.o
 .data          0x8009a86c        0x1 build/uspi_usbdevice.o
 .data          0x8009a86d        0x0 build/uspi_usbdevicefactory.o
 *fill*         0x8009a86d        0x3 
 .data          0x8009a870       0x24 build/console.o
                0x8009a874                framewidth
                0x8009a878                frameheight
                0x8009a87c                cursor_x
                0x8009a880                fontheight
                0x8009a884                cursor_y
                0x8009a888                fontwidth
                0x8009a890                framedepth
 .data          0x8009a894        0x0 build/spinlock.o
 .data          0x8009a894        0x4 build/trap.o
                0x8009a894                first_time
 .data          0x8009a898        0x0 build/uspi_dwhciframeschednper.o
 .data          0x8009a898        0x4 build/uspienv_timer.o
 .data          0x8009a89c        0x0 build/main.o
 .data          0x8009a89c        0x0 build/bio.o
 .data          0x8009a89c        0x0 build/syscall.o
 .data          0x8009a89c        0x0 build/uspi_usbendpoint.o
 .data          0x8009a89c        0x0 build/uspi_usbconfigparser.o
 .data          0x8009a89c        0x0 build/mailbox.o
 .data          0x8009a89c        0x0 build/uspi_usbstandardhub.o
 .data          0x8009a89c        0x0 build/memide.o
 .data          0x8009a89c        0x0 build/uspi_dwhciframeschedper.o
 .data          0x8009a89c        0x4 build/uspi_usbmassdevice.o
 .data          0x8009a8a0        0x0 build/mmu.o
 .data          0x8009a8a0        0x4 build/uspi_smsc951x.o
 .data          0x8009a8a4        0x0 build/log.o
 .data          0x8009a8a4        0x0 build/uart.o
 .data          0x8009a8a4        0x0 build/uspi_dwhcixferstagedata.o
 .data          0x8009a8a4        0x0 build/uspi_keymap.o
 .data          0x8009a8a4        0x0 build/file.o
 .data          0x8009a8a4        0x0 build/uspi_usbstring.o
 .data          0x8009a8a4        0x4 build/uspi_library.o
 .data          0x8009a8a8       0x3c build/vm.o
 .data          0x8009a8e4        0x8 build/usb.o
                0x8009a8e4                usb_active
                0x8009a8e8                device_index
 .data          0x8009a8ec        0x0 build/sysproc.o
 .data          0x8009a8ec        0x0 build/uspi_macaddress.o
 .data          0x8009a8ec        0x0 build/pipe.o
 .data          0x8009a8ec        0x0 build/uspi_usbrequest.o
 .data          0x8009a8ec        0x4 build/uspi_synchronize.o
 .data          0x8009a8f0        0x4 build/uspi_usbmouse.o
 .data          0x8009a8f4        0x0 build/kalloc.o
 .data          0x8009a8f4        0x0 build/uspi_util.o
 .data          0x8009a8f4        0x4 build/uspi_lan7800.o
 .data          0x8009a8f8        0x0 build/uspienv_memio.o
 .data          0x8009a8f8        0x0 build/uspi_dwhcidevice.o
 .data          0x8009a8f8        0x0 build/uspi_dwhciregister.o
 .data          0x8009a8f8        0xc build/proc.o
                0x8009a8f8                nextpid
                0x8009a900                first_sched
 .data          0x8009a904        0x4 build/uspi_usbkeyboard.o
 .data          0x8009a908        0x0 build/timer.o
 .data          0x8009a908        0x4 build/uspi_devicenameservice.o
 .data          0x8009a90c       0x34 build/uspi_usbgamepad.o
 .data          0x8009a940        0x0 build/fs.o
 .data          0x8009a940        0x0 build/uspi_dwhcirootport.o
 *.c.o(*)

.igot.plt       0x8009a940        0x0 load address 0x0009a940
 .igot.plt      0x8009a940        0x0 build/entry.o

.bss            0x8009a940     0x5574 load address 0x0009a940
 *(.bss)
 .bss           0x8009a940        0x0 build/entry.o
 .bss           0x8009a940        0x0 build/exception.o
 .bss           0x8009a940        0x0 build/uspienv_delayloop.o
 .bss           0x8009a940        0x0 build/uspi_dwhciframeschednsplit.o
 .bss           0x8009a940        0x0 build/exec.o
 .bss           0x8009a940        0x0 build/uart_pl011.o
 .bss           0x8009a940        0x0 build/uspi_string.o
 .bss           0x8009a940        0x0 build/usb_storagedriver.o
 .bss           0x8009a940        0x0 build/sysfile.o
 .bss           0x8009a940        0x0 build/string.o
 .bss           0x8009a940        0x0 build/uspi_usbmidi.o
 .bss           0x8009a940        0x0 build/uspi_usbdevice.o
 .bss           0x8009a940        0x0 build/uspi_usbdevicefactory.o
 .bss           0x8009a940       0x60 build/console.o
                0x8009a940                fbinfo
 .bss           0x8009a9a0        0x0 build/spinlock.o
 .bss           0x8009a9a0        0x0 build/trap.o
 .bss           0x8009a9a0        0x0 build/uspi_dwhciframeschednper.o
 .bss           0x8009a9a0        0x0 build/uspienv_timer.o
 .bss           0x8009a9a0        0x0 build/main.o
 .bss           0x8009a9a0        0x0 build/bio.o
 .bss           0x8009a9a0        0x0 build/syscall.o
 .bss           0x8009a9a0        0x0 build/uspi_usbendpoint.o
 .bss           0x8009a9a0        0x0 build/uspi_usbconfigparser.o
 .bss           0x8009a9a0        0x0 build/mailbox.o
 .bss           0x8009a9a0        0x0 build/uspi_usbstandardhub.o
 .bss           0x8009a9a0        0x8 build/memide.o
 .bss           0x8009a9a8        0x0 build/uspi_dwhciframeschedper.o
 .bss           0x8009a9a8        0x0 build/uspi_usbmassdevice.o
 .bss           0x8009a9a8        0x0 build/mmu.o
 .bss           0x8009a9a8        0x0 build/uspi_smsc951x.o
 .bss           0x8009a9a8        0x0 build/log.o
 .bss           0x8009a9a8        0xc build/uart.o
 .bss           0x8009a9b4        0x0 build/uspi_dwhcixferstagedata.o
 .bss           0x8009a9b4        0x0 build/uspi_keymap.o
 .bss           0x8009a9b4        0x0 build/file.o
 .bss           0x8009a9b4        0x0 build/uspi_usbstring.o
 .bss           0x8009a9b4        0x0 build/uspi_library.o
 .bss           0x8009a9b4        0x0 build/vm.o
 .bss           0x8009a9b4      0x158 build/usb.o
 .bss           0x8009ab0c        0x0 build/sysproc.o
 .bss           0x8009ab0c        0x0 build/uspi_macaddress.o
 .bss           0x8009ab0c        0x0 build/pipe.o
 .bss           0x8009ab0c        0x0 build/uspi_usbrequest.o
 .bss           0x8009ab0c        0x4 build/uspi_synchronize.o
 .bss           0x8009ab10        0x0 build/uspi_usbmouse.o
 .bss           0x8009ab10        0x0 build/kalloc.o
 .bss           0x8009ab10        0x0 build/uspi_util.o
 .bss           0x8009ab10        0x0 build/uspi_lan7800.o
 .bss           0x8009ab10        0x0 build/uspienv_memio.o
 .bss           0x8009ab10        0x0 build/uspi_dwhcidevice.o
 .bss           0x8009ab10        0x0 build/uspi_dwhciregister.o
 .bss           0x8009ab10        0x4 build/proc.o
 .bss           0x8009ab14        0x0 build/uspi_usbkeyboard.o
 .bss           0x8009ab14        0x0 build/timer.o
 .bss           0x8009ab14        0x0 build/uspi_devicenameservice.o
 .bss           0x8009ab14        0x0 build/uspi_usbgamepad.o
 .bss           0x8009ab14        0x0 build/fs.o
 .bss           0x8009ab14        0x0 build/uspi_dwhcirootport.o
 COMMON         0x8009ab14       0xe0 build/exec.o
                0x8009ab14                cpus
 COMMON         0x8009abf4        0x4 build/uart_pl011.o
                0x8009abf4                uart_lock
 COMMON         0x8009abf8       0xa0 build/usb_storagedriver.o
                0x8009abf8                device_handler
 COMMON         0x8009ac98       0xc0 build/console.o
                0x8009ac98                input
 COMMON         0x8009ad58       0x50 build/trap.o
                0x8009ad58                pUSBParam
                0x8009ad5c                pUSBTimerParam
                0x8009ad60                nUSBTimerIRQ
                0x8009ad64                tickslock
                0x8009ad98                pUSBTimerHandler
                0x8009ad9c                ticks
                0x8009ada0                pUSBHandler
                0x8009ada4                nUSBIRQ
 COMMON         0x8009ada8       0x28 build/main.o
                0x8009ada8                mb_data
 COMMON         0x8009add0     0x173c build/bio.o
                0x8009add0                bcache
 COMMON         0x8009c50c        0x4 build/mailbox.o
                0x8009c50c                mailbuffer
 COMMON         0x8009c510        0x4 build/mmu.o
                0x8009c510                pm_size
 COMMON         0x8009c514       0x70 build/log.o
                0x8009c514                log
 COMMON         0x8009c584        0x4 build/uart.o
                0x8009c584                uart_disabled
 COMMON         0x8009c588      0x9e4 build/file.o
                0x8009c588                ftable
                0x8009cf1c                devsw
 COMMON         0x8009cf6c        0x4 build/vm.o
                0x8009cf6c                kpgdir
 COMMON         0x8009cf70       0x3c build/kalloc.o
                0x8009cf70                kmem
 COMMON         0x8009cfac     0x1f34 build/proc.o
                0x8009cfac                ptable
 COMMON         0x8009eee0      0xfd4 build/fs.o
                0x8009eee0                icache
                0x8009feb4                PROVIDE (end = .)

/DISCARD/
 *(.eh_frame .note.GNU-stack)
OUTPUT(build/kernel.elf elf32-littlearm)

.ARM.attributes
                0x00000000       0x35
 .ARM.attributes
                0x00000000       0x25 build/entry.o
 .ARM.attributes
                0x00000025       0x25 build/exception.o
 .ARM.attributes
                0x0000004a       0x25 build/uspienv_delayloop.o
 .ARM.attributes
                0x0000006f       0x39 build/uspi_dwhciframeschednsplit.o
 .ARM.attributes
                0x000000a8       0x39 build/exec.o
 .ARM.attributes
                0x000000e1       0x39 build/uart_pl011.o
 .ARM.attributes
                0x0000011a       0x39 build/uspi_string.o
 .ARM.attributes
                0x00000153       0x39 build/usb_storagedriver.o
 .ARM.attributes
                0x0000018c       0x39 build/sysfile.o
 .ARM.attributes
                0x000001c5       0x39 build/string.o
 .ARM.attributes
                0x000001fe       0x39 build/uspi_usbmidi.o
 .ARM.attributes
                0x00000237       0x39 build/uspi_usbdevice.o
 .ARM.attributes
                0x00000270       0x39 build/uspi_usbdevicefactory.o
 .ARM.attributes
                0x000002a9       0x39 build/console.o
 .ARM.attributes
                0x000002e2       0x39 build/spinlock.o
 .ARM.attributes
                0x0000031b       0x39 build/trap.o
 .ARM.attributes
                0x00000354       0x39 build/uspi_dwhciframeschednper.o
 .ARM.attributes
                0x0000038d       0x39 build/uspienv_timer.o
 .ARM.attributes
                0x000003c6       0x39 build/main.o
 .ARM.attributes
                0x000003ff       0x39 build/bio.o
 .ARM.attributes
                0x00000438       0x39 build/syscall.o
 .ARM.attributes
                0x00000471       0x39 build/uspi_usbendpoint.o
 .ARM.attributes
                0x000004aa       0x39 build/uspi_usbconfigparser.o
 .ARM.attributes
                0x000004e3       0x39 build/mailbox.o
 .ARM.attributes
                0x0000051c       0x39 build/uspi_usbstandardhub.o
 .ARM.attributes
                0x00000555       0x39 build/memide.o
 .ARM.attributes
                0x0000058e       0x39 build/uspi_dwhciframeschedper.o
 .ARM.attributes
                0x000005c7       0x39 build/uspi_usbmassdevice.o
 .ARM.attributes
                0x00000600       0x39 build/mmu.o
 .ARM.attributes
                0x00000639       0x39 build/uspi_smsc951x.o
 .ARM.attributes
                0x00000672       0x39 build/log.o
 .ARM.attributes
                0x000006ab       0x39 build/uart.o
 .ARM.attributes
                0x000006e4       0x39 build/uspi_dwhcixferstagedata.o
 .ARM.attributes
                0x0000071d       0x39 build/uspi_keymap.o
 .ARM.attributes
                0x00000756       0x39 build/file.o
 .ARM.attributes
                0x0000078f       0x39 build/uspi_usbstring.o
 .ARM.attributes
                0x000007c8       0x39 build/uspi_library.o
 .ARM.attributes
                0x00000801       0x39 build/vm.o
 .ARM.attributes
                0x0000083a       0x39 build/usb.o
 .ARM.attributes
                0x00000873       0x39 build/sysproc.o
 .ARM.attributes
                0x000008ac       0x39 build/uspi_macaddress.o
 .ARM.attributes
                0x000008e5       0x39 build/pipe.o
 .ARM.attributes
                0x0000091e       0x39 build/uspi_usbrequest.o
 .ARM.attributes
                0x00000957       0x39 build/uspi_synchronize.o
 .ARM.attributes
                0x00000990       0x39 build/uspi_usbmouse.o
 .ARM.attributes
                0x000009c9       0x39 build/kalloc.o
 .ARM.attributes
                0x00000a02       0x39 build/uspi_util.o
 .ARM.attributes
                0x00000a3b       0x39 build/uspi_lan7800.o
 .ARM.attributes
                0x00000a74       0x39 build/uspienv_memio.o
 .ARM.attributes
                0x00000aad       0x39 build/uspi_dwhcidevice.o
 .ARM.attributes
                0x00000ae6       0x39 build/uspi_dwhciregister.o
 .ARM.attributes
                0x00000b1f       0x39 build/proc.o
 .ARM.attributes
                0x00000b58       0x39 build/uspi_usbkeyboard.o
 .ARM.attributes
                0x00000b91       0x39 build/timer.o
 .ARM.attributes
                0x00000bca       0x39 build/uspi_devicenameservice.o
 .ARM.attributes
                0x00000c03       0x39 build/uspi_usbgamepad.o
 .ARM.attributes
                0x00000c3c       0x39 build/fs.o
 .ARM.attributes
                0x00000c75       0x39 build/uspi_dwhcirootport.o

.comment        0x00000000       0x23
 .comment       0x00000000       0x23 build/uspi_dwhciframeschednsplit.o
                                 0x24 (size before relaxing)
 .comment       0x00000023       0x24 build/exec.o
 .comment       0x00000023       0x24 build/uart_pl011.o
 .comment       0x00000023       0x24 build/uspi_string.o
 .comment       0x00000023       0x24 build/usb_storagedriver.o
 .comment       0x00000023       0x24 build/sysfile.o
 .comment       0x00000023       0x24 build/string.o
 .comment       0x00000023       0x24 build/uspi_usbmidi.o
 .comment       0x00000023       0x24 build/uspi_usbdevice.o
 .comment       0x00000023       0x24 build/uspi_usbdevicefactory.o
 .comment       0x00000023       0x24 build/console.o
 .comment       0x00000023       0x24 build/spinlock.o
 .comment       0x00000023       0x24 build/trap.o
 .comment       0x00000023       0x24 build/uspi_dwhciframeschednper.o
 .comment       0x00000023       0x24 build/uspienv_timer.o
 .comment       0x00000023       0x24 build/main.o
 .comment       0x00000023       0x24 build/bio.o
 .comment       0x00000023       0x24 build/syscall.o
 .comment       0x00000023       0x24 build/uspi_usbendpoint.o
 .comment       0x00000023       0x24 build/uspi_usbconfigparser.o
 .comment       0x00000023       0x24 build/mailbox.o
 .comment       0x00000023       0x24 build/uspi_usbstandardhub.o
 .comment       0x00000023       0x24 build/memide.o
 .comment       0x00000023       0x24 build/uspi_dwhciframeschedper.o
 .comment       0x00000023       0x24 build/uspi_usbmassdevice.o
 .comment       0x00000023       0x24 build/mmu.o
 .comment       0x00000023       0x24 build/uspi_smsc951x.o
 .comment       0x00000023       0x24 build/log.o
 .comment       0x00000023       0x24 build/uart.o
 .comment       0x00000023       0x24 build/uspi_dwhcixferstagedata.o
 .comment       0x00000023       0x24 build/uspi_keymap.o
 .comment       0x00000023       0x24 build/file.o
 .comment       0x00000023       0x24 build/uspi_usbstring.o
 .comment       0x00000023       0x24 build/uspi_library.o
 .comment       0x00000023       0x24 build/vm.o
 .comment       0x00000023       0x24 build/usb.o
 .comment       0x00000023       0x24 build/sysproc.o
 .comment       0x00000023       0x24 build/uspi_macaddress.o
 .comment       0x00000023       0x24 build/pipe.o
 .comment       0x00000023       0x24 build/uspi_usbrequest.o
 .comment       0x00000023       0x24 build/uspi_synchronize.o
 .comment       0x00000023       0x24 build/uspi_usbmouse.o
 .comment       0x00000023       0x24 build/kalloc.o
 .comment       0x00000023       0x24 build/uspi_util.o
 .comment       0x00000023       0x24 build/uspi_lan7800.o
 .comment       0x00000023       0x24 build/uspienv_memio.o
 .comment       0x00000023       0x24 build/uspi_dwhcidevice.o
 .comment       0x00000023       0x24 build/uspi_dwhciregister.o
 .comment       0x00000023       0x24 build/proc.o
 .comment       0x00000023       0x24 build/uspi_usbkeyboard.o
 .comment       0x00000023       0x24 build/timer.o
 .comment       0x00000023       0x24 build/uspi_devicenameservice.o
 .comment       0x00000023       0x24 build/uspi_usbgamepad.o
 .comment       0x00000023       0x24 build/fs.o
 .comment       0x00000023       0x24 build/uspi_dwhcirootport.o

.debug_line     0x00000000     0xecf5
 .debug_line    0x00000000       0xfb build/entry.o
 .debug_line    0x000000fb       0xdd build/exception.o
 .debug_line    0x000001d8       0x4c build/uspienv_delayloop.o
 .debug_line    0x00000224      0x19a build/uspi_dwhciframeschednsplit.o
 .debug_line    0x000003be      0x274 build/exec.o
 .debug_line    0x00000632      0x10f build/uart_pl011.o
 .debug_line    0x00000741      0xaf0 build/uspi_string.o
 .debug_line    0x00001231      0x40e build/usb_storagedriver.o
 .debug_line    0x0000163f      0x896 build/sysfile.o
 .debug_line    0x00001ed5      0x31d build/string.o
 .debug_line    0x000021f2      0x3b0 build/uspi_usbmidi.o
 .debug_line    0x000025a2      0x66f build/uspi_usbdevice.o
 .debug_line    0x00002c11      0x35e build/uspi_usbdevicefactory.o
 .debug_line    0x00002f6f      0x9fb build/console.o
 .debug_line    0x0000396a      0x1b7 build/spinlock.o
 .debug_line    0x00003b21      0x480 build/trap.o
 .debug_line    0x00003fa1      0x22f build/uspi_dwhciframeschednper.o
 .debug_line    0x000041d0      0x43f build/uspienv_timer.o
 .debug_line    0x0000460f      0x1c0 build/main.o
 .debug_line    0x000047cf      0x279 build/bio.o
 .debug_line    0x00004a48      0x297 build/syscall.o
 .debug_line    0x00004cdf      0x324 build/uspi_usbendpoint.o
 .debug_line    0x00005003      0x278 build/uspi_usbconfigparser.o
 .debug_line    0x0000527b      0x235 build/mailbox.o
 .debug_line    0x000054b0      0x788 build/uspi_usbstandardhub.o
 .debug_line    0x00005c38      0x132 build/memide.o
 .debug_line    0x00005d6a      0x2f5 build/uspi_dwhciframeschedper.o
 .debug_line    0x0000605f      0x87f build/uspi_usbmassdevice.o
 .debug_line    0x000068de      0x1ea build/mmu.o
 .debug_line    0x00006ac8      0x4de build/uspi_smsc951x.o
 .debug_line    0x00006fa6      0x2f4 build/log.o
 .debug_line    0x0000729a      0x59f build/uart.o
 .debug_line    0x00007839      0x686 build/uspi_dwhcixferstagedata.o
 .debug_line    0x00007ebf      0x2e0 build/uspi_keymap.o
 .debug_line    0x0000819f      0x2be build/file.o
 .debug_line    0x0000845d      0x436 build/uspi_usbstring.o
 .debug_line    0x00008893      0x774 build/uspi_library.o
 .debug_line    0x00009007      0x772 build/vm.o
 .debug_line    0x00009779      0x34e build/usb.o
 .debug_line    0x00009ac7      0x1a2 build/sysproc.o
 .debug_line    0x00009c69      0x181 build/uspi_macaddress.o
 .debug_line    0x00009dea      0x2e7 build/pipe.o
 .debug_line    0x0000a0d1      0x1ca build/uspi_usbrequest.o
 .debug_line    0x0000a29b       0xd3 build/uspi_synchronize.o
 .debug_line    0x0000a36e      0x3b8 build/uspi_usbmouse.o
 .debug_line    0x0000a726      0x25c build/kalloc.o
 .debug_line    0x0000a982      0x250 build/uspi_util.o
 .debug_line    0x0000abd2      0x808 build/uspi_lan7800.o
 .debug_line    0x0000b3da       0x76 build/uspienv_memio.o
 .debug_line    0x0000b450      0xeb3 build/uspi_dwhcidevice.o
 .debug_line    0x0000c303      0x19f build/uspi_dwhciregister.o
 .debug_line    0x0000c4a2      0x784 build/proc.o
 .debug_line    0x0000cc26      0x4fb build/uspi_usbkeyboard.o
 .debug_line    0x0000d121      0x1e2 build/timer.o
 .debug_line    0x0000d303      0x1b0 build/uspi_devicenameservice.o
 .debug_line    0x0000d4b3      0xa02 build/uspi_usbgamepad.o
 .debug_line    0x0000deb5      0xb9d build/fs.o
 .debug_line    0x0000ea52      0x2a3 build/uspi_dwhcirootport.o

.debug_info     0x00000000    0x301c0
 .debug_info    0x00000000       0x22 build/entry.o
 .debug_info    0x00000022       0x26 build/exception.o
 .debug_info    0x00000048       0x26 build/uspienv_delayloop.o
 .debug_info    0x0000006e      0x3bf build/uspi_dwhciframeschednsplit.o
 .debug_info    0x0000042d      0x93c build/exec.o
 .debug_info    0x00000d69       0xc8 build/uart_pl011.o
 .debug_info    0x00000e31     0x1574 build/uspi_string.o
 .debug_info    0x000023a5      0x6c8 build/usb_storagedriver.o
 .debug_info    0x00002a6d     0x1801 build/sysfile.o
 .debug_info    0x0000426e      0x5c8 build/string.o
 .debug_info    0x00004836     0x1272 build/uspi_usbmidi.o
 .debug_info    0x00005aa8     0x16c6 build/uspi_usbdevice.o
 .debug_info    0x0000716e     0x1847 build/uspi_usbdevicefactory.o
 .debug_info    0x000089b5     0x15a7 build/console.o
 .debug_info    0x00009f5c      0x73e build/spinlock.o
 .debug_info    0x0000a69a      0xc3c build/trap.o
 .debug_info    0x0000b2d6      0x421 build/uspi_dwhciframeschednper.o
 .debug_info    0x0000b6f7      0x8de build/uspienv_timer.o
 .debug_info    0x0000bfd5      0xc29 build/main.o
 .debug_info    0x0000cbfe      0x4af build/bio.o
 .debug_info    0x0000d0ad      0x7b7 build/syscall.o
 .debug_info    0x0000d864      0xad5 build/uspi_usbendpoint.o
 .debug_info    0x0000e339      0x61c build/uspi_usbconfigparser.o
 .debug_info    0x0000e955      0x9a9 build/mailbox.o
 .debug_info    0x0000f2fe     0x1b0e build/uspi_usbstandardhub.o
 .debug_info    0x00010e0c      0x68b build/memide.o
 .debug_info    0x00011497      0x571 build/uspi_dwhciframeschedper.o
 .debug_info    0x00011a08     0x23d4 build/uspi_usbmassdevice.o
 .debug_info    0x00013ddc      0x1a1 build/mmu.o
 .debug_info    0x00013f7d     0x1677 build/uspi_smsc951x.o
 .debug_info    0x000155f4      0x6ee build/log.o
 .debug_info    0x00015ce2      0xe29 build/uart.o
 .debug_info    0x00016b0b     0x15a7 build/uspi_dwhcixferstagedata.o
 .debug_info    0x000180b2      0x5f7 build/uspi_keymap.o
 .debug_info    0x000186a9      0x84a build/file.o
 .debug_info    0x00018ef3     0x108d build/uspi_usbstring.o
 .debug_info    0x00019f80     0x1f4c build/uspi_library.o
 .debug_info    0x0001becc     0x1513 build/vm.o
 .debug_info    0x0001d3df      0xbb9 build/usb.o
 .debug_info    0x0001df98      0x683 build/sysproc.o
 .debug_info    0x0001e61b      0x498 build/uspi_macaddress.o
 .debug_info    0x0001eab3      0x93a build/pipe.o
 .debug_info    0x0001f3ed      0xb33 build/uspi_usbrequest.o
 .debug_info    0x0001ff20      0x123 build/uspi_synchronize.o
 .debug_info    0x00020043     0x12d4 build/uspi_usbmouse.o
 .debug_info    0x00021317      0x44b build/kalloc.o
 .debug_info    0x00021762      0x43d build/uspi_util.o
 .debug_info    0x00021b9f     0x1ffd build/uspi_lan7800.o
 .debug_info    0x00023b9c       0xcf build/uspienv_memio.o
 .debug_info    0x00023c6b     0x4693 build/uspi_dwhcidevice.o
 .debug_info    0x000282fe      0x386 build/uspi_dwhciregister.o
 .debug_info    0x00028684      0xf32 build/proc.o
 .debug_info    0x000295b6     0x1918 build/uspi_usbkeyboard.o
 .debug_info    0x0002aece      0x7f8 build/timer.o
 .debug_info    0x0002b6c6      0x331 build/uspi_devicenameservice.o
 .debug_info    0x0002b9f7     0x1ad2 build/uspi_usbgamepad.o
 .debug_info    0x0002d4c9     0x1e3e build/fs.o
 .debug_info    0x0002f307      0xeb9 build/uspi_dwhcirootport.o

.debug_abbrev   0x00000000     0x831b
 .debug_abbrev  0x00000000       0x12 build/entry.o
 .debug_abbrev  0x00000012       0x14 build/exception.o
 .debug_abbrev  0x00000026       0x14 build/uspienv_delayloop.o
 .debug_abbrev  0x0000003a      0x1ae build/uspi_dwhciframeschednsplit.o
 .debug_abbrev  0x000001e8      0x1be build/exec.o
 .debug_abbrev  0x000003a6       0xbc build/uart_pl011.o
 .debug_abbrev  0x00000462      0x34d build/uspi_string.o
 .debug_abbrev  0x000007af      0x210 build/usb_storagedriver.o
 .debug_abbrev  0x000009bf      0x325 build/sysfile.o
 .debug_abbrev  0x00000ce4      0x1a9 build/string.o
 .debug_abbrev  0x00000e8d      0x267 build/uspi_usbmidi.o
 .debug_abbrev  0x000010f4      0x2fa build/uspi_usbdevice.o
 .debug_abbrev  0x000013ee      0x1d7 build/uspi_usbdevicefactory.o
 .debug_abbrev  0x000015c5      0x487 build/console.o
 .debug_abbrev  0x00001a4c      0x24b build/spinlock.o
 .debug_abbrev  0x00001c97      0x282 build/trap.o
 .debug_abbrev  0x00001f19      0x1ed build/uspi_dwhciframeschednper.o
 .debug_abbrev  0x00002106      0x313 build/uspienv_timer.o
 .debug_abbrev  0x00002419      0x217 build/main.o
 .debug_abbrev  0x00002630      0x23a build/bio.o
 .debug_abbrev  0x0000286a      0x2a1 build/syscall.o
 .debug_abbrev  0x00002b0b      0x1a8 build/uspi_usbendpoint.o
 .debug_abbrev  0x00002cb3      0x176 build/uspi_usbconfigparser.o
 .debug_abbrev  0x00002e29      0x2aa build/mailbox.o
 .debug_abbrev  0x000030d3      0x256 build/uspi_usbstandardhub.o
 .debug_abbrev  0x00003329      0x1e9 build/memide.o
 .debug_abbrev  0x00003512      0x23d build/uspi_dwhciframeschedper.o
 .debug_abbrev  0x0000374f      0x350 build/uspi_usbmassdevice.o
 .debug_abbrev  0x00003a9f       0xe1 build/mmu.o
 .debug_abbrev  0x00003b80      0x248 build/uspi_smsc951x.o
 .debug_abbrev  0x00003dc8      0x21e build/log.o
 .debug_abbrev  0x00003fe6      0x2d8 build/uart.o
 .debug_abbrev  0x000042be      0x301 build/uspi_dwhcixferstagedata.o
 .debug_abbrev  0x000045bf      0x1e2 build/uspi_keymap.o
 .debug_abbrev  0x000047a1      0x215 build/file.o
 .debug_abbrev  0x000049b6      0x216 build/uspi_usbstring.o
 .debug_abbrev  0x00004bcc      0x313 build/uspi_library.o
 .debug_abbrev  0x00004edf      0x425 build/vm.o
 .debug_abbrev  0x00005304      0x38d build/usb.o
 .debug_abbrev  0x00005691      0x197 build/sysproc.o
 .debug_abbrev  0x00005828      0x1e1 build/uspi_macaddress.o
 .debug_abbrev  0x00005a09      0x229 build/pipe.o
 .debug_abbrev  0x00005c32      0x18f build/uspi_usbrequest.o
 .debug_abbrev  0x00005dc1       0xd8 build/uspi_synchronize.o
 .debug_abbrev  0x00005e99      0x255 build/uspi_usbmouse.o
 .debug_abbrev  0x000060ee      0x26b build/kalloc.o
 .debug_abbrev  0x00006359       0xfe build/uspi_util.o
 .debug_abbrev  0x00006457      0x2dd build/uspi_lan7800.o
 .debug_abbrev  0x00006734       0x96 build/uspienv_memio.o
 .debug_abbrev  0x000067ca      0x422 build/uspi_dwhcidevice.o
 .debug_abbrev  0x00006bec       0xff build/uspi_dwhciregister.o
 .debug_abbrev  0x00006ceb      0x3fa build/proc.o
 .debug_abbrev  0x000070e5      0x3a7 build/uspi_usbkeyboard.o
 .debug_abbrev  0x0000748c      0x285 build/timer.o
 .debug_abbrev  0x00007711      0x170 build/uspi_devicenameservice.o
 .debug_abbrev  0x00007881      0x3e2 build/uspi_usbgamepad.o
 .debug_abbrev  0x00007c63      0x4da build/fs.o
 .debug_abbrev  0x0000813d      0x1de build/uspi_dwhcirootport.o

.debug_aranges  0x00000000      0x748
 .debug_aranges
                0x00000000       0x28 build/entry.o
 .debug_aranges
                0x00000028       0x20 build/exception.o
 .debug_aranges
                0x00000048       0x20 build/uspienv_delayloop.o
 .debug_aranges
                0x00000068       0x20 build/uspi_dwhciframeschednsplit.o
 .debug_aranges
                0x00000088       0x20 build/exec.o
 .debug_aranges
                0x000000a8       0x20 build/uart_pl011.o
 .debug_aranges
                0x000000c8       0x20 build/uspi_string.o
 .debug_aranges
                0x000000e8       0x20 build/usb_storagedriver.o
 .debug_aranges
                0x00000108       0x20 build/sysfile.o
 .debug_aranges
                0x00000128       0x20 build/string.o
 .debug_aranges
                0x00000148       0x20 build/uspi_usbmidi.o
 .debug_aranges
                0x00000168       0x20 build/uspi_usbdevice.o
 .debug_aranges
                0x00000188       0x20 build/uspi_usbdevicefactory.o
 .debug_aranges
                0x000001a8       0x20 build/console.o
 .debug_aranges
                0x000001c8       0x20 build/spinlock.o
 .debug_aranges
                0x000001e8       0x20 build/trap.o
 .debug_aranges
                0x00000208       0x20 build/uspi_dwhciframeschednper.o
 .debug_aranges
                0x00000228       0x20 build/uspienv_timer.o
 .debug_aranges
                0x00000248       0x20 build/main.o
 .debug_aranges
                0x00000268       0x20 build/bio.o
 .debug_aranges
                0x00000288       0x20 build/syscall.o
 .debug_aranges
                0x000002a8       0x20 build/uspi_usbendpoint.o
 .debug_aranges
                0x000002c8       0x20 build/uspi_usbconfigparser.o
 .debug_aranges
                0x000002e8       0x20 build/mailbox.o
 .debug_aranges
                0x00000308       0x20 build/uspi_usbstandardhub.o
 .debug_aranges
                0x00000328       0x20 build/memide.o
 .debug_aranges
                0x00000348       0x20 build/uspi_dwhciframeschedper.o
 .debug_aranges
                0x00000368       0x20 build/uspi_usbmassdevice.o
 .debug_aranges
                0x00000388       0x20 build/mmu.o
 .debug_aranges
                0x000003a8       0x20 build/uspi_smsc951x.o
 .debug_aranges
                0x000003c8       0x20 build/log.o
 .debug_aranges
                0x000003e8       0x20 build/uart.o
 .debug_aranges
                0x00000408       0x20 build/uspi_dwhcixferstagedata.o
 .debug_aranges
                0x00000428       0x20 build/uspi_keymap.o
 .debug_aranges
                0x00000448       0x20 build/file.o
 .debug_aranges
                0x00000468       0x20 build/uspi_usbstring.o
 .debug_aranges
                0x00000488       0x20 build/uspi_library.o
 .debug_aranges
                0x000004a8       0x20 build/vm.o
 .debug_aranges
                0x000004c8       0x20 build/usb.o
 .debug_aranges
                0x000004e8       0x20 build/sysproc.o
 .debug_aranges
                0x00000508       0x20 build/uspi_macaddress.o
 .debug_aranges
                0x00000528       0x20 build/pipe.o
 .debug_aranges
                0x00000548       0x20 build/uspi_usbrequest.o
 .debug_aranges
                0x00000568       0x20 build/uspi_synchronize.o
 .debug_aranges
                0x00000588       0x20 build/uspi_usbmouse.o
 .debug_aranges
                0x000005a8       0x20 build/kalloc.o
 .debug_aranges
                0x000005c8       0x20 build/uspi_util.o
 .debug_aranges
                0x000005e8       0x20 build/uspi_lan7800.o
 .debug_aranges
                0x00000608       0x20 build/uspienv_memio.o
 .debug_aranges
                0x00000628       0x20 build/uspi_dwhcidevice.o
 .debug_aranges
                0x00000648       0x20 build/uspi_dwhciregister.o
 .debug_aranges
                0x00000668       0x20 build/proc.o
 .debug_aranges
                0x00000688       0x20 build/uspi_usbkeyboard.o
 .debug_aranges
                0x000006a8       0x20 build/timer.o
 .debug_aranges
                0x000006c8       0x20 build/uspi_devicenameservice.o
 .debug_aranges
                0x000006e8       0x20 build/uspi_usbgamepad.o
 .debug_aranges
                0x00000708       0x20 build/fs.o
 .debug_aranges
                0x00000728       0x20 build/uspi_dwhcirootport.o

.debug_str      0x00000000     0x5133
 .debug_str     0x00000000       0x2a build/entry.o
 .debug_str     0x0000002a       0x13 build/exception.o
                                 0x2e (size before relaxing)
 .debug_str     0x0000003d       0x1b build/uspienv_delayloop.o
                                 0x36 (size before relaxing)
 .debug_str     0x00000058      0x2e5 build/uspi_dwhciframeschednsplit.o
                                0x3b3 (size before relaxing)
 .debug_str     0x0000033d      0x1e2 build/exec.o
                                0x33d (size before relaxing)
 .debug_str     0x0000051f       0x45 build/uart_pl011.o
                                0x171 (size before relaxing)
 .debug_str     0x00000564      0x1d3 build/uspi_string.o
                                0x368 (size before relaxing)
 .debug_str     0x00000737      0x1b6 build/usb_storagedriver.o
                                0x33b (size before relaxing)
 .debug_str     0x000008ed      0x1a5 build/sysfile.o
                                0x485 (size before relaxing)
 .debug_str     0x00000a92       0x30 build/string.o
                                0x177 (size before relaxing)
 .debug_str     0x00000ac2      0xa22 build/uspi_usbmidi.o
                                0xccc (size before relaxing)
 .debug_str     0x000014e4      0x308 build/uspi_usbdevice.o
                                0xdc7 (size before relaxing)
 .debug_str     0x000017ec      0x42a build/uspi_usbdevicefactory.o
                                0xf57 (size before relaxing)
 .debug_str     0x00001c16      0x1d5 build/console.o
                                0x4cb (size before relaxing)
 .debug_str     0x00001deb       0x32 build/spinlock.o
                                0x274 (size before relaxing)
 .debug_str     0x00001e1d      0x1cd build/trap.o
                                0x41d (size before relaxing)
 .debug_str     0x00001fea      0x1ad build/uspi_dwhciframeschednper.o
                                0x3fc (size before relaxing)
 .debug_str     0x00002197      0x243 build/uspienv_timer.o
                                0x3d3 (size before relaxing)
 .debug_str     0x000023da       0xd6 build/main.o
                                0x408 (size before relaxing)
 .debug_str     0x000024b0       0x4a build/bio.o
                                0x1e0 (size before relaxing)
 .debug_str     0x000024fa       0x1a build/syscall.o
                                0x266 (size before relaxing)
 .debug_str     0x00002514       0xf1 build/uspi_usbendpoint.o
                                0x868 (size before relaxing)
 .debug_str     0x00002605       0x6b build/uspi_usbconfigparser.o
                                0x52c (size before relaxing)
 .debug_str     0x00002670       0x5c build/mailbox.o
                                0x347 (size before relaxing)
 .debug_str     0x000026cc      0x107 build/uspi_usbstandardhub.o
                                0xdd7 (size before relaxing)
 .debug_str     0x000027d3       0x57 build/memide.o
                                0x2a6 (size before relaxing)
 .debug_str     0x0000282a      0x127 build/uspi_dwhciframeschedper.o
                                0x458 (size before relaxing)
 .debug_str     0x00002951      0x59c build/uspi_usbmassdevice.o
                               0x12e2 (size before relaxing)
 .debug_str     0x00002eed       0x2a build/mmu.o
                                0x176 (size before relaxing)
 .debug_str     0x00002f17      0x195 build/uspi_smsc951x.o
                                0xd9d (size before relaxing)
 .debug_str     0x000030ac       0x98 build/log.o
                                0x27f (size before relaxing)
 .debug_str     0x00003144       0x7a build/uart.o
                                0x281 (size before relaxing)
 .debug_str     0x000031be      0x55b build/uspi_dwhcixferstagedata.o
                               0x10b3 (size before relaxing)
 .debug_str     0x00003719      0x405 build/uspi_keymap.o
                                0x5c6 (size before relaxing)
 .debug_str     0x00003b1e       0x38 build/file.o
                                0x2c1 (size before relaxing)
 .debug_str     0x00003b56       0x50 build/uspi_usbstring.o
                                0xaf7 (size before relaxing)
 .debug_str     0x00003ba6      0x4a9 build/uspi_library.o
                               0x1656 (size before relaxing)
 .debug_str     0x0000404f       0xc6 build/vm.o
                                0x39c (size before relaxing)
 .debug_str     0x00004115       0x82 build/usb.o
                                0x519 (size before relaxing)
 .debug_str     0x00004197       0x75 build/sysproc.o
                                0x2ad (size before relaxing)
 .debug_str     0x0000420c       0xa3 build/uspi_macaddress.o
                                0x2b4 (size before relaxing)
 .debug_str     0x000042af       0x2e build/pipe.o
                                0x337 (size before relaxing)
 .debug_str     0x000042dd       0x6d build/uspi_usbrequest.o
                                0x907 (size before relaxing)
 .debug_str     0x0000434a       0x67 build/uspi_synchronize.o
                                0x1de (size before relaxing)
 .debug_str     0x000043b1       0x94 build/uspi_usbmouse.o
                                0xcff (size before relaxing)
 .debug_str     0x00004445       0x3d build/kalloc.o
                                0x1c6 (size before relaxing)
 .debug_str     0x00004482       0x69 build/uspi_util.o
                                0x266 (size before relaxing)
 .debug_str     0x000044eb      0x166 build/uspi_lan7800.o
                                0xe78 (size before relaxing)
 .debug_str     0x00004651       0x17 build/uspienv_memio.o
                                0x16e (size before relaxing)
 .debug_str     0x00004668      0x5be build/uspi_dwhcidevice.o
                               0x189a (size before relaxing)
 .debug_str     0x00004c26       0x61 build/uspi_dwhciregister.o
                                0x2b2 (size before relaxing)
 .debug_str     0x00004c87       0xbf build/proc.o
                                0x3eb (size before relaxing)
 .debug_str     0x00004d46      0x152 build/uspi_usbkeyboard.o
                               0x12cc (size before relaxing)
 .debug_str     0x00004e98       0x3c build/timer.o
                                0x2e2 (size before relaxing)
 .debug_str     0x00004ed4       0x20 build/uspi_devicenameservice.o
                                0x269 (size before relaxing)
 .debug_str     0x00004ef4      0x1c3 build/uspi_usbgamepad.o
                                0xf4f (size before relaxing)
 .debug_str     0x000050b7       0x52 build/fs.o
                                0x41b (size before relaxing)
 .debug_str     0x00005109       0x2a build/uspi_dwhcirootport.o
                                0xade (size before relaxing)

.debug_ranges   0x00000000     0x1098
 .debug_ranges  0x00000000       0x20 build/entry.o
 .debug_ranges  0x00000020      0x1b8 build/uspi_string.o
 .debug_ranges  0x000001d8       0x98 build/sysfile.o
 .debug_ranges  0x00000270       0x20 build/string.o
 .debug_ranges  0x00000290       0x58 build/uspi_usbmidi.o
 .debug_ranges  0x000002e8       0x48 build/uspi_usbdevice.o
 .debug_ranges  0x00000330      0x100 build/console.o
 .debug_ranges  0x00000430       0x48 build/spinlock.o
 .debug_ranges  0x00000478       0xb8 build/uspienv_timer.o
 .debug_ranges  0x00000530       0x18 build/main.o
 .debug_ranges  0x00000548       0x20 build/bio.o
 .debug_ranges  0x00000568       0x60 build/syscall.o
 .debug_ranges  0x000005c8       0x40 build/uspi_usbendpoint.o
 .debug_ranges  0x00000608       0x40 build/uspi_usbconfigparser.o
 .debug_ranges  0x00000648       0x58 build/mailbox.o
 .debug_ranges  0x000006a0      0x150 build/uspi_usbstandardhub.o
 .debug_ranges  0x000007f0       0x18 build/uspi_dwhciframeschedper.o
 .debug_ranges  0x00000808       0x80 build/uspi_usbmassdevice.o
 .debug_ranges  0x00000888       0x48 build/log.o
 .debug_ranges  0x000008d0       0xf8 build/uart.o
 .debug_ranges  0x000009c8       0x30 build/uspi_dwhcixferstagedata.o
 .debug_ranges  0x000009f8       0x18 build/uspi_keymap.o
 .debug_ranges  0x00000a10       0x18 build/file.o
 .debug_ranges  0x00000a28       0x48 build/uspi_usbstring.o
 .debug_ranges  0x00000a70       0x80 build/uspi_library.o
 .debug_ranges  0x00000af0       0xe8 build/vm.o
 .debug_ranges  0x00000bd8       0x38 build/usb.o
 .debug_ranges  0x00000c10       0x30 build/uspi_macaddress.o
 .debug_ranges  0x00000c40       0x10 build/pipe.o
 .debug_ranges  0x00000c50       0x18 build/uspi_usbmouse.o
 .debug_ranges  0x00000c68       0x88 build/kalloc.o
 .debug_ranges  0x00000cf0       0x30 build/uspi_lan7800.o
 .debug_ranges  0x00000d20       0xb0 build/uspi_dwhcidevice.o
 .debug_ranges  0x00000dd0       0x50 build/proc.o
 .debug_ranges  0x00000e20       0x30 build/uspi_usbkeyboard.o
 .debug_ranges  0x00000e50       0x98 build/timer.o
 .debug_ranges  0x00000ee8       0xd0 build/uspi_usbgamepad.o
 .debug_ranges  0x00000fb8       0xe0 build/fs.o

.debug_loc      0x00000000    0x11b94
 .debug_loc     0x00000000       0xeb build/uspi_dwhciframeschednsplit.o
 .debug_loc     0x000000eb      0x35c build/exec.o
 .debug_loc     0x00000447     0x185b build/uspi_string.o
 .debug_loc     0x00001ca2      0x589 build/usb_storagedriver.o
 .debug_loc     0x0000222b      0x645 build/sysfile.o
 .debug_loc     0x00002870      0xa46 build/string.o
 .debug_loc     0x000032b6      0x382 build/uspi_usbmidi.o
 .debug_loc     0x00003638      0x50b build/uspi_usbdevice.o
 .debug_loc     0x00003b43      0x295 build/uspi_usbdevicefactory.o
 .debug_loc     0x00003dd8      0xb0c build/console.o
 .debug_loc     0x000048e4      0x15e build/spinlock.o
 .debug_loc     0x00004a42      0x316 build/trap.o
 .debug_loc     0x00004d58      0x294 build/uspi_dwhciframeschednper.o
 .debug_loc     0x00004fec      0x604 build/uspienv_timer.o
 .debug_loc     0x000055f0      0x18c build/bio.o
 .debug_loc     0x0000577c      0x43f build/syscall.o
 .debug_loc     0x00005bbb      0x29e build/uspi_usbendpoint.o
 .debug_loc     0x00005e59      0x3b0 build/uspi_usbconfigparser.o
 .debug_loc     0x00006209      0x38f build/mailbox.o
 .debug_loc     0x00006598      0x5db build/uspi_usbstandardhub.o
 .debug_loc     0x00006b73       0xf3 build/memide.o
 .debug_loc     0x00006c66      0x36a build/uspi_dwhciframeschedper.o
 .debug_loc     0x00006fd0      0x97c build/uspi_usbmassdevice.o
 .debug_loc     0x0000794c      0x286 build/mmu.o
 .debug_loc     0x00007bd2      0x40e build/uspi_smsc951x.o
 .debug_loc     0x00007fe0      0x217 build/log.o
 .debug_loc     0x000081f7      0x921 build/uart.o
 .debug_loc     0x00008b18      0x805 build/uspi_dwhcixferstagedata.o
 .debug_loc     0x0000931d      0x4c5 build/uspi_keymap.o
 .debug_loc     0x000097e2      0x520 build/file.o
 .debug_loc     0x00009d02      0x33e build/uspi_usbstring.o
 .debug_loc     0x0000a040      0x7a9 build/uspi_library.o
 .debug_loc     0x0000a7e9     0x1255 build/vm.o
 .debug_loc     0x0000ba3e      0x3b7 build/usb.o
 .debug_loc     0x0000bdf5       0x4c build/sysproc.o
 .debug_loc     0x0000be41      0x2b3 build/uspi_macaddress.o
 .debug_loc     0x0000c0f4      0x34e build/pipe.o
 .debug_loc     0x0000c442      0x126 build/uspi_usbrequest.o
 .debug_loc     0x0000c568       0x87 build/uspi_synchronize.o
 .debug_loc     0x0000c5ef      0x26e build/uspi_usbmouse.o
 .debug_loc     0x0000c85d      0x3a8 build/kalloc.o
 .debug_loc     0x0000cc05      0x56a build/uspi_util.o
 .debug_loc     0x0000d16f      0x83a build/uspi_lan7800.o
 .debug_loc     0x0000d9a9       0x25 build/uspienv_memio.o
 .debug_loc     0x0000d9ce     0x1137 build/uspi_dwhcidevice.o
 .debug_loc     0x0000eb05      0x100 build/uspi_dwhciregister.o
 .debug_loc     0x0000ec05      0x524 build/proc.o
 .debug_loc     0x0000f129      0x33c build/uspi_usbkeyboard.o
 .debug_loc     0x0000f465      0x1f0 build/timer.o
 .debug_loc     0x0000f655      0x1a9 build/uspi_devicenameservice.o
 .debug_loc     0x0000f7fe      0xf11 build/uspi_usbgamepad.o
 .debug_loc     0x0001070f     0x13a7 build/fs.o
 .debug_loc     0x00011ab6       0xde build/uspi_dwhcirootport.o

.debug_frame    0x00000000     0x3b14
 .debug_frame   0x00000000       0x9c build/uspi_dwhciframeschednsplit.o
 .debug_frame   0x0000009c       0x40 build/exec.o
 .debug_frame   0x000000dc       0x40 build/uart_pl011.o
 .debug_frame   0x0000011c      0x1b8 build/uspi_string.o
 .debug_frame   0x000002d4       0xa0 build/usb_storagedriver.o
 .debug_frame   0x00000374      0x268 build/sysfile.o
 .debug_frame   0x000005dc       0xd0 build/string.o
 .debug_frame   0x000006ac       0xdc build/uspi_usbmidi.o
 .debug_frame   0x00000788      0x194 build/uspi_usbdevice.o
 .debug_frame   0x0000091c       0x48 build/uspi_usbdevicefactory.o
 .debug_frame   0x00000964      0x224 build/console.o
 .debug_frame   0x00000b88       0xb8 build/spinlock.o
 .debug_frame   0x00000c40      0x138 build/trap.o
 .debug_frame   0x00000d78       0xa4 build/uspi_dwhciframeschednper.o
 .debug_frame   0x00000e1c      0x198 build/uspienv_timer.o
 .debug_frame   0x00000fb4       0x88 build/main.o
 .debug_frame   0x0000103c       0x8c build/bio.o
 .debug_frame   0x000010c8       0x80 build/syscall.o
 .debug_frame   0x00001148      0x104 build/uspi_usbendpoint.o
 .debug_frame   0x0000124c       0x78 build/uspi_usbconfigparser.o
 .debug_frame   0x000012c4       0x68 build/mailbox.o
 .debug_frame   0x0000132c       0xec build/uspi_usbstandardhub.o
 .debug_frame   0x00001418       0x60 build/memide.o
 .debug_frame   0x00001478       0xb0 build/uspi_dwhciframeschedper.o
 .debug_frame   0x00001528      0x180 build/uspi_usbmassdevice.o
 .debug_frame   0x000016a8       0x3c build/mmu.o
 .debug_frame   0x000016e4      0x118 build/uspi_smsc951x.o
 .debug_frame   0x000017fc       0xd4 build/log.o
 .debug_frame   0x000018d0       0xe8 build/uart.o
 .debug_frame   0x000019b8      0x284 build/uspi_dwhcixferstagedata.o
 .debug_frame   0x00001c3c       0x94 build/uspi_keymap.o
 .debug_frame   0x00001cd0      0x120 build/file.o
 .debug_frame   0x00001df0       0xe4 build/uspi_usbstring.o
 .debug_frame   0x00001ed4      0x218 build/uspi_library.o
 .debug_frame   0x000020ec      0x28c build/vm.o
 .debug_frame   0x00002378      0x12c build/usb.o
 .debug_frame   0x000024a4       0xe0 build/sysproc.o
 .debug_frame   0x00002584       0xe4 build/uspi_macaddress.o
 .debug_frame   0x00002668       0xa0 build/pipe.o
 .debug_frame   0x00002708       0xdc build/uspi_usbrequest.o
 .debug_frame   0x000027e4       0x40 build/uspi_synchronize.o
 .debug_frame   0x00002824       0xdc build/uspi_usbmouse.o
 .debug_frame   0x00002900       0xa8 build/kalloc.o
 .debug_frame   0x000029a8       0xc0 build/uspi_util.o
 .debug_frame   0x00002a68      0x218 build/uspi_lan7800.o
 .debug_frame   0x00002c80       0x30 build/uspienv_memio.o
 .debug_frame   0x00002cb0      0x4c8 build/uspi_dwhcidevice.o
 .debug_frame   0x00003178       0xf0 build/uspi_dwhciregister.o
 .debug_frame   0x00003268      0x1b8 build/proc.o
 .debug_frame   0x00003420      0x104 build/uspi_usbkeyboard.o
 .debug_frame   0x00003524       0x9c build/timer.o
 .debug_frame   0x000035c0       0x88 build/uspi_devicenameservice.o
 .debug_frame   0x00003648      0x15c build/uspi_usbgamepad.o
 .debug_frame   0x000037a4      0x304 build/fs.o
 .debug_frame   0x00003aa8       0x6c build/uspi_dwhcirootport.o
