
Allocating common symbols
Common symbol       size              file

uart_lock           0x4               build/uart_pl011.o
log                 0x70              build/log.o
kmem                0x3c              build/kalloc.o
pUSBParam           0x4               build/trap.o
bcache              0x173c            build/bio.o
pUSBTimerParam      0x4               build/trap.o
input               0xc0              build/console.o
uart_disabled       0x4               build/uart.o
device_handler      0xa0              build/usb_filestorage.o
nUSBTimerIRQ        0x4               build/trap.o
kpgdir              0x4               build/vm.o
mb_data             0x28              build/main.o
tickslock           0x34              build/trap.o
ftable              0x994             build/file.o
cpus                0xe0              build/exec.o
mailbuffer          0x4               build/mailbox.o
pUSBTimerHandler    0x4               build/trap.o
pm_size             0x4               build/mmu.o
ticks               0x4               build/trap.o
pUSBHandler         0x4               build/trap.o
ptable              0x1f34            build/proc.o
nUSBIRQ             0x4               build/trap.o
devsw               0x50              build/file.o
icache              0xfd4             build/fs.o

Discarded input sections

 .note.GNU-stack
                0x00000000        0x0 build/uspi_dwhciframeschednsplit.o
 .note.GNU-stack
                0x00000000        0x0 build/exec.o
 .note.GNU-stack
                0x00000000        0x0 build/syscall.o
 .note.GNU-stack
                0x00000000        0x0 build/string.o
 .note.GNU-stack
                0x00000000        0x0 build/uspi_usbrequest.o
 .note.GNU-stack
                0x00000000        0x0 build/trap.o
 .note.GNU-stack
                0x00000000        0x0 build/uspi_string.o
 .note.GNU-stack
                0x00000000        0x0 build/uspi_devicenameservice.o
 .note.GNU-stack
                0x00000000        0x0 build/usb_filestorage.o
 .note.GNU-stack
                0x00000000        0x0 build/sysfile.o
 .note.GNU-stack
                0x00000000        0x0 build/bio.o
 .note.GNU-stack
                0x00000000        0x0 build/uspi_usbdevicefactory.o
 .note.GNU-stack
                0x00000000        0x0 build/fs.o
 .note.GNU-stack
                0x00000000        0x0 build/console.o
 .note.GNU-stack
                0x00000000        0x0 build/memide.o
 .note.GNU-stack
                0x00000000        0x0 build/mmu.o
 .note.GNU-stack
                0x00000000        0x0 build/spinlock.o
 .note.GNU-stack
                0x00000000        0x0 build/uspienv_timer.o
 .note.GNU-stack
                0x00000000        0x0 build/main.o
 .note.GNU-stack
                0x00000000        0x0 build/uspi_usbendpoint.o
 .note.GNU-stack
                0x00000000        0x0 build/uspi_usbconfigparser.o
 .note.GNU-stack
                0x00000000        0x0 build/mailbox.o
 .note.GNU-stack
                0x00000000        0x0 build/uspi_usbstandardhub.o
 .note.GNU-stack
                0x00000000        0x0 build/uspi_dwhciframeschednper.o
 .note.GNU-stack
                0x00000000        0x0 build/uspi_dwhcixferstagedata.o
 .note.GNU-stack
                0x00000000        0x0 build/uspi_keymap.o
 .note.GNU-stack
                0x00000000        0x0 build/uspi_dwhciframeschedper.o
 .note.GNU-stack
                0x00000000        0x0 build/uspi_usbmidi.o
 .note.GNU-stack
                0x00000000        0x0 build/uspi_usbdevice.o
 .note.GNU-stack
                0x00000000        0x0 build/uspi_macaddress.o
 .note.GNU-stack
                0x00000000        0x0 build/uspi_smsc951x.o
 .note.GNU-stack
                0x00000000        0x0 build/uart.o
 .note.GNU-stack
                0x00000000        0x0 build/uspi_usbmassdevice.o
 .note.GNU-stack
                0x00000000        0x0 build/log.o
 .note.GNU-stack
                0x00000000        0x0 build/uspi_usbstring.o
 .note.GNU-stack
                0x00000000        0x0 build/uspi_library.o
 .note.GNU-stack
                0x00000000        0x0 build/vm.o
 .note.GNU-stack
                0x00000000        0x0 build/usb.o
 .note.GNU-stack
                0x00000000        0x0 build/sysproc.o
 .note.GNU-stack
                0x00000000        0x0 build/file.o
 .note.GNU-stack
                0x00000000        0x0 build/pipe.o
 .note.GNU-stack
                0x00000000        0x0 build/uspi_synchronize.o
 .note.GNU-stack
                0x00000000        0x0 build/uspienv_memio.o
 .note.GNU-stack
                0x00000000        0x0 build/uspi_usbmouse.o
 .note.GNU-stack
                0x00000000        0x0 build/uspi_lan7800.o
 .note.GNU-stack
                0x00000000        0x0 build/kalloc.o
 .note.GNU-stack
                0x00000000        0x0 build/uspi_util.o
 .note.GNU-stack
                0x00000000        0x0 build/uart_pl011.o
 .note.GNU-stack
                0x00000000        0x0 build/uspi_dwhcidevice.o
 .note.GNU-stack
                0x00000000        0x0 build/uspi_usbgamepad.o
 .note.GNU-stack
                0x00000000        0x0 build/uspi_dwhciregister.o
 .note.GNU-stack
                0x00000000        0x0 build/proc.o
 .note.GNU-stack
                0x00000000        0x0 build/uspi_usbkeyboard.o
 .note.GNU-stack
                0x00000000        0x0 build/timer.o
 .note.GNU-stack
                0x00000000        0x0 build/uspi_dwhcirootport.o

Memory Configuration

Name             Origin             Length             Attributes
*default*        0x00000000         0xffffffff

Linker script and memory map

LOAD build/entry.o
LOAD build/exception.o
LOAD build/uspienv_delayloop.o
LOAD build/uspi_dwhciframeschednsplit.o
LOAD build/exec.o
LOAD build/syscall.o
LOAD build/string.o
LOAD build/uspi_usbrequest.o
LOAD build/trap.o
LOAD build/uspi_string.o
LOAD build/uspi_devicenameservice.o
LOAD build/usb_filestorage.o
LOAD build/sysfile.o
LOAD build/bio.o
LOAD build/uspi_usbdevicefactory.o
LOAD build/fs.o
LOAD build/console.o
LOAD build/memide.o
LOAD build/mmu.o
LOAD build/spinlock.o
LOAD build/uspienv_timer.o
LOAD build/main.o
LOAD build/uspi_usbendpoint.o
LOAD build/uspi_usbconfigparser.o
LOAD build/mailbox.o
LOAD build/uspi_usbstandardhub.o
LOAD build/uspi_dwhciframeschednper.o
LOAD build/uspi_dwhcixferstagedata.o
LOAD build/uspi_keymap.o
LOAD build/uspi_dwhciframeschedper.o
LOAD build/uspi_usbmidi.o
LOAD build/uspi_usbdevice.o
LOAD build/uspi_macaddress.o
LOAD build/uspi_smsc951x.o
LOAD build/uart.o
LOAD build/uspi_usbmassdevice.o
LOAD build/log.o
LOAD build/uspi_usbstring.o
LOAD build/uspi_library.o
LOAD build/vm.o
LOAD build/usb.o
LOAD build/sysproc.o
LOAD build/file.o
LOAD build/pipe.o
LOAD build/uspi_synchronize.o
LOAD build/uspienv_memio.o
LOAD build/uspi_usbmouse.o
LOAD build/uspi_lan7800.o
LOAD build/kalloc.o
LOAD build/uspi_util.o
LOAD build/uart_pl011.o
LOAD build/uspi_dwhcidevice.o
LOAD build/uspi_usbgamepad.o
LOAD build/uspi_dwhciregister.o
LOAD build/proc.o
LOAD build/uspi_usbkeyboard.o
LOAD build/timer.o
LOAD build/uspi_dwhcirootport.o
                0x00000000                PHYSTART = 0x0
                0x10000000                PHYSIZE = 0x10000000
                0x80000000                KERNBASE = 0x80000000
                0x3f000000                MMIO_PA = 0x3f000000
                0xd0000000                MMIO_VA = 0xd0000000
                0x01000000                MMIO_SIZE = 0x1000000
                0xdf000000                PERIPHBASE = 0xdf000000
                0x00004000                K_PDX_BASE = 0x4000
                0x00003000                K_PTX_BASE = 0x3000
                0x00008000                PHYSOFFSET = 0x8000
                0x80008000                KERNOFFSET = 0x80008000
                0x80008000                PHYSOFFSET = DEFINED (PHYSOFFSET)?PHYSOFFSET:0x80008000
                0xc0008000                KERNOFFSET = DEFINED (KERNOFFSET)?KERNOFFSET:0xc0008000
                0x80000000                SHIFT = (KERNOFFSET - PHYSOFFSET)

.init           0x00008000      0x1d4
 *(.init)
 .init          0x00008000      0x1d4 build/entry.o
                0x00008000                _start
                0x00008200                . = ALIGN (0x100)
                0x00008200                INIT_END = .
                0x80008200                . = (. + SHIFT)

.text           0x80008200     0xf778 load address 0x00008200
 *.c.o(.text)
 *(.text .stub .text.*)
 .text          0x80008200       0x94 build/entry.o
                0x80008200                _pagingstart
                0x80008208                acknowledge
                0x8000822c                dsb_barrier
                0x80008238                flush_dcache_all
                0x80008244                flush_idcache
                0x80008250                flush_tlb
                0x80008270                flush_dcache
                0x8000827c                set_pgtbase
                0x80008284                getsystemtime
 *fill*         0x80008294        0xc 
 .text          0x800082a0      0x284 build/exception.o
                0x800082a0                vectors
                0x80008338                trapret
                0x80008478                set_mode_sp
                0x8000849c                readcpsr
                0x800084a4                cli
                0x800084b4                sti
                0x800084c4                swtch
 *fill*         0x80008524        0x4 
 .text          0x80008528        0xc build/uspienv_delayloop.o
                0x80008528                DelayLoop
 .text          0x80008534       0xdc build/uspi_dwhciframeschednsplit.o
                0x80008534                DWHCIFrameSchedulerNoSplitStartSplit
                0x80008538                DWHCIFrameSchedulerNoSplitCompleteSplit
                0x80008540                DWHCIFrameSchedulerNoSplitTransactionComplete
                0x80008544                DWHCIFrameSchedulerNoSplitIsOddFrame
                0x80008550                DWHCIFrameSchedulerNoSplitWaitForFrame
                0x800085b4                _DWHCIFrameSchedulerNoSplit
                0x800085b8                DWHCIFrameSchedulerNoSplit
 .text          0x80008610      0x2a8 build/exec.o
                0x80008610                exec
 .text          0x800088b8      0x264 build/syscall.o
                0x800088b8                fetchint
                0x800088f4                fetchstr
                0x8000895c                argint
                0x800089a4                argptr
                0x80008a04                argstr
                0x80008a90                syscall
 .text          0x80008b1c      0x2cc build/string.o
                0x80008b1c                memsetw
                0x80008b40                memsetb
                0x80008b60                memset
                0x80008bcc                memcmp
                0x80008c18                memmove
                0x80008c78                memcpy
                0x80008c7c                strncmp
                0x80008ce8                strncpy
                0x80008d40                safestrcpy
                0x80008d7c                strlen
                0x80008dac                div
 .text          0x80008de8       0xb4 build/uspi_usbrequest.o
                0x80008de8                USBRequest
                0x80008e18                _USBRequest
                0x80008e30                USBRequestGetEndpoint
                0x80008e38                USBRequestSetStatus
                0x80008e40                USBRequestSetResultLen
                0x80008e48                USBRequestGetStatus
                0x80008e50                USBRequestGetResultLength
                0x80008e58                USBRequestGetSetupData
                0x80008e60                USBRequestGetBuffer
                0x80008e68                USBRequestGetBufLen
                0x80008e70                USBRequestSetCompletionRoutine
                0x80008e80                USBRequestCallCompletionRoutine
 .text          0x80008e9c      0x604 build/trap.o
                0x80008e9c                led25_on
                0x80008ebc                led25_off
                0x80008edc                enable_intrs
                0x80008f00                disable_intrs
                0x80008f24                tvinit
                0x80009010                trap_oops
                0x800090a8                handle_irq
                0x80009110                trap
                0x800093b8                ConnectInterrupt
                0x8000942c                ConnectTimerInterrupt
 .text          0x800094a0      0x9a0 build/uspi_string.o
                0x80009500                String
                0x80009510                String2
                0x80009540                _String
                0x80009568                StringGet
                0x80009580                StringSet
                0x800095c4                StringGetLength
                0x800095d4                StringAppend
                0x80009650                StringCompare
                0x80009658                StringFind
                0x8000969c                StringPutChar
                0x800096dc                StringPutString
                0x80009720                StringFormatV
                0x80009d84                StringFormat
                0x80009db0                StringReserveSpace
                0x80009dbc                ntoa
 .text          0x80009e40      0x128 build/uspi_devicenameservice.o
                0x80009e40                DeviceNameService
                0x80009e58                _DeviceNameService
                0x80009eb0                DeviceNameServiceAddDevice
                0x80009f04                DeviceNameServiceGetDevice
                0x80009f58                DeviceNameServiceGet
 .text          0x80009f68       0x8c build/usb_filestorage.o
                0x80009f68                storageinit
                0x80009f7c                dhandlerinit
                0x80009f80                readTest
 .text          0x80009ff4      0xaf4 build/sysfile.o
                0x8000a1d4                sys_dup
                0x8000a24c                sys_read
                0x8000a2d0                sys_write
                0x8000a33c                sys_close
                0x8000a390                sys_fstat
                0x8000a3dc                sys_link
                0x8000a4ec                sys_unlink
                0x8000a6a8                sys_open
                0x8000a7dc                sys_mkdir
                0x8000a838                sys_mknod
                0x8000a8e4                sys_chdir
                0x8000a964                sys_exec
                0x8000aa20                sys_pipe
 .text          0x8000aae8      0x238 build/bio.o
                0x8000aae8                binit
                0x8000ab70                bread
                0x8000ac70                bwrite
                0x8000ac98                brelse
 .text          0x8000ad20      0x230 build/uspi_usbdevicefactory.o
                0x8000ad20                GetDevice
                0x8000aef0                USBDeviceFactoryGetDevice
 .text          0x8000af50      0xd54 build/fs.o
                0x8000b028                readsb
                0x8000b28c                iinit
                0x8000b2bc                ialloc
                0x8000b36c                iupdate
                0x8000b3e8                idup
                0x8000b41c                ilock
                0x8000b524                iunlock
                0x8000b584                iput
                0x8000b6d4                iunlockput
                0x8000b6ec                stati
                0x8000b714                readi
                0x8000b800                writei
                0x8000b91c                namecmp
                0x8000b924                dirlookup
                0x8000bba4                dirlink
                0x8000bc7c                namei
                0x8000bc98                nameiparent
 .text          0x8000bca4      0xaa8 build/console.o
                0x8000bca4                consoleread
                0x8000bd98                setgpucolour
                0x8000bda8                initframebuf
                0x8000be00                drawpixel
                0x8000be40                drawcursor
                0x8000beb4                drawcharacter
                0x8000bf4c                gpuputc
                0x8000c144                consolewrite
                0x8000c254                panic
                0x8000c2c8                cprintf
                0x8000c44c                consputc
                0x8000c4e8                consoleintr
                0x8000c654                gpuinit
                0x8000c6b0                consoleinit
 .text          0x8000c74c      0x104 build/memide.o
                0x8000c74c                ideinit
                0x8000c780                ideintr
                0x8000c784                iderw
                0x8000c834                usbrw
 .text          0x8000c850      0x108 build/mmu.o
                0x8000c850                mmuinit0
                0x8000c8f4                mmuinit1
 .text          0x8000c958      0x194 build/spinlock.o
                0x8000c958                initlock
                0x8000c96c                getcallerpcs
                0x8000c970                holding
                0x8000c998                pushcli
                0x8000c9d0                acquire
                0x8000ca4c                popcli
                0x8000caa8                release
 .text          0x8000caec      0x3ac build/uspienv_timer.o
                0x8000cb2c                TimerEnvInit
                0x8000cb7c                _Timer
                0x8000cb90                TimerGetClockTicks
                0x8000cbac                TimerGetTicks
                0x8000cbb4                TimerGetTime
                0x8000cbbc                TimerStartKernelTimer
                0x8000cc28                TimerCancelKernelTimer
                0x8000cc3c                TimerMsDelay
                0x8000cc50                TimerusDelay
                0x8000cc64                TimerGet
                0x8000cc74                TimerSimpleMsDelay
                0x8000cc90                TimerSimpleusDelay
                0x8000cc9c                TimerPollKernelTimers
                0x8000cd14                TimerInterruptHandler
                0x8000cdcc                TimerTuneMsDelay
                0x8000ce30                TimerInitialize
 .text          0x8000ce98      0x270 build/main.o
                0x8000ce98                OkLoop
                0x8000cedc                NotOkLoop
                0x8000cf20                getpmsize
                0x8000cf94                machinit
                0x8000cfa8                cmain
 .text          0x8000d108      0x20c build/uspi_usbendpoint.o
                0x8000d108                USBEndpoint
                0x8000d134                USBEndpoint2
                0x8000d224                USBEndpointCopy
                0x8000d260                _USBEndpoint
                0x8000d26c                USBEndpointGetDevice
                0x8000d274                USBEndpointGetNumber
                0x8000d27c                USBEndpointGetType
                0x8000d284                USBEndpointIsDirectionIn
                0x8000d28c                USBEndpointSetMaxPacketSize
                0x8000d294                USBEndpointGetMaxPacketSize
                0x8000d29c                USBEndpointGetInterval
                0x8000d2a4                USBEndpointGetNextPID
                0x8000d2b4                USBEndpointSkipPID
                0x8000d308                USBEndpointResetPID
 .text          0x8000d314      0x1e4 build/uspi_usbconfigparser.o
                0x8000d314                USBConfigurationParser
                0x8000d424                _USBConfigurationParser
                0x8000d430                USBConfigurationParserIsValid
                0x8000d438                USBConfigurationParserGetDescriptor
                0x8000d4d8                USBConfigurationParserError
 .text          0x8000d4f8      0x120 build/mailbox.o
                0x8000d4f8                create_request
                0x8000d58c                mailboxinit
                0x8000d5a4                readmailbox
                0x8000d5dc                writemailbox
 .text          0x8000d618      0xa34 build/uspi_usbstandardhub.o
                0x8000d618                USBStandardHub
                0x8000d65c                _USBStandardHub
                0x8000d6e8                USBStandardHubInitialize
                0x8000d6ec                USBStandardHubGetDeviceNames
                0x8000d7b4                USBStandardHubEnumeratePorts
                0x8000dd9c                USBStandardHubConfigure
 .text          0x8000e04c      0x18c build/uspi_dwhciframeschednper.o
                0x8000e04c                _DWHCIFrameSchedulerNonPeriodic
                0x8000e058                DWHCIFrameSchedulerNonPeriodicStartSplit
                0x8000e064                DWHCIFrameSchedulerNonPeriodicWaitForFrame
                0x8000e068                DWHCIFrameSchedulerNonPeriodicIsOddFrame
                0x8000e070                DWHCIFrameSchedulerNonPeriodicCompleteSplit
                0x8000e0c4                DWHCIFrameSchedulerNonPeriodicTransactionComplete
                0x8000e184                DWHCIFrameSchedulerNonPeriodic
 .text          0x8000e1d8      0x4ac build/uspi_dwhcixferstagedata.o
                0x8000e1d8                DWHCITransferStageData
                0x8000e3a8                _DWHCITransferStageData
                0x8000e404                DWHCITransferStageDataTransactionComplete
                0x8000e4f0                DWHCITransferStageDataSetSplitComplete
                0x8000e4f8                DWHCITransferStageDataSetState
                0x8000e500                DWHCITransferStageDataGetState
                0x8000e508                DWHCITransferStageDataSetSubState
                0x8000e510                DWHCITransferStageDataGetSubState
                0x8000e518                DWHCITransferStageDataBeginSplitCycle
                0x8000e520                DWHCITransferStageDataGetChannelNumber
                0x8000e528                DWHCITransferStageDataIsPeriodic
                0x8000e548                DWHCITransferStageDataGetDeviceAddress
                0x8000e550                DWHCITransferStageDataGetEndpointType
                0x8000e57c                DWHCITransferStageDataGetEndpointNumber
                0x8000e584                DWHCITransferStageDataGetMaxPacketSize
                0x8000e58c                DWHCITransferStageDataGetSpeed
                0x8000e594                DWHCITransferStageDataGetPID
                0x8000e5c4                DWHCITransferStageDataIsDirectionIn
                0x8000e5cc                DWHCITransferStageDataIsStatusStage
                0x8000e5d4                DWHCITransferStageDataGetDMAAddress
                0x8000e5dc                DWHCITransferStageDataGetBytesToTransfer
                0x8000e5e4                DWHCITransferStageDataGetPacketsToTransfer
                0x8000e5ec                DWHCITransferStageDataIsSplit
                0x8000e5f4                DWHCITransferStageDataIsSplitComplete
                0x8000e5fc                DWHCITransferStageDataGetHubAddress
                0x8000e604                DWHCITransferStageDataGetHubPortAddress
                0x8000e60c                DWHCITransferStageDataGetSplitPosition
                0x8000e614                DWHCITransferStageDataGetStatusMask
                0x8000e648                DWHCITransferStageDataGetTransactionStatus
                0x8000e650                DWHCITransferStageDataIsStageComplete
                0x8000e660                DWHCITransferStageDataGetResultLen
                0x8000e674                DWHCITransferStageDataGetURB
                0x8000e67c                DWHCITransferStageDataGetFrameScheduler
 .text          0x8000e684      0x2b8 build/uspi_keymap.o
                0x8000e684                KeyMap
                0x8000e6a8                _KeyMap
                0x8000e6ac                KeyMapClearTable
                0x8000e6e4                KeyMapSetEntry
                0x8000e734                KeyMapTranslate
                0x8000e854                KeyMapGetString
                0x8000e90c                KeyMapGetLEDStatus
 .text          0x8000e93c      0x21c build/uspi_dwhciframeschedper.o
                0x8000e93c                _DWHCIFrameSchedulerPeriodic
                0x8000e948                DWHCIFrameSchedulerPeriodicStartSplit
                0x8000e95c                DWHCIFrameSchedulerPeriodicIsOddFrame
                0x8000e968                DWHCIFrameSchedulerPeriodicWaitForFrame
                0x8000e9d8                DWHCIFrameSchedulerPeriodicCompleteSplit
                0x8000ea40                DWHCIFrameSchedulerPeriodicTransactionComplete
                0x8000eaf8                DWHCIFrameSchedulerPeriodic
 .text          0x8000eb58      0x378 build/uspi_usbmidi.o
                0x8000ebb8                USBMIDIDeviceConfigure
                0x8000ee4c                USBMIDIDevice
                0x8000ee7c                _CUSBMIDIDevice
                0x8000eec8                USBMIDIDeviceRegisterPacketHandler
 .text          0x8000eed0      0x6b4 build/uspi_usbdevice.o
                0x8000eed0                USBDeviceConfigure
                0x8000ef34                USBDevice
                0x8000efa4                USBDeviceCopy
                0x8000f098                _USBDevice
                0x8000f130                USBDeviceInitialize
                0x8000f438                USBDeviceGetName
                0x8000f52c                USBDeviceGetAddress
                0x8000f534                USBDeviceGetSpeed
                0x8000f53c                USBDeviceGetHubAddress
                0x8000f544                USBDeviceGetHubPortNumber
                0x8000f54c                USBDeviceGetEndpoint0
                0x8000f554                USBDeviceGetHost
                0x8000f55c                USBDeviceGetDeviceDescriptor
                0x8000f564                USBDeviceGetConfigurationDescriptor
                0x8000f56c                USBDeviceGetDescriptor
                0x8000f574                USBDeviceConfigurationError
                0x8000f57c                USBDeviceSetAddress
 .text          0x8000f584      0x118 build/uspi_macaddress.o
                0x8000f584                MACAddress
                0x8000f590                _MACAddress
                0x8000f59c                MACAddressIsEqual
                0x8000f5bc                MACAddressSet
                0x8000f5dc                MACAddress2
                0x8000f5e0                MACAddressSetBroadcast
                0x8000f604                MACAddressGet
                0x8000f60c                MACAddressCopyTo
                0x8000f620                MACAddressIsBroadcast
                0x8000f64c                MACAddressGetSize
                0x8000f654                MACAddressFormat
 .text          0x8000f69c      0x5d0 build/uspi_smsc951x.o
                0x8000f69c                SMSC951xDevice
                0x8000f6d4                _SMSC951xDevice
                0x8000f740                SMSC951xDeviceGetMACAddress
                0x8000f748                SMSC951xDeviceSendFrame
                0x8000f7a8                SMSC951xDeviceReceiveFrame
                0x8000f890                SMSC951xDeviceWriteReg
                0x8000f8f8                SMSC951xDeviceConfigure
                0x8000fc04                SMSC951xDeviceReadReg
 .text          0x8000fc6c      0x3d8 build/uart.o
                0x8000fd14                led18_on
                0x8000fd38                led18_off
                0x8000fd5c                setgpioval
                0x8000fdc0                setgpiofunc
                0x8000fdcc                enableirqminiuart
                0x8000fde4                disableirqminiuart
                0x8000fdfc                uartputc
                0x8000fe90                miniuartintr
                0x8000ff70                uartinit
 .text          0x80010044      0xae4 build/uspi_usbmassdevice.o
                0x80010044                USBBulkOnlyMassStorageDevice
                0x80010080                _USBBulkOnlyMassStorageDevice
                0x800100d4                USBBulkOnlyMassStorageDeviceSeek
                0x800100e4                USBBulkOnlyMassStorageDeviceGetCapacity
                0x800100ec                USBBulkOnlyMassStorageDeviceCommand
                0x800102f4                USBBulkOnlyMassStorageDeviceConfigure
                0x80010740                USBBulkOnlyMassStorageDeviceTryRead
                0x80010834                USBBulkOnlyMassStorageDeviceTryWrite
                0x80010924                USBBulkOnlyMassStorageDeviceReset
                0x80010a58                USBBulkOnlyMassStorageDeviceRead
                0x80010ac0                USBBulkOnlyMassStorageDeviceWrite
 .text          0x80010b28      0x344 build/log.o
                0x80010c10                initlog
                0x80010cbc                begin_trans
                0x80010d14                commit_trans
                0x80010d70                log_write
 .text          0x80010e6c      0x3e4 build/uspi_usbstring.o
                0x80010e6c                USBString
                0x80010e94                USBStringCopy
                0x80010efc                _USBString
                0x80010f3c                USBStringGetFromDescriptor
                0x800110e4                USBStringGet
                0x800110ec                USBStringGetLanguageID
 .text          0x80011250      0x74c build/uspi_library.o
                0x80011250                USPiInitialize
                0x80011460                USPiKeyboardAvailable
                0x8001147c                USPiKeyboardRegisterKeyPressedHandler
                0x80011494                USPiKeyboardRegisterShutdownHandler
                0x800114ac                USPiKeyboardRegisterKeyStatusHandlerRaw
                0x800114c4                USPiMouseAvailable
                0x800114e0                USPiMouseRegisterStatusHandler
                0x800114f8                USPiMassStorageDeviceAvailable
                0x80011528                USPiMassStorageDeviceRead
                0x8001159c                USPiMassStorageDeviceWrite
                0x80011610                USPiMassStorageDeviceGetCapacity
                0x80011640                USPiEthernetAvailable
                0x80011670                USPiGetMACAddress
                0x800116b4                USPiSendFrame
                0x80011708                USPiReceiveFrame
                0x8001175c                USPiGamePadAvailable
                0x8001178c                USPiGamePadRegisterStatusHandler
                0x800117cc                USPiGamePadGetStatus
                0x80011810                USPiMIDIAvailable
                0x8001182c                USPiMIDIRegisterPacketHandler
                0x80011844                USPiDeviceGetInformation
 .text          0x8001199c      0x7f0 build/vm.o
                0x80011b98                setupkvm
                0x80011bbc                setupkvm_new
                0x80011c60                kvmalloc
                0x80011c78                switchkvm
                0x80011c7c                switchkvm_new
                0x80011ca8                switchuvm
                0x80011cf0                inituvm
                0x80011d68                loaduvm
                0x80011e4c                allocuvm
                0x80011f40                deallocuvm
                0x80011f54                freevm
                0x80011fc4                clearpteu
                0x80011ff8                copyuvm
                0x800120d8                uva2ka
                0x8001210c                copyout
 .text          0x8001218c      0x32c build/usb.o
                0x800121f8                malloc
                0x80012214                free
                0x80012218                MsDelay
                0x8001224c                usDelay
                0x8001227c                StartKernelTimer
                0x800122b4                CancelKernelTimer
                0x800122cc                SetPowerStateOn
                0x80012358                GetMACAddress
                0x80012360                LogWrite
                0x800123bc                usbinit
                0x80012484                usb_fileread
                0x800124b0                usb_read
 .text          0x800124b8      0x1b0 build/sysproc.o
                0x800124b8                sys_fork
                0x800124bc                sys_exit
                0x800124cc                sys_wait
                0x800124d0                sys_kill
                0x80012504                sys_getpid
                0x80012518                sys_sbrk
                0x80012568                sys_sleep
                0x80012638                sys_uptime
 .text          0x80012668      0x350 build/file.o
                0x80012668                fileinit
                0x80012698                filealloc
                0x80012704                filedup
                0x8001274c                fileclose
                0x800127ec                filestat
                0x80012830                fileread
                0x800128bc                filewrite
 .text          0x800129b8      0x314 build/pipe.o
                0x800129b8                pipealloc
                0x80012a94                pipeclose
                0x80012af4                pipewrite
                0x80012bc8                piperead
 .text          0x80012ccc       0xa8 build/uspi_synchronize.o
                0x80012ccc                uspi_EnterCritical
                0x80012d08                uspi_LeaveCritical
                0x80012d44                uspi_CleanAndInvalidateDataCacheRange
 .text          0x80012d74       0x10 build/uspienv_memio.o
                0x80012d74                read32
                0x80012d7c                write32
 .text          0x80012d84      0x3fc build/uspi_usbmouse.o
                0x80012de4                USBMouseDeviceConfigure
                0x800130f0                USBMouseDevice
                0x8001312c                _CUSBMouseDevice
                0x80013178                USBMouseDeviceRegisterStatusHandler
 .text          0x80013180      0xad4 build/uspi_lan7800.o
                0x80013180                LAN7800Device
                0x800131b8                _LAN7800Device
                0x80013224                LAN7800DeviceGetMACAddress
                0x8001322c                LAN7800DeviceSendFrame
                0x80013290                LAN7800DeviceReceiveFrame
                0x8001336c                LAN7800DeviceWriteReg
                0x80013400                LAN7800DeviceInitMACAddress
                0x800134e8                LAN7800DeviceReadReg
                0x80013570                LAN7800DeviceWaitReg
                0x800135dc                LAN7800DevicePHYWrite
                0x80013660                LAN7800DevicePHYRead
                0x800136fc                LAN7800DeviceIsLinkUp
                0x80013724                LAN7800DeviceInitPHY
                0x80013768                LAN7800DeviceReadWriteReg
                0x800137b4                LAN7800DeviceConfigure
 .text          0x80013c54      0x1f4 build/kalloc.o
                0x80013c54                kfree
                0x80013ce8                freerange
                0x80013d24                kinit1
                0x80013d98                kinit2
                0x80013de4                kalloc
 .text          0x80013e48      0x224 build/uspi_util.o
                0x80013e48                uspi_memset
                0x80013e6c                uspi_memcpy
                0x80013e90                uspi_memcmp
                0x80013eec                uspi_strlen
                0x80013f14                uspi_strcmp
                0x80013f8c                uspi_strcpy
                0x80013fb8                uspi_strncpy
                0x80014004                uspi_strcat
                0x80014048                uspi_char2int
                0x80014058                uspi_le2be16
                0x80014064                uspi_le2be32
 .text          0x8001406c       0x94 build/uart_pl011.o
                0x8001406c                uartinit_fvp
                0x800140a0                uartputc_fvp
                0x800140e4                uartgetc_fvp
 .text          0x80014100     0x1ab8 build/uspi_dwhcidevice.o
                0x80014100                DWHCIDeviceCompletionRoutine
                0x8001410c                DWHCIDevice
                0x8001414c                _DWHCIDevice
                0x80014154                DWHCIDeviceEnableGlobalInterrupts
                0x80014198                DWHCIDeviceEnableCommonInterrupts
                0x800141d0                DWHCIDeviceEnableHostInterrupts
                0x8001422c                DWHCIDeviceEnableChannelInterrupt
                0x80014280                DWHCIDeviceDisableChannelInterrupt
                0x800142d4                DWHCIDeviceStartChannel
                0x8001464c                DWHCIDeviceStartTransaction
                0x8001471c                DWHCIDeviceTimerHandler
                0x80014784                DWHCIDeviceChannelInterruptHandler
                0x80014bd8                DWHCIDeviceInterruptHandler
                0x80014cd0                DWHCIDeviceAllocateChannel
                0x80014d48                DWHCIDeviceTransferStageAsync
                0x80014e60                DWHCIDeviceSubmitAsyncRequest
                0x80014ea4                DWHCIDeviceTransferStage
                0x80014f50                DWHCIDeviceSubmitBlockingRequest
                0x8001508c                DWHCIDeviceControlMessage
                0x8001512c                DWHCIDeviceGetDescriptor
                0x8001516c                DWHCIDeviceSetAddress
                0x800151b4                DWHCIDeviceSetConfiguration
                0x800151fc                DWHCIDeviceTransfer
                0x80015254                DWHCIDeviceFreeChannel
                0x8001527c                DWHCIDeviceWaitForBit
                0x800152d8                DWHCIDeviceEnableRootPort
                0x80015398                DWHCIDeviceReset
                0x80015444                DWHCIDeviceInitCore
                0x80015618                DWHCIDeviceFlushTxFIFO
                0x800156a4                DWHCIDeviceFlushRxFIFO
                0x80015714                DWHCIDeviceInitHost
                0x80015910                DWHCIDeviceInitialize
                0x80015adc                DWHCIDeviceGetPortSpeed
                0x80015b28                DWHCIDeviceOvercurrentDetected
                0x80015b74                DWHCIDeviceDisableRootPort
 .text          0x80015bb8      0xbc4 build/uspi_usbgamepad.o
                0x8001616c                USBGamePadDeviceConfigure
                0x800165f0                USBGamePadDevice
                0x80016684                _CUSBGamePadDevice
                0x80016708                USBGamePadDeviceRegisterStatusHandler
                0x80016710                USBGamePadDeviceGetReport
 .text          0x8001677c       0xf4 build/uspi_dwhciregister.o
                0x8001677c                DWHCIRegister
                0x8001678c                DWHCIRegister2
                0x8001679c                _DWHCIRegister
                0x800167a8                DWHCIRegisterRead
                0x800167c4                DWHCIRegisterWrite
                0x800167d4                DWHCIRegisterGet
                0x800167dc                DWHCIRegisterSet
                0x800167ec                DWHCIRegisterIsSet
                0x80016800                DWHCIRegisterAnd
                0x80016810                DWHCIRegisterOr
                0x80016820                DWHCIRegisterClearBit
                0x80016834                DWHCIRegisterSetBit
                0x80016848                DWHCIRegisterClearAll
                0x8001685c                DWHCIRegisterSetAll
 .text          0x80016870      0x89c build/proc.o
                0x80016958                forkret
                0x8001698c                pinit
                0x800169bc                userinit
                0x80016a6c                growproc
                0x80016ad0                fork
                0x80016bb8                scheduler
                0x80016c7c                sched
                0x80016d10                exit
                0x80016e5c                yield
                0x80016e94                sleep
                0x80016f48                wait
                0x80017024                wakeup
                0x8001708c                kill
                0x80017108                procdump
 .text          0x8001710c      0x540 build/uspi_usbkeyboard.o
                0x8001716c                USBKeyboardDeviceConfigure
                0x80017580                USBKeyboardDevice
                0x800175d8                _CUSBKeyboardDevice
                0x8001762c                USBKeyboardDeviceRegisterKeyPressedHandler
                0x80017634                USBKeyboardDeviceRegisterSelectConsoleHandler
                0x8001763c                USBKeyboardDeviceRegisterShutdownHandler
                0x80017644                USBKeyboardDeviceRegisterKeyStatusHandlerRaw
 .text          0x8001764c      0x120 build/timer.o
                0x8001764c                enabletimer3irq
                0x80017664                timer3init
                0x800176ac                timer3intr
                0x80017700                delay
                0x8001772c                led_on
                0x8001774c                led_off
 .text          0x8001776c      0x20c build/uspi_dwhcirootport.o
                0x8001776c                DWHCIRootPort
                0x80017778                _DWHCIRootPort
                0x800177ac                DWHCIRootPortInitialize

.glue_7         0x80017978        0x0 load address 0x00017978
 .glue_7        0x80017978        0x0 linker stubs

.glue_7t        0x80017978        0x0 load address 0x00017978
 .glue_7t       0x80017978        0x0 linker stubs

.vfp11_veneer   0x80017978        0x0 load address 0x00017978
 .vfp11_veneer  0x80017978        0x0 linker stubs

.v4_bx          0x80017978        0x0 load address 0x00017978
 .v4_bx         0x80017978        0x0 linker stubs

.iplt           0x80017978        0x0 load address 0x00017978
 .iplt          0x80017978        0x0 build/entry.o

.rodata         0x80017978     0x1954 load address 0x00017978
 *(.rodata .rodata.*)
 .rodata        0x80017978       0x58 build/syscall.o
 .rodata.str1.4
                0x800179d0       0x1c build/syscall.o
 .rodata.str1.4
                0x800179ec      0x1aa build/trap.o
 .rodata.str1.4
                0x80017b96      0x1aa build/uspi_string.o
                                  0x1 (size before relaxing)
 *fill*         0x80017b96        0x2 
 .rodata.str1.4
                0x80017b98       0x2d build/usb_filestorage.o
 *fill*         0x80017bc5        0x3 
 .rodata.str1.4
                0x80017bc8       0x6b build/sysfile.o
 *fill*         0x80017c33        0x1 
 .rodata.str1.4
                0x80017c34       0x2b build/bio.o
 *fill*         0x80017c5f        0x1 
 .rodata.str1.4
                0x80017c60       0x77 build/uspi_usbdevicefactory.o
 *fill*         0x80017cd7        0x1 
 .rodata.str1.4
                0x80017cd8       0xb9 build/fs.o
                                 0xc4 (size before relaxing)
 *fill*         0x80017d91        0x3 
 .rodata        0x80017d94       0x11 build/console.o
 *fill*         0x80017da5        0x3 
 .rodata.str1.4
                0x80017da8       0x5e build/console.o
                                 0x62 (size before relaxing)
 *fill*         0x80017e06        0x2 
 .rodata.str1.4
                0x80017e08       0x6e build/memide.o
 *fill*         0x80017e76        0x2 
 .rodata.str1.4
                0x80017e78       0x60 build/spinlock.o
 .rodata.str1.4
                0x80017ed8       0xf9 build/main.o
 *fill*         0x80017fd1        0x3 
 .rodata.str1.4
                0x80017fd4       0x2f build/uspi_usbconfigparser.o
 *fill*         0x80018003        0x1 
 .rodata        0x80018004        0x7 build/uspi_usbstandardhub.o
 *fill*         0x8001800b        0x1 
 .rodata.str1.4
                0x8001800c      0x1e4 build/uspi_usbstandardhub.o
 .rodata.str1.4
                0x800181f0       0x1c build/uspi_dwhciframeschednper.o
 .rodata        0x8001820c      0x4cc build/uspi_keymap.o
 .rodata.str1.4
                0x800186d8       0xce build/uspi_keymap.o
                                 0xde (size before relaxing)
 .rodata.str1.4
                0x800187a6       0x1c build/uspi_dwhciframeschedper.o
 *fill*         0x800187a6        0x2 
 .rodata        0x800187a8       0x48 build/uspi_usbmidi.o
 .rodata.str1.4
                0x800187f0        0x8 build/uspi_usbmidi.o
                                 0x24 (size before relaxing)
 .rodata        0x800187f8        0x7 build/uspi_usbdevice.o
 *fill*         0x800187ff        0x1 
 .rodata.str1.4
                0x80018800      0x148 build/uspi_usbdevice.o
                                0x150 (size before relaxing)
 .rodata.str1.4
                0x80018948       0x1e build/uspi_macaddress.o
 *fill*         0x80018966        0x2 
 .rodata        0x80018968        0x9 build/uspi_smsc951x.o
 *fill*         0x80018971        0x3 
 .rodata.str1.4
                0x80018974       0x76 build/uspi_smsc951x.o
                                 0x92 (size before relaxing)
 *fill*         0x800189ea        0x2 
 .rodata        0x800189ec        0x5 build/uspi_usbmassdevice.o
 *fill*         0x800189f1        0x3 
 .rodata.str1.4
                0x800189f4      0x1cc build/uspi_usbmassdevice.o
                                0x1e8 (size before relaxing)
 .rodata.str1.4
                0x80018bc0       0x33 build/log.o
 *fill*         0x80018bf3        0x1 
 .rodata        0x80018bf4        0x5 build/uspi_library.o
 *fill*         0x80018bf9        0x3 
 .rodata.str1.4
                0x80018bfc       0x86 build/uspi_library.o
                                 0x8e (size before relaxing)
 *fill*         0x80018c82        0x2 
 .rodata.str1.4
                0x80018c84      0x16e build/vm.o
 *fill*         0x80018df2        0x2 
 .rodata.str1.4
                0x80018df4      0x122 build/usb.o
 *fill*         0x80018f16        0x2 
 .rodata.str1.4
                0x80018f18       0x42 build/file.o
 *fill*         0x80018f5a        0x2 
 .rodata.str1.4
                0x80018f5c        0x5 build/pipe.o
 *fill*         0x80018f61        0x3 
 .rodata        0x80018f64        0x7 build/uspi_usbmouse.o
 *fill*         0x80018f6b        0x1 
 .rodata.str1.4
                0x80018f6c       0x25 build/uspi_usbmouse.o
                                 0x59 (size before relaxing)
 *fill*         0x80018f91        0x3 
 .rodata        0x80018f94        0x8 build/uspi_lan7800.o
 .rodata.str1.4
                0x80018f9c       0x9c build/uspi_lan7800.o
                                 0xea (size before relaxing)
 .rodata.str1.4
                0x80019038        0x5 build/kalloc.o
                                  0xd (size before relaxing)
 *fill*         0x8001903d        0x3 
 .rodata        0x80019040       0x14 build/uspi_dwhcidevice.o
 .rodata.str1.4
                0x80019054       0xf8 build/uspi_dwhcidevice.o
 .rodata        0x8001914c        0xd build/uspi_usbgamepad.o
 *fill*         0x80019159        0x3 
 .rodata.str1.4
                0x8001915c       0x21 build/uspi_usbgamepad.o
                                 0x5f (size before relaxing)
 *fill*         0x8001917d        0x3 
 .rodata.str1.4
                0x80019180       0xa9 build/proc.o
                                 0xad (size before relaxing)
 *fill*         0x80019229        0x3 
 .rodata        0x8001922c        0x7 build/uspi_usbkeyboard.o
 *fill*         0x80019233        0x1 
 .rodata.str1.4
                0x80019234        0x7 build/uspi_usbkeyboard.o
                                 0x57 (size before relaxing)
 *fill*         0x8001923b        0x1 
 .rodata        0x8001923c        0x7 build/uspi_dwhcirootport.o
 *fill*         0x80019243        0x1 
 .rodata.str1.4
                0x80019244       0x88 build/uspi_dwhcirootport.o
                                 0x87 (size before relaxing)

.rel.dyn        0x800192cc        0x0 load address 0x000192cc
 .rel.iplt      0x800192cc        0x0 build/entry.o
                0x8001a000                . = ALIGN (0x1000)

.data           0x8001a000    0x80928 load address 0x0001a000
 *(.data)
 .data          0x8001a000    0x80850 build/entry.o
                0x8001a000                font
                0x8001a800                _binary_initcode_start
                0x8001a850                _binary_fs_img_start
                0x8001a850                _binary_initcode_end
                0x8009a850                _binary_fs_img_end
 .data          0x8009a850        0x0 build/exception.o
 .data          0x8009a850        0x0 build/uspienv_delayloop.o
 .data          0x8009a850        0x0 build/uspi_dwhciframeschednsplit.o
 .data          0x8009a850        0x0 build/exec.o
 .data          0x8009a850        0x0 build/syscall.o
 .data          0x8009a850        0x0 build/string.o
 .data          0x8009a850        0x0 build/uspi_usbrequest.o
 .data          0x8009a850        0x4 build/trap.o
                0x8009a850                first_time
 .data          0x8009a854        0x0 build/uspi_string.o
 .data          0x8009a854        0x4 build/uspi_devicenameservice.o
 .data          0x8009a858        0x0 build/usb_filestorage.o
 .data          0x8009a858        0x0 build/sysfile.o
 .data          0x8009a858        0x0 build/bio.o
 .data          0x8009a858        0x0 build/uspi_usbdevicefactory.o
 .data          0x8009a858        0x0 build/fs.o
 .data          0x8009a858       0x24 build/console.o
                0x8009a85c                framewidth
                0x8009a860                frameheight
                0x8009a864                cursor_x
                0x8009a868                fontheight
                0x8009a86c                cursor_y
                0x8009a870                fontwidth
                0x8009a878                framedepth
 .data          0x8009a87c        0x0 build/memide.o
 .data          0x8009a87c        0x0 build/mmu.o
 .data          0x8009a87c        0x0 build/spinlock.o
 .data          0x8009a87c        0x4 build/uspienv_timer.o
 .data          0x8009a880        0x0 build/main.o
 .data          0x8009a880        0x0 build/uspi_usbendpoint.o
 .data          0x8009a880        0x0 build/uspi_usbconfigparser.o
 .data          0x8009a880        0x0 build/mailbox.o
 .data          0x8009a880        0x0 build/uspi_usbstandardhub.o
 .data          0x8009a880        0x0 build/uspi_dwhciframeschednper.o
 .data          0x8009a880        0x0 build/uspi_dwhcixferstagedata.o
 .data          0x8009a880        0x0 build/uspi_keymap.o
 .data          0x8009a880        0x0 build/uspi_dwhciframeschedper.o
 .data          0x8009a880        0x4 build/uspi_usbmidi.o
 .data          0x8009a884        0x1 build/uspi_usbdevice.o
 .data          0x8009a885        0x0 build/uspi_macaddress.o
 *fill*         0x8009a885        0x3 
 .data          0x8009a888        0x4 build/uspi_smsc951x.o
 .data          0x8009a88c        0x0 build/uart.o
 .data          0x8009a88c        0x4 build/uspi_usbmassdevice.o
 .data          0x8009a890        0x0 build/log.o
 .data          0x8009a890        0x0 build/uspi_usbstring.o
 .data          0x8009a890        0x4 build/uspi_library.o
 .data          0x8009a894       0x3c build/vm.o
 .data          0x8009a8d0        0x8 build/usb.o
                0x8009a8d0                usb_active
                0x8009a8d4                device_index
 .data          0x8009a8d8        0x0 build/sysproc.o
 .data          0x8009a8d8        0x0 build/file.o
 .data          0x8009a8d8        0x0 build/pipe.o
 .data          0x8009a8d8        0x4 build/uspi_synchronize.o
 .data          0x8009a8dc        0x0 build/uspienv_memio.o
 .data          0x8009a8dc        0x4 build/uspi_usbmouse.o
 .data          0x8009a8e0        0x4 build/uspi_lan7800.o
 .data          0x8009a8e4        0x0 build/kalloc.o
 .data          0x8009a8e4        0x0 build/uspi_util.o
 .data          0x8009a8e4        0x0 build/uart_pl011.o
 .data          0x8009a8e4        0x0 build/uspi_dwhcidevice.o
 .data          0x8009a8e4       0x34 build/uspi_usbgamepad.o
 .data          0x8009a918        0x0 build/uspi_dwhciregister.o
 .data          0x8009a918        0xc build/proc.o
                0x8009a918                nextpid
                0x8009a920                first_sched
 .data          0x8009a924        0x4 build/uspi_usbkeyboard.o
 .data          0x8009a928        0x0 build/timer.o
 .data          0x8009a928        0x0 build/uspi_dwhcirootport.o
 *.c.o(*)

.igot.plt       0x8009a928        0x0 load address 0x0009a928
 .igot.plt      0x8009a928        0x0 build/entry.o

.bss            0x8009a930     0x5574 load address 0x0009a930
 *(.bss)
 .bss           0x8009a930        0x0 build/entry.o
 .bss           0x8009a930        0x0 build/exception.o
 .bss           0x8009a930        0x0 build/uspienv_delayloop.o
 .bss           0x8009a930        0x0 build/uspi_dwhciframeschednsplit.o
 .bss           0x8009a930        0x0 build/exec.o
 .bss           0x8009a930        0x0 build/syscall.o
 .bss           0x8009a930        0x0 build/string.o
 .bss           0x8009a930        0x0 build/uspi_usbrequest.o
 .bss           0x8009a930        0x0 build/trap.o
 .bss           0x8009a930        0x0 build/uspi_string.o
 .bss           0x8009a930        0x0 build/uspi_devicenameservice.o
 .bss           0x8009a930        0x0 build/usb_filestorage.o
 .bss           0x8009a930        0x0 build/sysfile.o
 .bss           0x8009a930        0x0 build/bio.o
 .bss           0x8009a930        0x0 build/uspi_usbdevicefactory.o
 .bss           0x8009a930        0x0 build/fs.o
 .bss           0x8009a930       0x60 build/console.o
                0x8009a930                fbinfo
 .bss           0x8009a990        0x8 build/memide.o
 .bss           0x8009a998        0x0 build/mmu.o
 .bss           0x8009a998        0x0 build/spinlock.o
 .bss           0x8009a998        0x0 build/uspienv_timer.o
 .bss           0x8009a998        0x0 build/main.o
 .bss           0x8009a998        0x0 build/uspi_usbendpoint.o
 .bss           0x8009a998        0x0 build/uspi_usbconfigparser.o
 .bss           0x8009a998        0x0 build/mailbox.o
 .bss           0x8009a998        0x0 build/uspi_usbstandardhub.o
 .bss           0x8009a998        0x0 build/uspi_dwhciframeschednper.o
 .bss           0x8009a998        0x0 build/uspi_dwhcixferstagedata.o
 .bss           0x8009a998        0x0 build/uspi_keymap.o
 .bss           0x8009a998        0x0 build/uspi_dwhciframeschedper.o
 .bss           0x8009a998        0x0 build/uspi_usbmidi.o
 .bss           0x8009a998        0x0 build/uspi_usbdevice.o
 .bss           0x8009a998        0x0 build/uspi_macaddress.o
 .bss           0x8009a998        0x0 build/uspi_smsc951x.o
 .bss           0x8009a998        0xc build/uart.o
 .bss           0x8009a9a4        0x0 build/uspi_usbmassdevice.o
 .bss           0x8009a9a4        0x0 build/log.o
 .bss           0x8009a9a4        0x0 build/uspi_usbstring.o
 .bss           0x8009a9a4        0x0 build/uspi_library.o
 .bss           0x8009a9a4        0x0 build/vm.o
 .bss           0x8009a9a4      0x158 build/usb.o
 .bss           0x8009aafc        0x0 build/sysproc.o
 .bss           0x8009aafc        0x0 build/file.o
 .bss           0x8009aafc        0x0 build/pipe.o
 .bss           0x8009aafc        0x4 build/uspi_synchronize.o
 .bss           0x8009ab00        0x0 build/uspienv_memio.o
 .bss           0x8009ab00        0x0 build/uspi_usbmouse.o
 .bss           0x8009ab00        0x0 build/uspi_lan7800.o
 .bss           0x8009ab00        0x0 build/kalloc.o
 .bss           0x8009ab00        0x0 build/uspi_util.o
 .bss           0x8009ab00        0x0 build/uart_pl011.o
 .bss           0x8009ab00        0x0 build/uspi_dwhcidevice.o
 .bss           0x8009ab00        0x0 build/uspi_usbgamepad.o
 .bss           0x8009ab00        0x0 build/uspi_dwhciregister.o
 .bss           0x8009ab00        0x4 build/proc.o
 .bss           0x8009ab04        0x0 build/uspi_usbkeyboard.o
 .bss           0x8009ab04        0x0 build/timer.o
 .bss           0x8009ab04        0x0 build/uspi_dwhcirootport.o
 COMMON         0x8009ab04       0xe0 build/exec.o
                0x8009ab04                cpus
 COMMON         0x8009abe4       0x50 build/trap.o
                0x8009abe4                pUSBParam
                0x8009abe8                pUSBTimerParam
                0x8009abec                nUSBTimerIRQ
                0x8009abf0                tickslock
                0x8009ac24                pUSBTimerHandler
                0x8009ac28                ticks
                0x8009ac2c                pUSBHandler
                0x8009ac30                nUSBIRQ
 COMMON         0x8009ac34       0xa0 build/usb_filestorage.o
                0x8009ac34                device_handler
 COMMON         0x8009acd4     0x173c build/bio.o
                0x8009acd4                bcache
 COMMON         0x8009c410      0xfd4 build/fs.o
                0x8009c410                icache
 COMMON         0x8009d3e4       0xc0 build/console.o
                0x8009d3e4                input
 COMMON         0x8009d4a4        0x4 build/mmu.o
                0x8009d4a4                pm_size
 COMMON         0x8009d4a8       0x28 build/main.o
                0x8009d4a8                mb_data
 COMMON         0x8009d4d0        0x4 build/mailbox.o
                0x8009d4d0                mailbuffer
 COMMON         0x8009d4d4        0x4 build/uart.o
                0x8009d4d4                uart_disabled
 COMMON         0x8009d4d8       0x70 build/log.o
                0x8009d4d8                log
 COMMON         0x8009d548        0x4 build/vm.o
                0x8009d548                kpgdir
 COMMON         0x8009d54c      0x9e4 build/file.o
                0x8009d54c                ftable
                0x8009dee0                devsw
 COMMON         0x8009df30       0x3c build/kalloc.o
                0x8009df30                kmem
 COMMON         0x8009df6c        0x4 build/uart_pl011.o
                0x8009df6c                uart_lock
 COMMON         0x8009df70     0x1f34 build/proc.o
                0x8009df70                ptable
                0x8009fea4                PROVIDE (end, .)

/DISCARD/
 *(.eh_frame .note.GNU-stack)
OUTPUT(build/kernel.elf elf32-littlearm)

.ARM.attributes
                0x00000000       0x3b
 .ARM.attributes
                0x00000000       0x2b build/entry.o
 .ARM.attributes
                0x0000002b       0x2b build/exception.o
 .ARM.attributes
                0x00000056       0x2b build/uspienv_delayloop.o
 .ARM.attributes
                0x00000081       0x3f build/uspi_dwhciframeschednsplit.o
 .ARM.attributes
                0x000000c0       0x3f build/exec.o
 .ARM.attributes
                0x000000ff       0x3f build/syscall.o
 .ARM.attributes
                0x0000013e       0x3f build/string.o
 .ARM.attributes
                0x0000017d       0x3f build/uspi_usbrequest.o
 .ARM.attributes
                0x000001bc       0x3f build/trap.o
 .ARM.attributes
                0x000001fb       0x3f build/uspi_string.o
 .ARM.attributes
                0x0000023a       0x3f build/uspi_devicenameservice.o
 .ARM.attributes
                0x00000279       0x3f build/usb_filestorage.o
 .ARM.attributes
                0x000002b8       0x3f build/sysfile.o
 .ARM.attributes
                0x000002f7       0x3f build/bio.o
 .ARM.attributes
                0x00000336       0x3f build/uspi_usbdevicefactory.o
 .ARM.attributes
                0x00000375       0x3f build/fs.o
 .ARM.attributes
                0x000003b4       0x3f build/console.o
 .ARM.attributes
                0x000003f3       0x3f build/memide.o
 .ARM.attributes
                0x00000432       0x3f build/mmu.o
 .ARM.attributes
                0x00000471       0x3f build/spinlock.o
 .ARM.attributes
                0x000004b0       0x3f build/uspienv_timer.o
 .ARM.attributes
                0x000004ef       0x3f build/main.o
 .ARM.attributes
                0x0000052e       0x3f build/uspi_usbendpoint.o
 .ARM.attributes
                0x0000056d       0x3f build/uspi_usbconfigparser.o
 .ARM.attributes
                0x000005ac       0x3f build/mailbox.o
 .ARM.attributes
                0x000005eb       0x3f build/uspi_usbstandardhub.o
 .ARM.attributes
                0x0000062a       0x3f build/uspi_dwhciframeschednper.o
 .ARM.attributes
                0x00000669       0x3f build/uspi_dwhcixferstagedata.o
 .ARM.attributes
                0x000006a8       0x3f build/uspi_keymap.o
 .ARM.attributes
                0x000006e7       0x3f build/uspi_dwhciframeschedper.o
 .ARM.attributes
                0x00000726       0x3f build/uspi_usbmidi.o
 .ARM.attributes
                0x00000765       0x3f build/uspi_usbdevice.o
 .ARM.attributes
                0x000007a4       0x3f build/uspi_macaddress.o
 .ARM.attributes
                0x000007e3       0x3f build/uspi_smsc951x.o
 .ARM.attributes
                0x00000822       0x3f build/uart.o
 .ARM.attributes
                0x00000861       0x3f build/uspi_usbmassdevice.o
 .ARM.attributes
                0x000008a0       0x3f build/log.o
 .ARM.attributes
                0x000008df       0x3f build/uspi_usbstring.o
 .ARM.attributes
                0x0000091e       0x3f build/uspi_library.o
 .ARM.attributes
                0x0000095d       0x3f build/vm.o
 .ARM.attributes
                0x0000099c       0x3f build/usb.o
 .ARM.attributes
                0x000009db       0x3f build/sysproc.o
 .ARM.attributes
                0x00000a1a       0x3f build/file.o
 .ARM.attributes
                0x00000a59       0x3f build/pipe.o
 .ARM.attributes
                0x00000a98       0x3f build/uspi_synchronize.o
 .ARM.attributes
                0x00000ad7       0x3f build/uspienv_memio.o
 .ARM.attributes
                0x00000b16       0x3f build/uspi_usbmouse.o
 .ARM.attributes
                0x00000b55       0x3f build/uspi_lan7800.o
 .ARM.attributes
                0x00000b94       0x3f build/kalloc.o
 .ARM.attributes
                0x00000bd3       0x3f build/uspi_util.o
 .ARM.attributes
                0x00000c12       0x3f build/uart_pl011.o
 .ARM.attributes
                0x00000c51       0x3f build/uspi_dwhcidevice.o
 .ARM.attributes
                0x00000c90       0x3f build/uspi_usbgamepad.o
 .ARM.attributes
                0x00000ccf       0x3f build/uspi_dwhciregister.o
 .ARM.attributes
                0x00000d0e       0x3f build/proc.o
 .ARM.attributes
                0x00000d4d       0x3f build/uspi_usbkeyboard.o
 .ARM.attributes
                0x00000d8c       0x3f build/timer.o
 .ARM.attributes
                0x00000dcb       0x3f build/uspi_dwhcirootport.o

.comment        0x00000000       0x34
 .comment       0x00000000       0x34 build/uspi_dwhciframeschednsplit.o
                                 0x35 (size before relaxing)
 .comment       0x00000034       0x35 build/exec.o
 .comment       0x00000034       0x35 build/syscall.o
 .comment       0x00000034       0x35 build/string.o
 .comment       0x00000034       0x35 build/uspi_usbrequest.o
 .comment       0x00000034       0x35 build/trap.o
 .comment       0x00000034       0x35 build/uspi_string.o
 .comment       0x00000034       0x35 build/uspi_devicenameservice.o
 .comment       0x00000034       0x35 build/usb_filestorage.o
 .comment       0x00000034       0x35 build/sysfile.o
 .comment       0x00000034       0x35 build/bio.o
 .comment       0x00000034       0x35 build/uspi_usbdevicefactory.o
 .comment       0x00000034       0x35 build/fs.o
 .comment       0x00000034       0x35 build/console.o
 .comment       0x00000034       0x35 build/memide.o
 .comment       0x00000034       0x35 build/mmu.o
 .comment       0x00000034       0x35 build/spinlock.o
 .comment       0x00000034       0x35 build/uspienv_timer.o
 .comment       0x00000034       0x35 build/main.o
 .comment       0x00000034       0x35 build/uspi_usbendpoint.o
 .comment       0x00000034       0x35 build/uspi_usbconfigparser.o
 .comment       0x00000034       0x35 build/mailbox.o
 .comment       0x00000034       0x35 build/uspi_usbstandardhub.o
 .comment       0x00000034       0x35 build/uspi_dwhciframeschednper.o
 .comment       0x00000034       0x35 build/uspi_dwhcixferstagedata.o
 .comment       0x00000034       0x35 build/uspi_keymap.o
 .comment       0x00000034       0x35 build/uspi_dwhciframeschedper.o
 .comment       0x00000034       0x35 build/uspi_usbmidi.o
 .comment       0x00000034       0x35 build/uspi_usbdevice.o
 .comment       0x00000034       0x35 build/uspi_macaddress.o
 .comment       0x00000034       0x35 build/uspi_smsc951x.o
 .comment       0x00000034       0x35 build/uart.o
 .comment       0x00000034       0x35 build/uspi_usbmassdevice.o
 .comment       0x00000034       0x35 build/log.o
 .comment       0x00000034       0x35 build/uspi_usbstring.o
 .comment       0x00000034       0x35 build/uspi_library.o
 .comment       0x00000034       0x35 build/vm.o
 .comment       0x00000034       0x35 build/usb.o
 .comment       0x00000034       0x35 build/sysproc.o
 .comment       0x00000034       0x35 build/file.o
 .comment       0x00000034       0x35 build/pipe.o
 .comment       0x00000034       0x35 build/uspi_synchronize.o
 .comment       0x00000034       0x35 build/uspienv_memio.o
 .comment       0x00000034       0x35 build/uspi_usbmouse.o
 .comment       0x00000034       0x35 build/uspi_lan7800.o
 .comment       0x00000034       0x35 build/kalloc.o
 .comment       0x00000034       0x35 build/uspi_util.o
 .comment       0x00000034       0x35 build/uart_pl011.o
 .comment       0x00000034       0x35 build/uspi_dwhcidevice.o
 .comment       0x00000034       0x35 build/uspi_usbgamepad.o
 .comment       0x00000034       0x35 build/uspi_dwhciregister.o
 .comment       0x00000034       0x35 build/proc.o
 .comment       0x00000034       0x35 build/uspi_usbkeyboard.o
 .comment       0x00000034       0x35 build/timer.o
 .comment       0x00000034       0x35 build/uspi_dwhcirootport.o

.debug_line     0x00000000     0x5d5f
 .debug_line    0x00000000       0xfb build/entry.o
 .debug_line    0x000000fb       0xdd build/exception.o
 .debug_line    0x000001d8       0x4c build/uspienv_delayloop.o
 .debug_line    0x00000224       0xf4 build/uspi_dwhciframeschednsplit.o
 .debug_line    0x00000318       0xf3 build/exec.o
 .debug_line    0x0000040b       0xf1 build/syscall.o
 .debug_line    0x000004fc       0xfa build/string.o
 .debug_line    0x000005f6       0xf1 build/uspi_usbrequest.o
 .debug_line    0x000006e7      0x1c1 build/trap.o
 .debug_line    0x000008a8      0x2b8 build/uspi_string.o
 .debug_line    0x00000b60       0xd6 build/uspi_devicenameservice.o
 .debug_line    0x00000c36       0xa1 build/usb_filestorage.o
 .debug_line    0x00000cd7      0x29f build/sysfile.o
 .debug_line    0x00000f76      0x103 build/bio.o
 .debug_line    0x00001079      0x23a build/uspi_usbdevicefactory.o
 .debug_line    0x000012b3      0x3e6 build/fs.o
 .debug_line    0x00001699      0x354 build/console.o
 .debug_line    0x000019ed       0xaa build/memide.o
 .debug_line    0x00001a97       0xea build/mmu.o
 .debug_line    0x00001b81       0xbb build/spinlock.o
 .debug_line    0x00001c3c      0x184 build/uspienv_timer.o
 .debug_line    0x00001dc0      0x119 build/main.o
 .debug_line    0x00001ed9      0x12c build/uspi_usbendpoint.o
 .debug_line    0x00002005      0x102 build/uspi_usbconfigparser.o
 .debug_line    0x00002107       0xfc build/mailbox.o
 .debug_line    0x00002203      0x340 build/uspi_usbstandardhub.o
 .debug_line    0x00002543      0x109 build/uspi_dwhciframeschednper.o
 .debug_line    0x0000264c      0x282 build/uspi_dwhcixferstagedata.o
 .debug_line    0x000028ce      0x111 build/uspi_keymap.o
 .debug_line    0x000029df      0x140 build/uspi_dwhciframeschedper.o
 .debug_line    0x00002b1f      0x1da build/uspi_usbmidi.o
 .debug_line    0x00002cf9      0x26d build/uspi_usbdevice.o
 .debug_line    0x00002f66       0xbe build/uspi_macaddress.o
 .debug_line    0x00003024      0x253 build/uspi_smsc951x.o
 .debug_line    0x00003277      0x1cf build/uart.o
 .debug_line    0x00003446      0x393 build/uspi_usbmassdevice.o
 .debug_line    0x000037d9      0x134 build/log.o
 .debug_line    0x0000390d      0x1e8 build/uspi_usbstring.o
 .debug_line    0x00003af5      0x315 build/uspi_library.o
 .debug_line    0x00003e0a      0x22e build/vm.o
 .debug_line    0x00004038      0x169 build/usb.o
 .debug_line    0x000041a1       0xaa build/sysproc.o
 .debug_line    0x0000424b      0x10a build/file.o
 .debug_line    0x00004355      0x12d build/pipe.o
 .debug_line    0x00004482       0x73 build/uspi_synchronize.o
 .debug_line    0x000044f5       0x62 build/uspienv_memio.o
 .debug_line    0x00004557      0x1eb build/uspi_usbmouse.o
 .debug_line    0x00004742      0x2e6 build/uspi_lan7800.o
 .debug_line    0x00004a28       0xff build/kalloc.o
 .debug_line    0x00004b27       0xcd build/uspi_util.o
 .debug_line    0x00004bf4       0x88 build/uart_pl011.o
 .debug_line    0x00004c7c      0x558 build/uspi_dwhcidevice.o
 .debug_line    0x000051d4      0x3b8 build/uspi_usbgamepad.o
 .debug_line    0x0000558c       0xb2 build/uspi_dwhciregister.o
 .debug_line    0x0000563e      0x24d build/proc.o
 .debug_line    0x0000588b      0x231 build/uspi_usbkeyboard.o
 .debug_line    0x00005abc       0xee build/timer.o
 .debug_line    0x00005baa      0x1b5 build/uspi_dwhcirootport.o

.debug_info     0x00000000    0x2bb76
 .debug_info    0x00000000       0x3e build/entry.o
 .debug_info    0x0000003e       0x46 build/exception.o
 .debug_info    0x00000084       0x4e build/uspienv_delayloop.o
 .debug_info    0x000000d2      0x373 build/uspi_dwhciframeschednsplit.o
 .debug_info    0x00000445      0x889 build/exec.o
 .debug_info    0x00000cce      0x6dd build/syscall.o
 .debug_info    0x000013ab      0x4cb build/string.o
 .debug_info    0x00001876      0xa63 build/uspi_usbrequest.o
 .debug_info    0x000022d9      0xb8f build/trap.o
 .debug_info    0x00002e68     0x11e1 build/uspi_string.o
 .debug_info    0x00004049      0x2dd build/uspi_devicenameservice.o
 .debug_info    0x00004326      0x305 build/usb_filestorage.o
 .debug_info    0x0000462b     0x15d0 build/sysfile.o
 .debug_info    0x00005bfb      0x45f build/bio.o
 .debug_info    0x0000605a     0x16c2 build/uspi_usbdevicefactory.o
 .debug_info    0x0000771c     0x1a2f build/fs.o
 .debug_info    0x0000914b     0x134e build/console.o
 .debug_info    0x0000a499      0x61e build/memide.o
 .debug_info    0x0000aab7      0x17f build/mmu.o
 .debug_info    0x0000ac36      0x6b0 build/spinlock.o
 .debug_info    0x0000b2e6      0x7df build/uspienv_timer.o
 .debug_info    0x0000bac5      0xb2e build/main.o
 .debug_info    0x0000c5f3      0xa01 build/uspi_usbendpoint.o
 .debug_info    0x0000cff4      0x581 build/uspi_usbconfigparser.o
 .debug_info    0x0000d575      0x839 build/mailbox.o
 .debug_info    0x0000ddae     0x197f build/uspi_usbstandardhub.o
 .debug_info    0x0000f72d      0x3b6 build/uspi_dwhciframeschednper.o
 .debug_info    0x0000fae3     0x13c0 build/uspi_dwhcixferstagedata.o
 .debug_info    0x00010ea3      0x588 build/uspi_keymap.o
 .debug_info    0x0001142b      0x4d6 build/uspi_dwhciframeschedper.o
 .debug_info    0x00011901     0x1134 build/uspi_usbmidi.o
 .debug_info    0x00012a35     0x152c build/uspi_usbdevice.o
 .debug_info    0x00013f61      0x40e build/uspi_macaddress.o
 .debug_info    0x0001436f     0x1504 build/uspi_smsc951x.o
 .debug_info    0x00015873      0xb9c build/uart.o
 .debug_info    0x0001640f     0x206f build/uspi_usbmassdevice.o
 .debug_info    0x0001847e      0x67f build/log.o
 .debug_info    0x00018afd      0xf4c build/uspi_usbstring.o
 .debug_info    0x00019a49     0x1d3c build/uspi_library.o
 .debug_info    0x0001b785     0x118f build/vm.o
 .debug_info    0x0001c914      0xb19 build/usb.o
 .debug_info    0x0001d42d      0x625 build/sysproc.o
 .debug_info    0x0001da52      0x742 build/file.o
 .debug_info    0x0001e194      0x829 build/pipe.o
 .debug_info    0x0001e9bd      0x10d build/uspi_synchronize.o
 .debug_info    0x0001eaca       0xc5 build/uspienv_memio.o
 .debug_info    0x0001eb8f     0x11af build/uspi_usbmouse.o
 .debug_info    0x0001fd3e     0x1dbd build/uspi_lan7800.o
 .debug_info    0x00021afb      0x3d8 build/kalloc.o
 .debug_info    0x00021ed3      0x39c build/uspi_util.o
 .debug_info    0x0002226f       0xc7 build/uart_pl011.o
 .debug_info    0x00022336     0x41c0 build/uspi_dwhcidevice.o
 .debug_info    0x000264f6     0x18d4 build/uspi_usbgamepad.o
 .debug_info    0x00027dca      0x33d build/uspi_dwhciregister.o
 .debug_info    0x00028107      0xdf7 build/proc.o
 .debug_info    0x00028efe     0x175a build/uspi_usbkeyboard.o
 .debug_info    0x0002a658      0x74a build/timer.o
 .debug_info    0x0002ada2      0xdd4 build/uspi_dwhcirootport.o

.debug_abbrev   0x00000000     0x7541
 .debug_abbrev  0x00000000       0x12 build/entry.o
 .debug_abbrev  0x00000012       0x14 build/exception.o
 .debug_abbrev  0x00000026       0x14 build/uspienv_delayloop.o
 .debug_abbrev  0x0000003a      0x18a build/uspi_dwhciframeschednsplit.o
 .debug_abbrev  0x000001c4      0x193 build/exec.o
 .debug_abbrev  0x00000357      0x244 build/syscall.o
 .debug_abbrev  0x0000059b      0x1a1 build/string.o
 .debug_abbrev  0x0000073c      0x170 build/uspi_usbrequest.o
 .debug_abbrev  0x000008ac      0x243 build/trap.o
 .debug_abbrev  0x00000aef      0x2d7 build/uspi_string.o
 .debug_abbrev  0x00000dc6      0x150 build/uspi_devicenameservice.o
 .debug_abbrev  0x00000f16      0x161 build/usb_filestorage.o
 .debug_abbrev  0x00001077      0x2af build/sysfile.o
 .debug_abbrev  0x00001326      0x1fe build/bio.o
 .debug_abbrev  0x00001524      0x1b1 build/uspi_usbdevicefactory.o
 .debug_abbrev  0x000016d5      0x44b build/fs.o
 .debug_abbrev  0x00001b20      0x3e3 build/console.o
 .debug_abbrev  0x00001f03      0x1cc build/memide.o
 .debug_abbrev  0x000020cf       0xd0 build/mmu.o
 .debug_abbrev  0x0000219f      0x21b build/spinlock.o
 .debug_abbrev  0x000023ba      0x2da build/uspienv_timer.o
 .debug_abbrev  0x00002694      0x1ee build/main.o
 .debug_abbrev  0x00002882      0x186 build/uspi_usbendpoint.o
 .debug_abbrev  0x00002a08      0x154 build/uspi_usbconfigparser.o
 .debug_abbrev  0x00002b5c      0x278 build/mailbox.o
 .debug_abbrev  0x00002dd4      0x222 build/uspi_usbstandardhub.o
 .debug_abbrev  0x00002ff6      0x1c3 build/uspi_dwhciframeschednper.o
 .debug_abbrev  0x000031b9      0x2a3 build/uspi_dwhcixferstagedata.o
 .debug_abbrev  0x0000345c      0x1b0 build/uspi_keymap.o
 .debug_abbrev  0x0000360c      0x1ea build/uspi_dwhciframeschedper.o
 .debug_abbrev  0x000037f6      0x23b build/uspi_usbmidi.o
 .debug_abbrev  0x00003a31      0x2be build/uspi_usbdevice.o
 .debug_abbrev  0x00003cef      0x190 build/uspi_macaddress.o
 .debug_abbrev  0x00003e7f      0x212 build/uspi_smsc951x.o
 .debug_abbrev  0x00004091      0x275 build/uart.o
 .debug_abbrev  0x00004306      0x2ee build/uspi_usbmassdevice.o
 .debug_abbrev  0x000045f4      0x1e9 build/log.o
 .debug_abbrev  0x000047dd      0x1ea build/uspi_usbstring.o
 .debug_abbrev  0x000049c7      0x2cb build/uspi_library.o
 .debug_abbrev  0x00004c92      0x393 build/vm.o
 .debug_abbrev  0x00005025      0x350 build/usb.o
 .debug_abbrev  0x00005375      0x187 build/sysproc.o
 .debug_abbrev  0x000054fc      0x1e8 build/file.o
 .debug_abbrev  0x000056e4      0x1fa build/pipe.o
 .debug_abbrev  0x000058de       0xc2 build/uspi_synchronize.o
 .debug_abbrev  0x000059a0       0x89 build/uspienv_memio.o
 .debug_abbrev  0x00005a29      0x22b build/uspi_usbmouse.o
 .debug_abbrev  0x00005c54      0x286 build/uspi_lan7800.o
 .debug_abbrev  0x00005eda      0x24b build/kalloc.o
 .debug_abbrev  0x00006125       0xf2 build/uspi_util.o
 .debug_abbrev  0x00006217       0xae build/uart_pl011.o
 .debug_abbrev  0x000062c5      0x39b build/uspi_dwhcidevice.o
 .debug_abbrev  0x00006660      0x392 build/uspi_usbgamepad.o
 .debug_abbrev  0x000069f2       0xe8 build/uspi_dwhciregister.o
 .debug_abbrev  0x00006ada      0x342 build/proc.o
 .debug_abbrev  0x00006e1c      0x322 build/uspi_usbkeyboard.o
 .debug_abbrev  0x0000713e      0x24d build/timer.o
 .debug_abbrev  0x0000738b      0x1b6 build/uspi_dwhcirootport.o

.debug_aranges  0x00000000      0x748
 .debug_aranges
                0x00000000       0x28 build/entry.o
 .debug_aranges
                0x00000028       0x20 build/exception.o
 .debug_aranges
                0x00000048       0x20 build/uspienv_delayloop.o
 .debug_aranges
                0x00000068       0x20 build/uspi_dwhciframeschednsplit.o
 .debug_aranges
                0x00000088       0x20 build/exec.o
 .debug_aranges
                0x000000a8       0x20 build/syscall.o
 .debug_aranges
                0x000000c8       0x20 build/string.o
 .debug_aranges
                0x000000e8       0x20 build/uspi_usbrequest.o
 .debug_aranges
                0x00000108       0x20 build/trap.o
 .debug_aranges
                0x00000128       0x20 build/uspi_string.o
 .debug_aranges
                0x00000148       0x20 build/uspi_devicenameservice.o
 .debug_aranges
                0x00000168       0x20 build/usb_filestorage.o
 .debug_aranges
                0x00000188       0x20 build/sysfile.o
 .debug_aranges
                0x000001a8       0x20 build/bio.o
 .debug_aranges
                0x000001c8       0x20 build/uspi_usbdevicefactory.o
 .debug_aranges
                0x000001e8       0x20 build/fs.o
 .debug_aranges
                0x00000208       0x20 build/console.o
 .debug_aranges
                0x00000228       0x20 build/memide.o
 .debug_aranges
                0x00000248       0x20 build/mmu.o
 .debug_aranges
                0x00000268       0x20 build/spinlock.o
 .debug_aranges
                0x00000288       0x20 build/uspienv_timer.o
 .debug_aranges
                0x000002a8       0x20 build/main.o
 .debug_aranges
                0x000002c8       0x20 build/uspi_usbendpoint.o
 .debug_aranges
                0x000002e8       0x20 build/uspi_usbconfigparser.o
 .debug_aranges
                0x00000308       0x20 build/mailbox.o
 .debug_aranges
                0x00000328       0x20 build/uspi_usbstandardhub.o
 .debug_aranges
                0x00000348       0x20 build/uspi_dwhciframeschednper.o
 .debug_aranges
                0x00000368       0x20 build/uspi_dwhcixferstagedata.o
 .debug_aranges
                0x00000388       0x20 build/uspi_keymap.o
 .debug_aranges
                0x000003a8       0x20 build/uspi_dwhciframeschedper.o
 .debug_aranges
                0x000003c8       0x20 build/uspi_usbmidi.o
 .debug_aranges
                0x000003e8       0x20 build/uspi_usbdevice.o
 .debug_aranges
                0x00000408       0x20 build/uspi_macaddress.o
 .debug_aranges
                0x00000428       0x20 build/uspi_smsc951x.o
 .debug_aranges
                0x00000448       0x20 build/uart.o
 .debug_aranges
                0x00000468       0x20 build/uspi_usbmassdevice.o
 .debug_aranges
                0x00000488       0x20 build/log.o
 .debug_aranges
                0x000004a8       0x20 build/uspi_usbstring.o
 .debug_aranges
                0x000004c8       0x20 build/uspi_library.o
 .debug_aranges
                0x000004e8       0x20 build/vm.o
 .debug_aranges
                0x00000508       0x20 build/usb.o
 .debug_aranges
                0x00000528       0x20 build/sysproc.o
 .debug_aranges
                0x00000548       0x20 build/file.o
 .debug_aranges
                0x00000568       0x20 build/pipe.o
 .debug_aranges
                0x00000588       0x20 build/uspi_synchronize.o
 .debug_aranges
                0x000005a8       0x20 build/uspienv_memio.o
 .debug_aranges
                0x000005c8       0x20 build/uspi_usbmouse.o
 .debug_aranges
                0x000005e8       0x20 build/uspi_lan7800.o
 .debug_aranges
                0x00000608       0x20 build/kalloc.o
 .debug_aranges
                0x00000628       0x20 build/uspi_util.o
 .debug_aranges
                0x00000648       0x20 build/uart_pl011.o
 .debug_aranges
                0x00000668       0x20 build/uspi_dwhcidevice.o
 .debug_aranges
                0x00000688       0x20 build/uspi_usbgamepad.o
 .debug_aranges
                0x000006a8       0x20 build/uspi_dwhciregister.o
 .debug_aranges
                0x000006c8       0x20 build/proc.o
 .debug_aranges
                0x000006e8       0x20 build/uspi_usbkeyboard.o
 .debug_aranges
                0x00000708       0x20 build/timer.o
 .debug_aranges
                0x00000728       0x20 build/uspi_dwhcirootport.o

.debug_ranges   0x00000000      0xd10
 .debug_ranges  0x00000000       0x20 build/entry.o
 .debug_ranges  0x00000020       0x98 build/syscall.o
 .debug_ranges  0x000000b8       0x20 build/string.o
 .debug_ranges  0x000000d8      0x1e0 build/uspi_string.o
 .debug_ranges  0x000002b8       0x18 build/uspi_devicenameservice.o
 .debug_ranges  0x000002d0       0x90 build/sysfile.o
 .debug_ranges  0x00000360       0x20 build/bio.o
 .debug_ranges  0x00000380       0xb8 build/fs.o
 .debug_ranges  0x00000438       0xa8 build/console.o
 .debug_ranges  0x000004e0       0x68 build/uspienv_timer.o
 .debug_ranges  0x00000548       0x18 build/main.o
 .debug_ranges  0x00000560       0x20 build/uspi_usbendpoint.o
 .debug_ranges  0x00000580       0x40 build/uspi_usbconfigparser.o
 .debug_ranges  0x000005c0       0x40 build/mailbox.o
 .debug_ranges  0x00000600      0x140 build/uspi_usbstandardhub.o
 .debug_ranges  0x00000740       0x18 build/uspi_keymap.o
 .debug_ranges  0x00000758       0x18 build/uspi_dwhciframeschedper.o
 .debug_ranges  0x00000770       0x38 build/uspi_usbmidi.o
 .debug_ranges  0x000007a8       0x30 build/uspi_usbdevice.o
 .debug_ranges  0x000007d8       0x18 build/uspi_macaddress.o
 .debug_ranges  0x000007f0       0x80 build/uart.o
 .debug_ranges  0x00000870       0x70 build/uspi_usbmassdevice.o
 .debug_ranges  0x000008e0       0x48 build/log.o
 .debug_ranges  0x00000928       0x60 build/uspi_usbstring.o
 .debug_ranges  0x00000988       0x70 build/uspi_library.o
 .debug_ranges  0x000009f8       0x50 build/vm.o
 .debug_ranges  0x00000a48       0x30 build/usb.o
 .debug_ranges  0x00000a78       0x40 build/file.o
 .debug_ranges  0x00000ab8       0x18 build/uspi_lan7800.o
 .debug_ranges  0x00000ad0       0x50 build/kalloc.o
 .debug_ranges  0x00000b20       0x88 build/uspi_dwhcidevice.o
 .debug_ranges  0x00000ba8       0xa0 build/uspi_usbgamepad.o
 .debug_ranges  0x00000c48       0x30 build/proc.o
 .debug_ranges  0x00000c78       0x98 build/timer.o

.debug_loc      0x00000000     0xe59e
 .debug_loc     0x00000000       0x9f build/uspi_dwhciframeschednsplit.o
 .debug_loc     0x0000009f      0x2a3 build/exec.o
 .debug_loc     0x00000342      0x3a3 build/syscall.o
 .debug_loc     0x000006e5      0x903 build/string.o
 .debug_loc     0x00000fe8      0x106 build/uspi_usbrequest.o
 .debug_loc     0x000010ee      0x2bd build/trap.o
 .debug_loc     0x000013ab     0x1245 build/uspi_string.o
 .debug_loc     0x000025f0      0x12d build/uspi_devicenameservice.o
 .debug_loc     0x0000271d       0x35 build/usb_filestorage.o
 .debug_loc     0x00002752      0x47d build/sysfile.o
 .debug_loc     0x00002bcf      0x149 build/bio.o
 .debug_loc     0x00002d18      0x241 build/uspi_usbdevicefactory.o
 .debug_loc     0x00002f59     0x1059 build/fs.o
 .debug_loc     0x00003fb2      0x89b build/console.o
 .debug_loc     0x0000484d       0xd5 build/memide.o
 .debug_loc     0x00004922      0x164 build/mmu.o
 .debug_loc     0x00004a86       0xcb build/spinlock.o
 .debug_loc     0x00004b51      0x590 build/uspienv_timer.o
 .debug_loc     0x000050e1      0x230 build/uspi_usbendpoint.o
 .debug_loc     0x00005311      0x309 build/uspi_usbconfigparser.o
 .debug_loc     0x0000561a      0x2a1 build/mailbox.o
 .debug_loc     0x000058bb      0x555 build/uspi_usbstandardhub.o
 .debug_loc     0x00005e10      0x1ff build/uspi_dwhciframeschednper.o
 .debug_loc     0x0000600f      0x6ac build/uspi_dwhcixferstagedata.o
 .debug_loc     0x000066bb      0x4b7 build/uspi_keymap.o
 .debug_loc     0x00006b72      0x2e5 build/uspi_dwhciframeschedper.o
 .debug_loc     0x00006e57      0x305 build/uspi_usbmidi.o
 .debug_loc     0x0000715c      0x45b build/uspi_usbdevice.o
 .debug_loc     0x000075b7      0x213 build/uspi_macaddress.o
 .debug_loc     0x000077ca      0x38f build/uspi_smsc951x.o
 .debug_loc     0x00007b59      0x7b2 build/uart.o
 .debug_loc     0x0000830b      0x84c build/uspi_usbmassdevice.o
 .debug_loc     0x00008b57      0x1e4 build/log.o
 .debug_loc     0x00008d3b      0x2b3 build/uspi_usbstring.o
 .debug_loc     0x00008fee      0x691 build/uspi_library.o
 .debug_loc     0x0000967f      0xdff build/vm.o
 .debug_loc     0x0000a47e      0x396 build/usb.o
 .debug_loc     0x0000a814       0x31 build/sysproc.o
 .debug_loc     0x0000a845      0x4e1 build/file.o
 .debug_loc     0x0000ad26      0x279 build/pipe.o
 .debug_loc     0x0000af9f       0x77 build/uspi_synchronize.o
 .debug_loc     0x0000b016       0x21 build/uspienv_memio.o
 .debug_loc     0x0000b037      0x222 build/uspi_usbmouse.o
 .debug_loc     0x0000b259      0x6c1 build/uspi_lan7800.o
 .debug_loc     0x0000b91a      0x27b build/kalloc.o
 .debug_loc     0x0000bb95      0x4ce build/uspi_util.o
 .debug_loc     0x0000c063      0xe79 build/uspi_dwhcidevice.o
 .debug_loc     0x0000cedc      0xce8 build/uspi_usbgamepad.o
 .debug_loc     0x0000dbc4       0xe4 build/uspi_dwhciregister.o
 .debug_loc     0x0000dca8      0x46f build/proc.o
 .debug_loc     0x0000e117      0x25b build/uspi_usbkeyboard.o
 .debug_loc     0x0000e372      0x16a build/timer.o
 .debug_loc     0x0000e4dc       0xc2 build/uspi_dwhcirootport.o

.debug_str      0x00000000     0x4ff9
 .debug_str     0x00000000      0x2dc build/uspi_dwhciframeschednsplit.o
                                0x39d (size before relaxing)
 .debug_str     0x000002dc      0x1e6 build/exec.o
                                0x330 (size before relaxing)
 .debug_str     0x000004c2       0x5a build/syscall.o
                                0x259 (size before relaxing)
 .debug_str     0x0000051c       0x30 build/string.o
                                0x16a (size before relaxing)
 .debug_str     0x0000054c      0x736 build/uspi_usbrequest.o
                                0x8fa (size before relaxing)
 .debug_str     0x00000c82      0x1d2 build/trap.o
                                0x410 (size before relaxing)
 .debug_str     0x00000e54      0x1b0 build/uspi_string.o
                                0x35b (size before relaxing)
 .debug_str     0x00001004       0xcc build/uspi_devicenameservice.o
                                0x253 (size before relaxing)
 .debug_str     0x000010d0       0x9e build/usb_filestorage.o
                                0x202 (size before relaxing)
 .debug_str     0x0000116e      0x18f build/sysfile.o
                                0x453 (size before relaxing)
 .debug_str     0x000012fd       0x6a build/bio.o
                                0x1d3 (size before relaxing)
 .debug_str     0x00001367      0x666 build/uspi_usbdevicefactory.o
                                0xf4a (size before relaxing)
 .debug_str     0x000019cd       0x94 build/fs.o
                                0x3f4 (size before relaxing)
 .debug_str     0x00001a61      0x1ae build/console.o
                                0x4a4 (size before relaxing)
 .debug_str     0x00001c0f       0x5f build/memide.o
                                0x299 (size before relaxing)
 .debug_str     0x00001c6e       0x44 build/mmu.o
                                0x169 (size before relaxing)
 .debug_str     0x00001cb2       0x32 build/spinlock.o
                                0x267 (size before relaxing)
 .debug_str     0x00001ce4      0x23b build/uspienv_timer.o
                                0x3c6 (size before relaxing)
 .debug_str     0x00001f1f       0xae build/main.o
                                0x3e1 (size before relaxing)
 .debug_str     0x00001fcd      0x149 build/uspi_usbendpoint.o
                                0x85b (size before relaxing)
 .debug_str     0x00002116       0xf0 build/uspi_usbconfigparser.o
                                0x51f (size before relaxing)
 .debug_str     0x00002206       0x5c build/mailbox.o
                                0x320 (size before relaxing)
 .debug_str     0x00002262      0x224 build/uspi_usbstandardhub.o
                                0xdca (size before relaxing)
 .debug_str     0x00002486      0x1a5 build/uspi_dwhciframeschednper.o
                                0x3e6 (size before relaxing)
 .debug_str     0x0000262b      0x554 build/uspi_dwhcixferstagedata.o
                               0x10a6 (size before relaxing)
 .debug_str     0x00002b7f      0x411 build/uspi_keymap.o
                                0x5b9 (size before relaxing)
 .debug_str     0x00002f90      0x10a build/uspi_dwhciframeschedper.o
                                0x442 (size before relaxing)
 .debug_str     0x0000309a      0x111 build/uspi_usbmidi.o
                                0xcbf (size before relaxing)
 .debug_str     0x000031ab      0x127 build/uspi_usbdevice.o
                                0xdba (size before relaxing)
 .debug_str     0x000032d2       0xdf build/uspi_macaddress.o
                                0x2a7 (size before relaxing)
 .debug_str     0x000033b1      0x179 build/uspi_smsc951x.o
                                0xd90 (size before relaxing)
 .debug_str     0x0000352a       0x7a build/uart.o
                                0x274 (size before relaxing)
 .debug_str     0x000035a4      0x57c build/uspi_usbmassdevice.o
                               0x1286 (size before relaxing)
 .debug_str     0x00003b20       0x67 build/log.o
                                0x272 (size before relaxing)
 .debug_str     0x00003b87       0x50 build/uspi_usbstring.o
                                0xaea (size before relaxing)
 .debug_str     0x00003bd7      0x456 build/uspi_library.o
                               0x1649 (size before relaxing)
 .debug_str     0x0000402d       0xc6 build/vm.o
                                0x38f (size before relaxing)
 .debug_str     0x000040f3       0x8b build/usb.o
                                0x52d (size before relaxing)
 .debug_str     0x0000417e       0x75 build/sysproc.o
                                0x2a0 (size before relaxing)
 .debug_str     0x000041f3       0x32 build/file.o
                                0x29a (size before relaxing)
 .debug_str     0x00004225       0x2e build/pipe.o
                                0x310 (size before relaxing)
 .debug_str     0x00004253       0x67 build/uspi_synchronize.o
                                0x1c8 (size before relaxing)
 .debug_str     0x000042ba       0x17 build/uspienv_memio.o
                                0x158 (size before relaxing)
 .debug_str     0x000042d1       0x94 build/uspi_usbmouse.o
                                0xcf2 (size before relaxing)
 .debug_str     0x00004365      0x16e build/uspi_lan7800.o
                                0xe6b (size before relaxing)
 .debug_str     0x000044d3       0x3d build/kalloc.o
                                0x1b9 (size before relaxing)
 .debug_str     0x00004510       0x61 build/uspi_util.o
                                0x250 (size before relaxing)
 .debug_str     0x00004571       0x45 build/uart_pl011.o
                                0x164 (size before relaxing)
 .debug_str     0x000045b6      0x5be build/uspi_dwhcidevice.o
                               0x1858 (size before relaxing)
 .debug_str     0x00004b74      0x1c3 build/uspi_usbgamepad.o
                                0xf42 (size before relaxing)
 .debug_str     0x00004d37       0x61 build/uspi_dwhciregister.o
                                0x29c (size before relaxing)
 .debug_str     0x00004d98       0xa9 build/proc.o
                                0x3cd (size before relaxing)
 .debug_str     0x00004e41      0x152 build/uspi_usbkeyboard.o
                               0x12bf (size before relaxing)
 .debug_str     0x00004f93       0x3c build/timer.o
                                0x2d5 (size before relaxing)
 .debug_str     0x00004fcf       0x2a build/uspi_dwhcirootport.o
                                0xad1 (size before relaxing)

.debug_frame    0x00000000     0x3af4
 .debug_frame   0x00000000       0x9c build/uspi_dwhciframeschednsplit.o
 .debug_frame   0x0000009c       0x40 build/exec.o
 .debug_frame   0x000000dc       0x9c build/syscall.o
 .debug_frame   0x00000178       0xdc build/string.o
 .debug_frame   0x00000254       0xdc build/uspi_usbrequest.o
 .debug_frame   0x00000330      0x13c build/trap.o
 .debug_frame   0x0000046c      0x1b8 build/uspi_string.o
 .debug_frame   0x00000624       0x88 build/uspi_devicenameservice.o
 .debug_frame   0x000006ac       0x54 build/usb_filestorage.o
 .debug_frame   0x00000700      0x248 build/sysfile.o
 .debug_frame   0x00000948       0x8c build/bio.o
 .debug_frame   0x000009d4       0x48 build/uspi_usbdevicefactory.o
 .debug_frame   0x00000a1c      0x30c build/fs.o
 .debug_frame   0x00000d28      0x20c build/console.o
 .debug_frame   0x00000f34       0x60 build/memide.o
 .debug_frame   0x00000f94       0x3c build/mmu.o
 .debug_frame   0x00000fd0       0xb8 build/spinlock.o
 .debug_frame   0x00001088      0x194 build/uspienv_timer.o
 .debug_frame   0x0000121c       0x88 build/main.o
 .debug_frame   0x000012a4      0x104 build/uspi_usbendpoint.o
 .debug_frame   0x000013a8       0x78 build/uspi_usbconfigparser.o
 .debug_frame   0x00001420       0x68 build/mailbox.o
 .debug_frame   0x00001488       0xf0 build/uspi_usbstandardhub.o
 .debug_frame   0x00001578       0xa0 build/uspi_dwhciframeschednper.o
 .debug_frame   0x00001618      0x280 build/uspi_dwhcixferstagedata.o
 .debug_frame   0x00001898       0x94 build/uspi_keymap.o
 .debug_frame   0x0000192c       0xb0 build/uspi_dwhciframeschedper.o
 .debug_frame   0x000019dc       0xdc build/uspi_usbmidi.o
 .debug_frame   0x00001ab8      0x190 build/uspi_usbdevice.o
 .debug_frame   0x00001c48       0xe8 build/uspi_macaddress.o
 .debug_frame   0x00001d30      0x118 build/uspi_smsc951x.o
 .debug_frame   0x00001e48       0xe8 build/uart.o
 .debug_frame   0x00001f30      0x194 build/uspi_usbmassdevice.o
 .debug_frame   0x000020c4       0xd4 build/log.o
 .debug_frame   0x00002198       0xd8 build/uspi_usbstring.o
 .debug_frame   0x00002270      0x218 build/uspi_library.o
 .debug_frame   0x00002488      0x294 build/vm.o
 .debug_frame   0x0000271c      0x158 build/usb.o
 .debug_frame   0x00002874       0xe0 build/sysproc.o
 .debug_frame   0x00002954      0x130 build/file.o
 .debug_frame   0x00002a84       0xa0 build/pipe.o
 .debug_frame   0x00002b24       0x40 build/uspi_synchronize.o
 .debug_frame   0x00002b64       0x30 build/uspienv_memio.o
 .debug_frame   0x00002b94       0xdc build/uspi_usbmouse.o
 .debug_frame   0x00002c70      0x20c build/uspi_lan7800.o
 .debug_frame   0x00002e7c       0xa8 build/kalloc.o
 .debug_frame   0x00002f24       0xc0 build/uspi_util.o
 .debug_frame   0x00002fe4       0x40 build/uart_pl011.o
 .debug_frame   0x00003024      0x4c4 build/uspi_dwhcidevice.o
 .debug_frame   0x000034e8      0x158 build/uspi_usbgamepad.o
 .debug_frame   0x00003640       0xf0 build/uspi_dwhciregister.o
 .debug_frame   0x00003730      0x1b8 build/proc.o
 .debug_frame   0x000038e8      0x104 build/uspi_usbkeyboard.o
 .debug_frame   0x000039ec       0x9c build/timer.o
 .debug_frame   0x00003a88       0x6c build/uspi_dwhcirootport.o
