
build/kernel.elf:     file format elf32-littlearm


Disassembly of section .init:

00008000 <_start>:
    8000:	ea000008 	b	8028 <boot_reset>
    8004:	ea000005 	b	8020 <boot_sleep>
    8008:	ea000004 	b	8020 <boot_sleep>
    800c:	ea000003 	b	8020 <boot_sleep>
    8010:	ea000002 	b	8020 <boot_sleep>
    8014:	ea000001 	b	8020 <boot_sleep>
    8018:	ea000000 	b	8020 <boot_sleep>
    801c:	eaffffff 	b	8020 <boot_sleep>

00008020 <boot_sleep>:
    8020:	e320f002 	wfe
    8024:	eafffffd 	b	8020 <boot_sleep>

00008028 <boot_reset>:
    8028:	e321f0d3 	msr	CPSR_c, #211	; 0xd3
    802c:	ee110f10 	mrc	15, 0, r0, cr1, cr0, {0}
    8030:	e3c00a01 	bic	r0, r0, #4096	; 0x1000
    8034:	e3c00b02 	bic	r0, r0, #2048	; 0x800
    8038:	e3c00004 	bic	r0, r0, #4
    803c:	e3c00001 	bic	r0, r0, #1
    8040:	ee010f10 	mcr	15, 0, r0, cr1, cr0, {0}
    8044:	ee110f30 	mrc	15, 0, r0, cr1, cr0, {1}
    8048:	e3800040 	orr	r0, r0, #64	; 0x40
    804c:	ee010f30 	mcr	15, 0, r0, cr1, cr0, {1}
    8050:	e3a00000 	mov	r0, #0
    8054:	ee080f17 	mcr	15, 0, r0, cr8, cr7, {0}
    8058:	ee070fd5 	mcr	15, 0, r0, cr7, cr5, {6}
    805c:	e59f0144 	ldr	r0, [pc, #324]	; 81a8 <mp_continue+0x20>
    8060:	ee0c0f10 	mcr	15, 0, r0, cr12, cr0, {0}
    8064:	ee300f30 	mrc	15, 1, r0, cr0, cr0, {1}
    8068:	e3100003 	tst	r0, #3
    806c:	e3a00000 	mov	r0, #0
    8070:	1e070f15 	mcrne	15, 0, r0, cr7, cr5, {0}
    8074:	ee300f30 	mrc	15, 1, r0, cr0, cr0, {1}
    8078:	e2103407 	ands	r3, r0, #117440512	; 0x7000000
    807c:	e1a03ba3 	lsr	r3, r3, #23
    8080:	0a00001a 	beq	80f0 <finished>
    8084:	e3a0a000 	mov	sl, #0

00008088 <loop1>:
    8088:	e08a20aa 	add	r2, sl, sl, lsr #1
    808c:	e1a01230 	lsr	r1, r0, r2
    8090:	e2011007 	and	r1, r1, #7
    8094:	e3510002 	cmp	r1, #2
    8098:	ba000011 	blt	80e4 <skip>
    809c:	ee40af10 	mcr	15, 2, sl, cr0, cr0, {0}
    80a0:	f57ff06f 	isb	sy
    80a4:	ee301f10 	mrc	15, 1, r1, cr0, cr0, {0}
    80a8:	e2012007 	and	r2, r1, #7
    80ac:	e2822004 	add	r2, r2, #4
    80b0:	e59f40f4 	ldr	r4, [pc, #244]	; 81ac <mp_continue+0x24>
    80b4:	e01441a1 	ands	r4, r4, r1, lsr #3
    80b8:	e16f5f14 	clz	r5, r4
    80bc:	e59f70ec 	ldr	r7, [pc, #236]	; 81b0 <mp_continue+0x28>
    80c0:	e01776a1 	ands	r7, r7, r1, lsr #13

000080c4 <loop2>:
    80c4:	e1a09004 	mov	r9, r4

000080c8 <loop3>:
    80c8:	e18ab519 	orr	fp, sl, r9, lsl r5
    80cc:	e18bb217 	orr	fp, fp, r7, lsl r2
    80d0:	ee07bf56 	mcr	15, 0, fp, cr7, cr6, {2}
    80d4:	e2599001 	subs	r9, r9, #1
    80d8:	aafffffa 	bge	80c8 <loop3>
    80dc:	e2577001 	subs	r7, r7, #1
    80e0:	aafffff7 	bge	80c4 <loop2>

000080e4 <skip>:
    80e4:	e28aa002 	add	sl, sl, #2
    80e8:	e153000a 	cmp	r3, sl
    80ec:	caffffe5 	bgt	8088 <loop1>

000080f0 <finished>:
    80f0:	e3a00000 	mov	r0, #0
    80f4:	ee020f50 	mcr	15, 0, r0, cr2, cr0, {2}
    80f8:	e3a00901 	mov	r0, #16384	; 0x4000
    80fc:	e3a01008 	mov	r1, #8
    8100:	e3811040 	orr	r1, r1, #64	; 0x40
    8104:	e1800001 	orr	r0, r0, r1
    8108:	ee020f10 	mcr	15, 0, r0, cr2, cr0, {0}
    810c:	ee130f10 	mrc	15, 0, r0, cr3, cr0, {0}
    8110:	e59f009c 	ldr	r0, [pc, #156]	; 81b4 <mp_continue+0x2c>
    8114:	ee030f10 	mcr	15, 0, r0, cr3, cr0, {0}
    8118:	ee100fb0 	mrc	15, 0, r0, cr0, cr0, {5}
    811c:	e2100003 	ands	r0, r0, #3
    8120:	1320f002 	wfene
    8124:	1a000017 	bne	8188 <mp_continue>

00008128 <mmu_phase1>:
    8128:	e3a00901 	mov	r0, #16384	; 0x4000
    812c:	e59f1084 	ldr	r1, [pc, #132]	; 81b8 <mp_continue+0x30>
    8130:	e3a02000 	mov	r2, #0

00008134 <pagetable_invalidate>:
    8134:	e7802101 	str	r2, [r0, r1, lsl #2]
    8138:	e2511001 	subs	r1, r1, #1
    813c:	5afffffc 	bpl	8134 <pagetable_invalidate>
    8140:	e59f2074 	ldr	r2, [pc, #116]	; 81bc <mp_continue+0x34>
    8144:	e3a01000 	mov	r1, #0
    8148:	e1a01a21 	lsr	r1, r1, #20
    814c:	e1823a01 	orr	r3, r2, r1, lsl #20
    8150:	e7803101 	str	r3, [r0, r1, lsl #2]
    8154:	e3a01000 	mov	r1, #0
    8158:	e1a01a21 	lsr	r1, r1, #20
    815c:	e1823a01 	orr	r3, r2, r1, lsl #20
    8160:	e3a01102 	mov	r1, #-2147483648	; 0x80000000
    8164:	e1a01a21 	lsr	r1, r1, #20
    8168:	e7803101 	str	r3, [r0, r1, lsl #2]
    816c:	e59f204c 	ldr	r2, [pc, #76]	; 81c0 <mp_continue+0x38>
    8170:	e59f104c 	ldr	r1, [pc, #76]	; 81c4 <mp_continue+0x3c>
    8174:	e1a01a21 	lsr	r1, r1, #20
    8178:	e1823a01 	orr	r3, r2, r1, lsl #20
    817c:	e59f1044 	ldr	r1, [pc, #68]	; 81c8 <mp_continue+0x40>
    8180:	e1a01a21 	lsr	r1, r1, #20
    8184:	e7803101 	str	r3, [r0, r1, lsl #2]

00008188 <mp_continue>:
    8188:	e59fd03c 	ldr	sp, [pc, #60]	; 81cc <mp_continue+0x44>
    818c:	f57ff04f 	dsb	sy
    8190:	e59f1038 	ldr	r1, [pc, #56]	; 81d0 <mp_continue+0x48>
    8194:	ee110f10 	mrc	15, 0, r0, cr1, cr0, {0}
    8198:	e3800a02 	orr	r0, r0, #8192	; 0x2000
    819c:	e3800001 	orr	r0, r0, #1
    81a0:	ee010f10 	mcr	15, 0, r0, cr1, cr0, {0}
    81a4:	e12fff11 	bx	r1
    81a8:	00008000 	.word	0x00008000
    81ac:	000003ff 	.word	0x000003ff
    81b0:	00007fff 	.word	0x00007fff
    81b4:	55555555 	.word	0x55555555
    81b8:	00000fff 	.word	0x00000fff
    81bc:	00014406 	.word	0x00014406
    81c0:	00000c16 	.word	0x00000c16
    81c4:	3f200000 	.word	0x3f200000
    81c8:	d0200000 	.word	0xd0200000
    81cc:	80003000 	.word	0x80003000
    81d0:	80008200 	.word	0x80008200

Disassembly of section .text:

80008200 <_pagingstart>:
80008200:	eb001257 	bl	8000cb64 <cmain>
80008204:	eb001223 	bl	8000ca98 <NotOkLoop>

80008208 <acknowledge>:
80008208:	e3a0220d 	mov	r2, #-805306368	; 0xd0000000
8000820c:	e2822602 	add	r2, r2, #2097152	; 0x200000
80008210:	e3a03001 	mov	r3, #1
80008214:	e1a03a83 	lsl	r3, r3, #21
80008218:	e5823010 	str	r3, [r2, #16]
8000821c:	e3a03001 	mov	r3, #1
80008220:	e1a03783 	lsl	r3, r3, #15
80008224:	e5823020 	str	r3, [r2, #32]
80008228:	e12fff1e 	bx	lr

8000822c <dsb_barrier>:
8000822c:	f57ff04f 	dsb	sy
80008230:	f57ff06f 	isb	sy
80008234:	e12fff1e 	bx	lr

80008238 <flush_dcache_all>:
80008238:	f57ff04f 	dsb	sy
8000823c:	f57ff06f 	isb	sy
80008240:	e12fff1e 	bx	lr

80008244 <flush_idcache>:
80008244:	f57ff04f 	dsb	sy
80008248:	f57ff06f 	isb	sy
8000824c:	e12fff1e 	bx	lr

80008250 <flush_tlb>:
80008250:	f57ff04f 	dsb	sy
80008254:	f57ff06f 	isb	sy
80008258:	e3a00000 	mov	r0, #0
8000825c:	ee080f17 	mcr	15, 0, r0, cr8, cr7, {0}
80008260:	ee070fd5 	mcr	15, 0, r0, cr7, cr5, {6}
80008264:	f57ff04f 	dsb	sy
80008268:	f57ff06f 	isb	sy
8000826c:	e12fff1e 	bx	lr

80008270 <flush_dcache>:
80008270:	f57ff04f 	dsb	sy
80008274:	f57ff06f 	isb	sy
80008278:	e12fff1e 	bx	lr

8000827c <set_pgtbase>:
8000827c:	ee020f10 	mcr	15, 0, r0, cr2, cr0, {0}
80008280:	e12fff1e 	bx	lr

80008284 <getsystemtime>:
80008284:	e59f0004 	ldr	r0, [pc, #4]	; 80008290 <getsystemtime+0xc>
80008288:	e1c000d0 	ldrd	r0, [r0]
8000828c:	e12fff1e 	bx	lr
80008290:	d0003004 	.word	0xd0003004
	...

800082a0 <vectors>:
800082a0:	e59ff018 	ldr	pc, [pc, #24]	; 800082c0 <reset_handler>
800082a4:	e59ff018 	ldr	pc, [pc, #24]	; 800082c4 <undefintr_handler>
800082a8:	e59ff018 	ldr	pc, [pc, #24]	; 800082c8 <swi_handler>
800082ac:	e59ff018 	ldr	pc, [pc, #24]	; 800082cc <prefetch_handler>
800082b0:	e59ff018 	ldr	pc, [pc, #24]	; 800082d0 <data_handler>
800082b4:	e59ff018 	ldr	pc, [pc, #24]	; 800082d4 <unused_handler>
800082b8:	e59ff018 	ldr	pc, [pc, #24]	; 800082d8 <irq_handler>
800082bc:	e59ff018 	ldr	pc, [pc, #24]	; 800082dc <fiq_handler>

800082c0 <reset_handler>:
800082c0:	800082e0 	.word	0x800082e0

800082c4 <undefintr_handler>:
800082c4:	8000836c 	.word	0x8000836c

800082c8 <swi_handler>:
800082c8:	800082e8 	.word	0x800082e8

800082cc <prefetch_handler>:
800082cc:	80008378 	.word	0x80008378

800082d0 <data_handler>:
800082d0:	80008384 	.word	0x80008384

800082d4 <unused_handler>:
800082d4:	800082e0 	.word	0x800082e0

800082d8 <irq_handler>:
800082d8:	80008390 	.word	0x80008390

800082dc <fiq_handler>:
800082dc:	800082e0 	.word	0x800082e0

800082e0 <hang>:
800082e0:	eb0011ec 	bl	8000ca98 <NotOkLoop>
800082e4:	eafffffd 	b	800082e0 <hang>

800082e8 <do_svc>:
800082e8:	e52de004 	push	{lr}		; (str lr, [sp, #-4]!)
800082ec:	e14fe000 	mrs	lr, SPSR
800082f0:	e52de004 	push	{lr}		; (str lr, [sp, #-4]!)
800082f4:	e10fe000 	mrs	lr, CPSR
800082f8:	e52de004 	push	{lr}		; (str lr, [sp, #-4]!)
800082fc:	ee16ef50 	mrc	15, 0, lr, cr6, cr0, {2}
80008300:	e52de004 	push	{lr}		; (str lr, [sp, #-4]!)
80008304:	e3a0e040 	mov	lr, #64	; 0x40
80008308:	e52de004 	push	{lr}		; (str lr, [sp, #-4]!)
8000830c:	e90d7fff 	stmdb	sp, {r0, r1, r2, r3, r4, r5, r6, r7, r8, r9, sl, fp, ip, sp, lr}
80008310:	e24dd03c 	sub	sp, sp, #60	; 0x3c
80008314:	e1a0000d 	mov	r0, sp
80008318:	e9402000 	stmdb	r0, {sp}^
8000831c:	e1a01001 	mov	r1, r1
80008320:	e1a01001 	mov	r1, r1
80008324:	e1a01001 	mov	r1, r1
80008328:	e1a0d000 	mov	sp, r0
8000832c:	e24dd004 	sub	sp, sp, #4
80008330:	e1a0000d 	mov	r0, sp
80008334:	eb000f91 	bl	8000c180 <trap>

80008338 <trapret>:
80008338:	e1a0000d 	mov	r0, sp
8000833c:	e8d02000 	ldm	r0, {sp}^
80008340:	e1a01001 	mov	r1, r1
80008344:	e1a01001 	mov	r1, r1
80008348:	e1a01001 	mov	r1, r1
8000834c:	e1a0d000 	mov	sp, r0
80008350:	e28dd004 	add	sp, sp, #4
80008354:	e89d1fff 	ldm	sp, {r0, r1, r2, r3, r4, r5, r6, r7, r8, r9, sl, fp, ip}
80008358:	e28dd048 	add	sp, sp, #72	; 0x48
8000835c:	e49de004 	pop	{lr}		; (ldr lr, [sp], #4)
80008360:	e169f00e 	msr	SPSR_fc, lr
80008364:	e49de004 	pop	{lr}		; (ldr lr, [sp], #4)
80008368:	e1b0f00e 	movs	pc, lr

8000836c <do_und>:
8000836c:	e90d001f 	stmdb	sp, {r0, r1, r2, r3, r4}
80008370:	e3a00001 	mov	r0, #1
80008374:	ea000008 	b	8000839c <_switchtosvc>

80008378 <do_pabt>:
80008378:	e90d001f 	stmdb	sp, {r0, r1, r2, r3, r4}
8000837c:	e3a00002 	mov	r0, #2
80008380:	ea000005 	b	8000839c <_switchtosvc>

80008384 <do_dabt>:
80008384:	e90d001f 	stmdb	sp, {r0, r1, r2, r3, r4}
80008388:	e3a00004 	mov	r0, #4
8000838c:	ea000002 	b	8000839c <_switchtosvc>

80008390 <do_irq>:
80008390:	e90d001f 	stmdb	sp, {r0, r1, r2, r3, r4}
80008394:	e3a00080 	mov	r0, #128	; 0x80
80008398:	eaffffff 	b	8000839c <_switchtosvc>

8000839c <_switchtosvc>:
8000839c:	e14f1000 	mrs	r1, SPSR
800083a0:	e24e2004 	sub	r2, lr, #4
800083a4:	e1a0300d 	mov	r3, sp
800083a8:	e10fe000 	mrs	lr, CPSR
800083ac:	e3cee01f 	bic	lr, lr, #31
800083b0:	e38ee080 	orr	lr, lr, #128	; 0x80
800083b4:	e38ee013 	orr	lr, lr, #19
800083b8:	e129f00e 	msr	CPSR_fc, lr
800083bc:	e52d2004 	push	{r2}		; (str r2, [sp, #-4]!)
800083c0:	e52d1004 	push	{r1}		; (str r1, [sp, #-4]!)
800083c4:	e10f1000 	mrs	r1, CPSR
800083c8:	e52d1004 	push	{r1}		; (str r1, [sp, #-4]!)
800083cc:	ee161f50 	mrc	15, 0, r1, cr6, cr0, {2}
800083d0:	e52d1004 	push	{r1}		; (str r1, [sp, #-4]!)
800083d4:	e52d0004 	push	{r0}		; (str r0, [sp, #-4]!)
800083d8:	e2431014 	sub	r1, r3, #20
800083dc:	e891001f 	ldm	r1, {r0, r1, r2, r3, r4}
800083e0:	e90d7fff 	stmdb	sp, {r0, r1, r2, r3, r4, r5, r6, r7, r8, r9, sl, fp, ip, sp, lr}
800083e4:	e24dd03c 	sub	sp, sp, #60	; 0x3c
800083e8:	e1a0000d 	mov	r0, sp
800083ec:	e9402000 	stmdb	r0, {sp}^
800083f0:	e1a01001 	mov	r1, r1
800083f4:	e1a01001 	mov	r1, r1
800083f8:	e1a01001 	mov	r1, r1
800083fc:	e1a0d000 	mov	sp, r0
80008400:	e24dd004 	sub	sp, sp, #4
80008404:	e1a0000d 	mov	r0, sp
80008408:	eb000f5c 	bl	8000c180 <trap>
8000840c:	e1a0000d 	mov	r0, sp
80008410:	e280004c 	add	r0, r0, #76	; 0x4c
80008414:	e8900002 	ldm	r0, {r1}
80008418:	e1a02001 	mov	r2, r1
8000841c:	e202200f 	and	r2, r2, #15
80008420:	e3520000 	cmp	r2, #0
80008424:	0a000006 	beq	80008444 <_backtouser>
80008428:	e129f001 	msr	CPSR_fc, r1
8000842c:	e28dd004 	add	sp, sp, #4
80008430:	e89d1fff 	ldm	sp, {r0, r1, r2, r3, r4, r5, r6, r7, r8, r9, sl, fp, ip}
80008434:	e28dd038 	add	sp, sp, #56	; 0x38
80008438:	e49de004 	pop	{lr}		; (ldr lr, [sp], #4)
8000843c:	e28dd010 	add	sp, sp, #16
80008440:	e49df004 	pop	{pc}		; (ldr pc, [sp], #4)

80008444 <_backtouser>:
80008444:	e1a0000d 	mov	r0, sp
80008448:	e8d02000 	ldm	r0, {sp}^
8000844c:	e1a01001 	mov	r1, r1
80008450:	e1a01001 	mov	r1, r1
80008454:	e1a01001 	mov	r1, r1
80008458:	e1a0d000 	mov	sp, r0
8000845c:	e28dd004 	add	sp, sp, #4
80008460:	e89d1fff 	ldm	sp, {r0, r1, r2, r3, r4, r5, r6, r7, r8, r9, sl, fp, ip}
80008464:	e28dd048 	add	sp, sp, #72	; 0x48
80008468:	e49de004 	pop	{lr}		; (ldr lr, [sp], #4)
8000846c:	e169f00e 	msr	SPSR_fc, lr
80008470:	e49de004 	pop	{lr}		; (ldr lr, [sp], #4)
80008474:	e1b0f00e 	movs	pc, lr

80008478 <set_mode_sp>:
80008478:	e10f2000 	mrs	r2, CPSR
8000847c:	e121f001 	msr	CPSR_c, r1
80008480:	e1a0d000 	mov	sp, r0
80008484:	e10f0000 	mrs	r0, CPSR
80008488:	e3800080 	orr	r0, r0, #128	; 0x80
8000848c:	e3800040 	orr	r0, r0, #64	; 0x40
80008490:	e129f000 	msr	CPSR_fc, r0
80008494:	e121f002 	msr	CPSR_c, r2
80008498:	e12fff1e 	bx	lr

8000849c <readcpsr>:
8000849c:	e10f0000 	mrs	r0, CPSR
800084a0:	e12fff1e 	bx	lr

800084a4 <cli>:
800084a4:	e10f0000 	mrs	r0, CPSR
800084a8:	e3800080 	orr	r0, r0, #128	; 0x80
800084ac:	e129f000 	msr	CPSR_fc, r0
800084b0:	e12fff1e 	bx	lr

800084b4 <sti>:
800084b4:	e10f0000 	mrs	r0, CPSR
800084b8:	e3c00080 	bic	r0, r0, #128	; 0x80
800084bc:	e129f000 	msr	CPSR_fc, r0
800084c0:	e12fff1e 	bx	lr

800084c4 <swtch>:
800084c4:	e52de004 	push	{lr}		; (str lr, [sp, #-4]!)
800084c8:	e52de004 	push	{lr}		; (str lr, [sp, #-4]!)
800084cc:	e52dc004 	push	{ip}		; (str ip, [sp, #-4]!)
800084d0:	e52db004 	push	{fp}		; (str fp, [sp, #-4]!)
800084d4:	e52da004 	push	{sl}		; (str sl, [sp, #-4]!)
800084d8:	e52d9004 	push	{r9}		; (str r9, [sp, #-4]!)
800084dc:	e52d8004 	push	{r8}		; (str r8, [sp, #-4]!)
800084e0:	e52d7004 	push	{r7}		; (str r7, [sp, #-4]!)
800084e4:	e52d6004 	push	{r6}		; (str r6, [sp, #-4]!)
800084e8:	e52d5004 	push	{r5}		; (str r5, [sp, #-4]!)
800084ec:	e52d4004 	push	{r4}		; (str r4, [sp, #-4]!)
800084f0:	e580d000 	str	sp, [r0]
800084f4:	e1a0d001 	mov	sp, r1
800084f8:	e49d4004 	pop	{r4}		; (ldr r4, [sp], #4)
800084fc:	e49d5004 	pop	{r5}		; (ldr r5, [sp], #4)
80008500:	e49d6004 	pop	{r6}		; (ldr r6, [sp], #4)
80008504:	e49d7004 	pop	{r7}		; (ldr r7, [sp], #4)
80008508:	e49d8004 	pop	{r8}		; (ldr r8, [sp], #4)
8000850c:	e49d9004 	pop	{r9}		; (ldr r9, [sp], #4)
80008510:	e49da004 	pop	{sl}		; (ldr sl, [sp], #4)
80008514:	e49db004 	pop	{fp}		; (ldr fp, [sp], #4)
80008518:	e49dc004 	pop	{ip}		; (ldr ip, [sp], #4)
8000851c:	e49de004 	pop	{lr}		; (ldr lr, [sp], #4)
80008520:	e49df004 	pop	{pc}		; (ldr pc, [sp], #4)
80008524:	00000000 	andeq	r0, r0, r0

80008528 <DelayLoop>:
80008528:	e2500001 	subs	r0, r0, #1
8000852c:	8afffffd 	bhi	80008528 <DelayLoop>
80008530:	e1a0f00e 	mov	pc, lr

80008534 <_DWHCIFrameSchedulerNoSplit>:
80008534:	e12fff1e 	bx	lr

80008538 <DWHCIFrameSchedulerNoSplitCompleteSplit>:
80008538:	e3a00000 	mov	r0, #0
8000853c:	e12fff1e 	bx	lr

80008540 <DWHCIFrameSchedulerNoSplitTransactionComplete>:
80008540:	e12fff1e 	bx	lr

80008544 <DWHCIFrameSchedulerNoSplitIsOddFrame>:
80008544:	e590001c 	ldr	r0, [r0, #28]
80008548:	e2000001 	and	r0, r0, #1
8000854c:	e12fff1e 	bx	lr

80008550 <DWHCIFrameSchedulerNoSplitWaitForFrame>:
80008550:	e92d4010 	push	{r4, lr}
80008554:	e3001408 	movw	r1, #1032	; 0x408
80008558:	e34d1098 	movt	r1, #53400	; 0xd098
8000855c:	e24dd010 	sub	sp, sp, #16
80008560:	e1a04000 	mov	r4, r0
80008564:	e28d0004 	add	r0, sp, #4
80008568:	eb003300 	bl	80015170 <DWHCIRegister>
8000856c:	e28d0004 	add	r0, sp, #4
80008570:	eb003309 	bl	8001519c <DWHCIRegisterRead>
80008574:	e5943018 	ldr	r3, [r4, #24]
80008578:	e2800001 	add	r0, r0, #1
8000857c:	e7ed0050 	ubfx	r0, r0, #0, #14
80008580:	e584001c 	str	r0, [r4, #28]
80008584:	e3530000 	cmp	r3, #0
80008588:	0a000003 	beq	8000859c <DWHCIFrameSchedulerNoSplitWaitForFrame+0x4c>
8000858c:	e28d0004 	add	r0, sp, #4
80008590:	eb0032fe 	bl	80015190 <_DWHCIRegister>
80008594:	e28dd010 	add	sp, sp, #16
80008598:	e8bd8010 	pop	{r4, pc}
8000859c:	e28d0004 	add	r0, sp, #4
800085a0:	eb0032fd 	bl	8001519c <DWHCIRegisterRead>
800085a4:	e594301c 	ldr	r3, [r4, #28]
800085a8:	e7ed0050 	ubfx	r0, r0, #0, #14
800085ac:	e1500003 	cmp	r0, r3
800085b0:	1afffff9 	bne	8000859c <DWHCIFrameSchedulerNoSplitWaitForFrame+0x4c>
800085b4:	eafffff4 	b	8000858c <DWHCIFrameSchedulerNoSplitWaitForFrame+0x3c>

800085b8 <DWHCIFrameSchedulerNoSplitStartSplit>:
800085b8:	e12fff1e 	bx	lr

800085bc <DWHCIFrameSchedulerNoSplit>:
800085bc:	e92d4030 	push	{r4, r5, lr}
800085c0:	e308c540 	movw	ip, #34112	; 0x8540
800085c4:	e348c000 	movt	ip, #32768	; 0x8000
800085c8:	e3085534 	movw	r5, #34100	; 0x8534
800085cc:	e3485000 	movt	r5, #32768	; 0x8000
800085d0:	e30845b8 	movw	r4, #34232	; 0x85b8
800085d4:	e3484000 	movt	r4, #32768	; 0x8000
800085d8:	e308e538 	movw	lr, #34104	; 0x8538
800085dc:	e348e000 	movt	lr, #32768	; 0x8000
800085e0:	e3082550 	movw	r2, #34128	; 0x8550
800085e4:	e3482000 	movt	r2, #32768	; 0x8000
800085e8:	e3083544 	movw	r3, #34116	; 0x8544
800085ec:	e3483000 	movt	r3, #32768	; 0x8000
800085f0:	e5801018 	str	r1, [r0, #24]
800085f4:	e3a01901 	mov	r1, #16384	; 0x4000
800085f8:	e5805000 	str	r5, [r0]
800085fc:	e9804010 	stmib	r0, {r4, lr}
80008600:	e580c00c 	str	ip, [r0, #12]
80008604:	e1c021f0 	strd	r2, [r0, #16]
80008608:	e580101c 	str	r1, [r0, #28]
8000860c:	e8bd8030 	pop	{r4, r5, pc}

80008610 <exec>:
80008610:	e92d4ff0 	push	{r4, r5, r6, r7, r8, r9, sl, fp, lr}
80008614:	e24dd0f4 	sub	sp, sp, #244	; 0xf4
80008618:	e1a09001 	mov	r9, r1
8000861c:	eb003d53 	bl	80017b70 <namei>
80008620:	e2506000 	subs	r6, r0, #0
80008624:	0a00000e 	beq	80008664 <exec+0x54>
80008628:	eb003b34 	bl	80017300 <ilock>
8000862c:	e3a03034 	mov	r3, #52	; 0x34
80008630:	e3a02000 	mov	r2, #0
80008634:	e28d102c 	add	r1, sp, #44	; 0x2c
80008638:	e1a00006 	mov	r0, r6
8000863c:	eb003beb 	bl	800175f0 <readi>
80008640:	e3500033 	cmp	r0, #51	; 0x33
80008644:	9a000004 	bls	8000865c <exec+0x4c>
80008648:	e59d202c 	ldr	r2, [sp, #44]	; 0x2c
8000864c:	e304357f 	movw	r3, #17791	; 0x457f
80008650:	e344364c 	movt	r3, #17996	; 0x464c
80008654:	e1520003 	cmp	r2, r3
80008658:	0a000004 	beq	80008670 <exec+0x60>
8000865c:	e1a00006 	mov	r0, r6
80008660:	eb003bd2 	bl	800175b0 <iunlockput>
80008664:	e3e00000 	mvn	r0, #0
80008668:	e28dd0f4 	add	sp, sp, #244	; 0xf4
8000866c:	e8bd8ff0 	pop	{r4, r5, r6, r7, r8, r9, sl, fp, pc}
80008670:	eb002348 	bl	80011398 <setupkvm>
80008674:	e2508000 	subs	r8, r0, #0
80008678:	0afffff7 	beq	8000865c <exec+0x4c>
8000867c:	e1dd35b8 	ldrh	r3, [sp, #88]	; 0x58
80008680:	e59d4048 	ldr	r4, [sp, #72]	; 0x48
80008684:	e3530000 	cmp	r3, #0
80008688:	0a00008a 	beq	800088b8 <exec+0x2a8>
8000868c:	e3a07000 	mov	r7, #0
80008690:	e1a05007 	mov	r5, r7
80008694:	ea000016 	b	800086f4 <exec+0xe4>
80008698:	e59d300c 	ldr	r3, [sp, #12]
8000869c:	e3530001 	cmp	r3, #1
800086a0:	1a000010 	bne	800086e8 <exec+0xd8>
800086a4:	e1cd21dc 	ldrd	r2, [sp, #28]
800086a8:	e1530002 	cmp	r3, r2
800086ac:	3a00001b 	bcc	80008720 <exec+0x110>
800086b0:	e59d2014 	ldr	r2, [sp, #20]
800086b4:	e0832002 	add	r2, r3, r2
800086b8:	eb0023e0 	bl	80011640 <allocuvm>
800086bc:	e2507000 	subs	r7, r0, #0
800086c0:	e1a02006 	mov	r2, r6
800086c4:	e1a00008 	mov	r0, r8
800086c8:	0a000014 	beq	80008720 <exec+0x110>
800086cc:	e59d101c 	ldr	r1, [sp, #28]
800086d0:	e59d3010 	ldr	r3, [sp, #16]
800086d4:	e58d1000 	str	r1, [sp]
800086d8:	e59d1014 	ldr	r1, [sp, #20]
800086dc:	eb0023a1 	bl	80011568 <loaduvm>
800086e0:	e3500000 	cmp	r0, #0
800086e4:	ba00000d 	blt	80008720 <exec+0x110>
800086e8:	e1dd35b8 	ldrh	r3, [sp, #88]	; 0x58
800086ec:	e1530005 	cmp	r3, r5
800086f0:	da00000d 	ble	8000872c <exec+0x11c>
800086f4:	e1a02004 	mov	r2, r4
800086f8:	e28d100c 	add	r1, sp, #12
800086fc:	e3a03020 	mov	r3, #32
80008700:	e1a00006 	mov	r0, r6
80008704:	e2855001 	add	r5, r5, #1
80008708:	eb003bb8 	bl	800175f0 <readi>
8000870c:	e3500020 	cmp	r0, #32
80008710:	e1a01007 	mov	r1, r7
80008714:	e1a00008 	mov	r0, r8
80008718:	e2844020 	add	r4, r4, #32
8000871c:	0affffdd 	beq	80008698 <exec+0x88>
80008720:	e1a00008 	mov	r0, r8
80008724:	eb002406 	bl	80011744 <freevm>
80008728:	eaffffcb 	b	8000865c <exec+0x4c>
8000872c:	e2877eff 	add	r7, r7, #4080	; 0xff0
80008730:	e287700f 	add	r7, r7, #15
80008734:	e3c77eff 	bic	r7, r7, #4080	; 0xff0
80008738:	e3c7700f 	bic	r7, r7, #15
8000873c:	e2874a02 	add	r4, r7, #8192	; 0x2000
80008740:	e1a00006 	mov	r0, r6
80008744:	eb003b99 	bl	800175b0 <iunlockput>
80008748:	e1a01007 	mov	r1, r7
8000874c:	e1a02004 	mov	r2, r4
80008750:	e1a00008 	mov	r0, r8
80008754:	eb0023b9 	bl	80011640 <allocuvm>
80008758:	e2507000 	subs	r7, r0, #0
8000875c:	0a000024 	beq	800087f4 <exec+0x1e4>
80008760:	e1a00008 	mov	r0, r8
80008764:	e2471a02 	sub	r1, r7, #8192	; 0x2000
80008768:	eb002411 	bl	800117b4 <clearpteu>
8000876c:	e5990000 	ldr	r0, [r9]
80008770:	e3500000 	cmp	r0, #0
80008774:	01a06000 	moveq	r6, r0
80008778:	01a05007 	moveq	r5, r7
8000877c:	0a000020 	beq	80008804 <exec+0x1f4>
80008780:	e28da068 	add	sl, sp, #104	; 0x68
80008784:	e1a05007 	mov	r5, r7
80008788:	e1a04009 	mov	r4, r9
8000878c:	e3a06000 	mov	r6, #0
80008790:	ea000005 	b	800087ac <exec+0x19c>
80008794:	e5b40004 	ldr	r0, [r4, #4]!
80008798:	e5aa5004 	str	r5, [sl, #4]!
8000879c:	e3500000 	cmp	r0, #0
800087a0:	0a000017 	beq	80008804 <exec+0x1f4>
800087a4:	e3560020 	cmp	r6, #32
800087a8:	0a00000e 	beq	800087e8 <exec+0x1d8>
800087ac:	e2866001 	add	r6, r6, #1
800087b0:	eb00078d 	bl	8000a5ec <strlen>
800087b4:	e594b000 	ldr	fp, [r4]
800087b8:	e1e00000 	mvn	r0, r0
800087bc:	e0805005 	add	r5, r0, r5
800087c0:	e1a0000b 	mov	r0, fp
800087c4:	e3c55003 	bic	r5, r5, #3
800087c8:	eb000787 	bl	8000a5ec <strlen>
800087cc:	e2803001 	add	r3, r0, #1
800087d0:	e1a0200b 	mov	r2, fp
800087d4:	e1a01005 	mov	r1, r5
800087d8:	e1a00008 	mov	r0, r8
800087dc:	eb002446 	bl	800118fc <copyout>
800087e0:	e3500000 	cmp	r0, #0
800087e4:	aaffffea 	bge	80008794 <exec+0x184>
800087e8:	e1a00008 	mov	r0, r8
800087ec:	eb0023d4 	bl	80011744 <freevm>
800087f0:	eaffff9b 	b	80008664 <exec+0x54>
800087f4:	e1a00008 	mov	r0, r8
800087f8:	eb0023d1 	bl	80011744 <freevm>
800087fc:	e3e00000 	mvn	r0, #0
80008800:	eaffff98 	b	80008668 <exec+0x58>
80008804:	e2863001 	add	r3, r6, #1
80008808:	e2861003 	add	r1, r6, #3
8000880c:	e28d00f0 	add	r0, sp, #240	; 0xf0
80008810:	e3a04000 	mov	r4, #0
80008814:	e1a03103 	lsl	r3, r3, #2
80008818:	e3e0a000 	mvn	sl, #0
8000881c:	e045c003 	sub	ip, r5, r3
80008820:	e283300c 	add	r3, r3, #12
80008824:	e0800101 	add	r0, r0, r1, lsl #2
80008828:	e28d2060 	add	r2, sp, #96	; 0x60
8000882c:	e0455003 	sub	r5, r5, r3
80008830:	e5004090 	str	r4, [r0, #-144]	; 0xffffff70
80008834:	e1a01005 	mov	r1, r5
80008838:	e58dc068 	str	ip, [sp, #104]	; 0x68
8000883c:	e1a00008 	mov	r0, r8
80008840:	e58d6064 	str	r6, [sp, #100]	; 0x64
80008844:	e58da060 	str	sl, [sp, #96]	; 0x60
80008848:	eb00242b 	bl	800118fc <copyout>
8000884c:	e1500004 	cmp	r0, r4
80008850:	ba00001b 	blt	800088c4 <exec+0x2b4>
80008854:	e5991000 	ldr	r1, [r9]
80008858:	e30a6b14 	movw	r6, #43796	; 0xab14
8000885c:	e3486009 	movt	r6, #32777	; 0x8009
80008860:	e3a02010 	mov	r2, #16
80008864:	e5960018 	ldr	r0, [r6, #24]
80008868:	e280006c 	add	r0, r0, #108	; 0x6c
8000886c:	eb00074c 	bl	8000a5a4 <safestrcpy>
80008870:	e5963018 	ldr	r3, [r6, #24]
80008874:	e59d1044 	ldr	r1, [sp, #68]	; 0x44
80008878:	e5932018 	ldr	r2, [r3, #24]
8000887c:	e1a00003 	mov	r0, r3
80008880:	e5936004 	ldr	r6, [r3, #4]
80008884:	e5837000 	str	r7, [r3]
80008888:	e5838004 	str	r8, [r3, #4]
8000888c:	e5821050 	str	r1, [r2, #80]	; 0x50
80008890:	e5825000 	str	r5, [r2]
80008894:	e59d3064 	ldr	r3, [sp, #100]	; 0x64
80008898:	e5823004 	str	r3, [r2, #4]
8000889c:	e59d3068 	ldr	r3, [sp, #104]	; 0x68
800088a0:	e5823008 	str	r3, [r2, #8]
800088a4:	eb0022ff 	bl	800114a8 <switchuvm>
800088a8:	e1a00006 	mov	r0, r6
800088ac:	eb0023a4 	bl	80011744 <freevm>
800088b0:	e1a00004 	mov	r0, r4
800088b4:	eaffff6b 	b	80008668 <exec+0x58>
800088b8:	e1a07003 	mov	r7, r3
800088bc:	e3a04a02 	mov	r4, #8192	; 0x2000
800088c0:	eaffff9e 	b	80008740 <exec+0x130>
800088c4:	e1a00008 	mov	r0, r8
800088c8:	eb00239d 	bl	80011744 <freevm>
800088cc:	e1a0000a 	mov	r0, sl
800088d0:	eaffff64 	b	80008668 <exec+0x58>

800088d4 <uartinit_fvp>:
800088d4:	e3a02000 	mov	r2, #0
800088d8:	e3a03010 	mov	r3, #16
800088dc:	e34d2009 	movt	r2, #53257	; 0xd009
800088e0:	e30a1bf4 	movw	r1, #44020	; 0xabf4
800088e4:	e3481009 	movt	r1, #32777	; 0x8009
800088e8:	e3a00000 	mov	r0, #0
800088ec:	e5823038 	str	r3, [r2, #56]	; 0x38
800088f0:	e5923030 	ldr	r3, [r2, #48]	; 0x30
800088f4:	e3833c03 	orr	r3, r3, #768	; 0x300
800088f8:	e3833001 	orr	r3, r3, #1
800088fc:	e5823030 	str	r3, [r2, #48]	; 0x30
80008900:	e5810000 	str	r0, [r1]
80008904:	e12fff1e 	bx	lr

80008908 <uartputc_fvp>:
80008908:	e350000a 	cmp	r0, #10
8000890c:	0a000006 	beq	8000892c <uartputc_fvp+0x24>
80008910:	e3a02000 	mov	r2, #0
80008914:	e34d2009 	movt	r2, #53257	; 0xd009
80008918:	e5923018 	ldr	r3, [r2, #24]
8000891c:	e3130020 	tst	r3, #32
80008920:	1afffffc 	bne	80008918 <uartputc_fvp+0x10>
80008924:	e5820000 	str	r0, [r2]
80008928:	e12fff1e 	bx	lr
8000892c:	e3a02000 	mov	r2, #0
80008930:	e34d2009 	movt	r2, #53257	; 0xd009
80008934:	e5923018 	ldr	r3, [r2, #24]
80008938:	e3130020 	tst	r3, #32
8000893c:	1afffffc 	bne	80008934 <uartputc_fvp+0x2c>
80008940:	e3a0300d 	mov	r3, #13
80008944:	e5823000 	str	r3, [r2]
80008948:	eafffff0 	b	80008910 <uartputc_fvp+0x8>

8000894c <uartgetc_fvp>:
8000894c:	e3a02000 	mov	r2, #0
80008950:	e34d2009 	movt	r2, #53257	; 0xd009
80008954:	e5923018 	ldr	r3, [r2, #24]
80008958:	e3130010 	tst	r3, #16
8000895c:	1afffffc 	bne	80008954 <uartgetc_fvp+0x8>
80008960:	e5920000 	ldr	r0, [r2]
80008964:	e12fff1e 	bx	lr

80008968 <StringReserveSpace.part.0>:
80008968:	e92d41f0 	push	{r4, r5, r6, r7, r8, lr}
8000896c:	e890002c 	ldm	r0, {r2, r3, r5}
80008970:	e0455002 	sub	r5, r5, r2
80008974:	e0851001 	add	r1, r5, r1
80008978:	e2812001 	add	r2, r1, #1
8000897c:	e1520003 	cmp	r2, r3
80008980:	98bd81f0 	popls	{r4, r5, r6, r7, r8, pc}
80008984:	e1a04000 	mov	r4, r0
80008988:	e2816041 	add	r6, r1, #65	; 0x41
8000898c:	e1a00006 	mov	r0, r6
80008990:	eb002417 	bl	800119f4 <malloc>
80008994:	e5943008 	ldr	r3, [r4, #8]
80008998:	e3a02000 	mov	r2, #0
8000899c:	e1a07000 	mov	r7, r0
800089a0:	e5c32000 	strb	r2, [r3]
800089a4:	e5941000 	ldr	r1, [r4]
800089a8:	e0875005 	add	r5, r7, r5
800089ac:	eb002848 	bl	80012ad4 <uspi_strcpy>
800089b0:	e5940000 	ldr	r0, [r4]
800089b4:	eb002415 	bl	80011a10 <free>
800089b8:	e5846004 	str	r6, [r4, #4]
800089bc:	e5845008 	str	r5, [r4, #8]
800089c0:	e5847000 	str	r7, [r4]
800089c4:	e8bd81f0 	pop	{r4, r5, r6, r7, r8, pc}

800089c8 <String>:
800089c8:	e3a03000 	mov	r3, #0
800089cc:	e5803000 	str	r3, [r0]
800089d0:	e5803004 	str	r3, [r0, #4]
800089d4:	e12fff1e 	bx	lr

800089d8 <String2>:
800089d8:	e92d4070 	push	{r4, r5, r6, lr}
800089dc:	e1a05000 	mov	r5, r0
800089e0:	e1a00001 	mov	r0, r1
800089e4:	e1a04001 	mov	r4, r1
800089e8:	eb002819 	bl	80012a54 <uspi_strlen>
800089ec:	e2800001 	add	r0, r0, #1
800089f0:	e5850004 	str	r0, [r5, #4]
800089f4:	eb0023fe 	bl	800119f4 <malloc>
800089f8:	e5850000 	str	r0, [r5]
800089fc:	e1a01004 	mov	r1, r4
80008a00:	e8bd4070 	pop	{r4, r5, r6, lr}
80008a04:	ea002832 	b	80012ad4 <uspi_strcpy>

80008a08 <_String>:
80008a08:	e5903000 	ldr	r3, [r0]
80008a0c:	e3530000 	cmp	r3, #0
80008a10:	012fff1e 	bxeq	lr
80008a14:	e92d4010 	push	{r4, lr}
80008a18:	e1a04000 	mov	r4, r0
80008a1c:	e1a00003 	mov	r0, r3
80008a20:	eb0023fa 	bl	80011a10 <free>
80008a24:	e3a03000 	mov	r3, #0
80008a28:	e5843000 	str	r3, [r4]
80008a2c:	e8bd8010 	pop	{r4, pc}

80008a30 <StringGet>:
80008a30:	e5900000 	ldr	r0, [r0]
80008a34:	e3073ea8 	movw	r3, #32424	; 0x7ea8
80008a38:	e3483001 	movt	r3, #32769	; 0x8001
80008a3c:	e3500000 	cmp	r0, #0
80008a40:	01a00003 	moveq	r0, r3
80008a44:	e12fff1e 	bx	lr

80008a48 <StringSet>:
80008a48:	e92d4070 	push	{r4, r5, r6, lr}
80008a4c:	e1a04000 	mov	r4, r0
80008a50:	e5900000 	ldr	r0, [r0]
80008a54:	e1a05001 	mov	r5, r1
80008a58:	e3500000 	cmp	r0, #0
80008a5c:	0a000000 	beq	80008a64 <StringSet+0x1c>
80008a60:	eb0023ea 	bl	80011a10 <free>
80008a64:	e1a00005 	mov	r0, r5
80008a68:	eb0027f9 	bl	80012a54 <uspi_strlen>
80008a6c:	e2800001 	add	r0, r0, #1
80008a70:	e5840004 	str	r0, [r4, #4]
80008a74:	eb0023de 	bl	800119f4 <malloc>
80008a78:	e5840000 	str	r0, [r4]
80008a7c:	e1a01005 	mov	r1, r5
80008a80:	eb002813 	bl	80012ad4 <uspi_strcpy>
80008a84:	e5940000 	ldr	r0, [r4]
80008a88:	e8bd8070 	pop	{r4, r5, r6, pc}

80008a8c <StringGetLength>:
80008a8c:	e5900000 	ldr	r0, [r0]
80008a90:	e3500000 	cmp	r0, #0
80008a94:	012fff1e 	bxeq	lr
80008a98:	ea0027ed 	b	80012a54 <uspi_strlen>

80008a9c <StringAppend>:
80008a9c:	e92d4070 	push	{r4, r5, r6, lr}
80008aa0:	e1a04000 	mov	r4, r0
80008aa4:	e5900000 	ldr	r0, [r0]
80008aa8:	e3a03001 	mov	r3, #1
80008aac:	e5843004 	str	r3, [r4, #4]
80008ab0:	e1a06001 	mov	r6, r1
80008ab4:	e3500000 	cmp	r0, #0
80008ab8:	0a000003 	beq	80008acc <StringAppend+0x30>
80008abc:	eb0027e4 	bl	80012a54 <uspi_strlen>
80008ac0:	e5943004 	ldr	r3, [r4, #4]
80008ac4:	e0830000 	add	r0, r3, r0
80008ac8:	e5840004 	str	r0, [r4, #4]
80008acc:	e1a00006 	mov	r0, r6
80008ad0:	eb0027df 	bl	80012a54 <uspi_strlen>
80008ad4:	e5943004 	ldr	r3, [r4, #4]
80008ad8:	e0800003 	add	r0, r0, r3
80008adc:	e5840004 	str	r0, [r4, #4]
80008ae0:	eb0023c3 	bl	800119f4 <malloc>
80008ae4:	e5941000 	ldr	r1, [r4]
80008ae8:	e1a05000 	mov	r5, r0
80008aec:	e3510000 	cmp	r1, #0
80008af0:	05c01000 	strbeq	r1, [r0]
80008af4:	0a000002 	beq	80008b04 <StringAppend+0x68>
80008af8:	eb0027f5 	bl	80012ad4 <uspi_strcpy>
80008afc:	e5940000 	ldr	r0, [r4]
80008b00:	eb0023c2 	bl	80011a10 <free>
80008b04:	e1a01006 	mov	r1, r6
80008b08:	e1a00005 	mov	r0, r5
80008b0c:	eb00280d 	bl	80012b48 <uspi_strcat>
80008b10:	e5845000 	str	r5, [r4]
80008b14:	e8bd8070 	pop	{r4, r5, r6, pc}

80008b18 <StringCompare>:
80008b18:	e5900000 	ldr	r0, [r0]
80008b1c:	ea0027d6 	b	80012a7c <uspi_strcmp>

80008b20 <StringFind>:
80008b20:	e5903000 	ldr	r3, [r0]
80008b24:	e5d32000 	ldrb	r2, [r3]
80008b28:	e3520000 	cmp	r2, #0
80008b2c:	0a000009 	beq	80008b58 <StringFind+0x38>
80008b30:	e1510002 	cmp	r1, r2
80008b34:	0a000009 	beq	80008b60 <StringFind+0x40>
80008b38:	e263c001 	rsb	ip, r3, #1
80008b3c:	ea000001 	b	80008b48 <StringFind+0x28>
80008b40:	e1520001 	cmp	r2, r1
80008b44:	012fff1e 	bxeq	lr
80008b48:	e083000c 	add	r0, r3, ip
80008b4c:	e5f32001 	ldrb	r2, [r3, #1]!
80008b50:	e3520000 	cmp	r2, #0
80008b54:	1afffff9 	bne	80008b40 <StringFind+0x20>
80008b58:	e3e00000 	mvn	r0, #0
80008b5c:	e12fff1e 	bx	lr
80008b60:	e3a00000 	mov	r0, #0
80008b64:	e12fff1e 	bx	lr

80008b68 <StringPutChar>:
80008b68:	e92d4070 	push	{r4, r5, r6, lr}
80008b6c:	e2524000 	subs	r4, r2, #0
80008b70:	08bd8070 	popeq	{r4, r5, r6, pc}
80008b74:	e1a06001 	mov	r6, r1
80008b78:	e1a01004 	mov	r1, r4
80008b7c:	e1a05000 	mov	r5, r0
80008b80:	ebffff78 	bl	80008968 <StringReserveSpace.part.0>
80008b84:	e2442001 	sub	r2, r4, #1
80008b88:	e5953008 	ldr	r3, [r5, #8]
80008b8c:	e2422001 	sub	r2, r2, #1
80008b90:	e3720001 	cmn	r2, #1
80008b94:	e2830001 	add	r0, r3, #1
80008b98:	e5850008 	str	r0, [r5, #8]
80008b9c:	e5c36000 	strb	r6, [r3]
80008ba0:	1afffff8 	bne	80008b88 <StringPutChar+0x20>
80008ba4:	e8bd8070 	pop	{r4, r5, r6, pc}

80008ba8 <StringPutString>:
80008ba8:	e92d4070 	push	{r4, r5, r6, lr}
80008bac:	e1a04000 	mov	r4, r0
80008bb0:	e1a00001 	mov	r0, r1
80008bb4:	e1a05001 	mov	r5, r1
80008bb8:	eb0027a5 	bl	80012a54 <uspi_strlen>
80008bbc:	e2506000 	subs	r6, r0, #0
80008bc0:	0a000002 	beq	80008bd0 <StringPutString+0x28>
80008bc4:	e1a01006 	mov	r1, r6
80008bc8:	e1a00004 	mov	r0, r4
80008bcc:	ebffff65 	bl	80008968 <StringReserveSpace.part.0>
80008bd0:	e5940008 	ldr	r0, [r4, #8]
80008bd4:	e1a01005 	mov	r1, r5
80008bd8:	eb0027bd 	bl	80012ad4 <uspi_strcpy>
80008bdc:	e5941008 	ldr	r1, [r4, #8]
80008be0:	e0811006 	add	r1, r1, r6
80008be4:	e5841008 	str	r1, [r4, #8]
80008be8:	e8bd8070 	pop	{r4, r5, r6, pc}

80008bec <StringFormatV>:
80008bec:	e92d4ff0 	push	{r4, r5, r6, r7, r8, r9, sl, fp, lr}
80008bf0:	e1a09000 	mov	r9, r0
80008bf4:	e5900000 	ldr	r0, [r0]
80008bf8:	e24dd01c 	sub	sp, sp, #28
80008bfc:	e1a05001 	mov	r5, r1
80008c00:	e1a06002 	mov	r6, r2
80008c04:	e3500000 	cmp	r0, #0
80008c08:	0a000000 	beq	80008c10 <StringFormatV+0x24>
80008c0c:	eb00237f 	bl	80011a10 <free>
80008c10:	e3a00040 	mov	r0, #64	; 0x40
80008c14:	e30c8ccd 	movw	r8, #52429	; 0xcccd
80008c18:	e5890004 	str	r0, [r9, #4]
80008c1c:	e34c8ccc 	movt	r8, #52428	; 0xcccc
80008c20:	eb002373 	bl	800119f4 <malloc>
80008c24:	e5890000 	str	r0, [r9]
80008c28:	e5890008 	str	r0, [r9, #8]
80008c2c:	e5d54000 	ldrb	r4, [r5]
80008c30:	e3540000 	cmp	r4, #0
80008c34:	0a00007a 	beq	80008e24 <StringFormatV+0x238>
80008c38:	e3540025 	cmp	r4, #37	; 0x25
80008c3c:	e285b001 	add	fp, r5, #1
80008c40:	1a0000f8 	bne	80009028 <StringFormatV+0x43c>
80008c44:	e5d57001 	ldrb	r7, [r5, #1]
80008c48:	e3570025 	cmp	r7, #37	; 0x25
80008c4c:	0a0000fe 	beq	8000904c <StringFormatV+0x460>
80008c50:	e357002d 	cmp	r7, #45	; 0x2d
80008c54:	0285b002 	addeq	fp, r5, #2
80008c58:	03a03001 	moveq	r3, #1
80008c5c:	05d57002 	ldrbeq	r7, [r5, #2]
80008c60:	13a03000 	movne	r3, #0
80008c64:	e58d3000 	str	r3, [sp]
80008c68:	e28b5001 	add	r5, fp, #1
80008c6c:	e3570030 	cmp	r7, #48	; 0x30
80008c70:	028b3002 	addeq	r3, fp, #2
80008c74:	13a03000 	movne	r3, #0
80008c78:	05db7001 	ldrbeq	r7, [fp, #1]
80008c7c:	03a02001 	moveq	r2, #1
80008c80:	158d3004 	strne	r3, [sp, #4]
80008c84:	01a0b005 	moveq	fp, r5
80008c88:	058d2004 	streq	r2, [sp, #4]
80008c8c:	01a05003 	moveq	r5, r3
80008c90:	e2473030 	sub	r3, r7, #48	; 0x30
80008c94:	e3530009 	cmp	r3, #9
80008c98:	8a00011c 	bhi	80009110 <StringFormatV+0x524>
80008c9c:	e3a04000 	mov	r4, #0
80008ca0:	e3a0200a 	mov	r2, #10
80008ca4:	ea000000 	b	80008cac <StringFormatV+0xc0>
80008ca8:	e1a0b00a 	mov	fp, sl
80008cac:	e0247492 	mla	r4, r2, r4, r7
80008cb0:	e5db7001 	ldrb	r7, [fp, #1]
80008cb4:	e28ba001 	add	sl, fp, #1
80008cb8:	e2444030 	sub	r4, r4, #48	; 0x30
80008cbc:	e2473030 	sub	r3, r7, #48	; 0x30
80008cc0:	e3530009 	cmp	r3, #9
80008cc4:	9afffff7 	bls	80008ca8 <StringFormatV+0xbc>
80008cc8:	e28b5002 	add	r5, fp, #2
80008ccc:	e357006c 	cmp	r7, #108	; 0x6c
80008cd0:	01a0a005 	moveq	sl, r5
80008cd4:	02855001 	addeq	r5, r5, #1
80008cd8:	e5da0000 	ldrb	r0, [sl]
80008cdc:	e2403058 	sub	r3, r0, #88	; 0x58
80008ce0:	e3530020 	cmp	r3, #32
80008ce4:	979ff103 	ldrls	pc, [pc, r3, lsl #2]
80008ce8:	ea0000bd 	b	80008fe4 <StringFormatV+0x3f8>
80008cec:	80008fdc 	.word	0x80008fdc
80008cf0:	80008fe4 	.word	0x80008fe4
80008cf4:	80008fe4 	.word	0x80008fe4
80008cf8:	80008fe4 	.word	0x80008fe4
80008cfc:	80008fe4 	.word	0x80008fe4
80008d00:	80008fe4 	.word	0x80008fe4
80008d04:	80008fe4 	.word	0x80008fe4
80008d08:	80008fe4 	.word	0x80008fe4
80008d0c:	80008fe4 	.word	0x80008fe4
80008d10:	80008fe4 	.word	0x80008fe4
80008d14:	80008fe4 	.word	0x80008fe4
80008d18:	80008fa0 	.word	0x80008fa0
80008d1c:	80008e8c 	.word	0x80008e8c
80008d20:	80008fe4 	.word	0x80008fe4
80008d24:	80008fe4 	.word	0x80008fe4
80008d28:	80008fe4 	.word	0x80008fe4
80008d2c:	80008fe4 	.word	0x80008fe4
80008d30:	80008fe4 	.word	0x80008fe4
80008d34:	80008fe4 	.word	0x80008fe4
80008d38:	80008fe4 	.word	0x80008fe4
80008d3c:	80008fe4 	.word	0x80008fe4
80008d40:	80008fe4 	.word	0x80008fe4
80008d44:	80008fe4 	.word	0x80008fe4
80008d48:	80008e68 	.word	0x80008e68
80008d4c:	80008fe4 	.word	0x80008fe4
80008d50:	80008fe4 	.word	0x80008fe4
80008d54:	80008fe4 	.word	0x80008fe4
80008d58:	80008e34 	.word	0x80008e34
80008d5c:	80008fe4 	.word	0x80008fe4
80008d60:	80008d70 	.word	0x80008d70
80008d64:	80008fe4 	.word	0x80008fe4
80008d68:	80008fe4 	.word	0x80008fe4
80008d6c:	80008fdc 	.word	0x80008fdc
80008d70:	e3a0e00a 	mov	lr, #10
80008d74:	e496c004 	ldr	ip, [r6], #4
80008d78:	e15c000e 	cmp	ip, lr
80008d7c:	23a03001 	movcs	r3, #1
80008d80:	3a00003d 	bcc	80008e7c <StringFormatV+0x290>
80008d84:	e003039e 	mul	r3, lr, r3
80008d88:	e731f31c 	udiv	r1, ip, r3
80008d8c:	e15e0001 	cmp	lr, r1
80008d90:	e1a02001 	mov	r2, r1
80008d94:	9afffffa 	bls	80008d84 <StringFormatV+0x198>
80008d98:	e3500058 	cmp	r0, #88	; 0x58
80008d9c:	e28d700c 	add	r7, sp, #12
80008da0:	e1a0a007 	mov	sl, r7
80008da4:	13a0b057 	movne	fp, #87	; 0x57
80008da8:	03a0b037 	moveq	fp, #55	; 0x37
80008dac:	ea000001 	b	80008db8 <StringFormatV+0x1cc>
80008db0:	e732f31c 	udiv	r2, ip, r3
80008db4:	e1a01002 	mov	r1, r2
80008db8:	e3520009 	cmp	r2, #9
80008dbc:	e6ef2072 	uxtb	r2, r2
80008dc0:	e082000b 	add	r0, r2, fp
80008dc4:	e2822030 	add	r2, r2, #48	; 0x30
80008dc8:	e6ef0070 	uxtb	r0, r0
80008dcc:	96ef0072 	uxtbls	r0, r2
80008dd0:	e15e0003 	cmp	lr, r3
80008dd4:	e06cc193 	mls	ip, r3, r1, ip
80008dd8:	e4ca0001 	strb	r0, [sl], #1
80008ddc:	e733fe13 	udiv	r3, r3, lr
80008de0:	9afffff2 	bls	80008db0 <StringFormatV+0x1c4>
80008de4:	e3a03000 	mov	r3, #0
80008de8:	e1a00007 	mov	r0, r7
80008dec:	e5ca3000 	strb	r3, [sl]
80008df0:	eb002717 	bl	80012a54 <uspi_strlen>
80008df4:	e59d3000 	ldr	r3, [sp]
80008df8:	e1a0a000 	mov	sl, r0
80008dfc:	e3530000 	cmp	r3, #0
80008e00:	1a00009a 	bne	80009070 <StringFormatV+0x484>
80008e04:	e1500004 	cmp	r0, r4
80008e08:	3a0000c3 	bcc	8000911c <StringFormatV+0x530>
80008e0c:	e1a01007 	mov	r1, r7
80008e10:	e1a00009 	mov	r0, r9
80008e14:	ebffff63 	bl	80008ba8 <StringPutString>
80008e18:	e5d54000 	ldrb	r4, [r5]
80008e1c:	e3540000 	cmp	r4, #0
80008e20:	1affff84 	bne	80008c38 <StringFormatV+0x4c>
80008e24:	e5993008 	ldr	r3, [r9, #8]
80008e28:	e5c34000 	strb	r4, [r3]
80008e2c:	e28dd01c 	add	sp, sp, #28
80008e30:	e8bd8ff0 	pop	{r4, r5, r6, r7, r8, r9, sl, fp, pc}
80008e34:	e496a004 	ldr	sl, [r6], #4
80008e38:	e1a0000a 	mov	r0, sl
80008e3c:	eb002704 	bl	80012a54 <uspi_strlen>
80008e40:	e59d3000 	ldr	r3, [sp]
80008e44:	e1a07000 	mov	r7, r0
80008e48:	e3530000 	cmp	r3, #0
80008e4c:	1a0000d9 	bne	800091b8 <StringFormatV+0x5cc>
80008e50:	e1500004 	cmp	r0, r4
80008e54:	3a000106 	bcc	80009274 <StringFormatV+0x688>
80008e58:	e1a0100a 	mov	r1, sl
80008e5c:	e1a00009 	mov	r0, r9
80008e60:	ebffff50 	bl	80008ba8 <StringPutString>
80008e64:	eaffff70 	b	80008c2c <StringFormatV+0x40>
80008e68:	e496c004 	ldr	ip, [r6], #4
80008e6c:	e3a0e008 	mov	lr, #8
80008e70:	e15c000e 	cmp	ip, lr
80008e74:	23a03001 	movcs	r3, #1
80008e78:	2affffc1 	bcs	80008d84 <StringFormatV+0x198>
80008e7c:	e1a0200c 	mov	r2, ip
80008e80:	e3a03001 	mov	r3, #1
80008e84:	e1a0100c 	mov	r1, ip
80008e88:	eaffffc2 	b	80008d98 <StringFormatV+0x1ac>
80008e8c:	e4962004 	ldr	r2, [r6], #4
80008e90:	e3520000 	cmp	r2, #0
80008e94:	b2622000 	rsblt	r2, r2, #0
80008e98:	b3a0a001 	movlt	sl, #1
80008e9c:	a3a0a000 	movge	sl, #0
80008ea0:	e3520009 	cmp	r2, #9
80008ea4:	e1a00002 	mov	r0, r2
80008ea8:	c3a0c001 	movgt	ip, #1
80008eac:	c3a0100a 	movgt	r1, #10
80008eb0:	da0000df 	ble	80009234 <StringFormatV+0x648>
80008eb4:	e00c0c91 	mul	ip, r1, ip
80008eb8:	e733fc12 	udiv	r3, r2, ip
80008ebc:	e3530009 	cmp	r3, #9
80008ec0:	8afffffb 	bhi	80008eb4 <StringFormatV+0x2c8>
80008ec4:	e28d700c 	add	r7, sp, #12
80008ec8:	e1a01007 	mov	r1, r7
80008ecc:	ea000001 	b	80008ed8 <StringFormatV+0x2ec>
80008ed0:	e1a0c003 	mov	ip, r3
80008ed4:	e733f310 	udiv	r3, r0, r3
80008ed8:	e732fc10 	udiv	r2, r0, ip
80008edc:	e3530009 	cmp	r3, #9
80008ee0:	e6ef3073 	uxtb	r3, r3
80008ee4:	e283e057 	add	lr, r3, #87	; 0x57
80008ee8:	e2833030 	add	r3, r3, #48	; 0x30
80008eec:	e6efe07e 	uxtb	lr, lr
80008ef0:	96efe073 	uxtbls	lr, r3
80008ef4:	e060029c 	mls	r0, ip, r2, r0
80008ef8:	e4c1e001 	strb	lr, [r1], #1
80008efc:	e35c0009 	cmp	ip, #9
80008f00:	e0832c98 	umull	r2, r3, r8, ip
80008f04:	e1a031a3 	lsr	r3, r3, #3
80008f08:	8afffff0 	bhi	80008ed0 <StringFormatV+0x2e4>
80008f0c:	e3a03000 	mov	r3, #0
80008f10:	e1a00007 	mov	r0, r7
80008f14:	e5c13000 	strb	r3, [r1]
80008f18:	eb0026cd 	bl	80012a54 <uspi_strlen>
80008f1c:	e59d3000 	ldr	r3, [sp]
80008f20:	e35a0000 	cmp	sl, #0
80008f24:	e1a0b000 	mov	fp, r0
80008f28:	0a000063 	beq	800090bc <StringFormatV+0x4d0>
80008f2c:	e3530000 	cmp	r3, #0
80008f30:	e280b001 	add	fp, r0, #1
80008f34:	1a0000b2 	bne	80009204 <StringFormatV+0x618>
80008f38:	e154000b 	cmp	r4, fp
80008f3c:	9a00000e 	bls	80008f7c <StringFormatV+0x390>
80008f40:	e044400b 	sub	r4, r4, fp
80008f44:	e1a00009 	mov	r0, r9
80008f48:	e1a01004 	mov	r1, r4
80008f4c:	ebfffe85 	bl	80008968 <StringReserveSpace.part.0>
80008f50:	e2443001 	sub	r3, r4, #1
80008f54:	e3a00020 	mov	r0, #32
80008f58:	e5992008 	ldr	r2, [r9, #8]
80008f5c:	e2433001 	sub	r3, r3, #1
80008f60:	e3730001 	cmn	r3, #1
80008f64:	e2821001 	add	r1, r2, #1
80008f68:	e5891008 	str	r1, [r9, #8]
80008f6c:	e5c20000 	strb	r0, [r2]
80008f70:	1afffff8 	bne	80008f58 <StringFormatV+0x36c>
80008f74:	e35a0000 	cmp	sl, #0
80008f78:	0affffa3 	beq	80008e0c <StringFormatV+0x220>
80008f7c:	e3a01001 	mov	r1, #1
80008f80:	e1a00009 	mov	r0, r9
80008f84:	ebfffe77 	bl	80008968 <StringReserveSpace.part.0>
80008f88:	e5993008 	ldr	r3, [r9, #8]
80008f8c:	e3a0202d 	mov	r2, #45	; 0x2d
80008f90:	e2831001 	add	r1, r3, #1
80008f94:	e5891008 	str	r1, [r9, #8]
80008f98:	e5c32000 	strb	r2, [r3]
80008f9c:	eaffff9a 	b	80008e0c <StringFormatV+0x220>
80008fa0:	e59d3000 	ldr	r3, [sp]
80008fa4:	e4967004 	ldr	r7, [r6], #4
80008fa8:	e3530000 	cmp	r3, #0
80008fac:	e6ef7077 	uxtb	r7, r7
80008fb0:	1a00006a 	bne	80009160 <StringFormatV+0x574>
80008fb4:	e3540001 	cmp	r4, #1
80008fb8:	8a0000a0 	bhi	80009240 <StringFormatV+0x654>
80008fbc:	e3a01001 	mov	r1, #1
80008fc0:	e1a00009 	mov	r0, r9
80008fc4:	ebfffe67 	bl	80008968 <StringReserveSpace.part.0>
80008fc8:	e5993008 	ldr	r3, [r9, #8]
80008fcc:	e2832001 	add	r2, r3, #1
80008fd0:	e5892008 	str	r2, [r9, #8]
80008fd4:	e5c37000 	strb	r7, [r3]
80008fd8:	eaffff13 	b	80008c2c <StringFormatV+0x40>
80008fdc:	e3a0e010 	mov	lr, #16
80008fe0:	eaffff63 	b	80008d74 <StringFormatV+0x188>
80008fe4:	e3a01001 	mov	r1, #1
80008fe8:	e1a00009 	mov	r0, r9
80008fec:	ebfffe5d 	bl	80008968 <StringReserveSpace.part.0>
80008ff0:	e5993008 	ldr	r3, [r9, #8]
80008ff4:	e3a01001 	mov	r1, #1
80008ff8:	e1a00009 	mov	r0, r9
80008ffc:	e0832001 	add	r2, r3, r1
80009000:	e5892008 	str	r2, [r9, #8]
80009004:	e3a02025 	mov	r2, #37	; 0x25
80009008:	e5c32000 	strb	r2, [r3]
8000900c:	e5da4000 	ldrb	r4, [sl]
80009010:	ebfffe54 	bl	80008968 <StringReserveSpace.part.0>
80009014:	e5993008 	ldr	r3, [r9, #8]
80009018:	e2832001 	add	r2, r3, #1
8000901c:	e5892008 	str	r2, [r9, #8]
80009020:	e5c34000 	strb	r4, [r3]
80009024:	eaffff00 	b	80008c2c <StringFormatV+0x40>
80009028:	e3a01001 	mov	r1, #1
8000902c:	e1a00009 	mov	r0, r9
80009030:	e1a0500b 	mov	r5, fp
80009034:	ebfffe4b 	bl	80008968 <StringReserveSpace.part.0>
80009038:	e5993008 	ldr	r3, [r9, #8]
8000903c:	e2832001 	add	r2, r3, #1
80009040:	e5892008 	str	r2, [r9, #8]
80009044:	e5c34000 	strb	r4, [r3]
80009048:	eafffef7 	b	80008c2c <StringFormatV+0x40>
8000904c:	e3a01001 	mov	r1, #1
80009050:	e1a00009 	mov	r0, r9
80009054:	e2855002 	add	r5, r5, #2
80009058:	ebfffe42 	bl	80008968 <StringReserveSpace.part.0>
8000905c:	e5993008 	ldr	r3, [r9, #8]
80009060:	e2832001 	add	r2, r3, #1
80009064:	e5892008 	str	r2, [r9, #8]
80009068:	e5c37000 	strb	r7, [r3]
8000906c:	eafffeee 	b	80008c2c <StringFormatV+0x40>
80009070:	e1a01007 	mov	r1, r7
80009074:	e1a00009 	mov	r0, r9
80009078:	ebfffeca 	bl	80008ba8 <StringPutString>
8000907c:	e15a0004 	cmp	sl, r4
80009080:	2afffee9 	bcs	80008c2c <StringFormatV+0x40>
80009084:	e044400a 	sub	r4, r4, sl
80009088:	e1a00009 	mov	r0, r9
8000908c:	e1a01004 	mov	r1, r4
80009090:	ebfffe34 	bl	80008968 <StringReserveSpace.part.0>
80009094:	e2443001 	sub	r3, r4, #1
80009098:	e3a00020 	mov	r0, #32
8000909c:	e5992008 	ldr	r2, [r9, #8]
800090a0:	e2433001 	sub	r3, r3, #1
800090a4:	e3730001 	cmn	r3, #1
800090a8:	e2821001 	add	r1, r2, #1
800090ac:	e5891008 	str	r1, [r9, #8]
800090b0:	e5c20000 	strb	r0, [r2]
800090b4:	1afffff8 	bne	8000909c <StringFormatV+0x4b0>
800090b8:	eafffedb 	b	80008c2c <StringFormatV+0x40>
800090bc:	e3530000 	cmp	r3, #0
800090c0:	0a000058 	beq	80009228 <StringFormatV+0x63c>
800090c4:	e1a01007 	mov	r1, r7
800090c8:	e1a00009 	mov	r0, r9
800090cc:	ebfffeb5 	bl	80008ba8 <StringPutString>
800090d0:	e154000b 	cmp	r4, fp
800090d4:	9afffed4 	bls	80008c2c <StringFormatV+0x40>
800090d8:	e044400b 	sub	r4, r4, fp
800090dc:	e1a00009 	mov	r0, r9
800090e0:	e1a01004 	mov	r1, r4
800090e4:	ebfffe1f 	bl	80008968 <StringReserveSpace.part.0>
800090e8:	e2443001 	sub	r3, r4, #1
800090ec:	e3a00020 	mov	r0, #32
800090f0:	e5992008 	ldr	r2, [r9, #8]
800090f4:	e2433001 	sub	r3, r3, #1
800090f8:	e3730001 	cmn	r3, #1
800090fc:	e2821001 	add	r1, r2, #1
80009100:	e5891008 	str	r1, [r9, #8]
80009104:	e5c20000 	strb	r0, [r2]
80009108:	1afffff8 	bne	800090f0 <StringFormatV+0x504>
8000910c:	eafffec6 	b	80008c2c <StringFormatV+0x40>
80009110:	e1a0a00b 	mov	sl, fp
80009114:	e3a04000 	mov	r4, #0
80009118:	eafffeeb 	b	80008ccc <StringFormatV+0xe0>
8000911c:	e59d3004 	ldr	r3, [sp, #4]
80009120:	e0444000 	sub	r4, r4, r0
80009124:	e1a00009 	mov	r0, r9
80009128:	e3530000 	cmp	r3, #0
8000912c:	e1a01004 	mov	r1, r4
80009130:	13a0a030 	movne	sl, #48	; 0x30
80009134:	03a0a020 	moveq	sl, #32
80009138:	ebfffe0a 	bl	80008968 <StringReserveSpace.part.0>
8000913c:	e2443001 	sub	r3, r4, #1
80009140:	e5992008 	ldr	r2, [r9, #8]
80009144:	e2433001 	sub	r3, r3, #1
80009148:	e3730001 	cmn	r3, #1
8000914c:	e2821001 	add	r1, r2, #1
80009150:	e5891008 	str	r1, [r9, #8]
80009154:	e5c2a000 	strb	sl, [r2]
80009158:	1afffff8 	bne	80009140 <StringFormatV+0x554>
8000915c:	eaffff2a 	b	80008e0c <StringFormatV+0x220>
80009160:	e3a01001 	mov	r1, #1
80009164:	e1a00009 	mov	r0, r9
80009168:	ebfffdfe 	bl	80008968 <StringReserveSpace.part.0>
8000916c:	e5993008 	ldr	r3, [r9, #8]
80009170:	e3540001 	cmp	r4, #1
80009174:	e2832001 	add	r2, r3, #1
80009178:	e5892008 	str	r2, [r9, #8]
8000917c:	e5c37000 	strb	r7, [r3]
80009180:	9afffea9 	bls	80008c2c <StringFormatV+0x40>
80009184:	e2441001 	sub	r1, r4, #1
80009188:	e1a00009 	mov	r0, r9
8000918c:	e2444002 	sub	r4, r4, #2
80009190:	ebfffdf4 	bl	80008968 <StringReserveSpace.part.0>
80009194:	e3a01020 	mov	r1, #32
80009198:	e5993008 	ldr	r3, [r9, #8]
8000919c:	e2444001 	sub	r4, r4, #1
800091a0:	e3740001 	cmn	r4, #1
800091a4:	e2832001 	add	r2, r3, #1
800091a8:	e5892008 	str	r2, [r9, #8]
800091ac:	e5c31000 	strb	r1, [r3]
800091b0:	1afffff8 	bne	80009198 <StringFormatV+0x5ac>
800091b4:	eafffe9c 	b	80008c2c <StringFormatV+0x40>
800091b8:	e1a0100a 	mov	r1, sl
800091bc:	e1a00009 	mov	r0, r9
800091c0:	ebfffe78 	bl	80008ba8 <StringPutString>
800091c4:	e1570004 	cmp	r7, r4
800091c8:	2afffe97 	bcs	80008c2c <StringFormatV+0x40>
800091cc:	e0444007 	sub	r4, r4, r7
800091d0:	e1a00009 	mov	r0, r9
800091d4:	e1a01004 	mov	r1, r4
800091d8:	ebfffde2 	bl	80008968 <StringReserveSpace.part.0>
800091dc:	e2443001 	sub	r3, r4, #1
800091e0:	e3a00020 	mov	r0, #32
800091e4:	e5992008 	ldr	r2, [r9, #8]
800091e8:	e2433001 	sub	r3, r3, #1
800091ec:	e3730001 	cmn	r3, #1
800091f0:	e2821001 	add	r1, r2, #1
800091f4:	e5891008 	str	r1, [r9, #8]
800091f8:	e5c20000 	strb	r0, [r2]
800091fc:	1afffff8 	bne	800091e4 <StringFormatV+0x5f8>
80009200:	eafffe89 	b	80008c2c <StringFormatV+0x40>
80009204:	e3a01001 	mov	r1, #1
80009208:	e1a00009 	mov	r0, r9
8000920c:	ebfffdd5 	bl	80008968 <StringReserveSpace.part.0>
80009210:	e5993008 	ldr	r3, [r9, #8]
80009214:	e3a0202d 	mov	r2, #45	; 0x2d
80009218:	e2831001 	add	r1, r3, #1
8000921c:	e5891008 	str	r1, [r9, #8]
80009220:	e5c32000 	strb	r2, [r3]
80009224:	eaffffa6 	b	800090c4 <StringFormatV+0x4d8>
80009228:	e1500004 	cmp	r0, r4
8000922c:	2afffef6 	bcs	80008e0c <StringFormatV+0x220>
80009230:	eaffff42 	b	80008f40 <StringFormatV+0x354>
80009234:	e1a03002 	mov	r3, r2
80009238:	e3a0c001 	mov	ip, #1
8000923c:	eaffff20 	b	80008ec4 <StringFormatV+0x2d8>
80009240:	e2441001 	sub	r1, r4, #1
80009244:	e1a00009 	mov	r0, r9
80009248:	e2444002 	sub	r4, r4, #2
8000924c:	ebfffdc5 	bl	80008968 <StringReserveSpace.part.0>
80009250:	e3a01020 	mov	r1, #32
80009254:	e5993008 	ldr	r3, [r9, #8]
80009258:	e2444001 	sub	r4, r4, #1
8000925c:	e3740001 	cmn	r4, #1
80009260:	e2832001 	add	r2, r3, #1
80009264:	e5892008 	str	r2, [r9, #8]
80009268:	e5c31000 	strb	r1, [r3]
8000926c:	1afffff8 	bne	80009254 <StringFormatV+0x668>
80009270:	eaffff51 	b	80008fbc <StringFormatV+0x3d0>
80009274:	e0444000 	sub	r4, r4, r0
80009278:	e1a00009 	mov	r0, r9
8000927c:	e1a01004 	mov	r1, r4
80009280:	ebfffdb8 	bl	80008968 <StringReserveSpace.part.0>
80009284:	e2443001 	sub	r3, r4, #1
80009288:	e3a00020 	mov	r0, #32
8000928c:	e5992008 	ldr	r2, [r9, #8]
80009290:	e2433001 	sub	r3, r3, #1
80009294:	e3730001 	cmn	r3, #1
80009298:	e2821001 	add	r1, r2, #1
8000929c:	e5891008 	str	r1, [r9, #8]
800092a0:	e5c20000 	strb	r0, [r2]
800092a4:	1afffff8 	bne	8000928c <StringFormatV+0x6a0>
800092a8:	eafffeea 	b	80008e58 <StringFormatV+0x26c>

800092ac <StringFormat>:
800092ac:	e92d000e 	push	{r1, r2, r3}
800092b0:	e52de004 	push	{lr}		; (str lr, [sp, #-4]!)
800092b4:	e24dd008 	sub	sp, sp, #8
800092b8:	e28d2010 	add	r2, sp, #16
800092bc:	e59d100c 	ldr	r1, [sp, #12]
800092c0:	e58d2004 	str	r2, [sp, #4]
800092c4:	ebfffe48 	bl	80008bec <StringFormatV>
800092c8:	e28dd008 	add	sp, sp, #8
800092cc:	e49de004 	pop	{lr}		; (ldr lr, [sp], #4)
800092d0:	e28dd00c 	add	sp, sp, #12
800092d4:	e12fff1e 	bx	lr

800092d8 <StringReserveSpace>:
800092d8:	e3510000 	cmp	r1, #0
800092dc:	012fff1e 	bxeq	lr
800092e0:	eafffda0 	b	80008968 <StringReserveSpace.part.0>

800092e4 <ntoa>:
800092e4:	e1510002 	cmp	r1, r2
800092e8:	e92d4070 	push	{r4, r5, r6, lr}
800092ec:	23a0c001 	movcs	ip, #1
800092f0:	3a000019 	bcc	8000935c <ntoa+0x78>
800092f4:	e00c0c92 	mul	ip, r2, ip
800092f8:	e734fc11 	udiv	r4, r1, ip
800092fc:	e1540002 	cmp	r4, r2
80009300:	e1a0e004 	mov	lr, r4
80009304:	2afffffa 	bcs	800092f4 <ntoa+0x10>
80009308:	e3530000 	cmp	r3, #0
8000930c:	e1a05000 	mov	r5, r0
80009310:	13a06037 	movne	r6, #55	; 0x37
80009314:	03a06057 	moveq	r6, #87	; 0x57
80009318:	ea000001 	b	80009324 <ntoa+0x40>
8000931c:	e73efc11 	udiv	lr, r1, ip
80009320:	e1a0400e 	mov	r4, lr
80009324:	e35e0009 	cmp	lr, #9
80009328:	e6efe07e 	uxtb	lr, lr
8000932c:	e08e3006 	add	r3, lr, r6
80009330:	e28ee030 	add	lr, lr, #48	; 0x30
80009334:	e6ef3073 	uxtb	r3, r3
80009338:	96ef307e 	uxtbls	r3, lr
8000933c:	e15c0002 	cmp	ip, r2
80009340:	e061149c 	mls	r1, ip, r4, r1
80009344:	e4c53001 	strb	r3, [r5], #1
80009348:	e73cf21c 	udiv	ip, ip, r2
8000934c:	2afffff2 	bcs	8000931c <ntoa+0x38>
80009350:	e3a03000 	mov	r3, #0
80009354:	e5c53000 	strb	r3, [r5]
80009358:	e8bd8070 	pop	{r4, r5, r6, pc}
8000935c:	e1a0e001 	mov	lr, r1
80009360:	e3a0c001 	mov	ip, #1
80009364:	e1a04001 	mov	r4, r1
80009368:	eaffffe6 	b	80009308 <ntoa+0x24>

8000936c <storageinit>:
8000936c:	e30a0bf8 	movw	r0, #44024	; 0xabf8
80009370:	e3a020a0 	mov	r2, #160	; 0xa0
80009374:	e3480009 	movt	r0, #32777	; 0x8009
80009378:	e3a01000 	mov	r1, #0
8000937c:	ea000412 	b	8000a3cc <memset>

80009380 <dhandlerinit>:
80009380:	eafffff9 	b	8000936c <storageinit>

80009384 <storage_free>:
80009384:	e12fff1e 	bx	lr

80009388 <usb_storage_write>:
80009388:	e3a03cb3 	mov	r3, #45824	; 0xb300
8000938c:	e1a0c000 	mov	ip, r0
80009390:	e92d4ff0 	push	{r4, r5, r6, r7, r8, r9, sl, fp, lr}
80009394:	e1a09002 	mov	r9, r2
80009398:	e347313f 	movt	r3, #28991	; 0x713f
8000939c:	e24ddf89 	sub	sp, sp, #548	; 0x224
800093a0:	e1590003 	cmp	r9, r3
800093a4:	e30a2bf8 	movw	r2, #44024	; 0xabf8
800093a8:	e3482009 	movt	r2, #32777	; 0x8009
800093ac:	e58d001c 	str	r0, [sp, #28]
800093b0:	e3a00001 	mov	r0, #1
800093b4:	e59ca014 	ldr	sl, [ip, #20]
800093b8:	e58d100c 	str	r1, [sp, #12]
800093bc:	e5820000 	str	r0, [r2]
800093c0:	da000081 	ble	800095cc <usb_storage_write+0x244>
800093c4:	e35a0000 	cmp	sl, #0
800093c8:	d58d3008 	strle	r3, [sp, #8]
800093cc:	d1a09003 	movle	r9, r3
800093d0:	ca000080 	bgt	800095d8 <usb_storage_write+0x250>
800093d4:	e30a3850 	movw	r3, #43088	; 0xa850
800093d8:	e3a0b000 	mov	fp, #0
800093dc:	e3483009 	movt	r3, #32777	; 0x8009
800093e0:	e28d4f87 	add	r4, sp, #540	; 0x21c
800093e4:	e58d3010 	str	r3, [sp, #16]
800093e8:	e3073de4 	movw	r3, #32228	; 0x7de4
800093ec:	e3483001 	movt	r3, #32769	; 0x8001
800093f0:	e1a0500b 	mov	r5, fp
800093f4:	e58d3014 	str	r3, [sp, #20]
800093f8:	e2844003 	add	r4, r4, #3
800093fc:	e3073da8 	movw	r3, #32168	; 0x7da8
80009400:	e3483001 	movt	r3, #32769	; 0x8001
80009404:	e58d3018 	str	r3, [sp, #24]
80009408:	e28d301f 	add	r3, sp, #31
8000940c:	e28d1020 	add	r1, sp, #32
80009410:	e3a02000 	mov	r2, #0
80009414:	e5e32001 	strb	r2, [r3, #1]!
80009418:	e1540003 	cmp	r4, r3
8000941c:	1afffffc 	bne	80009414 <usb_storage_write+0x8c>
80009420:	e59d3008 	ldr	r3, [sp, #8]
80009424:	e1a0600a 	mov	r6, sl
80009428:	e18a3003 	orr	r3, sl, r3
8000942c:	e7e83053 	ubfx	r3, r3, #0, #9
80009430:	e3530000 	cmp	r3, #0
80009434:	0a000042 	beq	80009544 <usb_storage_write+0x1bc>
80009438:	e7e8805a 	ubfx	r8, sl, #0, #9
8000943c:	e3580000 	cmp	r8, #0
80009440:	135a0000 	cmpne	sl, #0
80009444:	da000004 	ble	8000945c <usb_storage_write+0xd4>
80009448:	e2466001 	sub	r6, r6, #1
8000944c:	e7e83056 	ubfx	r3, r6, #0, #9
80009450:	e3530000 	cmp	r3, #0
80009454:	13560000 	cmpne	r6, #0
80009458:	cafffffa 	bgt	80009448 <usb_storage_write+0xc0>
8000945c:	e3a03000 	mov	r3, #0
80009460:	e1a00006 	mov	r0, r6
80009464:	e1a07fc6 	asr	r7, r6, #31
80009468:	e28d2020 	add	r2, sp, #32
8000946c:	e58d3000 	str	r3, [sp]
80009470:	e1a01007 	mov	r1, r7
80009474:	e3a03c02 	mov	r3, #512	; 0x200
80009478:	eb001e2b 	bl	80010d2c <USPiMassStorageDeviceRead>
8000947c:	e3500c02 	cmp	r0, #512	; 0x200
80009480:	0a000004 	beq	80009498 <usb_storage_write+0x110>
80009484:	e59d1010 	ldr	r1, [sp, #16]
80009488:	e1a03000 	mov	r3, r0
8000948c:	e59d0018 	ldr	r0, [sp, #24]
80009490:	e3a02c02 	mov	r2, #512	; 0x200
80009494:	eb000911 	bl	8000b8e0 <cprintf>
80009498:	e27a3000 	rsbs	r3, sl, #0
8000949c:	e7e83053 	ubfx	r3, r3, #0, #9
800094a0:	52638000 	rsbpl	r8, r3, #0
800094a4:	e1590005 	cmp	r9, r5
800094a8:	da00000d 	ble	800094e4 <usb_storage_write+0x15c>
800094ac:	e59d100c 	ldr	r1, [sp, #12]
800094b0:	e2452001 	sub	r2, r5, #1
800094b4:	e2483001 	sub	r3, r8, #1
800094b8:	e30001ff 	movw	r0, #511	; 0x1ff
800094bc:	e0812002 	add	r2, r1, r2
800094c0:	e28d1020 	add	r1, sp, #32
800094c4:	e0813003 	add	r3, r1, r3
800094c8:	e5f21001 	ldrb	r1, [r2, #1]!
800094cc:	e2888001 	add	r8, r8, #1
800094d0:	e2855001 	add	r5, r5, #1
800094d4:	e5e31001 	strb	r1, [r3, #1]!
800094d8:	e1580000 	cmp	r8, r0
800094dc:	d1550009 	cmple	r5, r9
800094e0:	bafffff8 	blt	800094c8 <usb_storage_write+0x140>
800094e4:	e3a0c000 	mov	ip, #0
800094e8:	e3a03c02 	mov	r3, #512	; 0x200
800094ec:	e58dc000 	str	ip, [sp]
800094f0:	e1a00006 	mov	r0, r6
800094f4:	e1a01007 	mov	r1, r7
800094f8:	e28d2020 	add	r2, sp, #32
800094fc:	eb001e27 	bl	80010da0 <USPiMassStorageDeviceWrite>
80009500:	e3500c02 	cmp	r0, #512	; 0x200
80009504:	0a000004 	beq	8000951c <usb_storage_write+0x194>
80009508:	e59d1010 	ldr	r1, [sp, #16]
8000950c:	e1a03000 	mov	r3, r0
80009510:	e59d0014 	ldr	r0, [sp, #20]
80009514:	e3a02c02 	mov	r2, #512	; 0x200
80009518:	eb0008f0 	bl	8000b8e0 <cprintf>
8000951c:	e08aa008 	add	sl, sl, r8
80009520:	e08bb008 	add	fp, fp, r8
80009524:	e1a0600a 	mov	r6, sl
80009528:	e15b0009 	cmp	fp, r9
8000952c:	baffffb5 	blt	80009408 <usb_storage_write+0x80>
80009530:	e59d301c 	ldr	r3, [sp, #28]
80009534:	e5836014 	str	r6, [r3, #20]
80009538:	e1a00005 	mov	r0, r5
8000953c:	e28ddf89 	add	sp, sp, #548	; 0x224
80009540:	e8bd8ff0 	pop	{r4, r5, r6, r7, r8, r9, sl, fp, pc}
80009544:	e1590005 	cmp	r9, r5
80009548:	d1a0700a 	movle	r7, sl
8000954c:	da00000d 	ble	80009588 <usb_storage_write+0x200>
80009550:	e59d000c 	ldr	r0, [sp, #12]
80009554:	e2452001 	sub	r2, r5, #1
80009558:	e300c1ff 	movw	ip, #511	; 0x1ff
8000955c:	e0802002 	add	r2, r0, r2
80009560:	e5f20001 	ldrb	r0, [r2, #1]!
80009564:	e2833001 	add	r3, r3, #1
80009568:	e2855001 	add	r5, r5, #1
8000956c:	e4c10001 	strb	r0, [r1], #1
80009570:	e153000c 	cmp	r3, ip
80009574:	d1550009 	cmple	r5, r9
80009578:	bafffff8 	blt	80009560 <usb_storage_write+0x1d8>
8000957c:	e083700a 	add	r7, r3, sl
80009580:	e08bb003 	add	fp, fp, r3
80009584:	e1a06007 	mov	r6, r7
80009588:	e3a02000 	mov	r2, #0
8000958c:	e3a03c02 	mov	r3, #512	; 0x200
80009590:	e58d2000 	str	r2, [sp]
80009594:	e1a0000a 	mov	r0, sl
80009598:	e1a01fca 	asr	r1, sl, #31
8000959c:	e28d2020 	add	r2, sp, #32
800095a0:	eb001dfe 	bl	80010da0 <USPiMassStorageDeviceWrite>
800095a4:	e3500c02 	cmp	r0, #512	; 0x200
800095a8:	e1a03000 	mov	r3, r0
800095ac:	0a000004 	beq	800095c4 <usb_storage_write+0x23c>
800095b0:	e59d1010 	ldr	r1, [sp, #16]
800095b4:	e3070e14 	movw	r0, #32276	; 0x7e14
800095b8:	e3480001 	movt	r0, #32769	; 0x8001
800095bc:	e3a02c02 	mov	r2, #512	; 0x200
800095c0:	eb0008c6 	bl	8000b8e0 <cprintf>
800095c4:	e1a0a007 	mov	sl, r7
800095c8:	eaffffd6 	b	80009528 <usb_storage_write+0x1a0>
800095cc:	e08a2009 	add	r2, sl, r9
800095d0:	e1520003 	cmp	r2, r3
800095d4:	da000002 	ble	800095e4 <usb_storage_write+0x25c>
800095d8:	e3a09cb3 	mov	r9, #45824	; 0xb300
800095dc:	e347913f 	movt	r9, #28991	; 0x713f
800095e0:	e049900a 	sub	r9, r9, sl
800095e4:	e3590000 	cmp	r9, #0
800095e8:	d3a05000 	movle	r5, #0
800095ec:	daffffd1 	ble	80009538 <usb_storage_write+0x1b0>
800095f0:	e58d9008 	str	r9, [sp, #8]
800095f4:	eaffff76 	b	800093d4 <usb_storage_write+0x4c>

800095f8 <usb_storage_read>:
800095f8:	e92d4ff0 	push	{r4, r5, r6, r7, r8, r9, sl, fp, lr}
800095fc:	e3a09cb3 	mov	r9, #45824	; 0xb300
80009600:	e347913f 	movt	r9, #28991	; 0x713f
80009604:	e30a3bf8 	movw	r3, #44024	; 0xabf8
80009608:	e1520009 	cmp	r2, r9
8000960c:	e24ddf87 	sub	sp, sp, #540	; 0x21c
80009610:	e3483009 	movt	r3, #32777	; 0x8009
80009614:	e1a06002 	mov	r6, r2
80009618:	e58d0010 	str	r0, [sp, #16]
8000961c:	e3a02001 	mov	r2, #1
80009620:	e5907014 	ldr	r7, [r0, #20]
80009624:	e1a0a001 	mov	sl, r1
80009628:	e5832000 	str	r2, [r3]
8000962c:	da000041 	ble	80009738 <usb_storage_read+0x140>
80009630:	e3570000 	cmp	r7, #0
80009634:	d1a06009 	movle	r6, r9
80009638:	ca000041 	bgt	80009744 <usb_storage_read+0x14c>
8000963c:	e3073e74 	movw	r3, #32372	; 0x7e74
80009640:	e3a08000 	mov	r8, #0
80009644:	e3483001 	movt	r3, #32769	; 0x8001
80009648:	e30ab850 	movw	fp, #43088	; 0xa850
8000964c:	e58d3014 	str	r3, [sp, #20]
80009650:	e1a04008 	mov	r4, r8
80009654:	e348b009 	movt	fp, #32777	; 0x8009
80009658:	e3073e44 	movw	r3, #32324	; 0x7e44
8000965c:	e3483001 	movt	r3, #32769	; 0x8001
80009660:	e58d300c 	str	r3, [sp, #12]
80009664:	e1873009 	orr	r3, r7, r9
80009668:	e7e83053 	ubfx	r3, r3, #0, #9
8000966c:	e7e85057 	ubfx	r5, r7, #0, #9
80009670:	e3530000 	cmp	r3, #0
80009674:	0a000040 	beq	8000977c <usb_storage_read+0x184>
80009678:	e3550000 	cmp	r5, #0
8000967c:	13570000 	cmpne	r7, #0
80009680:	e1a00007 	mov	r0, r7
80009684:	da000004 	ble	8000969c <usb_storage_read+0xa4>
80009688:	e2400001 	sub	r0, r0, #1
8000968c:	e7e83050 	ubfx	r3, r0, #0, #9
80009690:	e3530000 	cmp	r3, #0
80009694:	13500000 	cmpne	r0, #0
80009698:	cafffffa 	bgt	80009688 <usb_storage_read+0x90>
8000969c:	e3a02000 	mov	r2, #0
800096a0:	e3a03c02 	mov	r3, #512	; 0x200
800096a4:	e58d2000 	str	r2, [sp]
800096a8:	e28d2018 	add	r2, sp, #24
800096ac:	e1a01fc0 	asr	r1, r0, #31
800096b0:	eb001d9d 	bl	80010d2c <USPiMassStorageDeviceRead>
800096b4:	e3500c02 	cmp	r0, #512	; 0x200
800096b8:	ba000029 	blt	80009764 <usb_storage_read+0x16c>
800096bc:	e2773000 	rsbs	r3, r7, #0
800096c0:	e7e83053 	ubfx	r3, r3, #0, #9
800096c4:	52635000 	rsbpl	r5, r3, #0
800096c8:	e1560004 	cmp	r6, r4
800096cc:	da000010 	ble	80009714 <usb_storage_read+0x11c>
800096d0:	e28d1018 	add	r1, sp, #24
800096d4:	e2452001 	sub	r2, r5, #1
800096d8:	e0812002 	add	r2, r1, r2
800096dc:	e2443001 	sub	r3, r4, #1
800096e0:	e08a3003 	add	r3, sl, r3
800096e4:	e30011ff 	movw	r1, #511	; 0x1ff
800096e8:	e5f20001 	ldrb	r0, [r2, #1]!
800096ec:	e2855001 	add	r5, r5, #1
800096f0:	e1550001 	cmp	r5, r1
800096f4:	e2844001 	add	r4, r4, #1
800096f8:	e5e30001 	strb	r0, [r3, #1]!
800096fc:	d3a00001 	movle	r0, #1
80009700:	c3a00000 	movgt	r0, #0
80009704:	e1560004 	cmp	r6, r4
80009708:	d3a00000 	movle	r0, #0
8000970c:	e3500000 	cmp	r0, #0
80009710:	1afffff4 	bne	800096e8 <usb_storage_read+0xf0>
80009714:	e0877005 	add	r7, r7, r5
80009718:	e0888005 	add	r8, r8, r5
8000971c:	e1580006 	cmp	r8, r6
80009720:	baffffcf 	blt	80009664 <usb_storage_read+0x6c>
80009724:	e59d3010 	ldr	r3, [sp, #16]
80009728:	e5837014 	str	r7, [r3, #20]
8000972c:	e1a00004 	mov	r0, r4
80009730:	e28ddf87 	add	sp, sp, #540	; 0x21c
80009734:	e8bd8ff0 	pop	{r4, r5, r6, r7, r8, r9, sl, fp, pc}
80009738:	e0863007 	add	r3, r6, r7
8000973c:	e1530009 	cmp	r3, r9
80009740:	da000002 	ble	80009750 <usb_storage_read+0x158>
80009744:	e3a06cb3 	mov	r6, #45824	; 0xb300
80009748:	e347613f 	movt	r6, #28991	; 0x713f
8000974c:	e0466007 	sub	r6, r6, r7
80009750:	e3560000 	cmp	r6, #0
80009754:	d3a04000 	movle	r4, #0
80009758:	dafffff3 	ble	8000972c <usb_storage_read+0x134>
8000975c:	e1a09006 	mov	r9, r6
80009760:	eaffffb5 	b	8000963c <usb_storage_read+0x44>
80009764:	e1a03000 	mov	r3, r0
80009768:	e3a02c02 	mov	r2, #512	; 0x200
8000976c:	e59d000c 	ldr	r0, [sp, #12]
80009770:	e1a0100b 	mov	r1, fp
80009774:	eb000859 	bl	8000b8e0 <cprintf>
80009778:	eaffffcf 	b	800096bc <usb_storage_read+0xc4>
8000977c:	e58d3000 	str	r3, [sp]
80009780:	e28d2018 	add	r2, sp, #24
80009784:	e3a03c02 	mov	r3, #512	; 0x200
80009788:	e1a00007 	mov	r0, r7
8000978c:	e1a01fc7 	asr	r1, r7, #31
80009790:	eb001d65 	bl	80010d2c <USPiMassStorageDeviceRead>
80009794:	e3500c02 	cmp	r0, #512	; 0x200
80009798:	ba000014 	blt	800097f0 <usb_storage_read+0x1f8>
8000979c:	e1560004 	cmp	r6, r4
800097a0:	daffffdd 	ble	8000971c <usb_storage_read+0x124>
800097a4:	e2442001 	sub	r2, r4, #1
800097a8:	e28d1018 	add	r1, sp, #24
800097ac:	e08a2002 	add	r2, sl, r2
800097b0:	e3a03000 	mov	r3, #0
800097b4:	e300c1ff 	movw	ip, #511	; 0x1ff
800097b8:	e4d10001 	ldrb	r0, [r1], #1
800097bc:	e2833001 	add	r3, r3, #1
800097c0:	e153000c 	cmp	r3, ip
800097c4:	e2844001 	add	r4, r4, #1
800097c8:	e5e20001 	strb	r0, [r2, #1]!
800097cc:	d3a00001 	movle	r0, #1
800097d0:	c3a00000 	movgt	r0, #0
800097d4:	e1560004 	cmp	r6, r4
800097d8:	d3a00000 	movle	r0, #0
800097dc:	e3500000 	cmp	r0, #0
800097e0:	1afffff4 	bne	800097b8 <usb_storage_read+0x1c0>
800097e4:	e0877003 	add	r7, r7, r3
800097e8:	e0888003 	add	r8, r8, r3
800097ec:	eaffffca 	b	8000971c <usb_storage_read+0x124>
800097f0:	e1a03000 	mov	r3, r0
800097f4:	e3a02c02 	mov	r2, #512	; 0x200
800097f8:	e59d0014 	ldr	r0, [sp, #20]
800097fc:	e1a0100b 	mov	r1, fp
80009800:	eb000836 	bl	8000b8e0 <cprintf>
80009804:	eaffffe4 	b	8000979c <usb_storage_read+0x1a4>

80009808 <create>:
80009808:	e92d41f0 	push	{r4, r5, r6, r7, r8, lr}
8000980c:	e24dd018 	sub	sp, sp, #24
80009810:	e1a06001 	mov	r6, r1
80009814:	e28d1008 	add	r1, sp, #8
80009818:	e1a08002 	mov	r8, r2
8000981c:	e1a07003 	mov	r7, r3
80009820:	eb0038d9 	bl	80017b8c <nameiparent>
80009824:	e2505000 	subs	r5, r0, #0
80009828:	0a000047 	beq	8000994c <create+0x144>
8000982c:	eb0036b3 	bl	80017300 <ilock>
80009830:	e28d2004 	add	r2, sp, #4
80009834:	e28d1008 	add	r1, sp, #8
80009838:	e1a00005 	mov	r0, r5
8000983c:	eb0037f1 	bl	80017808 <dirlookup>
80009840:	e2504000 	subs	r4, r0, #0
80009844:	0a000011 	beq	80009890 <create+0x88>
80009848:	e1a00005 	mov	r0, r5
8000984c:	eb003757 	bl	800175b0 <iunlockput>
80009850:	e1a00004 	mov	r0, r4
80009854:	eb0036a9 	bl	80017300 <ilock>
80009858:	e3560002 	cmp	r6, #2
8000985c:	1a000005 	bne	80009878 <create+0x70>
80009860:	e1d431f0 	ldrsh	r3, [r4, #16]
80009864:	e3530002 	cmp	r3, #2
80009868:	1a000002 	bne	80009878 <create+0x70>
8000986c:	e1a00004 	mov	r0, r4
80009870:	e28dd018 	add	sp, sp, #24
80009874:	e8bd81f0 	pop	{r4, r5, r6, r7, r8, pc}
80009878:	e1a00004 	mov	r0, r4
8000987c:	e3a04000 	mov	r4, #0
80009880:	eb00374a 	bl	800175b0 <iunlockput>
80009884:	e1a00004 	mov	r0, r4
80009888:	e28dd018 	add	sp, sp, #24
8000988c:	e8bd81f0 	pop	{r4, r5, r6, r7, r8, pc}
80009890:	e5950000 	ldr	r0, [r5]
80009894:	e1a01006 	mov	r1, r6
80009898:	eb003640 	bl	800171a0 <ialloc>
8000989c:	e2504000 	subs	r4, r0, #0
800098a0:	0a000030 	beq	80009968 <create+0x160>
800098a4:	eb003695 	bl	80017300 <ilock>
800098a8:	e1c481b2 	strh	r8, [r4, #18]
800098ac:	e3a03001 	mov	r3, #1
800098b0:	e1c471b4 	strh	r7, [r4, #20]
800098b4:	e1a00004 	mov	r0, r4
800098b8:	e1c431b6 	strh	r3, [r4, #22]
800098bc:	eb003663 	bl	80017250 <iupdate>
800098c0:	e3560001 	cmp	r6, #1
800098c4:	0a00000a 	beq	800098f4 <create+0xec>
800098c8:	e5942004 	ldr	r2, [r4, #4]
800098cc:	e28d1008 	add	r1, sp, #8
800098d0:	e1a00005 	mov	r0, r5
800098d4:	eb00386f 	bl	80017a98 <dirlink>
800098d8:	e3500000 	cmp	r0, #0
800098dc:	ba00001e 	blt	8000995c <create+0x154>
800098e0:	e1a00005 	mov	r0, r5
800098e4:	eb003731 	bl	800175b0 <iunlockput>
800098e8:	e1a00004 	mov	r0, r4
800098ec:	e28dd018 	add	sp, sp, #24
800098f0:	e8bd81f0 	pop	{r4, r5, r6, r7, r8, pc}
800098f4:	e1d531b6 	ldrh	r3, [r5, #22]
800098f8:	e1a00005 	mov	r0, r5
800098fc:	e2833001 	add	r3, r3, #1
80009900:	e1c531b6 	strh	r3, [r5, #22]
80009904:	eb003651 	bl	80017250 <iupdate>
80009908:	e5942004 	ldr	r2, [r4, #4]
8000990c:	e3071ebc 	movw	r1, #32444	; 0x7ebc
80009910:	e3481001 	movt	r1, #32769	; 0x8001
80009914:	e1a00004 	mov	r0, r4
80009918:	eb00385e 	bl	80017a98 <dirlink>
8000991c:	e3500000 	cmp	r0, #0
80009920:	ba000006 	blt	80009940 <create+0x138>
80009924:	e5952004 	ldr	r2, [r5, #4]
80009928:	e3071ecc 	movw	r1, #32460	; 0x7ecc
8000992c:	e3481001 	movt	r1, #32769	; 0x8001
80009930:	e1a00004 	mov	r0, r4
80009934:	eb003857 	bl	80017a98 <dirlink>
80009938:	e3500000 	cmp	r0, #0
8000993c:	aaffffe1 	bge	800098c8 <create+0xc0>
80009940:	e3070ec0 	movw	r0, #32448	; 0x7ec0
80009944:	e3480001 	movt	r0, #32769	; 0x8001
80009948:	eb0007c7 	bl	8000b86c <panic>
8000994c:	e1a04005 	mov	r4, r5
80009950:	e1a00004 	mov	r0, r4
80009954:	e28dd018 	add	sp, sp, #24
80009958:	e8bd81f0 	pop	{r4, r5, r6, r7, r8, pc}
8000995c:	e3070ed0 	movw	r0, #32464	; 0x7ed0
80009960:	e3480001 	movt	r0, #32769	; 0x8001
80009964:	eb0007c0 	bl	8000b86c <panic>
80009968:	e3070eac 	movw	r0, #32428	; 0x7eac
8000996c:	e3480001 	movt	r0, #32769	; 0x8001
80009970:	eb0007bd 	bl	8000b86c <panic>

80009974 <argfd.constprop.0>:
80009974:	e92d4030 	push	{r4, r5, lr}
80009978:	e24dd00c 	sub	sp, sp, #12
8000997c:	e1a04000 	mov	r4, r0
80009980:	e1a05001 	mov	r5, r1
80009984:	e3a00000 	mov	r0, #0
80009988:	e28d1004 	add	r1, sp, #4
8000998c:	eb000d83 	bl	8000cfa0 <argint>
80009990:	e3500000 	cmp	r0, #0
80009994:	ba00000f 	blt	800099d8 <argfd.constprop.0+0x64>
80009998:	e59d1004 	ldr	r1, [sp, #4]
8000999c:	e351000f 	cmp	r1, #15
800099a0:	8a00000c 	bhi	800099d8 <argfd.constprop.0+0x64>
800099a4:	e30a2b14 	movw	r2, #43796	; 0xab14
800099a8:	e281300a 	add	r3, r1, #10
800099ac:	e3482009 	movt	r2, #32777	; 0x8009
800099b0:	e5922018 	ldr	r2, [r2, #24]
800099b4:	e7923103 	ldr	r3, [r2, r3, lsl #2]
800099b8:	e3530000 	cmp	r3, #0
800099bc:	0a000005 	beq	800099d8 <argfd.constprop.0+0x64>
800099c0:	e3a00000 	mov	r0, #0
800099c4:	e3540000 	cmp	r4, #0
800099c8:	15841000 	strne	r1, [r4]
800099cc:	e5853000 	str	r3, [r5]
800099d0:	e28dd00c 	add	sp, sp, #12
800099d4:	e8bd8030 	pop	{r4, r5, pc}
800099d8:	e3e00000 	mvn	r0, #0
800099dc:	eafffffb 	b	800099d0 <argfd.constprop.0+0x5c>

800099e0 <sys_dup>:
800099e0:	e92d4010 	push	{r4, lr}
800099e4:	e24dd008 	sub	sp, sp, #8
800099e8:	e28d1004 	add	r1, sp, #4
800099ec:	e3a00000 	mov	r0, #0
800099f0:	ebffffdf 	bl	80009974 <argfd.constprop.0>
800099f4:	e3500000 	cmp	r0, #0
800099f8:	ba00000b 	blt	80009a2c <sys_dup+0x4c>
800099fc:	e59dc004 	ldr	ip, [sp, #4]
80009a00:	e30a3b14 	movw	r3, #43796	; 0xab14
80009a04:	e3483009 	movt	r3, #32777	; 0x8009
80009a08:	e3a04000 	mov	r4, #0
80009a0c:	e5931018 	ldr	r1, [r3, #24]
80009a10:	e2813024 	add	r3, r1, #36	; 0x24
80009a14:	e5b32004 	ldr	r2, [r3, #4]!
80009a18:	e3520000 	cmp	r2, #0
80009a1c:	0a000006 	beq	80009a3c <sys_dup+0x5c>
80009a20:	e2844001 	add	r4, r4, #1
80009a24:	e3540010 	cmp	r4, #16
80009a28:	1afffff9 	bne	80009a14 <sys_dup+0x34>
80009a2c:	e3e04000 	mvn	r4, #0
80009a30:	e1a00004 	mov	r0, r4
80009a34:	e28dd008 	add	sp, sp, #8
80009a38:	e8bd8010 	pop	{r4, pc}
80009a3c:	e284300a 	add	r3, r4, #10
80009a40:	e1a0000c 	mov	r0, ip
80009a44:	e781c103 	str	ip, [r1, r3, lsl #2]
80009a48:	eb001a55 	bl	800103a4 <filedup>
80009a4c:	e1a00004 	mov	r0, r4
80009a50:	e28dd008 	add	sp, sp, #8
80009a54:	e8bd8010 	pop	{r4, pc}

80009a58 <sys_read>:
80009a58:	e52de004 	push	{lr}		; (str lr, [sp, #-4]!)
80009a5c:	e24dd014 	sub	sp, sp, #20
80009a60:	e28d1004 	add	r1, sp, #4
80009a64:	e3a00000 	mov	r0, #0
80009a68:	ebffffc1 	bl	80009974 <argfd.constprop.0>
80009a6c:	e3500000 	cmp	r0, #0
80009a70:	ba000017 	blt	80009ad4 <sys_read+0x7c>
80009a74:	e28d1008 	add	r1, sp, #8
80009a78:	e3a00002 	mov	r0, #2
80009a7c:	eb000d47 	bl	8000cfa0 <argint>
80009a80:	e3500000 	cmp	r0, #0
80009a84:	ba000012 	blt	80009ad4 <sys_read+0x7c>
80009a88:	e59d2008 	ldr	r2, [sp, #8]
80009a8c:	e28d100c 	add	r1, sp, #12
80009a90:	e3a00001 	mov	r0, #1
80009a94:	eb000d53 	bl	8000cfe8 <argptr>
80009a98:	e3500000 	cmp	r0, #0
80009a9c:	ba00000c 	blt	80009ad4 <sys_read+0x7c>
80009aa0:	e59d0004 	ldr	r0, [sp, #4]
80009aa4:	e59d100c 	ldr	r1, [sp, #12]
80009aa8:	e5903010 	ldr	r3, [r0, #16]
80009aac:	e59d2008 	ldr	r2, [sp, #8]
80009ab0:	e1d331f2 	ldrsh	r3, [r3, #18]
80009ab4:	e353000f 	cmp	r3, #15
80009ab8:	0a000002 	beq	80009ac8 <sys_read+0x70>
80009abc:	eb001a83 	bl	800104d0 <fileread>
80009ac0:	e28dd014 	add	sp, sp, #20
80009ac4:	e49df004 	pop	{pc}		; (ldr pc, [sp], #4)
80009ac8:	ebfffeca 	bl	800095f8 <usb_storage_read>
80009acc:	e28dd014 	add	sp, sp, #20
80009ad0:	e49df004 	pop	{pc}		; (ldr pc, [sp], #4)
80009ad4:	e3e00000 	mvn	r0, #0
80009ad8:	eafffff8 	b	80009ac0 <sys_read+0x68>

80009adc <sys_write>:
80009adc:	e52de004 	push	{lr}		; (str lr, [sp, #-4]!)
80009ae0:	e24dd014 	sub	sp, sp, #20
80009ae4:	e28d1004 	add	r1, sp, #4
80009ae8:	e3a00000 	mov	r0, #0
80009aec:	ebffffa0 	bl	80009974 <argfd.constprop.0>
80009af0:	e3500000 	cmp	r0, #0
80009af4:	ba000017 	blt	80009b58 <sys_write+0x7c>
80009af8:	e28d1008 	add	r1, sp, #8
80009afc:	e3a00002 	mov	r0, #2
80009b00:	eb000d26 	bl	8000cfa0 <argint>
80009b04:	e3500000 	cmp	r0, #0
80009b08:	ba000012 	blt	80009b58 <sys_write+0x7c>
80009b0c:	e59d2008 	ldr	r2, [sp, #8]
80009b10:	e28d100c 	add	r1, sp, #12
80009b14:	e3a00001 	mov	r0, #1
80009b18:	eb000d32 	bl	8000cfe8 <argptr>
80009b1c:	e3500000 	cmp	r0, #0
80009b20:	ba00000c 	blt	80009b58 <sys_write+0x7c>
80009b24:	e59d0004 	ldr	r0, [sp, #4]
80009b28:	e59d100c 	ldr	r1, [sp, #12]
80009b2c:	e5903010 	ldr	r3, [r0, #16]
80009b30:	e59d2008 	ldr	r2, [sp, #8]
80009b34:	e1d331f2 	ldrsh	r3, [r3, #18]
80009b38:	e353000f 	cmp	r3, #15
80009b3c:	0a000002 	beq	80009b4c <sys_write+0x70>
80009b40:	eb001a85 	bl	8001055c <filewrite>
80009b44:	e28dd014 	add	sp, sp, #20
80009b48:	e49df004 	pop	{pc}		; (ldr pc, [sp], #4)
80009b4c:	ebfffe0d 	bl	80009388 <usb_storage_write>
80009b50:	e28dd014 	add	sp, sp, #20
80009b54:	e49df004 	pop	{pc}		; (ldr pc, [sp], #4)
80009b58:	e3e00000 	mvn	r0, #0
80009b5c:	eafffff8 	b	80009b44 <sys_write+0x68>

80009b60 <sys_close>:
80009b60:	e92d4010 	push	{r4, lr}
80009b64:	e24dd008 	sub	sp, sp, #8
80009b68:	e28d1004 	add	r1, sp, #4
80009b6c:	e1a0000d 	mov	r0, sp
80009b70:	ebffff7f 	bl	80009974 <argfd.constprop.0>
80009b74:	e3500000 	cmp	r0, #0
80009b78:	ba00000b 	blt	80009bac <sys_close+0x4c>
80009b7c:	e59d3000 	ldr	r3, [sp]
80009b80:	e30a2b14 	movw	r2, #43796	; 0xab14
80009b84:	e3482009 	movt	r2, #32777	; 0x8009
80009b88:	e3a04000 	mov	r4, #0
80009b8c:	e59d0004 	ldr	r0, [sp, #4]
80009b90:	e283300a 	add	r3, r3, #10
80009b94:	e5922018 	ldr	r2, [r2, #24]
80009b98:	e7824103 	str	r4, [r2, r3, lsl #2]
80009b9c:	eb001a12 	bl	800103ec <fileclose>
80009ba0:	e1a00004 	mov	r0, r4
80009ba4:	e28dd008 	add	sp, sp, #8
80009ba8:	e8bd8010 	pop	{r4, pc}
80009bac:	e3e00000 	mvn	r0, #0
80009bb0:	eafffffb 	b	80009ba4 <sys_close+0x44>

80009bb4 <sys_fstat>:
80009bb4:	e52de004 	push	{lr}		; (str lr, [sp, #-4]!)
80009bb8:	e24dd00c 	sub	sp, sp, #12
80009bbc:	e1a0100d 	mov	r1, sp
80009bc0:	e3a00000 	mov	r0, #0
80009bc4:	ebffff6a 	bl	80009974 <argfd.constprop.0>
80009bc8:	e3500000 	cmp	r0, #0
80009bcc:	ba000009 	blt	80009bf8 <sys_fstat+0x44>
80009bd0:	e3a02014 	mov	r2, #20
80009bd4:	e28d1004 	add	r1, sp, #4
80009bd8:	e3a00001 	mov	r0, #1
80009bdc:	eb000d01 	bl	8000cfe8 <argptr>
80009be0:	e3500000 	cmp	r0, #0
80009be4:	ba000003 	blt	80009bf8 <sys_fstat+0x44>
80009be8:	e1cd00d0 	ldrd	r0, [sp]
80009bec:	eb001a26 	bl	8001048c <filestat>
80009bf0:	e28dd00c 	add	sp, sp, #12
80009bf4:	e49df004 	pop	{pc}		; (ldr pc, [sp], #4)
80009bf8:	e3e00000 	mvn	r0, #0
80009bfc:	eafffffb 	b	80009bf0 <sys_fstat+0x3c>

80009c00 <sys_link>:
80009c00:	e92d4030 	push	{r4, r5, lr}
80009c04:	e24dd01c 	sub	sp, sp, #28
80009c08:	e28d1004 	add	r1, sp, #4
80009c0c:	e3a00000 	mov	r0, #0
80009c10:	eb000d0c 	bl	8000d048 <argstr>
80009c14:	e3500000 	cmp	r0, #0
80009c18:	ba000039 	blt	80009d04 <sys_link+0x104>
80009c1c:	e1a0100d 	mov	r1, sp
80009c20:	e3a00001 	mov	r0, #1
80009c24:	eb000d07 	bl	8000d048 <argstr>
80009c28:	e3500000 	cmp	r0, #0
80009c2c:	ba000034 	blt	80009d04 <sys_link+0x104>
80009c30:	e59d0004 	ldr	r0, [sp, #4]
80009c34:	eb0037cd 	bl	80017b70 <namei>
80009c38:	e2504000 	subs	r4, r0, #0
80009c3c:	0a000030 	beq	80009d04 <sys_link+0x104>
80009c40:	eb001683 	bl	8000f654 <begin_trans>
80009c44:	e1a00004 	mov	r0, r4
80009c48:	eb0035ac 	bl	80017300 <ilock>
80009c4c:	e1d431f0 	ldrsh	r3, [r4, #16]
80009c50:	e3530001 	cmp	r3, #1
80009c54:	0a000027 	beq	80009cf8 <sys_link+0xf8>
80009c58:	e1d431b6 	ldrh	r3, [r4, #22]
80009c5c:	e1a00004 	mov	r0, r4
80009c60:	e2833001 	add	r3, r3, #1
80009c64:	e1c431b6 	strh	r3, [r4, #22]
80009c68:	eb003578 	bl	80017250 <iupdate>
80009c6c:	e1a00004 	mov	r0, r4
80009c70:	eb0035e4 	bl	80017408 <iunlock>
80009c74:	e59d0000 	ldr	r0, [sp]
80009c78:	e28d1008 	add	r1, sp, #8
80009c7c:	eb0037c2 	bl	80017b8c <nameiparent>
80009c80:	e2505000 	subs	r5, r0, #0
80009c84:	0a000014 	beq	80009cdc <sys_link+0xdc>
80009c88:	eb00359c 	bl	80017300 <ilock>
80009c8c:	e5952000 	ldr	r2, [r5]
80009c90:	e5943000 	ldr	r3, [r4]
80009c94:	e1520003 	cmp	r2, r3
80009c98:	1a00000d 	bne	80009cd4 <sys_link+0xd4>
80009c9c:	e5942004 	ldr	r2, [r4, #4]
80009ca0:	e28d1008 	add	r1, sp, #8
80009ca4:	e1a00005 	mov	r0, r5
80009ca8:	eb00377a 	bl	80017a98 <dirlink>
80009cac:	e3500000 	cmp	r0, #0
80009cb0:	ba000007 	blt	80009cd4 <sys_link+0xd4>
80009cb4:	e1a00005 	mov	r0, r5
80009cb8:	eb00363c 	bl	800175b0 <iunlockput>
80009cbc:	e1a00004 	mov	r0, r4
80009cc0:	eb0035e8 	bl	80017468 <iput>
80009cc4:	eb001678 	bl	8000f6ac <commit_trans>
80009cc8:	e3a00000 	mov	r0, #0
80009ccc:	e28dd01c 	add	sp, sp, #28
80009cd0:	e8bd8030 	pop	{r4, r5, pc}
80009cd4:	e1a00005 	mov	r0, r5
80009cd8:	eb003634 	bl	800175b0 <iunlockput>
80009cdc:	e1a00004 	mov	r0, r4
80009ce0:	eb003586 	bl	80017300 <ilock>
80009ce4:	e1d431b6 	ldrh	r3, [r4, #22]
80009ce8:	e1a00004 	mov	r0, r4
80009cec:	e2433001 	sub	r3, r3, #1
80009cf0:	e1c431b6 	strh	r3, [r4, #22]
80009cf4:	eb003555 	bl	80017250 <iupdate>
80009cf8:	e1a00004 	mov	r0, r4
80009cfc:	eb00362b 	bl	800175b0 <iunlockput>
80009d00:	eb001669 	bl	8000f6ac <commit_trans>
80009d04:	e3e00000 	mvn	r0, #0
80009d08:	eaffffef 	b	80009ccc <sys_link+0xcc>

80009d0c <sys_unlink>:
80009d0c:	e92d40f0 	push	{r4, r5, r6, r7, lr}
80009d10:	e24dd02c 	sub	sp, sp, #44	; 0x2c
80009d14:	e1a0100d 	mov	r1, sp
80009d18:	e3a00000 	mov	r0, #0
80009d1c:	eb000cc9 	bl	8000d048 <argstr>
80009d20:	e3500000 	cmp	r0, #0
80009d24:	ba000055 	blt	80009e80 <sys_unlink+0x174>
80009d28:	e59d0000 	ldr	r0, [sp]
80009d2c:	e28d1008 	add	r1, sp, #8
80009d30:	eb003795 	bl	80017b8c <nameiparent>
80009d34:	e2505000 	subs	r5, r0, #0
80009d38:	0a000050 	beq	80009e80 <sys_unlink+0x174>
80009d3c:	eb001644 	bl	8000f654 <begin_trans>
80009d40:	e1a00005 	mov	r0, r5
80009d44:	eb00356d 	bl	80017300 <ilock>
80009d48:	e3071ebc 	movw	r1, #32444	; 0x7ebc
80009d4c:	e28d0008 	add	r0, sp, #8
80009d50:	e3481001 	movt	r1, #32769	; 0x8001
80009d54:	eb0036a9 	bl	80017800 <namecmp>
80009d58:	e3500000 	cmp	r0, #0
80009d5c:	0a000044 	beq	80009e74 <sys_unlink+0x168>
80009d60:	e3071ecc 	movw	r1, #32460	; 0x7ecc
80009d64:	e28d0008 	add	r0, sp, #8
80009d68:	e3481001 	movt	r1, #32769	; 0x8001
80009d6c:	eb0036a3 	bl	80017800 <namecmp>
80009d70:	e3500000 	cmp	r0, #0
80009d74:	0a00003e 	beq	80009e74 <sys_unlink+0x168>
80009d78:	e28d1008 	add	r1, sp, #8
80009d7c:	e28d2004 	add	r2, sp, #4
80009d80:	e1a00005 	mov	r0, r5
80009d84:	eb00369f 	bl	80017808 <dirlookup>
80009d88:	e2504000 	subs	r4, r0, #0
80009d8c:	0a000038 	beq	80009e74 <sys_unlink+0x168>
80009d90:	eb00355a 	bl	80017300 <ilock>
80009d94:	e1d431f6 	ldrsh	r3, [r4, #22]
80009d98:	e3530000 	cmp	r3, #0
80009d9c:	da000045 	ble	80009eb8 <sys_unlink+0x1ac>
80009da0:	e1d431f0 	ldrsh	r3, [r4, #16]
80009da4:	e3530001 	cmp	r3, #1
80009da8:	0a00001b 	beq	80009e1c <sys_unlink+0x110>
80009dac:	e28d7018 	add	r7, sp, #24
80009db0:	e3a02010 	mov	r2, #16
80009db4:	e3a01000 	mov	r1, #0
80009db8:	e1a00007 	mov	r0, r7
80009dbc:	eb000182 	bl	8000a3cc <memset>
80009dc0:	e59d2004 	ldr	r2, [sp, #4]
80009dc4:	e1a01007 	mov	r1, r7
80009dc8:	e3a03010 	mov	r3, #16
80009dcc:	e1a00005 	mov	r0, r5
80009dd0:	eb003642 	bl	800176e0 <writei>
80009dd4:	e3500010 	cmp	r0, #16
80009dd8:	1a000033 	bne	80009eac <sys_unlink+0x1a0>
80009ddc:	e1d431f0 	ldrsh	r3, [r4, #16]
80009de0:	e3530001 	cmp	r3, #1
80009de4:	0a000027 	beq	80009e88 <sys_unlink+0x17c>
80009de8:	e1a00005 	mov	r0, r5
80009dec:	eb0035ef 	bl	800175b0 <iunlockput>
80009df0:	e1d431b6 	ldrh	r3, [r4, #22]
80009df4:	e1a00004 	mov	r0, r4
80009df8:	e2433001 	sub	r3, r3, #1
80009dfc:	e1c431b6 	strh	r3, [r4, #22]
80009e00:	eb003512 	bl	80017250 <iupdate>
80009e04:	e1a00004 	mov	r0, r4
80009e08:	eb0035e8 	bl	800175b0 <iunlockput>
80009e0c:	eb001626 	bl	8000f6ac <commit_trans>
80009e10:	e3a00000 	mov	r0, #0
80009e14:	e28dd02c 	add	sp, sp, #44	; 0x2c
80009e18:	e8bd80f0 	pop	{r4, r5, r6, r7, pc}
80009e1c:	e5943018 	ldr	r3, [r4, #24]
80009e20:	e3530020 	cmp	r3, #32
80009e24:	83a06020 	movhi	r6, #32
80009e28:	828d7018 	addhi	r7, sp, #24
80009e2c:	8a000004 	bhi	80009e44 <sys_unlink+0x138>
80009e30:	eaffffdd 	b	80009dac <sys_unlink+0xa0>
80009e34:	e5943018 	ldr	r3, [r4, #24]
80009e38:	e2866010 	add	r6, r6, #16
80009e3c:	e1530006 	cmp	r3, r6
80009e40:	9affffda 	bls	80009db0 <sys_unlink+0xa4>
80009e44:	e3a03010 	mov	r3, #16
80009e48:	e1a02006 	mov	r2, r6
80009e4c:	e1a01007 	mov	r1, r7
80009e50:	e1a00004 	mov	r0, r4
80009e54:	eb0035e5 	bl	800175f0 <readi>
80009e58:	e3500010 	cmp	r0, #16
80009e5c:	1a00000f 	bne	80009ea0 <sys_unlink+0x194>
80009e60:	e1dd31b8 	ldrh	r3, [sp, #24]
80009e64:	e3530000 	cmp	r3, #0
80009e68:	0afffff1 	beq	80009e34 <sys_unlink+0x128>
80009e6c:	e1a00004 	mov	r0, r4
80009e70:	eb0035ce 	bl	800175b0 <iunlockput>
80009e74:	e1a00005 	mov	r0, r5
80009e78:	eb0035cc 	bl	800175b0 <iunlockput>
80009e7c:	eb00160a 	bl	8000f6ac <commit_trans>
80009e80:	e3e00000 	mvn	r0, #0
80009e84:	eaffffe2 	b	80009e14 <sys_unlink+0x108>
80009e88:	e1d531b6 	ldrh	r3, [r5, #22]
80009e8c:	e1a00005 	mov	r0, r5
80009e90:	e2433001 	sub	r3, r3, #1
80009e94:	e1c531b6 	strh	r3, [r5, #22]
80009e98:	eb0034ec 	bl	80017250 <iupdate>
80009e9c:	eaffffd1 	b	80009de8 <sys_unlink+0xdc>
80009ea0:	e3070ef4 	movw	r0, #32500	; 0x7ef4
80009ea4:	e3480001 	movt	r0, #32769	; 0x8001
80009ea8:	eb00066f 	bl	8000b86c <panic>
80009eac:	e3070f08 	movw	r0, #32520	; 0x7f08
80009eb0:	e3480001 	movt	r0, #32769	; 0x8001
80009eb4:	eb00066c 	bl	8000b86c <panic>
80009eb8:	e3070ee0 	movw	r0, #32480	; 0x7ee0
80009ebc:	e3480001 	movt	r0, #32769	; 0x8001
80009ec0:	eb000669 	bl	8000b86c <panic>

80009ec4 <sys_open>:
80009ec4:	e92d40f0 	push	{r4, r5, r6, r7, lr}
80009ec8:	e24dd00c 	sub	sp, sp, #12
80009ecc:	e1a0100d 	mov	r1, sp
80009ed0:	e3a00000 	mov	r0, #0
80009ed4:	eb000c5b 	bl	8000d048 <argstr>
80009ed8:	e3500000 	cmp	r0, #0
80009edc:	ba00002d 	blt	80009f98 <sys_open+0xd4>
80009ee0:	e28d1004 	add	r1, sp, #4
80009ee4:	e3a00001 	mov	r0, #1
80009ee8:	eb000c2c 	bl	8000cfa0 <argint>
80009eec:	e3500000 	cmp	r0, #0
80009ef0:	ba000028 	blt	80009f98 <sys_open+0xd4>
80009ef4:	e59d3004 	ldr	r3, [sp, #4]
80009ef8:	e3130c02 	tst	r3, #512	; 0x200
80009efc:	1a00001b 	bne	80009f70 <sys_open+0xac>
80009f00:	e59d0000 	ldr	r0, [sp]
80009f04:	eb003719 	bl	80017b70 <namei>
80009f08:	e2507000 	subs	r7, r0, #0
80009f0c:	0a000021 	beq	80009f98 <sys_open+0xd4>
80009f10:	eb0034fa 	bl	80017300 <ilock>
80009f14:	e1d731f0 	ldrsh	r3, [r7, #16]
80009f18:	e3530001 	cmp	r3, #1
80009f1c:	0a000031 	beq	80009fe8 <sys_open+0x124>
80009f20:	eb001904 	bl	80010338 <filealloc>
80009f24:	e2506000 	subs	r6, r0, #0
80009f28:	0a00000c 	beq	80009f60 <sys_open+0x9c>
80009f2c:	e30a3b14 	movw	r3, #43796	; 0xab14
80009f30:	e3a04000 	mov	r4, #0
80009f34:	e3483009 	movt	r3, #32777	; 0x8009
80009f38:	e5932018 	ldr	r2, [r3, #24]
80009f3c:	e2823024 	add	r3, r2, #36	; 0x24
80009f40:	e5b35004 	ldr	r5, [r3, #4]!
80009f44:	e3550000 	cmp	r5, #0
80009f48:	0a000014 	beq	80009fa0 <sys_open+0xdc>
80009f4c:	e2844001 	add	r4, r4, #1
80009f50:	e3540010 	cmp	r4, #16
80009f54:	1afffff9 	bne	80009f40 <sys_open+0x7c>
80009f58:	e1a00006 	mov	r0, r6
80009f5c:	eb001922 	bl	800103ec <fileclose>
80009f60:	e1a00007 	mov	r0, r7
80009f64:	e3e04000 	mvn	r4, #0
80009f68:	eb003590 	bl	800175b0 <iunlockput>
80009f6c:	ea00001a 	b	80009fdc <sys_open+0x118>
80009f70:	eb0015b7 	bl	8000f654 <begin_trans>
80009f74:	e59d0000 	ldr	r0, [sp]
80009f78:	e3a03000 	mov	r3, #0
80009f7c:	e1a02003 	mov	r2, r3
80009f80:	e3a01002 	mov	r1, #2
80009f84:	ebfffe1f 	bl	80009808 <create>
80009f88:	e1a07000 	mov	r7, r0
80009f8c:	eb0015c6 	bl	8000f6ac <commit_trans>
80009f90:	e3570000 	cmp	r7, #0
80009f94:	1affffe1 	bne	80009f20 <sys_open+0x5c>
80009f98:	e3e04000 	mvn	r4, #0
80009f9c:	ea00000e 	b	80009fdc <sys_open+0x118>
80009fa0:	e284300a 	add	r3, r4, #10
80009fa4:	e1a00007 	mov	r0, r7
80009fa8:	e7826103 	str	r6, [r2, r3, lsl #2]
80009fac:	eb003515 	bl	80017408 <iunlock>
80009fb0:	e59d3004 	ldr	r3, [sp, #4]
80009fb4:	e3a01002 	mov	r1, #2
80009fb8:	e5867010 	str	r7, [r6, #16]
80009fbc:	e1e02003 	mvn	r2, r3
80009fc0:	e2133003 	ands	r3, r3, #3
80009fc4:	e5865014 	str	r5, [r6, #20]
80009fc8:	e2022001 	and	r2, r2, #1
80009fcc:	e5c62008 	strb	r2, [r6, #8]
80009fd0:	13a03001 	movne	r3, #1
80009fd4:	e5c63009 	strb	r3, [r6, #9]
80009fd8:	e5861000 	str	r1, [r6]
80009fdc:	e1a00004 	mov	r0, r4
80009fe0:	e28dd00c 	add	sp, sp, #12
80009fe4:	e8bd80f0 	pop	{r4, r5, r6, r7, pc}
80009fe8:	e59d3004 	ldr	r3, [sp, #4]
80009fec:	e3530000 	cmp	r3, #0
80009ff0:	0affffca 	beq	80009f20 <sys_open+0x5c>
80009ff4:	eaffffd9 	b	80009f60 <sys_open+0x9c>

80009ff8 <sys_mkdir>:
80009ff8:	e52de004 	push	{lr}		; (str lr, [sp, #-4]!)
80009ffc:	e24dd00c 	sub	sp, sp, #12
8000a000:	eb001593 	bl	8000f654 <begin_trans>
8000a004:	e28d1004 	add	r1, sp, #4
8000a008:	e3a00000 	mov	r0, #0
8000a00c:	eb000c0d 	bl	8000d048 <argstr>
8000a010:	e3500000 	cmp	r0, #0
8000a014:	ba00000b 	blt	8000a048 <sys_mkdir+0x50>
8000a018:	e59d0004 	ldr	r0, [sp, #4]
8000a01c:	e3a03000 	mov	r3, #0
8000a020:	e1a02003 	mov	r2, r3
8000a024:	e3a01001 	mov	r1, #1
8000a028:	ebfffdf6 	bl	80009808 <create>
8000a02c:	e3500000 	cmp	r0, #0
8000a030:	0a000004 	beq	8000a048 <sys_mkdir+0x50>
8000a034:	eb00355d 	bl	800175b0 <iunlockput>
8000a038:	eb00159b 	bl	8000f6ac <commit_trans>
8000a03c:	e3a00000 	mov	r0, #0
8000a040:	e28dd00c 	add	sp, sp, #12
8000a044:	e49df004 	pop	{pc}		; (ldr pc, [sp], #4)
8000a048:	eb001597 	bl	8000f6ac <commit_trans>
8000a04c:	e3e00000 	mvn	r0, #0
8000a050:	eafffffa 	b	8000a040 <sys_mkdir+0x48>

8000a054 <sys_mknod>:
8000a054:	e92d4010 	push	{r4, lr}
8000a058:	e24dd010 	sub	sp, sp, #16
8000a05c:	eb00157c 	bl	8000f654 <begin_trans>
8000a060:	e28d1004 	add	r1, sp, #4
8000a064:	e3a00000 	mov	r0, #0
8000a068:	eb000bf6 	bl	8000d048 <argstr>
8000a06c:	e3500000 	cmp	r0, #0
8000a070:	ba00001b 	blt	8000a0e4 <sys_mknod+0x90>
8000a074:	e28d1008 	add	r1, sp, #8
8000a078:	e3a00001 	mov	r0, #1
8000a07c:	eb000bc7 	bl	8000cfa0 <argint>
8000a080:	e3500000 	cmp	r0, #0
8000a084:	ba000016 	blt	8000a0e4 <sys_mknod+0x90>
8000a088:	e28d100c 	add	r1, sp, #12
8000a08c:	e3a00002 	mov	r0, #2
8000a090:	eb000bc2 	bl	8000cfa0 <argint>
8000a094:	e3500000 	cmp	r0, #0
8000a098:	ba000011 	blt	8000a0e4 <sys_mknod+0x90>
8000a09c:	e1dd30fc 	ldrsh	r3, [sp, #12]
8000a0a0:	e3a01003 	mov	r1, #3
8000a0a4:	e1dd20f8 	ldrsh	r2, [sp, #8]
8000a0a8:	e59d0004 	ldr	r0, [sp, #4]
8000a0ac:	ebfffdd5 	bl	80009808 <create>
8000a0b0:	e2504000 	subs	r4, r0, #0
8000a0b4:	0a00000a 	beq	8000a0e4 <sys_mknod+0x90>
8000a0b8:	eb00353c 	bl	800175b0 <iunlockput>
8000a0bc:	eb00157a 	bl	8000f6ac <commit_trans>
8000a0c0:	e1d431f2 	ldrsh	r3, [r4, #18]
8000a0c4:	e353000f 	cmp	r3, #15
8000a0c8:	030a2bf8 	movweq	r2, #44024	; 0xabf8
8000a0cc:	03a00000 	moveq	r0, #0
8000a0d0:	03482009 	movteq	r2, #32777	; 0x8009
8000a0d4:	13a00000 	movne	r0, #0
8000a0d8:	01c230bc 	strheq	r3, [r2, #12]
8000a0dc:	e28dd010 	add	sp, sp, #16
8000a0e0:	e8bd8010 	pop	{r4, pc}
8000a0e4:	eb001570 	bl	8000f6ac <commit_trans>
8000a0e8:	e3e00000 	mvn	r0, #0
8000a0ec:	eafffffa 	b	8000a0dc <sys_mknod+0x88>

8000a0f0 <sys_chdir>:
8000a0f0:	e92d4030 	push	{r4, r5, lr}
8000a0f4:	e24dd00c 	sub	sp, sp, #12
8000a0f8:	e28d1004 	add	r1, sp, #4
8000a0fc:	e3a00000 	mov	r0, #0
8000a100:	eb000bd0 	bl	8000d048 <argstr>
8000a104:	e3500000 	cmp	r0, #0
8000a108:	ba000015 	blt	8000a164 <sys_chdir+0x74>
8000a10c:	e59d0004 	ldr	r0, [sp, #4]
8000a110:	eb003696 	bl	80017b70 <namei>
8000a114:	e2505000 	subs	r5, r0, #0
8000a118:	0a000011 	beq	8000a164 <sys_chdir+0x74>
8000a11c:	eb003477 	bl	80017300 <ilock>
8000a120:	e1d531f0 	ldrsh	r3, [r5, #16]
8000a124:	e3530001 	cmp	r3, #1
8000a128:	1a00000b 	bne	8000a15c <sys_chdir+0x6c>
8000a12c:	e30a4b14 	movw	r4, #43796	; 0xab14
8000a130:	e1a00005 	mov	r0, r5
8000a134:	e3484009 	movt	r4, #32777	; 0x8009
8000a138:	eb0034b2 	bl	80017408 <iunlock>
8000a13c:	e5943018 	ldr	r3, [r4, #24]
8000a140:	e5930068 	ldr	r0, [r3, #104]	; 0x68
8000a144:	eb0034c7 	bl	80017468 <iput>
8000a148:	e5943018 	ldr	r3, [r4, #24]
8000a14c:	e3a00000 	mov	r0, #0
8000a150:	e5835068 	str	r5, [r3, #104]	; 0x68
8000a154:	e28dd00c 	add	sp, sp, #12
8000a158:	e8bd8030 	pop	{r4, r5, pc}
8000a15c:	e1a00005 	mov	r0, r5
8000a160:	eb003512 	bl	800175b0 <iunlockput>
8000a164:	e3e00000 	mvn	r0, #0
8000a168:	eafffff9 	b	8000a154 <sys_chdir+0x64>

8000a16c <sys_exec>:
8000a16c:	e92d4070 	push	{r4, r5, r6, lr}
8000a170:	e24dd090 	sub	sp, sp, #144	; 0x90
8000a174:	e28d1004 	add	r1, sp, #4
8000a178:	e3a00000 	mov	r0, #0
8000a17c:	eb000bb1 	bl	8000d048 <argstr>
8000a180:	e3500000 	cmp	r0, #0
8000a184:	ba00001c 	blt	8000a1fc <sys_exec+0x90>
8000a188:	e28d1008 	add	r1, sp, #8
8000a18c:	e3a00001 	mov	r0, #1
8000a190:	eb000b82 	bl	8000cfa0 <argint>
8000a194:	e3500000 	cmp	r0, #0
8000a198:	ba000017 	blt	8000a1fc <sys_exec+0x90>
8000a19c:	e28d0010 	add	r0, sp, #16
8000a1a0:	e3a01000 	mov	r1, #0
8000a1a4:	e3a02080 	mov	r2, #128	; 0x80
8000a1a8:	e1a05000 	mov	r5, r0
8000a1ac:	e1a04001 	mov	r4, r1
8000a1b0:	eb000085 	bl	8000a3cc <memset>
8000a1b4:	e59d0008 	ldr	r0, [sp, #8]
8000a1b8:	e28d100c 	add	r1, sp, #12
8000a1bc:	e1a06104 	lsl	r6, r4, #2
8000a1c0:	e2844001 	add	r4, r4, #1
8000a1c4:	e0860000 	add	r0, r6, r0
8000a1c8:	eb000b4b 	bl	8000cefc <fetchint>
8000a1cc:	e3500000 	cmp	r0, #0
8000a1d0:	e1a01005 	mov	r1, r5
8000a1d4:	e2855004 	add	r5, r5, #4
8000a1d8:	ba000007 	blt	8000a1fc <sys_exec+0x90>
8000a1dc:	e59d300c 	ldr	r3, [sp, #12]
8000a1e0:	e2530000 	subs	r0, r3, #0
8000a1e4:	0a000007 	beq	8000a208 <sys_exec+0x9c>
8000a1e8:	eb000b52 	bl	8000cf38 <fetchstr>
8000a1ec:	e3500000 	cmp	r0, #0
8000a1f0:	ba000001 	blt	8000a1fc <sys_exec+0x90>
8000a1f4:	e3540020 	cmp	r4, #32
8000a1f8:	1affffed 	bne	8000a1b4 <sys_exec+0x48>
8000a1fc:	e3e00000 	mvn	r0, #0
8000a200:	e28dd090 	add	sp, sp, #144	; 0x90
8000a204:	e8bd8070 	pop	{r4, r5, r6, pc}
8000a208:	e59d0004 	ldr	r0, [sp, #4]
8000a20c:	e28d2090 	add	r2, sp, #144	; 0x90
8000a210:	e0826006 	add	r6, r2, r6
8000a214:	e28d1010 	add	r1, sp, #16
8000a218:	e5063080 	str	r3, [r6, #-128]	; 0xffffff80
8000a21c:	ebfff8fb 	bl	80008610 <exec>
8000a220:	e28dd090 	add	sp, sp, #144	; 0x90
8000a224:	e8bd8070 	pop	{r4, r5, r6, pc}

8000a228 <sys_pipe>:
8000a228:	e92d4030 	push	{r4, r5, lr}
8000a22c:	e24dd014 	sub	sp, sp, #20
8000a230:	e3a02008 	mov	r2, #8
8000a234:	e28d1004 	add	r1, sp, #4
8000a238:	e3a00000 	mov	r0, #0
8000a23c:	eb000b69 	bl	8000cfe8 <argptr>
8000a240:	e3500000 	cmp	r0, #0
8000a244:	ba000015 	blt	8000a2a0 <sys_pipe+0x78>
8000a248:	e28d100c 	add	r1, sp, #12
8000a24c:	e28d0008 	add	r0, sp, #8
8000a250:	eb001f3b 	bl	80011f44 <pipealloc>
8000a254:	e3500000 	cmp	r0, #0
8000a258:	ba000010 	blt	8000a2a0 <sys_pipe+0x78>
8000a25c:	e59d4008 	ldr	r4, [sp, #8]
8000a260:	e30a3b14 	movw	r3, #43796	; 0xab14
8000a264:	e3483009 	movt	r3, #32777	; 0x8009
8000a268:	e3a02000 	mov	r2, #0
8000a26c:	e593e018 	ldr	lr, [r3, #24]
8000a270:	e28e1024 	add	r1, lr, #36	; 0x24
8000a274:	e1a0c001 	mov	ip, r1
8000a278:	e5bc3004 	ldr	r3, [ip, #4]!
8000a27c:	e3530000 	cmp	r3, #0
8000a280:	0a000008 	beq	8000a2a8 <sys_pipe+0x80>
8000a284:	e2822001 	add	r2, r2, #1
8000a288:	e3520010 	cmp	r2, #16
8000a28c:	1afffff9 	bne	8000a278 <sys_pipe+0x50>
8000a290:	e1a00004 	mov	r0, r4
8000a294:	eb001854 	bl	800103ec <fileclose>
8000a298:	e59d000c 	ldr	r0, [sp, #12]
8000a29c:	eb001852 	bl	800103ec <fileclose>
8000a2a0:	e3e00000 	mvn	r0, #0
8000a2a4:	ea00000f 	b	8000a2e8 <sys_pipe+0xc0>
8000a2a8:	e08ec102 	add	ip, lr, r2, lsl #2
8000a2ac:	e59d500c 	ldr	r5, [sp, #12]
8000a2b0:	e58c4028 	str	r4, [ip, #40]	; 0x28
8000a2b4:	e5b10004 	ldr	r0, [r1, #4]!
8000a2b8:	e3500000 	cmp	r0, #0
8000a2bc:	0a000005 	beq	8000a2d8 <sys_pipe+0xb0>
8000a2c0:	e2833001 	add	r3, r3, #1
8000a2c4:	e3530010 	cmp	r3, #16
8000a2c8:	1afffff9 	bne	8000a2b4 <sys_pipe+0x8c>
8000a2cc:	e3a03000 	mov	r3, #0
8000a2d0:	e58c3028 	str	r3, [ip, #40]	; 0x28
8000a2d4:	eaffffed 	b	8000a290 <sys_pipe+0x68>
8000a2d8:	e59d1004 	ldr	r1, [sp, #4]
8000a2dc:	e283c00a 	add	ip, r3, #10
8000a2e0:	e78e510c 	str	r5, [lr, ip, lsl #2]
8000a2e4:	e1c120f0 	strd	r2, [r1]
8000a2e8:	e28dd014 	add	sp, sp, #20
8000a2ec:	e8bd8030 	pop	{r4, r5, pc}

8000a2f0 <sys_lseek>:
8000a2f0:	e52de004 	push	{lr}		; (str lr, [sp, #-4]!)
8000a2f4:	e24dd014 	sub	sp, sp, #20
8000a2f8:	e28d1004 	add	r1, sp, #4
8000a2fc:	e3a00000 	mov	r0, #0
8000a300:	ebfffd9b 	bl	80009974 <argfd.constprop.0>
8000a304:	e3500000 	cmp	r0, #0
8000a308:	ba00001b 	blt	8000a37c <sys_lseek+0x8c>
8000a30c:	e28d1008 	add	r1, sp, #8
8000a310:	e3a00001 	mov	r0, #1
8000a314:	eb000b21 	bl	8000cfa0 <argint>
8000a318:	e3500000 	cmp	r0, #0
8000a31c:	ba000016 	blt	8000a37c <sys_lseek+0x8c>
8000a320:	e28d100c 	add	r1, sp, #12
8000a324:	e3a00002 	mov	r0, #2
8000a328:	eb000b1c 	bl	8000cfa0 <argint>
8000a32c:	e3500000 	cmp	r0, #0
8000a330:	ba000011 	blt	8000a37c <sys_lseek+0x8c>
8000a334:	e59d300c 	ldr	r3, [sp, #12]
8000a338:	e59d2004 	ldr	r2, [sp, #4]
8000a33c:	e3530000 	cmp	r3, #0
8000a340:	0a00000b 	beq	8000a374 <sys_lseek+0x84>
8000a344:	e3530001 	cmp	r3, #1
8000a348:	1a000006 	bne	8000a368 <sys_lseek+0x78>
8000a34c:	e5920014 	ldr	r0, [r2, #20]
8000a350:	e59d3008 	ldr	r3, [sp, #8]
8000a354:	e0800003 	add	r0, r0, r3
8000a358:	e1c00fc0 	bic	r0, r0, r0, asr #31
8000a35c:	e5820014 	str	r0, [r2, #20]
8000a360:	e28dd014 	add	sp, sp, #20
8000a364:	e49df004 	pop	{pc}		; (ldr pc, [sp], #4)
8000a368:	e5920014 	ldr	r0, [r2, #20]
8000a36c:	e28dd014 	add	sp, sp, #20
8000a370:	e49df004 	pop	{pc}		; (ldr pc, [sp], #4)
8000a374:	e59d0008 	ldr	r0, [sp, #8]
8000a378:	eafffff6 	b	8000a358 <sys_lseek+0x68>
8000a37c:	e3e00000 	mvn	r0, #0
8000a380:	eafffff6 	b	8000a360 <sys_lseek+0x70>

8000a384 <memsetw>:
8000a384:	e3520000 	cmp	r2, #0
8000a388:	e2423001 	sub	r3, r2, #1
8000a38c:	012fff1e 	bxeq	lr
8000a390:	e1a0c000 	mov	ip, r0
8000a394:	e2533001 	subs	r3, r3, #1
8000a398:	e48c1004 	str	r1, [ip], #4
8000a39c:	2afffffc 	bcs	8000a394 <memsetw+0x10>
8000a3a0:	e0800102 	add	r0, r0, r2, lsl #2
8000a3a4:	e12fff1e 	bx	lr

8000a3a8 <memsetb>:
8000a3a8:	e3520000 	cmp	r2, #0
8000a3ac:	e1a03000 	mov	r3, r0
8000a3b0:	012fff1e 	bxeq	lr
8000a3b4:	e0800002 	add	r0, r0, r2
8000a3b8:	e6ef1071 	uxtb	r1, r1
8000a3bc:	e4c31001 	strb	r1, [r3], #1
8000a3c0:	e1500003 	cmp	r0, r3
8000a3c4:	1afffffc 	bne	8000a3bc <memsetb+0x14>
8000a3c8:	e12fff1e 	bx	lr

8000a3cc <memset>:
8000a3cc:	e1a03000 	mov	r3, r0
8000a3d0:	e1800002 	orr	r0, r0, r2
8000a3d4:	e3100003 	tst	r0, #3
8000a3d8:	1a00000b 	bne	8000a40c <memset+0x40>
8000a3dc:	e1b00122 	lsrs	r0, r2, #2
8000a3e0:	e6ef1071 	uxtb	r1, r1
8000a3e4:	e1a02801 	lsl	r2, r1, #16
8000a3e8:	e1822c01 	orr	r2, r2, r1, lsl #24
8000a3ec:	e1822001 	orr	r2, r2, r1
8000a3f0:	e1821401 	orr	r1, r2, r1, lsl #8
8000a3f4:	0a00000c 	beq	8000a42c <memset+0x60>
8000a3f8:	e0830100 	add	r0, r3, r0, lsl #2
8000a3fc:	e4831004 	str	r1, [r3], #4
8000a400:	e1530000 	cmp	r3, r0
8000a404:	1afffffc 	bne	8000a3fc <memset+0x30>
8000a408:	e12fff1e 	bx	lr
8000a40c:	e3520000 	cmp	r2, #0
8000a410:	10830002 	addne	r0, r3, r2
8000a414:	16ef1071 	uxtbne	r1, r1
8000a418:	0a000003 	beq	8000a42c <memset+0x60>
8000a41c:	e4c31001 	strb	r1, [r3], #1
8000a420:	e1530000 	cmp	r3, r0
8000a424:	1afffffc 	bne	8000a41c <memset+0x50>
8000a428:	e12fff1e 	bx	lr
8000a42c:	e1a00003 	mov	r0, r3
8000a430:	e12fff1e 	bx	lr

8000a434 <memcmp>:
8000a434:	e3520000 	cmp	r2, #0
8000a438:	e242c001 	sub	ip, r2, #1
8000a43c:	0a00000b 	beq	8000a470 <memcmp+0x3c>
8000a440:	e5d03000 	ldrb	r3, [r0]
8000a444:	e5d12000 	ldrb	r2, [r1]
8000a448:	e1520003 	cmp	r2, r3
8000a44c:	0081c00c 	addeq	ip, r1, ip
8000a450:	0a000004 	beq	8000a468 <memcmp+0x34>
8000a454:	ea000007 	b	8000a478 <memcmp+0x44>
8000a458:	e5f03001 	ldrb	r3, [r0, #1]!
8000a45c:	e5f12001 	ldrb	r2, [r1, #1]!
8000a460:	e1530002 	cmp	r3, r2
8000a464:	1a000003 	bne	8000a478 <memcmp+0x44>
8000a468:	e151000c 	cmp	r1, ip
8000a46c:	1afffff9 	bne	8000a458 <memcmp+0x24>
8000a470:	e3a00000 	mov	r0, #0
8000a474:	e12fff1e 	bx	lr
8000a478:	e0430002 	sub	r0, r3, r2
8000a47c:	e12fff1e 	bx	lr

8000a480 <memmove>:
8000a480:	e1510000 	cmp	r1, r0
8000a484:	2a00000b 	bcs	8000a4b8 <memmove+0x38>
8000a488:	e0813002 	add	r3, r1, r2
8000a48c:	e1530000 	cmp	r3, r0
8000a490:	9a000008 	bls	8000a4b8 <memmove+0x38>
8000a494:	e080c002 	add	ip, r0, r2
8000a498:	e3520000 	cmp	r2, #0
8000a49c:	012fff1e 	bxeq	lr
8000a4a0:	e1a0200c 	mov	r2, ip
8000a4a4:	e573c001 	ldrb	ip, [r3, #-1]!
8000a4a8:	e1510003 	cmp	r1, r3
8000a4ac:	e562c001 	strb	ip, [r2, #-1]!
8000a4b0:	1afffffb 	bne	8000a4a4 <memmove+0x24>
8000a4b4:	e12fff1e 	bx	lr
8000a4b8:	e3520000 	cmp	r2, #0
8000a4bc:	012fff1e 	bxeq	lr
8000a4c0:	e0812002 	add	r2, r1, r2
8000a4c4:	e2403001 	sub	r3, r0, #1
8000a4c8:	e4d1c001 	ldrb	ip, [r1], #1
8000a4cc:	e1520001 	cmp	r2, r1
8000a4d0:	e5e3c001 	strb	ip, [r3, #1]!
8000a4d4:	1afffffb 	bne	8000a4c8 <memmove+0x48>
8000a4d8:	e12fff1e 	bx	lr

8000a4dc <memcpy>:
8000a4dc:	eaffffe7 	b	8000a480 <memmove>

8000a4e0 <strncmp>:
8000a4e0:	e3520000 	cmp	r2, #0
8000a4e4:	0a000010 	beq	8000a52c <strncmp+0x4c>
8000a4e8:	e5d03000 	ldrb	r3, [r0]
8000a4ec:	e5d1c000 	ldrb	ip, [r1]
8000a4f0:	e3530000 	cmp	r3, #0
8000a4f4:	0a00000f 	beq	8000a538 <strncmp+0x58>
8000a4f8:	e15c0003 	cmp	ip, r3
8000a4fc:	1a00000d 	bne	8000a538 <strncmp+0x58>
8000a500:	e2422001 	sub	r2, r2, #1
8000a504:	e0812002 	add	r2, r1, r2
8000a508:	ea000005 	b	8000a524 <strncmp+0x44>
8000a50c:	e5f03001 	ldrb	r3, [r0, #1]!
8000a510:	e3530000 	cmp	r3, #0
8000a514:	0a000006 	beq	8000a534 <strncmp+0x54>
8000a518:	e5f1c001 	ldrb	ip, [r1, #1]!
8000a51c:	e153000c 	cmp	r3, ip
8000a520:	1a000004 	bne	8000a538 <strncmp+0x58>
8000a524:	e1520001 	cmp	r2, r1
8000a528:	1afffff7 	bne	8000a50c <strncmp+0x2c>
8000a52c:	e3a00000 	mov	r0, #0
8000a530:	e12fff1e 	bx	lr
8000a534:	e5d1c001 	ldrb	ip, [r1, #1]
8000a538:	e043000c 	sub	r0, r3, ip
8000a53c:	e12fff1e 	bx	lr

8000a540 <strncpy>:
8000a540:	e92d4010 	push	{r4, lr}
8000a544:	e2411001 	sub	r1, r1, #1
8000a548:	e1a0c000 	mov	ip, r0
8000a54c:	ea000005 	b	8000a568 <strncpy+0x28>
8000a550:	e5f13001 	ldrb	r3, [r1, #1]!
8000a554:	e28cc001 	add	ip, ip, #1
8000a558:	e5c43000 	strb	r3, [r4]
8000a55c:	e3530000 	cmp	r3, #0
8000a560:	0a000004 	beq	8000a578 <strncpy+0x38>
8000a564:	e1a0200e 	mov	r2, lr
8000a568:	e3520000 	cmp	r2, #0
8000a56c:	e1a0400c 	mov	r4, ip
8000a570:	e242e001 	sub	lr, r2, #1
8000a574:	cafffff5 	bgt	8000a550 <strncpy+0x10>
8000a578:	e35e0000 	cmp	lr, #0
8000a57c:	d8bd8010 	pople	{r4, pc}
8000a580:	e1a0100c 	mov	r1, ip
8000a584:	e3a0e000 	mov	lr, #0
8000a588:	e4c1e001 	strb	lr, [r1], #1
8000a58c:	e1e03001 	mvn	r3, r1
8000a590:	e08c3003 	add	r3, ip, r3
8000a594:	e0833002 	add	r3, r3, r2
8000a598:	e3530000 	cmp	r3, #0
8000a59c:	cafffff9 	bgt	8000a588 <strncpy+0x48>
8000a5a0:	e8bd8010 	pop	{r4, pc}

8000a5a4 <safestrcpy>:
8000a5a4:	e3520000 	cmp	r2, #0
8000a5a8:	d12fff1e 	bxle	lr
8000a5ac:	e2422001 	sub	r2, r2, #1
8000a5b0:	e2411001 	sub	r1, r1, #1
8000a5b4:	e080c002 	add	ip, r0, r2
8000a5b8:	e1a03000 	mov	r3, r0
8000a5bc:	ea000003 	b	8000a5d0 <safestrcpy+0x2c>
8000a5c0:	e5f12001 	ldrb	r2, [r1, #1]!
8000a5c4:	e4c32001 	strb	r2, [r3], #1
8000a5c8:	e3520000 	cmp	r2, #0
8000a5cc:	0a000004 	beq	8000a5e4 <safestrcpy+0x40>
8000a5d0:	e153000c 	cmp	r3, ip
8000a5d4:	1afffff9 	bne	8000a5c0 <safestrcpy+0x1c>
8000a5d8:	e3a03000 	mov	r3, #0
8000a5dc:	e5cc3000 	strb	r3, [ip]
8000a5e0:	e12fff1e 	bx	lr
8000a5e4:	e1a0c003 	mov	ip, r3
8000a5e8:	eafffffa 	b	8000a5d8 <safestrcpy+0x34>

8000a5ec <strlen>:
8000a5ec:	e5d03000 	ldrb	r3, [r0]
8000a5f0:	e3530000 	cmp	r3, #0
8000a5f4:	0a000006 	beq	8000a614 <strlen+0x28>
8000a5f8:	e1a03000 	mov	r3, r0
8000a5fc:	e2601001 	rsb	r1, r0, #1
8000a600:	e0810003 	add	r0, r1, r3
8000a604:	e5f32001 	ldrb	r2, [r3, #1]!
8000a608:	e3520000 	cmp	r2, #0
8000a60c:	1afffffb 	bne	8000a600 <strlen+0x14>
8000a610:	e12fff1e 	bx	lr
8000a614:	e1a00003 	mov	r0, r3
8000a618:	e12fff1e 	bx	lr

8000a61c <div>:
8000a61c:	e3a02000 	mov	r2, #0
8000a620:	e3a0301f 	mov	r3, #31
8000a624:	e92d4010 	push	{r4, lr}
8000a628:	e1a0e000 	mov	lr, r0
8000a62c:	e3a04001 	mov	r4, #1
8000a630:	e1a00002 	mov	r0, r2
8000a634:	e1a0c33e 	lsr	ip, lr, r3
8000a638:	e20cc001 	and	ip, ip, #1
8000a63c:	e18c2082 	orr	r2, ip, r2, lsl #1
8000a640:	e1520001 	cmp	r2, r1
8000a644:	20422001 	subcs	r2, r2, r1
8000a648:	21800314 	orrcs	r0, r0, r4, lsl r3
8000a64c:	e2533001 	subs	r3, r3, #1
8000a650:	38bd8010 	popcc	{r4, pc}
8000a654:	eafffff6 	b	8000a634 <div+0x18>

8000a658 <USBMIDIDeviceStartRequest>:
8000a658:	e92d4030 	push	{r4, r5, lr}
8000a65c:	e1a04000 	mov	r4, r0
8000a660:	e24dd00c 	sub	sp, sp, #12
8000a664:	e3a00024 	mov	r0, #36	; 0x24
8000a668:	e3a05000 	mov	r5, #0
8000a66c:	eb001ce0 	bl	800119f4 <malloc>
8000a670:	e5840044 	str	r0, [r4, #68]	; 0x44
8000a674:	e1d434b8 	ldrh	r3, [r4, #72]	; 0x48
8000a678:	e594204c 	ldr	r2, [r4, #76]	; 0x4c
8000a67c:	e594103c 	ldr	r1, [r4, #60]	; 0x3c
8000a680:	e58d5000 	str	r5, [sp]
8000a684:	eb001ef6 	bl	80012264 <USBRequest>
8000a688:	e5940044 	ldr	r0, [r4, #68]	; 0x44
8000a68c:	e30a189c 	movw	r1, #43164	; 0xa89c
8000a690:	e3481000 	movt	r1, #32768	; 0x8000
8000a694:	e1a03004 	mov	r3, r4
8000a698:	e1a02005 	mov	r2, r5
8000a69c:	eb001f11 	bl	800122e8 <USBRequestSetCompletionRoutine>
8000a6a0:	e1a00004 	mov	r0, r4
8000a6a4:	eb00026c 	bl	8000b05c <USBDeviceGetHost>
8000a6a8:	e5941044 	ldr	r1, [r4, #68]	; 0x44
8000a6ac:	e28dd00c 	add	sp, sp, #12
8000a6b0:	e8bd4030 	pop	{r4, r5, lr}
8000a6b4:	ea002759 	b	80014420 <DWHCIDeviceSubmitAsyncRequest>

8000a6b8 <USBMIDIDeviceConfigure>:
8000a6b8:	e92d4070 	push	{r4, r5, r6, lr}
8000a6bc:	e3a01002 	mov	r1, #2
8000a6c0:	e24dd010 	sub	sp, sp, #16
8000a6c4:	e1a05000 	mov	r5, r0
8000a6c8:	eb000269 	bl	8000b074 <USBDeviceGetDescriptor>
8000a6cc:	e3500000 	cmp	r0, #0
8000a6d0:	0a000059 	beq	8000a83c <USBMIDIDeviceConfigure+0x184>
8000a6d4:	e5d03004 	ldrb	r3, [r0, #4]
8000a6d8:	e3530000 	cmp	r3, #0
8000a6dc:	0a000056 	beq	8000a83c <USBMIDIDeviceConfigure+0x184>
8000a6e0:	e3a01004 	mov	r1, #4
8000a6e4:	e1a00005 	mov	r0, r5
8000a6e8:	eb000261 	bl	8000b074 <USBDeviceGetDescriptor>
8000a6ec:	e2504000 	subs	r4, r0, #0
8000a6f0:	0a00002e 	beq	8000a7b0 <USBMIDIDeviceConfigure+0xf8>
8000a6f4:	e5d43004 	ldrb	r3, [r4, #4]
8000a6f8:	e3530000 	cmp	r3, #0
8000a6fc:	0afffff7 	beq	8000a6e0 <USBMIDIDeviceConfigure+0x28>
8000a700:	e5d43005 	ldrb	r3, [r4, #5]
8000a704:	e3530001 	cmp	r3, #1
8000a708:	1afffff4 	bne	8000a6e0 <USBMIDIDeviceConfigure+0x28>
8000a70c:	e5d43006 	ldrb	r3, [r4, #6]
8000a710:	e3530003 	cmp	r3, #3
8000a714:	1afffff1 	bne	8000a6e0 <USBMIDIDeviceConfigure+0x28>
8000a718:	e5d43007 	ldrb	r3, [r4, #7]
8000a71c:	e3530000 	cmp	r3, #0
8000a720:	1affffee 	bne	8000a6e0 <USBMIDIDeviceConfigure+0x28>
8000a724:	e3a01005 	mov	r1, #5
8000a728:	e1a00005 	mov	r0, r5
8000a72c:	eb000250 	bl	8000b074 <USBDeviceGetDescriptor>
8000a730:	e2504000 	subs	r4, r0, #0
8000a734:	0affffe9 	beq	8000a6e0 <USBMIDIDeviceConfigure+0x28>
8000a738:	e1d430d2 	ldrsb	r3, [r4, #2]
8000a73c:	e3530000 	cmp	r3, #0
8000a740:	aafffff7 	bge	8000a724 <USBMIDIDeviceConfigure+0x6c>
8000a744:	e5d43003 	ldrb	r3, [r4, #3]
8000a748:	e203303f 	and	r3, r3, #63	; 0x3f
8000a74c:	e3530002 	cmp	r3, #2
8000a750:	1afffff3 	bne	8000a724 <USBMIDIDeviceConfigure+0x6c>
8000a754:	e3a01025 	mov	r1, #37	; 0x25
8000a758:	e1a00005 	mov	r0, r5
8000a75c:	eb000244 	bl	8000b074 <USBDeviceGetDescriptor>
8000a760:	e3500000 	cmp	r0, #0
8000a764:	0affffee 	beq	8000a724 <USBMIDIDeviceConfigure+0x6c>
8000a768:	e5d43000 	ldrb	r3, [r4]
8000a76c:	e0843003 	add	r3, r4, r3
8000a770:	e1500003 	cmp	r0, r3
8000a774:	1affffea 	bne	8000a724 <USBMIDIDeviceConfigure+0x6c>
8000a778:	e3a0001c 	mov	r0, #28
8000a77c:	eb001c9c 	bl	800119f4 <malloc>
8000a780:	e585003c 	str	r0, [r5, #60]	; 0x3c
8000a784:	e30f0ffc 	movw	r0, #65532	; 0xfffc
8000a788:	e1d430b4 	ldrh	r3, [r4, #4]
8000a78c:	e0000003 	and	r0, r0, r3
8000a790:	e1c504b8 	strh	r0, [r5, #72]	; 0x48
8000a794:	eb001c96 	bl	800119f4 <malloc>
8000a798:	e585004c 	str	r0, [r5, #76]	; 0x4c
8000a79c:	e1a02004 	mov	r2, r4
8000a7a0:	e595003c 	ldr	r0, [r5, #60]	; 0x3c
8000a7a4:	e1a01005 	mov	r1, r5
8000a7a8:	eb000a73 	bl	8000d17c <USBEndpoint2>
8000a7ac:	eaffffdc 	b	8000a724 <USBMIDIDeviceConfigure+0x6c>
8000a7b0:	e595603c 	ldr	r6, [r5, #60]	; 0x3c
8000a7b4:	e3560000 	cmp	r6, #0
8000a7b8:	0a000027 	beq	8000a85c <USBMIDIDeviceConfigure+0x1a4>
8000a7bc:	e1a00005 	mov	r0, r5
8000a7c0:	eb000088 	bl	8000a9e8 <USBDeviceConfigure>
8000a7c4:	e2506000 	subs	r6, r0, #0
8000a7c8:	0a00002a 	beq	8000a878 <USBMIDIDeviceConfigure+0x1c0>
8000a7cc:	e28d0004 	add	r0, sp, #4
8000a7d0:	ebfff87c 	bl	800089c8 <String>
8000a7d4:	e30a3868 	movw	r3, #43112	; 0xa868
8000a7d8:	e3071f7c 	movw	r1, #32636	; 0x7f7c
8000a7dc:	e3483009 	movt	r3, #32777	; 0x8009
8000a7e0:	e28d0004 	add	r0, sp, #4
8000a7e4:	e3481001 	movt	r1, #32769	; 0x8001
8000a7e8:	e5932000 	ldr	r2, [r3]
8000a7ec:	e282c001 	add	ip, r2, #1
8000a7f0:	e583c000 	str	ip, [r3]
8000a7f4:	ebfffaac 	bl	800092ac <StringFormat>
8000a7f8:	eb002e93 	bl	8001624c <DeviceNameServiceGet>
8000a7fc:	e1a06000 	mov	r6, r0
8000a800:	e28d0004 	add	r0, sp, #4
8000a804:	ebfff889 	bl	80008a30 <StringGet>
8000a808:	e1a01000 	mov	r1, r0
8000a80c:	e1a03004 	mov	r3, r4
8000a810:	e1a02005 	mov	r2, r5
8000a814:	e1a00006 	mov	r0, r6
8000a818:	eb002e61 	bl	800161a4 <DeviceNameServiceAddDevice>
8000a81c:	e28d0004 	add	r0, sp, #4
8000a820:	ebfff878 	bl	80008a08 <_String>
8000a824:	e1a00005 	mov	r0, r5
8000a828:	ebffff8a 	bl	8000a658 <USBMIDIDeviceStartRequest>
8000a82c:	e1a06000 	mov	r6, r0
8000a830:	e1a00006 	mov	r0, r6
8000a834:	e28dd010 	add	sp, sp, #16
8000a838:	e8bd8070 	pop	{r4, r5, r6, pc}
8000a83c:	e3071f18 	movw	r1, #32536	; 0x7f18
8000a840:	e1a00005 	mov	r0, r5
8000a844:	e3481001 	movt	r1, #32769	; 0x8001
8000a848:	e3a06000 	mov	r6, #0
8000a84c:	eb00020a 	bl	8000b07c <USBDeviceConfigurationError>
8000a850:	e1a00006 	mov	r0, r6
8000a854:	e28dd010 	add	sp, sp, #16
8000a858:	e8bd8070 	pop	{r4, r5, r6, pc}
8000a85c:	e3071f18 	movw	r1, #32536	; 0x7f18
8000a860:	e1a00005 	mov	r0, r5
8000a864:	e3481001 	movt	r1, #32769	; 0x8001
8000a868:	eb000203 	bl	8000b07c <USBDeviceConfigurationError>
8000a86c:	e1a00006 	mov	r0, r6
8000a870:	e28dd010 	add	sp, sp, #16
8000a874:	e8bd8070 	pop	{r4, r5, r6, pc}
8000a878:	e3072f60 	movw	r2, #32608	; 0x7f60
8000a87c:	e3070f18 	movw	r0, #32536	; 0x7f18
8000a880:	e3482001 	movt	r2, #32769	; 0x8001
8000a884:	e3a01001 	mov	r1, #1
8000a888:	e3480001 	movt	r0, #32769	; 0x8001
8000a88c:	eb001cb2 	bl	80011b5c <LogWrite>
8000a890:	e1a00006 	mov	r0, r6
8000a894:	e28dd010 	add	sp, sp, #16
8000a898:	e8bd8070 	pop	{r4, r5, r6, pc}

8000a89c <USBMIDIDeviceCompletionRoutine>:
8000a89c:	e92d41f0 	push	{r4, r5, r6, r7, r8, lr}
8000a8a0:	e1a04002 	mov	r4, r2
8000a8a4:	e1a05000 	mov	r5, r0
8000a8a8:	eb001e84 	bl	800122c0 <USBRequestGetStatus>
8000a8ac:	e3500000 	cmp	r0, #0
8000a8b0:	1a000008 	bne	8000a8d8 <USBMIDIDeviceCompletionRoutine+0x3c>
8000a8b4:	e5940044 	ldr	r0, [r4, #68]	; 0x44
8000a8b8:	eb001e74 	bl	80012290 <_USBRequest>
8000a8bc:	e5940044 	ldr	r0, [r4, #68]	; 0x44
8000a8c0:	eb001c52 	bl	80011a10 <free>
8000a8c4:	e3a03000 	mov	r3, #0
8000a8c8:	e1a00004 	mov	r0, r4
8000a8cc:	e5843044 	str	r3, [r4, #68]	; 0x44
8000a8d0:	e8bd41f0 	pop	{r4, r5, r6, r7, r8, lr}
8000a8d4:	eaffff5f 	b	8000a658 <USBMIDIDeviceStartRequest>
8000a8d8:	e1a00005 	mov	r0, r5
8000a8dc:	eb001e79 	bl	800122c8 <USBRequestGetResultLength>
8000a8e0:	e3100003 	tst	r0, #3
8000a8e4:	1afffff2 	bne	8000a8b4 <USBMIDIDeviceCompletionRoutine+0x18>
8000a8e8:	e594604c 	ldr	r6, [r4, #76]	; 0x4c
8000a8ec:	e1a00005 	mov	r0, r5
8000a8f0:	eb001e74 	bl	800122c8 <USBRequestGetResultLength>
8000a8f4:	e594504c 	ldr	r5, [r4, #76]	; 0x4c
8000a8f8:	e0860000 	add	r0, r6, r0
8000a8fc:	e1500005 	cmp	r0, r5
8000a900:	9affffeb 	bls	8000a8b4 <USBMIDIDeviceCompletionRoutine+0x18>
8000a904:	e1e06005 	mvn	r6, r5
8000a908:	e2853005 	add	r3, r5, #5
8000a90c:	e0806006 	add	r6, r0, r6
8000a910:	e3077f18 	movw	r7, #32536	; 0x7f18
8000a914:	e3c66003 	bic	r6, r6, #3
8000a918:	e2855001 	add	r5, r5, #1
8000a91c:	e0866003 	add	r6, r6, r3
8000a920:	e3487001 	movt	r7, #32769	; 0x8001
8000a924:	e5550001 	ldrb	r0, [r5, #-1]
8000a928:	e3500000 	cmp	r0, #0
8000a92c:	0a000008 	beq	8000a954 <USBMIDIDeviceCompletionRoutine+0xb8>
8000a930:	e5948040 	ldr	r8, [r4, #64]	; 0x40
8000a934:	e200300f 	and	r3, r0, #15
8000a938:	e1a00220 	lsr	r0, r0, #4
8000a93c:	e1a02005 	mov	r2, r5
8000a940:	e0873103 	add	r3, r7, r3, lsl #2
8000a944:	e3580000 	cmp	r8, #0
8000a948:	0a000001 	beq	8000a954 <USBMIDIDeviceCompletionRoutine+0xb8>
8000a94c:	e5931008 	ldr	r1, [r3, #8]
8000a950:	e12fff38 	blx	r8
8000a954:	e2855004 	add	r5, r5, #4
8000a958:	e1550006 	cmp	r5, r6
8000a95c:	1afffff0 	bne	8000a924 <USBMIDIDeviceCompletionRoutine+0x88>
8000a960:	eaffffd3 	b	8000a8b4 <USBMIDIDeviceCompletionRoutine+0x18>

8000a964 <USBMIDIDevice>:
8000a964:	e92d4010 	push	{r4, lr}
8000a968:	e1a04000 	mov	r4, r0
8000a96c:	eb000052 	bl	8000aabc <USBDeviceCopy>
8000a970:	e30a26b8 	movw	r2, #42680	; 0xa6b8
8000a974:	e3a03000 	mov	r3, #0
8000a978:	e3482000 	movt	r2, #32768	; 0x8000
8000a97c:	e5842000 	str	r2, [r4]
8000a980:	e584303c 	str	r3, [r4, #60]	; 0x3c
8000a984:	e5843040 	str	r3, [r4, #64]	; 0x40
8000a988:	e5843044 	str	r3, [r4, #68]	; 0x44
8000a98c:	e584304c 	str	r3, [r4, #76]	; 0x4c
8000a990:	e8bd8010 	pop	{r4, pc}

8000a994 <_CUSBMIDIDevice>:
8000a994:	e92d4010 	push	{r4, lr}
8000a998:	e1a04000 	mov	r4, r0
8000a99c:	e590004c 	ldr	r0, [r0, #76]	; 0x4c
8000a9a0:	e3500000 	cmp	r0, #0
8000a9a4:	0a000002 	beq	8000a9b4 <_CUSBMIDIDevice+0x20>
8000a9a8:	eb001c18 	bl	80011a10 <free>
8000a9ac:	e3a03000 	mov	r3, #0
8000a9b0:	e584304c 	str	r3, [r4, #76]	; 0x4c
8000a9b4:	e594003c 	ldr	r0, [r4, #60]	; 0x3c
8000a9b8:	e3500000 	cmp	r0, #0
8000a9bc:	0a000004 	beq	8000a9d4 <_CUSBMIDIDevice+0x40>
8000a9c0:	eb000a35 	bl	8000d29c <_USBEndpoint>
8000a9c4:	e594003c 	ldr	r0, [r4, #60]	; 0x3c
8000a9c8:	eb001c10 	bl	80011a10 <free>
8000a9cc:	e3a03000 	mov	r3, #0
8000a9d0:	e584303c 	str	r3, [r4, #60]	; 0x3c
8000a9d4:	e1a00004 	mov	r0, r4
8000a9d8:	e8bd4010 	pop	{r4, lr}
8000a9dc:	ea000073 	b	8000abb0 <_USBDevice>

8000a9e0 <USBMIDIDeviceRegisterPacketHandler>:
8000a9e0:	e5801040 	str	r1, [r0, #64]	; 0x40
8000a9e4:	e12fff1e 	bx	lr

8000a9e8 <USBDeviceConfigure>:
8000a9e8:	e590301c 	ldr	r3, [r0, #28]
8000a9ec:	e92d4070 	push	{r4, r5, r6, lr}
8000a9f0:	e3530000 	cmp	r3, #0
8000a9f4:	01a04003 	moveq	r4, r3
8000a9f8:	0a000007 	beq	8000aa1c <USBDeviceConfigure+0x34>
8000a9fc:	e5901010 	ldr	r1, [r0, #16]
8000aa00:	e1a05000 	mov	r5, r0
8000aa04:	e5d32005 	ldrb	r2, [r3, #5]
8000aa08:	e5900004 	ldr	r0, [r0, #4]
8000aa0c:	eb002750 	bl	80014754 <DWHCIDeviceSetConfiguration>
8000aa10:	e2504000 	subs	r4, r0, #0
8000aa14:	13a04001 	movne	r4, #1
8000aa18:	0a000001 	beq	8000aa24 <USBDeviceConfigure+0x3c>
8000aa1c:	e1a00004 	mov	r0, r4
8000aa20:	e8bd8070 	pop	{r4, r5, r6, pc}
8000aa24:	e595301c 	ldr	r3, [r5, #28]
8000aa28:	e3072f8c 	movw	r2, #32652	; 0x7f8c
8000aa2c:	e3482001 	movt	r2, #32769	; 0x8001
8000aa30:	e3070f84 	movw	r0, #32644	; 0x7f84
8000aa34:	e5d33005 	ldrb	r3, [r3, #5]
8000aa38:	e3a01001 	mov	r1, #1
8000aa3c:	e3480001 	movt	r0, #32769	; 0x8001
8000aa40:	eb001c45 	bl	80011b5c <LogWrite>
8000aa44:	e1a00004 	mov	r0, r4
8000aa48:	e8bd8070 	pop	{r4, r5, r6, pc}

8000aa4c <USBDevice>:
8000aa4c:	e92d4010 	push	{r4, lr}
8000aa50:	e30ac9e8 	movw	ip, #43496	; 0xa9e8
8000aa54:	e5dde008 	ldrb	lr, [sp, #8]
8000aa58:	e1a04000 	mov	r4, r0
8000aa5c:	e5801004 	str	r1, [r0, #4]
8000aa60:	e3a01000 	mov	r1, #0
8000aa64:	e348c000 	movt	ip, #32768	; 0x8000
8000aa68:	e580200c 	str	r2, [r0, #12]
8000aa6c:	e3a0001c 	mov	r0, #28
8000aa70:	e5c43014 	strb	r3, [r4, #20]
8000aa74:	e584c000 	str	ip, [r4]
8000aa78:	e5c4e015 	strb	lr, [r4, #21]
8000aa7c:	e5c41008 	strb	r1, [r4, #8]
8000aa80:	e5841010 	str	r1, [r4, #16]
8000aa84:	e5841018 	str	r1, [r4, #24]
8000aa88:	e584101c 	str	r1, [r4, #28]
8000aa8c:	e5841020 	str	r1, [r4, #32]
8000aa90:	eb001bd7 	bl	800119f4 <malloc>
8000aa94:	e5840010 	str	r0, [r4, #16]
8000aa98:	e1a01004 	mov	r1, r4
8000aa9c:	eb0009ab 	bl	8000d150 <USBEndpoint>
8000aaa0:	e1a01004 	mov	r1, r4
8000aaa4:	e2840024 	add	r0, r4, #36	; 0x24
8000aaa8:	eb0016e8 	bl	80010650 <USBString>
8000aaac:	e1a01004 	mov	r1, r4
8000aab0:	e2840030 	add	r0, r4, #48	; 0x30
8000aab4:	e8bd4010 	pop	{r4, lr}
8000aab8:	ea0016e4 	b	80010650 <USBString>

8000aabc <USBDeviceCopy>:
8000aabc:	e92d4070 	push	{r4, r5, r6, lr}
8000aac0:	e1a04000 	mov	r4, r0
8000aac4:	e5912004 	ldr	r2, [r1, #4]
8000aac8:	e1a05001 	mov	r5, r1
8000aacc:	e5910000 	ldr	r0, [r1]
8000aad0:	e3a03000 	mov	r3, #0
8000aad4:	e5842004 	str	r2, [r4, #4]
8000aad8:	e2811024 	add	r1, r1, #36	; 0x24
8000aadc:	e5840000 	str	r0, [r4]
8000aae0:	e2840024 	add	r0, r4, #36	; 0x24
8000aae4:	e5843010 	str	r3, [r4, #16]
8000aae8:	e5843018 	str	r3, [r4, #24]
8000aaec:	e584301c 	str	r3, [r4, #28]
8000aaf0:	e5843020 	str	r3, [r4, #32]
8000aaf4:	e5d53008 	ldrb	r3, [r5, #8]
8000aaf8:	e5c43008 	strb	r3, [r4, #8]
8000aafc:	e595300c 	ldr	r3, [r5, #12]
8000ab00:	e584300c 	str	r3, [r4, #12]
8000ab04:	e5d53014 	ldrb	r3, [r5, #20]
8000ab08:	e5c43014 	strb	r3, [r4, #20]
8000ab0c:	e5d53015 	ldrb	r3, [r5, #21]
8000ab10:	e5c43015 	strb	r3, [r4, #21]
8000ab14:	eb0016d7 	bl	80010678 <USBStringCopy>
8000ab18:	e2851030 	add	r1, r5, #48	; 0x30
8000ab1c:	e2840030 	add	r0, r4, #48	; 0x30
8000ab20:	eb0016d4 	bl	80010678 <USBStringCopy>
8000ab24:	e3a0001c 	mov	r0, #28
8000ab28:	eb001bb1 	bl	800119f4 <malloc>
8000ab2c:	e5840010 	str	r0, [r4, #16]
8000ab30:	e1a02004 	mov	r2, r4
8000ab34:	e5951010 	ldr	r1, [r5, #16]
8000ab38:	eb0009ca 	bl	8000d268 <USBEndpointCopy>
8000ab3c:	e5953018 	ldr	r3, [r5, #24]
8000ab40:	e3530000 	cmp	r3, #0
8000ab44:	0a000005 	beq	8000ab60 <USBDeviceCopy+0xa4>
8000ab48:	e3a00012 	mov	r0, #18
8000ab4c:	eb001ba8 	bl	800119f4 <malloc>
8000ab50:	e5840018 	str	r0, [r4, #24]
8000ab54:	e3a02012 	mov	r2, #18
8000ab58:	e5951018 	ldr	r1, [r5, #24]
8000ab5c:	eb001f9c 	bl	800129d4 <uspi_memcpy>
8000ab60:	e595301c 	ldr	r3, [r5, #28]
8000ab64:	e3530000 	cmp	r3, #0
8000ab68:	08bd8070 	popeq	{r4, r5, r6, pc}
8000ab6c:	e1d360b2 	ldrh	r6, [r3, #2]
8000ab70:	e1a00006 	mov	r0, r6
8000ab74:	eb001b9e 	bl	800119f4 <malloc>
8000ab78:	e584001c 	str	r0, [r4, #28]
8000ab7c:	e1a02006 	mov	r2, r6
8000ab80:	e595101c 	ldr	r1, [r5, #28]
8000ab84:	eb001f92 	bl	800129d4 <uspi_memcpy>
8000ab88:	e5953020 	ldr	r3, [r5, #32]
8000ab8c:	e3530000 	cmp	r3, #0
8000ab90:	08bd8070 	popeq	{r4, r5, r6, pc}
8000ab94:	e3a00018 	mov	r0, #24
8000ab98:	eb001b95 	bl	800119f4 <malloc>
8000ab9c:	e5840020 	str	r0, [r4, #32]
8000aba0:	e1a02006 	mov	r2, r6
8000aba4:	e594101c 	ldr	r1, [r4, #28]
8000aba8:	e8bd4070 	pop	{r4, r5, r6, lr}
8000abac:	ea0009e7 	b	8000d350 <USBConfigurationParser>

8000abb0 <_USBDevice>:
8000abb0:	e92d4010 	push	{r4, lr}
8000abb4:	e1a04000 	mov	r4, r0
8000abb8:	e5900020 	ldr	r0, [r0, #32]
8000abbc:	e3500000 	cmp	r0, #0
8000abc0:	0a000004 	beq	8000abd8 <_USBDevice+0x28>
8000abc4:	eb000a25 	bl	8000d460 <_USBConfigurationParser>
8000abc8:	e5940020 	ldr	r0, [r4, #32]
8000abcc:	eb001b8f 	bl	80011a10 <free>
8000abd0:	e3a03000 	mov	r3, #0
8000abd4:	e5843020 	str	r3, [r4, #32]
8000abd8:	e594001c 	ldr	r0, [r4, #28]
8000abdc:	e3500000 	cmp	r0, #0
8000abe0:	0a000002 	beq	8000abf0 <_USBDevice+0x40>
8000abe4:	eb001b89 	bl	80011a10 <free>
8000abe8:	e3a03000 	mov	r3, #0
8000abec:	e584301c 	str	r3, [r4, #28]
8000abf0:	e5940018 	ldr	r0, [r4, #24]
8000abf4:	e3500000 	cmp	r0, #0
8000abf8:	0a000002 	beq	8000ac08 <_USBDevice+0x58>
8000abfc:	eb001b83 	bl	80011a10 <free>
8000ac00:	e3a03000 	mov	r3, #0
8000ac04:	e5843018 	str	r3, [r4, #24]
8000ac08:	e5940010 	ldr	r0, [r4, #16]
8000ac0c:	e3500000 	cmp	r0, #0
8000ac10:	0a000004 	beq	8000ac28 <_USBDevice+0x78>
8000ac14:	eb0009a0 	bl	8000d29c <_USBEndpoint>
8000ac18:	e5940010 	ldr	r0, [r4, #16]
8000ac1c:	eb001b7b 	bl	80011a10 <free>
8000ac20:	e3a03000 	mov	r3, #0
8000ac24:	e5843010 	str	r3, [r4, #16]
8000ac28:	e3a03000 	mov	r3, #0
8000ac2c:	e2840030 	add	r0, r4, #48	; 0x30
8000ac30:	e5843000 	str	r3, [r4]
8000ac34:	e5843004 	str	r3, [r4, #4]
8000ac38:	eb0016a8 	bl	800106e0 <_USBString>
8000ac3c:	e2840024 	add	r0, r4, #36	; 0x24
8000ac40:	e8bd4010 	pop	{r4, lr}
8000ac44:	ea0016a5 	b	800106e0 <_USBString>

8000ac48 <USBDeviceInitialize>:
8000ac48:	e92d40f0 	push	{r4, r5, r6, r7, lr}
8000ac4c:	e1a04000 	mov	r4, r0
8000ac50:	e24dd014 	sub	sp, sp, #20
8000ac54:	e3a00012 	mov	r0, #18
8000ac58:	e3a05080 	mov	r5, #128	; 0x80
8000ac5c:	eb001b64 	bl	800119f4 <malloc>
8000ac60:	e5840018 	str	r0, [r4, #24]
8000ac64:	e3a0c008 	mov	ip, #8
8000ac68:	e58d0000 	str	r0, [sp]
8000ac6c:	e3a02001 	mov	r2, #1
8000ac70:	e5941010 	ldr	r1, [r4, #16]
8000ac74:	e3a03000 	mov	r3, #0
8000ac78:	e5940004 	ldr	r0, [r4, #4]
8000ac7c:	e58d5008 	str	r5, [sp, #8]
8000ac80:	e58dc004 	str	ip, [sp, #4]
8000ac84:	eb002691 	bl	800146d0 <DWHCIDeviceGetDescriptor>
8000ac88:	e3500008 	cmp	r0, #8
8000ac8c:	13072fac 	movwne	r2, #32684	; 0x7fac
8000ac90:	13070f84 	movwne	r0, #32644	; 0x7f84
8000ac94:	13482001 	movtne	r2, #32769	; 0x8001
8000ac98:	1a000009 	bne	8000acc4 <USBDeviceInitialize+0x7c>
8000ac9c:	e5943018 	ldr	r3, [r4, #24]
8000aca0:	e5d36000 	ldrb	r6, [r3]
8000aca4:	e3560012 	cmp	r6, #18
8000aca8:	1a000002 	bne	8000acb8 <USBDeviceInitialize+0x70>
8000acac:	e5d37001 	ldrb	r7, [r3, #1]
8000acb0:	e3570001 	cmp	r7, #1
8000acb4:	0a00000c 	beq	8000acec <USBDeviceInitialize+0xa4>
8000acb8:	e3072fd4 	movw	r2, #32724	; 0x7fd4
8000acbc:	e3070f84 	movw	r0, #32644	; 0x7f84
8000acc0:	e3482001 	movt	r2, #32769	; 0x8001
8000acc4:	e3480001 	movt	r0, #32769	; 0x8001
8000acc8:	e3a01001 	mov	r1, #1
8000accc:	e3a05000 	mov	r5, #0
8000acd0:	eb001ba1 	bl	80011b5c <LogWrite>
8000acd4:	e5940018 	ldr	r0, [r4, #24]
8000acd8:	eb001b4c 	bl	80011a10 <free>
8000acdc:	e5845018 	str	r5, [r4, #24]
8000ace0:	e1a00005 	mov	r0, r5
8000ace4:	e28dd014 	add	sp, sp, #20
8000ace8:	e8bd80f0 	pop	{r4, r5, r6, r7, pc}
8000acec:	e5d31007 	ldrb	r1, [r3, #7]
8000acf0:	e5940010 	ldr	r0, [r4, #16]
8000acf4:	eb000973 	bl	8000d2c8 <USBEndpointSetMaxPacketSize>
8000acf8:	e5941018 	ldr	r1, [r4, #24]
8000acfc:	e1a02007 	mov	r2, r7
8000ad00:	e58d5008 	str	r5, [sp, #8]
8000ad04:	e3a03000 	mov	r3, #0
8000ad08:	e88d0042 	stm	sp, {r1, r6}
8000ad0c:	e5941010 	ldr	r1, [r4, #16]
8000ad10:	e5940004 	ldr	r0, [r4, #4]
8000ad14:	eb00266d 	bl	800146d0 <DWHCIDeviceGetDescriptor>
8000ad18:	e3500012 	cmp	r0, #18
8000ad1c:	13072ff0 	movwne	r2, #32752	; 0x7ff0
8000ad20:	13070f84 	movwne	r0, #32644	; 0x7f84
8000ad24:	13482001 	movtne	r2, #32769	; 0x8001
8000ad28:	1affffe5 	bne	8000acc4 <USBDeviceInitialize+0x7c>
8000ad2c:	e30a286c 	movw	r2, #43116	; 0xa86c
8000ad30:	e3482009 	movt	r2, #32777	; 0x8009
8000ad34:	e5d26000 	ldrb	r6, [r2]
8000ad38:	e3160080 	tst	r6, #128	; 0x80
8000ad3c:	e2863001 	add	r3, r6, #1
8000ad40:	e5c23000 	strb	r3, [r2]
8000ad44:	1a000051 	bne	8000ae90 <USBDeviceInitialize+0x248>
8000ad48:	e5941010 	ldr	r1, [r4, #16]
8000ad4c:	e1a02006 	mov	r2, r6
8000ad50:	e5940004 	ldr	r0, [r4, #4]
8000ad54:	eb00266c 	bl	8001470c <DWHCIDeviceSetAddress>
8000ad58:	e2505000 	subs	r5, r0, #0
8000ad5c:	0a000053 	beq	8000aeb0 <USBDeviceInitialize+0x268>
8000ad60:	e5943018 	ldr	r3, [r4, #24]
8000ad64:	e5c46008 	strb	r6, [r4, #8]
8000ad68:	e5d3200e 	ldrb	r2, [r3, #14]
8000ad6c:	e3520000 	cmp	r2, #0
8000ad70:	1a000002 	bne	8000ad80 <USBDeviceInitialize+0x138>
8000ad74:	e5d3300f 	ldrb	r3, [r3, #15]
8000ad78:	e3530000 	cmp	r3, #0
8000ad7c:	0a00000a 	beq	8000adac <USBDeviceInitialize+0x164>
8000ad80:	e2845024 	add	r5, r4, #36	; 0x24
8000ad84:	e1a00005 	mov	r0, r5
8000ad88:	eb0016d9 	bl	800108f4 <USBStringGetLanguageID>
8000ad8c:	e5943018 	ldr	r3, [r4, #24]
8000ad90:	e1a06000 	mov	r6, r0
8000ad94:	e5d3100e 	ldrb	r1, [r3, #14]
8000ad98:	e3510000 	cmp	r1, #0
8000ad9c:	1a00004f 	bne	8000aee0 <USBDeviceInitialize+0x298>
8000ada0:	e5d3100f 	ldrb	r1, [r3, #15]
8000ada4:	e3510000 	cmp	r1, #0
8000ada8:	1a000048 	bne	8000aed0 <USBDeviceInitialize+0x288>
8000adac:	e3a00009 	mov	r0, #9
8000adb0:	e3a05080 	mov	r5, #128	; 0x80
8000adb4:	eb001b0e 	bl	800119f4 <malloc>
8000adb8:	e584001c 	str	r0, [r4, #28]
8000adbc:	e3a01009 	mov	r1, #9
8000adc0:	e58d0000 	str	r0, [sp]
8000adc4:	e3a02002 	mov	r2, #2
8000adc8:	e98d0022 	stmib	sp, {r1, r5}
8000adcc:	e5941010 	ldr	r1, [r4, #16]
8000add0:	e3a03000 	mov	r3, #0
8000add4:	e5940004 	ldr	r0, [r4, #4]
8000add8:	eb00263c 	bl	800146d0 <DWHCIDeviceGetDescriptor>
8000addc:	e3500009 	cmp	r0, #9
8000ade0:	1308203c 	movwne	r2, #32828	; 0x803c
8000ade4:	13070f84 	movwne	r0, #32644	; 0x7f84
8000ade8:	13482001 	movtne	r2, #32769	; 0x8001
8000adec:	1a00001b 	bne	8000ae60 <USBDeviceInitialize+0x218>
8000adf0:	e594001c 	ldr	r0, [r4, #28]
8000adf4:	e5d03000 	ldrb	r3, [r0]
8000adf8:	e3530009 	cmp	r3, #9
8000adfc:	1a00001f 	bne	8000ae80 <USBDeviceInitialize+0x238>
8000ae00:	e5d06001 	ldrb	r6, [r0, #1]
8000ae04:	e3560002 	cmp	r6, #2
8000ae08:	1a00001c 	bne	8000ae80 <USBDeviceInitialize+0x238>
8000ae0c:	e1d070b2 	ldrh	r7, [r0, #2]
8000ae10:	e3570c02 	cmp	r7, #512	; 0x200
8000ae14:	8a000019 	bhi	8000ae80 <USBDeviceInitialize+0x238>
8000ae18:	eb001afc 	bl	80011a10 <free>
8000ae1c:	e1a00007 	mov	r0, r7
8000ae20:	eb001af3 	bl	800119f4 <malloc>
8000ae24:	e584001c 	str	r0, [r4, #28]
8000ae28:	e1a02006 	mov	r2, r6
8000ae2c:	e58d5008 	str	r5, [sp, #8]
8000ae30:	e3a03000 	mov	r3, #0
8000ae34:	e58d0000 	str	r0, [sp]
8000ae38:	e58d7004 	str	r7, [sp, #4]
8000ae3c:	e5941010 	ldr	r1, [r4, #16]
8000ae40:	e5940004 	ldr	r0, [r4, #4]
8000ae44:	eb002621 	bl	800146d0 <DWHCIDeviceGetDescriptor>
8000ae48:	e1500007 	cmp	r0, r7
8000ae4c:	e1a05000 	mov	r5, r0
8000ae50:	0a000027 	beq	8000aef4 <USBDeviceInitialize+0x2ac>
8000ae54:	e308208c 	movw	r2, #32908	; 0x808c
8000ae58:	e3070f84 	movw	r0, #32644	; 0x7f84
8000ae5c:	e3482001 	movt	r2, #32769	; 0x8001
8000ae60:	e3480001 	movt	r0, #32769	; 0x8001
8000ae64:	e3a01001 	mov	r1, #1
8000ae68:	e3a05000 	mov	r5, #0
8000ae6c:	eb001b3a 	bl	80011b5c <LogWrite>
8000ae70:	e594001c 	ldr	r0, [r4, #28]
8000ae74:	eb001ae5 	bl	80011a10 <free>
8000ae78:	e584501c 	str	r5, [r4, #28]
8000ae7c:	eaffff97 	b	8000ace0 <USBDeviceInitialize+0x98>
8000ae80:	e3082068 	movw	r2, #32872	; 0x8068
8000ae84:	e3070f84 	movw	r0, #32644	; 0x7f84
8000ae88:	e3482001 	movt	r2, #32769	; 0x8001
8000ae8c:	eafffff3 	b	8000ae60 <USBDeviceInitialize+0x218>
8000ae90:	e3082010 	movw	r2, #32784	; 0x8010
8000ae94:	e3070f84 	movw	r0, #32644	; 0x7f84
8000ae98:	e3482001 	movt	r2, #32769	; 0x8001
8000ae9c:	e1a01007 	mov	r1, r7
8000aea0:	e3480001 	movt	r0, #32769	; 0x8001
8000aea4:	e3a05000 	mov	r5, #0
8000aea8:	eb001b2b 	bl	80011b5c <LogWrite>
8000aeac:	eaffff8b 	b	8000ace0 <USBDeviceInitialize+0x98>
8000aeb0:	e3082024 	movw	r2, #32804	; 0x8024
8000aeb4:	e3070f84 	movw	r0, #32644	; 0x7f84
8000aeb8:	e3482001 	movt	r2, #32769	; 0x8001
8000aebc:	e1a03006 	mov	r3, r6
8000aec0:	e3480001 	movt	r0, #32769	; 0x8001
8000aec4:	e1a01007 	mov	r1, r7
8000aec8:	eb001b23 	bl	80011b5c <LogWrite>
8000aecc:	eaffff83 	b	8000ace0 <USBDeviceInitialize+0x98>
8000aed0:	e1a02006 	mov	r2, r6
8000aed4:	e2840030 	add	r0, r4, #48	; 0x30
8000aed8:	eb001610 	bl	80010720 <USBStringGetFromDescriptor>
8000aedc:	eaffffb2 	b	8000adac <USBDeviceInitialize+0x164>
8000aee0:	e1a00005 	mov	r0, r5
8000aee4:	e1a02006 	mov	r2, r6
8000aee8:	eb00160c 	bl	80010720 <USBStringGetFromDescriptor>
8000aeec:	e5943018 	ldr	r3, [r4, #24]
8000aef0:	eaffffaa 	b	8000ada0 <USBDeviceInitialize+0x158>
8000aef4:	e3a00018 	mov	r0, #24
8000aef8:	eb001abd 	bl	800119f4 <malloc>
8000aefc:	e5840020 	str	r0, [r4, #32]
8000af00:	e1a02005 	mov	r2, r5
8000af04:	e594101c 	ldr	r1, [r4, #28]
8000af08:	eb000910 	bl	8000d350 <USBConfigurationParser>
8000af0c:	e5940020 	ldr	r0, [r4, #32]
8000af10:	eb000955 	bl	8000d46c <USBConfigurationParserIsValid>
8000af14:	e2505000 	subs	r5, r0, #0
8000af18:	13a05001 	movne	r5, #1
8000af1c:	1affff6f 	bne	8000ace0 <USBDeviceInitialize+0x98>
8000af20:	e5940020 	ldr	r0, [r4, #32]
8000af24:	e3071f84 	movw	r1, #32644	; 0x7f84
8000af28:	e3481001 	movt	r1, #32769	; 0x8001
8000af2c:	eb000979 	bl	8000d518 <USBConfigurationParserError>
8000af30:	eaffff6a 	b	8000ace0 <USBDeviceInitialize+0x98>

8000af34 <USBDeviceGetName>:
8000af34:	e92d4070 	push	{r4, r5, r6, lr}
8000af38:	e1a06000 	mov	r6, r0
8000af3c:	e24dd008 	sub	sp, sp, #8
8000af40:	e3a0000c 	mov	r0, #12
8000af44:	e1a04001 	mov	r4, r1
8000af48:	eb001aa9 	bl	800119f4 <malloc>
8000af4c:	e1a05000 	mov	r5, r0
8000af50:	ebfff69c 	bl	800089c8 <String>
8000af54:	e3540001 	cmp	r4, #1
8000af58:	0a000014 	beq	8000afb0 <USBDeviceGetName+0x7c>
8000af5c:	e3540000 	cmp	r4, #0
8000af60:	0a00001f 	beq	8000afe4 <USBDeviceGetName+0xb0>
8000af64:	e3540002 	cmp	r4, #2
8000af68:	1a000016 	bne	8000afc8 <USBDeviceGetName+0x94>
8000af6c:	e596001c 	ldr	r0, [r6, #28]
8000af70:	e1d030b2 	ldrh	r3, [r0, #2]
8000af74:	e3530011 	cmp	r3, #17
8000af78:	9a000012 	bls	8000afc8 <USBDeviceGetName+0x94>
8000af7c:	e5d0200e 	ldrb	r2, [r0, #14]
8000af80:	e2423001 	sub	r3, r2, #1
8000af84:	e6ef3073 	uxtb	r3, r3
8000af88:	e35300fd 	cmp	r3, #253	; 0xfd
8000af8c:	8a00000d 	bhi	8000afc8 <USBDeviceGetName+0x94>
8000af90:	e5d0300f 	ldrb	r3, [r0, #15]
8000af94:	e30810c8 	movw	r1, #32968	; 0x80c8
8000af98:	e5d00010 	ldrb	r0, [r0, #16]
8000af9c:	e3481001 	movt	r1, #32769	; 0x8001
8000afa0:	e58d0000 	str	r0, [sp]
8000afa4:	e1a00005 	mov	r0, r5
8000afa8:	ebfff8bf 	bl	800092ac <StringFormat>
8000afac:	ea000009 	b	8000afd8 <USBDeviceGetName+0xa4>
8000afb0:	e5960018 	ldr	r0, [r6, #24]
8000afb4:	e5d02004 	ldrb	r2, [r0, #4]
8000afb8:	e2423001 	sub	r3, r2, #1
8000afbc:	e6ef3073 	uxtb	r3, r3
8000afc0:	e35300fd 	cmp	r3, #253	; 0xfd
8000afc4:	9a000010 	bls	8000b00c <USBDeviceGetName+0xd8>
8000afc8:	e30810d4 	movw	r1, #32980	; 0x80d4
8000afcc:	e1a00005 	mov	r0, r5
8000afd0:	e3481001 	movt	r1, #32769	; 0x8001
8000afd4:	ebfff69b 	bl	80008a48 <StringSet>
8000afd8:	e1a00005 	mov	r0, r5
8000afdc:	e28dd008 	add	sp, sp, #8
8000afe0:	e8bd8070 	pop	{r4, r5, r6, pc}
8000afe4:	e5962018 	ldr	r2, [r6, #24]
8000afe8:	e30810b0 	movw	r1, #32944	; 0x80b0
8000afec:	e3481001 	movt	r1, #32769	; 0x8001
8000aff0:	e1a00005 	mov	r0, r5
8000aff4:	e1d230ba 	ldrh	r3, [r2, #10]
8000aff8:	e1d220b8 	ldrh	r2, [r2, #8]
8000affc:	ebfff8aa 	bl	800092ac <StringFormat>
8000b000:	e1a00005 	mov	r0, r5
8000b004:	e28dd008 	add	sp, sp, #8
8000b008:	e8bd8070 	pop	{r4, r5, r6, pc}
8000b00c:	e5d03005 	ldrb	r3, [r0, #5]
8000b010:	e30810bc 	movw	r1, #32956	; 0x80bc
8000b014:	e5d00006 	ldrb	r0, [r0, #6]
8000b018:	e3481001 	movt	r1, #32769	; 0x8001
8000b01c:	e58d0000 	str	r0, [sp]
8000b020:	e1a00005 	mov	r0, r5
8000b024:	ebfff8a0 	bl	800092ac <StringFormat>
8000b028:	e1a00005 	mov	r0, r5
8000b02c:	e28dd008 	add	sp, sp, #8
8000b030:	e8bd8070 	pop	{r4, r5, r6, pc}

8000b034 <USBDeviceGetAddress>:
8000b034:	e5d00008 	ldrb	r0, [r0, #8]
8000b038:	e12fff1e 	bx	lr

8000b03c <USBDeviceGetSpeed>:
8000b03c:	e590000c 	ldr	r0, [r0, #12]
8000b040:	e12fff1e 	bx	lr

8000b044 <USBDeviceGetHubAddress>:
8000b044:	e5d00014 	ldrb	r0, [r0, #20]
8000b048:	e12fff1e 	bx	lr

8000b04c <USBDeviceGetHubPortNumber>:
8000b04c:	e5d00015 	ldrb	r0, [r0, #21]
8000b050:	e12fff1e 	bx	lr

8000b054 <USBDeviceGetEndpoint0>:
8000b054:	e5900010 	ldr	r0, [r0, #16]
8000b058:	e12fff1e 	bx	lr

8000b05c <USBDeviceGetHost>:
8000b05c:	e5900004 	ldr	r0, [r0, #4]
8000b060:	e12fff1e 	bx	lr

8000b064 <USBDeviceGetDeviceDescriptor>:
8000b064:	e5900018 	ldr	r0, [r0, #24]
8000b068:	e12fff1e 	bx	lr

8000b06c <USBDeviceGetConfigurationDescriptor>:
8000b06c:	e590001c 	ldr	r0, [r0, #28]
8000b070:	e12fff1e 	bx	lr

8000b074 <USBDeviceGetDescriptor>:
8000b074:	e5900020 	ldr	r0, [r0, #32]
8000b078:	ea0008fd 	b	8000d474 <USBConfigurationParserGetDescriptor>

8000b07c <USBDeviceConfigurationError>:
8000b07c:	e5900020 	ldr	r0, [r0, #32]
8000b080:	ea000924 	b	8000d518 <USBConfigurationParserError>

8000b084 <USBDeviceSetAddress>:
8000b084:	e5c01008 	strb	r1, [r0, #8]
8000b088:	e12fff1e 	bx	lr

8000b08c <GetDevice>:
8000b08c:	e92d4070 	push	{r4, r5, r6, lr}
8000b090:	e1a04001 	mov	r4, r1
8000b094:	e30810dc 	movw	r1, #32988	; 0x80dc
8000b098:	e1a06000 	mov	r6, r0
8000b09c:	e3481001 	movt	r1, #32769	; 0x8001
8000b0a0:	e1a00004 	mov	r0, r4
8000b0a4:	ebfff69b 	bl	80008b18 <StringCompare>
8000b0a8:	e3500000 	cmp	r0, #0
8000b0ac:	1a000015 	bne	8000b108 <GetDevice+0x7c>
8000b0b0:	e3a00084 	mov	r0, #132	; 0x84
8000b0b4:	eb001a4e 	bl	800119f4 <malloc>
8000b0b8:	e1a01006 	mov	r1, r6
8000b0bc:	e1a05000 	mov	r5, r0
8000b0c0:	eb000964 	bl	8000d658 <USBStandardHub>
8000b0c4:	e3550000 	cmp	r5, #0
8000b0c8:	0a000008 	beq	8000b0f0 <GetDevice+0x64>
8000b0cc:	e1a00004 	mov	r0, r4
8000b0d0:	ebfff656 	bl	80008a30 <StringGet>
8000b0d4:	e1a03000 	mov	r3, r0
8000b0d8:	e308213c 	movw	r2, #33084	; 0x813c
8000b0dc:	e3482001 	movt	r2, #32769	; 0x8001
8000b0e0:	e308014c 	movw	r0, #33100	; 0x814c
8000b0e4:	e3480001 	movt	r0, #32769	; 0x8001
8000b0e8:	e3a01003 	mov	r1, #3
8000b0ec:	eb001a9a 	bl	80011b5c <LogWrite>
8000b0f0:	e1a00004 	mov	r0, r4
8000b0f4:	ebfff643 	bl	80008a08 <_String>
8000b0f8:	e1a00004 	mov	r0, r4
8000b0fc:	eb001a43 	bl	80011a10 <free>
8000b100:	e1a00005 	mov	r0, r5
8000b104:	e8bd8070 	pop	{r4, r5, r6, pc}
8000b108:	e30810e8 	movw	r1, #33000	; 0x80e8
8000b10c:	e1a00004 	mov	r0, r4
8000b110:	e3481001 	movt	r1, #32769	; 0x8001
8000b114:	ebfff67f 	bl	80008b18 <StringCompare>
8000b118:	e3500000 	cmp	r0, #0
8000b11c:	1a000005 	bne	8000b138 <GetDevice+0xac>
8000b120:	e3a00058 	mov	r0, #88	; 0x58
8000b124:	eb001a32 	bl	800119f4 <malloc>
8000b128:	e1a01006 	mov	r1, r6
8000b12c:	e1a05000 	mov	r5, r0
8000b130:	eb000c97 	bl	8000e394 <USBBulkOnlyMassStorageDevice>
8000b134:	eaffffe2 	b	8000b0c4 <GetDevice+0x38>
8000b138:	e30810f4 	movw	r1, #33012	; 0x80f4
8000b13c:	e1a00004 	mov	r0, r4
8000b140:	e3481001 	movt	r1, #32769	; 0x8001
8000b144:	ebfff673 	bl	80008b18 <StringCompare>
8000b148:	e3500000 	cmp	r0, #0
8000b14c:	0a00000b 	beq	8000b180 <GetDevice+0xf4>
8000b150:	e3081100 	movw	r1, #33024	; 0x8100
8000b154:	e1a00004 	mov	r0, r4
8000b158:	e3481001 	movt	r1, #32769	; 0x8001
8000b15c:	ebfff66d 	bl	80008b18 <StringCompare>
8000b160:	e3500000 	cmp	r0, #0
8000b164:	1a00000b 	bne	8000b198 <GetDevice+0x10c>
8000b168:	e3a00050 	mov	r0, #80	; 0x50
8000b16c:	eb001a20 	bl	800119f4 <malloc>
8000b170:	e1a01006 	mov	r1, r6
8000b174:	e1a05000 	mov	r5, r0
8000b178:	eb001d69 	bl	80012724 <USBMouseDevice>
8000b17c:	eaffffd0 	b	8000b0c4 <GetDevice+0x38>
8000b180:	e3a00e47 	mov	r0, #1136	; 0x470
8000b184:	eb001a1a 	bl	800119f4 <malloc>
8000b188:	e1a01006 	mov	r1, r6
8000b18c:	e1a05000 	mov	r5, r0
8000b190:	eb002b6c 	bl	80015f48 <USBKeyboardDevice>
8000b194:	eaffffca 	b	8000b0c4 <GetDevice+0x38>
8000b198:	e308110c 	movw	r1, #33036	; 0x810c
8000b19c:	e1a00004 	mov	r0, r4
8000b1a0:	e3481001 	movt	r1, #32769	; 0x8001
8000b1a4:	ebfff65b 	bl	80008b18 <StringCompare>
8000b1a8:	e3500000 	cmp	r0, #0
8000b1ac:	0a00000b 	beq	8000b1e0 <GetDevice+0x154>
8000b1b0:	e3081118 	movw	r1, #33048	; 0x8118
8000b1b4:	e1a00004 	mov	r0, r4
8000b1b8:	e3481001 	movt	r1, #32769	; 0x8001
8000b1bc:	ebfff655 	bl	80008b18 <StringCompare>
8000b1c0:	e3500000 	cmp	r0, #0
8000b1c4:	1a00000b 	bne	8000b1f8 <GetDevice+0x16c>
8000b1c8:	e3a00054 	mov	r0, #84	; 0x54
8000b1cc:	eb001a08 	bl	800119f4 <malloc>
8000b1d0:	e1a01006 	mov	r1, r6
8000b1d4:	e1a05000 	mov	r5, r0
8000b1d8:	eb001e74 	bl	80012bb0 <LAN7800Device>
8000b1dc:	eaffffb8 	b	8000b0c4 <GetDevice+0x38>
8000b1e0:	e3a00054 	mov	r0, #84	; 0x54
8000b1e4:	eb001a02 	bl	800119f4 <malloc>
8000b1e8:	e1a01006 	mov	r1, r6
8000b1ec:	e1a05000 	mov	r5, r0
8000b1f0:	eb000f40 	bl	8000eef8 <SMSC951xDevice>
8000b1f4:	eaffffb2 	b	8000b0c4 <GetDevice+0x38>
8000b1f8:	e3081124 	movw	r1, #33060	; 0x8124
8000b1fc:	e1a00004 	mov	r0, r4
8000b200:	e3481001 	movt	r1, #32769	; 0x8001
8000b204:	ebfff643 	bl	80008b18 <StringCompare>
8000b208:	e3500000 	cmp	r0, #0
8000b20c:	1a000005 	bne	8000b228 <GetDevice+0x19c>
8000b210:	e3a000d4 	mov	r0, #212	; 0xd4
8000b214:	eb0019f6 	bl	800119f4 <malloc>
8000b218:	e1a01006 	mov	r1, r6
8000b21c:	e1a05000 	mov	r5, r0
8000b220:	eb002e97 	bl	80016c84 <USBGamePadDevice>
8000b224:	eaffffa6 	b	8000b0c4 <GetDevice+0x38>
8000b228:	e3081130 	movw	r1, #33072	; 0x8130
8000b22c:	e1a00004 	mov	r0, r4
8000b230:	e3481001 	movt	r1, #32769	; 0x8001
8000b234:	ebfff637 	bl	80008b18 <StringCompare>
8000b238:	e3500000 	cmp	r0, #0
8000b23c:	13a05000 	movne	r5, #0
8000b240:	1affffaa 	bne	8000b0f0 <GetDevice+0x64>
8000b244:	e3a00050 	mov	r0, #80	; 0x50
8000b248:	eb0019e9 	bl	800119f4 <malloc>
8000b24c:	e1a01006 	mov	r1, r6
8000b250:	e1a05000 	mov	r5, r0
8000b254:	ebfffdc2 	bl	8000a964 <USBMIDIDevice>
8000b258:	eaffff99 	b	8000b0c4 <GetDevice+0x38>

8000b25c <USBDeviceFactoryGetDevice>:
8000b25c:	e92d4010 	push	{r4, lr}
8000b260:	e3a01000 	mov	r1, #0
8000b264:	e1a04000 	mov	r4, r0
8000b268:	ebffff31 	bl	8000af34 <USBDeviceGetName>
8000b26c:	e1a01000 	mov	r1, r0
8000b270:	e1a00004 	mov	r0, r4
8000b274:	ebffff84 	bl	8000b08c <GetDevice>
8000b278:	e3500000 	cmp	r0, #0
8000b27c:	18bd8010 	popne	{r4, pc}
8000b280:	e3a01001 	mov	r1, #1
8000b284:	e1a00004 	mov	r0, r4
8000b288:	ebffff29 	bl	8000af34 <USBDeviceGetName>
8000b28c:	e1a01000 	mov	r1, r0
8000b290:	e1a00004 	mov	r0, r4
8000b294:	ebffff7c 	bl	8000b08c <GetDevice>
8000b298:	e3500000 	cmp	r0, #0
8000b29c:	18bd8010 	popne	{r4, pc}
8000b2a0:	e3a01002 	mov	r1, #2
8000b2a4:	e1a00004 	mov	r0, r4
8000b2a8:	ebffff21 	bl	8000af34 <USBDeviceGetName>
8000b2ac:	e1a01000 	mov	r1, r0
8000b2b0:	e1a00004 	mov	r0, r4
8000b2b4:	e8bd4010 	pop	{r4, lr}
8000b2b8:	eaffff73 	b	8000b08c <GetDevice>

8000b2bc <consoleread>:
8000b2bc:	e92d47f0 	push	{r4, r5, r6, r7, r8, r9, sl, lr}
8000b2c0:	e1a06002 	mov	r6, r2
8000b2c4:	e1a08001 	mov	r8, r1
8000b2c8:	e1a09000 	mov	r9, r0
8000b2cc:	eb00304d 	bl	80017408 <iunlock>
8000b2d0:	e30a0c98 	movw	r0, #44184	; 0xac98
8000b2d4:	e3480009 	movt	r0, #32777	; 0x8009
8000b2d8:	eb0002c2 	bl	8000bde8 <acquire>
8000b2dc:	e3560000 	cmp	r6, #0
8000b2e0:	d3a06000 	movle	r6, #0
8000b2e4:	da00002a 	ble	8000b394 <consoleread+0xd8>
8000b2e8:	e30a4c98 	movw	r4, #44184	; 0xac98
8000b2ec:	e30aab14 	movw	sl, #43796	; 0xab14
8000b2f0:	e3484009 	movt	r4, #32777	; 0x8009
8000b2f4:	e1a07006 	mov	r7, r6
8000b2f8:	e348a009 	movt	sl, #32777	; 0x8009
8000b2fc:	e1a05004 	mov	r5, r4
8000b300:	e59430b4 	ldr	r3, [r4, #180]	; 0xb4
8000b304:	e59420b8 	ldr	r2, [r4, #184]	; 0xb8
8000b308:	e1520003 	cmp	r2, r3
8000b30c:	0a000007 	beq	8000b330 <consoleread+0x74>
8000b310:	ea000012 	b	8000b360 <consoleread+0xa4>
8000b314:	e59f00ac 	ldr	r0, [pc, #172]	; 8000b3c8 <consoleread+0x10c>
8000b318:	e1a01005 	mov	r1, r5
8000b31c:	eb002954 	bl	80015874 <sleep>
8000b320:	e59430b4 	ldr	r3, [r4, #180]	; 0xb4
8000b324:	e59420b8 	ldr	r2, [r4, #184]	; 0xb8
8000b328:	e1530002 	cmp	r3, r2
8000b32c:	1a00000b 	bne	8000b360 <consoleread+0xa4>
8000b330:	e59a3018 	ldr	r3, [sl, #24]
8000b334:	e5933024 	ldr	r3, [r3, #36]	; 0x24
8000b338:	e3530000 	cmp	r3, #0
8000b33c:	0afffff4 	beq	8000b314 <consoleread+0x58>
8000b340:	e30a0c98 	movw	r0, #44184	; 0xac98
8000b344:	e3e06000 	mvn	r6, #0
8000b348:	e3480009 	movt	r0, #32777	; 0x8009
8000b34c:	eb0002db 	bl	8000bec0 <release>
8000b350:	e1a00009 	mov	r0, r9
8000b354:	eb002fe9 	bl	80017300 <ilock>
8000b358:	e1a00006 	mov	r0, r6
8000b35c:	e8bd87f0 	pop	{r4, r5, r6, r7, r8, r9, sl, pc}
8000b360:	e203207f 	and	r2, r3, #127	; 0x7f
8000b364:	e2831001 	add	r1, r3, #1
8000b368:	e0842002 	add	r2, r4, r2
8000b36c:	e58410b4 	str	r1, [r4, #180]	; 0xb4
8000b370:	e5d22034 	ldrb	r2, [r2, #52]	; 0x34
8000b374:	e3520004 	cmp	r2, #4
8000b378:	0a00000c 	beq	8000b3b0 <consoleread+0xf4>
8000b37c:	e4c82001 	strb	r2, [r8], #1
8000b380:	e352000a 	cmp	r2, #10
8000b384:	e2477001 	sub	r7, r7, #1
8000b388:	0a00000c 	beq	8000b3c0 <consoleread+0x104>
8000b38c:	e3570000 	cmp	r7, #0
8000b390:	1affffda 	bne	8000b300 <consoleread+0x44>
8000b394:	e30a0c98 	movw	r0, #44184	; 0xac98
8000b398:	e3480009 	movt	r0, #32777	; 0x8009
8000b39c:	eb0002c7 	bl	8000bec0 <release>
8000b3a0:	e1a00009 	mov	r0, r9
8000b3a4:	eb002fd5 	bl	80017300 <ilock>
8000b3a8:	e1a00006 	mov	r0, r6
8000b3ac:	e8bd87f0 	pop	{r4, r5, r6, r7, r8, r9, sl, pc}
8000b3b0:	e1570006 	cmp	r7, r6
8000b3b4:	358430b4 	strcc	r3, [r4, #180]	; 0xb4
8000b3b8:	e0466007 	sub	r6, r6, r7
8000b3bc:	eafffff4 	b	8000b394 <consoleread+0xd8>
8000b3c0:	e0466007 	sub	r6, r6, r7
8000b3c4:	eafffff2 	b	8000b394 <consoleread+0xd8>
8000b3c8:	8009ad4c 	.word	0x8009ad4c

8000b3cc <setgpucolour>:
8000b3cc:	e30a3870 	movw	r3, #43120	; 0xa870
8000b3d0:	e3483009 	movt	r3, #32777	; 0x8009
8000b3d4:	e5830000 	str	r0, [r3]
8000b3d8:	e12fff1e 	bx	lr

8000b3dc <initframebuf>:
8000b3dc:	e30a3940 	movw	r3, #43328	; 0xa940
8000b3e0:	e3a0c000 	mov	ip, #0
8000b3e4:	e3483009 	movt	r3, #32777	; 0x8009
8000b3e8:	e92d4010 	push	{r4, lr}
8000b3ec:	e1a0e001 	mov	lr, r1
8000b3f0:	e5830000 	str	r0, [r3]
8000b3f4:	e1a04000 	mov	r4, r0
8000b3f8:	e5831004 	str	r1, [r3, #4]
8000b3fc:	e1a00003 	mov	r0, r3
8000b400:	e5834008 	str	r4, [r3, #8]
8000b404:	e3a01001 	mov	r1, #1
8000b408:	e583e00c 	str	lr, [r3, #12]
8000b40c:	e5832014 	str	r2, [r3, #20]
8000b410:	e583c010 	str	ip, [r3, #16]
8000b414:	e583c018 	str	ip, [r3, #24]
8000b418:	e583c01c 	str	ip, [r3, #28]
8000b41c:	e583c020 	str	ip, [r3, #32]
8000b420:	e583c024 	str	ip, [r3, #36]	; 0x24
8000b424:	eb00087c 	bl	8000d61c <writemailbox>
8000b428:	e3a00001 	mov	r0, #1
8000b42c:	e8bd4010 	pop	{r4, lr}
8000b430:	ea00086b 	b	8000d5e4 <readmailbox>

8000b434 <drawpixel>:
8000b434:	e30a3870 	movw	r3, #43120	; 0xa870
8000b438:	e3483009 	movt	r3, #32777	; 0x8009
8000b43c:	e5932004 	ldr	r2, [r3, #4]
8000b440:	e1520000 	cmp	r2, r0
8000b444:	912fff1e 	bxls	lr
8000b448:	e593c008 	ldr	ip, [r3, #8]
8000b44c:	e15c0001 	cmp	ip, r1
8000b450:	912fff1e 	bxls	lr
8000b454:	e593c000 	ldr	ip, [r3]
8000b458:	e30a3940 	movw	r3, #43328	; 0xa940
8000b45c:	e0220291 	mla	r2, r1, r2, r0
8000b460:	e3483009 	movt	r3, #32777	; 0x8009
8000b464:	e1a02082 	lsl	r2, r2, #1
8000b468:	e5933020 	ldr	r3, [r3, #32]
8000b46c:	e183c0b2 	strh	ip, [r3, r2]
8000b470:	e12fff1e 	bx	lr

8000b474 <drawcursor>:
8000b474:	e30a3870 	movw	r3, #43120	; 0xa870
8000b478:	e30a2940 	movw	r2, #43328	; 0xa940
8000b47c:	e3483009 	movt	r3, #32777	; 0x8009
8000b480:	e3482009 	movt	r2, #32777	; 0x8009
8000b484:	e593c004 	ldr	ip, [r3, #4]
8000b488:	e92d41f0 	push	{r4, r5, r6, r7, r8, lr}
8000b48c:	e281800f 	add	r8, r1, #15
8000b490:	e5924020 	ldr	r4, [r2, #32]
8000b494:	e280e008 	add	lr, r0, #8
8000b498:	e1a0708c 	lsl	r7, ip, #1
8000b49c:	e0244197 	mla	r4, r7, r1, r4
8000b4a0:	e5935008 	ldr	r5, [r3, #8]
8000b4a4:	e1d360b0 	ldrh	r6, [r3]
8000b4a8:	e1a03000 	mov	r3, r0
8000b4ac:	e15c0003 	cmp	ip, r3
8000b4b0:	e1a02083 	lsl	r2, r3, #1
8000b4b4:	e2833001 	add	r3, r3, #1
8000b4b8:	9a000001 	bls	8000b4c4 <drawcursor+0x50>
8000b4bc:	e1550001 	cmp	r5, r1
8000b4c0:	818260b4 	strhhi	r6, [r2, r4]
8000b4c4:	e15e0003 	cmp	lr, r3
8000b4c8:	1afffff7 	bne	8000b4ac <drawcursor+0x38>
8000b4cc:	e0844007 	add	r4, r4, r7
8000b4d0:	e2811001 	add	r1, r1, #1
8000b4d4:	e1510008 	cmp	r1, r8
8000b4d8:	1afffff2 	bne	8000b4a8 <drawcursor+0x34>
8000b4dc:	e8bd81f0 	pop	{r4, r5, r6, r7, r8, pc}

8000b4e0 <drawcharacter>:
8000b4e0:	e3100080 	tst	r0, #128	; 0x80
8000b4e4:	112fff1e 	bxne	lr
8000b4e8:	e30a3870 	movw	r3, #43120	; 0xa870
8000b4ec:	e30ac940 	movw	ip, #43328	; 0xa940
8000b4f0:	e3483009 	movt	r3, #32777	; 0x8009
8000b4f4:	e92d47f0 	push	{r4, r5, r6, r7, r8, r9, sl, lr}
8000b4f8:	e30a7000 	movw	r7, #40960	; 0xa000
8000b4fc:	e348c009 	movt	ip, #32777	; 0x8009
8000b500:	e282a00f 	add	sl, r2, #15
8000b504:	e5934004 	ldr	r4, [r3, #4]
8000b508:	e59c5020 	ldr	r5, [ip, #32]
8000b50c:	e02c1294 	mla	ip, r4, r2, r1
8000b510:	e3487001 	movt	r7, #32769	; 0x8001
8000b514:	e085508c 	add	r5, r5, ip, lsl #1
8000b518:	e1a09084 	lsl	r9, r4, #1
8000b51c:	e5936008 	ldr	r6, [r3, #8]
8000b520:	e1d380b0 	ldrh	r8, [r3]
8000b524:	e0877200 	add	r7, r7, r0, lsl #4
8000b528:	e4d7e001 	ldrb	lr, [r7], #1
8000b52c:	e3a03000 	mov	r3, #0
8000b530:	e1a0035e 	asr	r0, lr, r3
8000b534:	e081c003 	add	ip, r1, r3
8000b538:	e3100001 	tst	r0, #1
8000b53c:	0a000004 	beq	8000b554 <drawcharacter+0x74>
8000b540:	e15c0004 	cmp	ip, r4
8000b544:	e1a00083 	lsl	r0, r3, #1
8000b548:	2a000001 	bcs	8000b554 <drawcharacter+0x74>
8000b54c:	e1560002 	cmp	r6, r2
8000b550:	818080b5 	strhhi	r8, [r0, r5]
8000b554:	e2833001 	add	r3, r3, #1
8000b558:	e3530008 	cmp	r3, #8
8000b55c:	1afffff3 	bne	8000b530 <drawcharacter+0x50>
8000b560:	e0855009 	add	r5, r5, r9
8000b564:	e2822001 	add	r2, r2, #1
8000b568:	e152000a 	cmp	r2, sl
8000b56c:	1affffed 	bne	8000b528 <drawcharacter+0x48>
8000b570:	e8bd87f0 	pop	{r4, r5, r6, r7, r8, r9, sl, pc}

8000b574 <gpuputc>:
8000b574:	e92d4070 	push	{r4, r5, r6, lr}
8000b578:	e30a5940 	movw	r5, #43328	; 0xa940
8000b57c:	e3485009 	movt	r5, #32777	; 0x8009
8000b580:	e5953020 	ldr	r3, [r5, #32]
8000b584:	e3530000 	cmp	r3, #0
8000b588:	08bd8070 	popeq	{r4, r5, r6, pc}
8000b58c:	e350000a 	cmp	r0, #10
8000b590:	e1a06000 	mov	r6, r0
8000b594:	e30a4870 	movw	r4, #43120	; 0xa870
8000b598:	0a00000f 	beq	8000b5dc <gpuputc+0x68>
8000b59c:	e3484009 	movt	r4, #32777	; 0x8009
8000b5a0:	e3500c01 	cmp	r0, #256	; 0x100
8000b5a4:	e594000c 	ldr	r0, [r4, #12]
8000b5a8:	1a000035 	bne	8000b684 <gpuputc+0x110>
8000b5ac:	e3500000 	cmp	r0, #0
8000b5b0:	08bd8070 	popeq	{r4, r5, r6, pc}
8000b5b4:	e5942018 	ldr	r2, [r4, #24]
8000b5b8:	e3a03000 	mov	r3, #0
8000b5bc:	e5941014 	ldr	r1, [r4, #20]
8000b5c0:	e0400002 	sub	r0, r0, r2
8000b5c4:	e5843000 	str	r3, [r4]
8000b5c8:	e584000c 	str	r0, [r4, #12]
8000b5cc:	ebffffa8 	bl	8000b474 <drawcursor>
8000b5d0:	e30f3fff 	movw	r3, #65535	; 0xffff
8000b5d4:	e5843000 	str	r3, [r4]
8000b5d8:	e8bd8070 	pop	{r4, r5, r6, pc}
8000b5dc:	e3484009 	movt	r4, #32777	; 0x8009
8000b5e0:	e3a05000 	mov	r5, #0
8000b5e4:	e5942014 	ldr	r2, [r4, #20]
8000b5e8:	e5941010 	ldr	r1, [r4, #16]
8000b5ec:	e594c008 	ldr	ip, [r4, #8]
8000b5f0:	e0812002 	add	r2, r1, r2
8000b5f4:	e152000c 	cmp	r2, ip
8000b5f8:	e5842014 	str	r2, [r4, #20]
8000b5fc:	e584500c 	str	r5, [r4, #12]
8000b600:	38bd8070 	popcc	{r4, r5, r6, pc}
8000b604:	e594e004 	ldr	lr, [r4, #4]
8000b608:	e1a00003 	mov	r0, r3
8000b60c:	e04c2001 	sub	r2, ip, r1
8000b610:	e002029e 	mul	r2, lr, r2
8000b614:	e001019e 	mul	r1, lr, r1
8000b618:	e1a02082 	lsl	r2, r2, #1
8000b61c:	e0831081 	add	r1, r3, r1, lsl #1
8000b620:	ebfffb96 	bl	8000a480 <memmove>
8000b624:	e594000c 	ldr	r0, [r4, #12]
8000b628:	e5942004 	ldr	r2, [r4, #4]
8000b62c:	e5941008 	ldr	r1, [r4, #8]
8000b630:	e5943010 	ldr	r3, [r4, #16]
8000b634:	e1520000 	cmp	r2, r0
8000b638:	e0411003 	sub	r1, r1, r3
8000b63c:	e5845000 	str	r5, [r4]
8000b640:	e5841014 	str	r1, [r4, #20]
8000b644:	8a000001 	bhi	8000b650 <gpuputc+0xdc>
8000b648:	ea000008 	b	8000b670 <gpuputc+0xfc>
8000b64c:	e5941014 	ldr	r1, [r4, #20]
8000b650:	ebffff87 	bl	8000b474 <drawcursor>
8000b654:	e594000c 	ldr	r0, [r4, #12]
8000b658:	e5942018 	ldr	r2, [r4, #24]
8000b65c:	e5943004 	ldr	r3, [r4, #4]
8000b660:	e0800002 	add	r0, r0, r2
8000b664:	e1500003 	cmp	r0, r3
8000b668:	e584000c 	str	r0, [r4, #12]
8000b66c:	3afffff6 	bcc	8000b64c <gpuputc+0xd8>
8000b670:	e30f2fff 	movw	r2, #65535	; 0xffff
8000b674:	e3a03000 	mov	r3, #0
8000b678:	e5842000 	str	r2, [r4]
8000b67c:	e584300c 	str	r3, [r4, #12]
8000b680:	e8bd8070 	pop	{r4, r5, r6, pc}
8000b684:	e5941014 	ldr	r1, [r4, #20]
8000b688:	e3a03000 	mov	r3, #0
8000b68c:	e5843000 	str	r3, [r4]
8000b690:	ebffff77 	bl	8000b474 <drawcursor>
8000b694:	e3560020 	cmp	r6, #32
8000b698:	e30f3fff 	movw	r3, #65535	; 0xffff
8000b69c:	e5843000 	str	r3, [r4]
8000b6a0:	1a00002b 	bne	8000b754 <gpuputc+0x1e0>
8000b6a4:	e594300c 	ldr	r3, [r4, #12]
8000b6a8:	e5942018 	ldr	r2, [r4, #24]
8000b6ac:	e5940004 	ldr	r0, [r4, #4]
8000b6b0:	e0833002 	add	r3, r3, r2
8000b6b4:	e1530000 	cmp	r3, r0
8000b6b8:	e584300c 	str	r3, [r4, #12]
8000b6bc:	38bd8070 	popcc	{r4, r5, r6, pc}
8000b6c0:	e5943014 	ldr	r3, [r4, #20]
8000b6c4:	e3a06000 	mov	r6, #0
8000b6c8:	e594c010 	ldr	ip, [r4, #16]
8000b6cc:	e5942008 	ldr	r2, [r4, #8]
8000b6d0:	e08c3003 	add	r3, ip, r3
8000b6d4:	e1530002 	cmp	r3, r2
8000b6d8:	e5843014 	str	r3, [r4, #20]
8000b6dc:	e584600c 	str	r6, [r4, #12]
8000b6e0:	38bd8070 	popcc	{r4, r5, r6, pc}
8000b6e4:	e042200c 	sub	r2, r2, ip
8000b6e8:	e5951020 	ldr	r1, [r5, #32]
8000b6ec:	e00c009c 	mul	ip, ip, r0
8000b6f0:	e0020290 	mul	r2, r0, r2
8000b6f4:	e1a00001 	mov	r0, r1
8000b6f8:	e1a02082 	lsl	r2, r2, #1
8000b6fc:	e081108c 	add	r1, r1, ip, lsl #1
8000b700:	ebfffb5e 	bl	8000a480 <memmove>
8000b704:	e594000c 	ldr	r0, [r4, #12]
8000b708:	e5942004 	ldr	r2, [r4, #4]
8000b70c:	e5941008 	ldr	r1, [r4, #8]
8000b710:	e5943010 	ldr	r3, [r4, #16]
8000b714:	e1520000 	cmp	r2, r0
8000b718:	e0411003 	sub	r1, r1, r3
8000b71c:	e5846000 	str	r6, [r4]
8000b720:	e5841014 	str	r1, [r4, #20]
8000b724:	8a000001 	bhi	8000b730 <gpuputc+0x1bc>
8000b728:	eaffffd0 	b	8000b670 <gpuputc+0xfc>
8000b72c:	e5941014 	ldr	r1, [r4, #20]
8000b730:	ebffff4f 	bl	8000b474 <drawcursor>
8000b734:	e594000c 	ldr	r0, [r4, #12]
8000b738:	e5942018 	ldr	r2, [r4, #24]
8000b73c:	e5943004 	ldr	r3, [r4, #4]
8000b740:	e0800002 	add	r0, r0, r2
8000b744:	e1500003 	cmp	r0, r3
8000b748:	e584000c 	str	r0, [r4, #12]
8000b74c:	3afffff6 	bcc	8000b72c <gpuputc+0x1b8>
8000b750:	eaffffc6 	b	8000b670 <gpuputc+0xfc>
8000b754:	e5942014 	ldr	r2, [r4, #20]
8000b758:	e6ef0076 	uxtb	r0, r6
8000b75c:	e594100c 	ldr	r1, [r4, #12]
8000b760:	ebffff5e 	bl	8000b4e0 <drawcharacter>
8000b764:	eaffffce 	b	8000b6a4 <gpuputc+0x130>

8000b768 <consolewrite>:
8000b768:	e92d41f0 	push	{r4, r5, r6, r7, r8, lr}
8000b76c:	e1a06002 	mov	r6, r2
8000b770:	e1a04001 	mov	r4, r1
8000b774:	e1a07000 	mov	r7, r0
8000b778:	eb002f22 	bl	80017408 <iunlock>
8000b77c:	e59f0040 	ldr	r0, [pc, #64]	; 8000b7c4 <consolewrite+0x5c>
8000b780:	eb000198 	bl	8000bde8 <acquire>
8000b784:	e3560000 	cmp	r6, #0
8000b788:	da000007 	ble	8000b7ac <consolewrite+0x44>
8000b78c:	e2444001 	sub	r4, r4, #1
8000b790:	e0845006 	add	r5, r4, r6
8000b794:	e5f40001 	ldrb	r0, [r4, #1]!
8000b798:	ebffff75 	bl	8000b574 <gpuputc>
8000b79c:	e5d40000 	ldrb	r0, [r4]
8000b7a0:	eb001074 	bl	8000f978 <uartputc>
8000b7a4:	e1540005 	cmp	r4, r5
8000b7a8:	1afffff9 	bne	8000b794 <consolewrite+0x2c>
8000b7ac:	e59f0010 	ldr	r0, [pc, #16]	; 8000b7c4 <consolewrite+0x5c>
8000b7b0:	eb0001c2 	bl	8000bec0 <release>
8000b7b4:	e1a00007 	mov	r0, r7
8000b7b8:	eb002ed0 	bl	80017300 <ilock>
8000b7bc:	e1a00006 	mov	r0, r6
8000b7c0:	e8bd81f0 	pop	{r4, r5, r6, r7, r8, pc}
8000b7c4:	8009a968 	.word	0x8009a968

8000b7c8 <printint>:
8000b7c8:	e92d47f0 	push	{r4, r5, r6, r7, r8, r9, sl, lr}
8000b7cc:	e2527000 	subs	r7, r2, #0
8000b7d0:	e24dd010 	sub	sp, sp, #16
8000b7d4:	e1a09001 	mov	r9, r1
8000b7d8:	0a000002 	beq	8000b7e8 <printint+0x20>
8000b7dc:	e3500000 	cmp	r0, #0
8000b7e0:	b2604000 	rsblt	r4, r0, #0
8000b7e4:	ba000001 	blt	8000b7f0 <printint+0x28>
8000b7e8:	e1a04000 	mov	r4, r0
8000b7ec:	e3a07000 	mov	r7, #0
8000b7f0:	e3088154 	movw	r8, #33108	; 0x8154
8000b7f4:	e3a0a000 	mov	sl, #0
8000b7f8:	e3488001 	movt	r8, #32769	; 0x8001
8000b7fc:	e1a0600d 	mov	r6, sp
8000b800:	e1a00004 	mov	r0, r4
8000b804:	e1a01009 	mov	r1, r9
8000b808:	ebfffb83 	bl	8000a61c <div>
8000b80c:	e0644990 	mls	r4, r0, r9, r4
8000b810:	e1a0300a 	mov	r3, sl
8000b814:	e7d85004 	ldrb	r5, [r8, r4]
8000b818:	e2504000 	subs	r4, r0, #0
8000b81c:	e7c6500a 	strb	r5, [r6, sl]
8000b820:	e28aa001 	add	sl, sl, #1
8000b824:	1afffff5 	bne	8000b800 <printint+0x38>
8000b828:	e3570000 	cmp	r7, #0
8000b82c:	128d3010 	addne	r3, sp, #16
8000b830:	13a0502d 	movne	r5, #45	; 0x2d
8000b834:	1083300a 	addne	r3, r3, sl
8000b838:	15435010 	strbne	r5, [r3, #-16]
8000b83c:	11a0300a 	movne	r3, sl
8000b840:	e0864003 	add	r4, r6, r3
8000b844:	ea000000 	b	8000b84c <printint+0x84>
8000b848:	e5745001 	ldrb	r5, [r4, #-1]!
8000b84c:	e1a00005 	mov	r0, r5
8000b850:	ebffff47 	bl	8000b574 <gpuputc>
8000b854:	e1a00005 	mov	r0, r5
8000b858:	eb001046 	bl	8000f978 <uartputc>
8000b85c:	e1560004 	cmp	r6, r4
8000b860:	1afffff8 	bne	8000b848 <printint+0x80>
8000b864:	e28dd010 	add	sp, sp, #16
8000b868:	e8bd87f0 	pop	{r4, r5, r6, r7, r8, r9, sl, pc}

8000b86c <panic>:
8000b86c:	e52de004 	push	{lr}		; (str lr, [sp, #-4]!)
8000b870:	e24dd034 	sub	sp, sp, #52	; 0x34
8000b874:	e3a01000 	mov	r1, #0
8000b878:	e3084178 	movw	r4, #33144	; 0x8178
8000b87c:	e58d0004 	str	r0, [sp, #4]
8000b880:	e3080168 	movw	r0, #33128	; 0x8168
8000b884:	e3480001 	movt	r0, #32769	; 0x8001
8000b888:	e28d5008 	add	r5, sp, #8
8000b88c:	e3484001 	movt	r4, #32769	; 0x8001
8000b890:	eb000012 	bl	8000b8e0 <cprintf>
8000b894:	e59d0004 	ldr	r0, [sp, #4]
8000b898:	e28d6030 	add	r6, sp, #48	; 0x30
8000b89c:	eb00000f 	bl	8000b8e0 <cprintf>
8000b8a0:	e308043c 	movw	r0, #33852	; 0x843c
8000b8a4:	e3480001 	movt	r0, #32769	; 0x8001
8000b8a8:	eb00000c 	bl	8000b8e0 <cprintf>
8000b8ac:	e28d1008 	add	r1, sp, #8
8000b8b0:	e28d0004 	add	r0, sp, #4
8000b8b4:	eb000132 	bl	8000bd84 <getcallerpcs>
8000b8b8:	e4951004 	ldr	r1, [r5], #4
8000b8bc:	e1a00004 	mov	r0, r4
8000b8c0:	eb000006 	bl	8000b8e0 <cprintf>
8000b8c4:	e1550006 	cmp	r5, r6
8000b8c8:	1afffffa 	bne	8000b8b8 <panic+0x4c>
8000b8cc:	e30a3870 	movw	r3, #43120	; 0xa870
8000b8d0:	e3a02001 	mov	r2, #1
8000b8d4:	e3483009 	movt	r3, #32777	; 0x8009
8000b8d8:	e583201c 	str	r2, [r3, #28]
8000b8dc:	eafffffe 	b	8000b8dc <panic+0x70>

8000b8e0 <cprintf>:
8000b8e0:	e92d000f 	push	{r0, r1, r2, r3}
8000b8e4:	e30a0940 	movw	r0, #43328	; 0xa940
8000b8e8:	e3480009 	movt	r0, #32777	; 0x8009
8000b8ec:	e92d47f0 	push	{r4, r5, r6, r7, r8, r9, sl, lr}
8000b8f0:	e590905c 	ldr	r9, [r0, #92]	; 0x5c
8000b8f4:	e3590000 	cmp	r9, #0
8000b8f8:	1a000054 	bne	8000ba50 <cprintf+0x170>
8000b8fc:	e59d7020 	ldr	r7, [sp, #32]
8000b900:	e3570000 	cmp	r7, #0
8000b904:	0a000059 	beq	8000ba70 <cprintf+0x190>
8000b908:	e5d75000 	ldrb	r5, [r7]
8000b90c:	e3550000 	cmp	r5, #0
8000b910:	128da024 	addne	sl, sp, #36	; 0x24
8000b914:	13a06000 	movne	r6, #0
8000b918:	1a000013 	bne	8000b96c <cprintf+0x8c>
8000b91c:	ea00001e 	b	8000b99c <cprintf+0xbc>
8000b920:	e7d74003 	ldrb	r4, [r7, r3]
8000b924:	e3540000 	cmp	r4, #0
8000b928:	0a00001b 	beq	8000b99c <cprintf+0xbc>
8000b92c:	e3540070 	cmp	r4, #112	; 0x70
8000b930:	e2866002 	add	r6, r6, #2
8000b934:	e0878006 	add	r8, r7, r6
8000b938:	0a000036 	beq	8000ba18 <cprintf+0x138>
8000b93c:	8a00001b 	bhi	8000b9b0 <cprintf+0xd0>
8000b940:	e3540025 	cmp	r4, #37	; 0x25
8000b944:	0a000038 	beq	8000ba2c <cprintf+0x14c>
8000b948:	e3540064 	cmp	r4, #100	; 0x64
8000b94c:	1a000028 	bne	8000b9f4 <cprintf+0x114>
8000b950:	e49a0004 	ldr	r0, [sl], #4
8000b954:	e3a02001 	mov	r2, #1
8000b958:	e3a0100a 	mov	r1, #10
8000b95c:	ebffff99 	bl	8000b7c8 <printint>
8000b960:	e5d85000 	ldrb	r5, [r8]
8000b964:	e3550000 	cmp	r5, #0
8000b968:	0a00000b 	beq	8000b99c <cprintf+0xbc>
8000b96c:	e3550025 	cmp	r5, #37	; 0x25
8000b970:	e2863001 	add	r3, r6, #1
8000b974:	e0878003 	add	r8, r7, r3
8000b978:	0affffe8 	beq	8000b920 <cprintf+0x40>
8000b97c:	e1a00005 	mov	r0, r5
8000b980:	e1a06003 	mov	r6, r3
8000b984:	ebfffefa 	bl	8000b574 <gpuputc>
8000b988:	e1a00005 	mov	r0, r5
8000b98c:	eb000ff9 	bl	8000f978 <uartputc>
8000b990:	e5d85000 	ldrb	r5, [r8]
8000b994:	e3550000 	cmp	r5, #0
8000b998:	1afffff3 	bne	8000b96c <cprintf+0x8c>
8000b99c:	e3590000 	cmp	r9, #0
8000b9a0:	1a00002d 	bne	8000ba5c <cprintf+0x17c>
8000b9a4:	e8bd47f0 	pop	{r4, r5, r6, r7, r8, r9, sl, lr}
8000b9a8:	e28dd010 	add	sp, sp, #16
8000b9ac:	e12fff1e 	bx	lr
8000b9b0:	e3540073 	cmp	r4, #115	; 0x73
8000b9b4:	1a00000c 	bne	8000b9ec <cprintf+0x10c>
8000b9b8:	e49a4004 	ldr	r4, [sl], #4
8000b9bc:	e3540000 	cmp	r4, #0
8000b9c0:	0a00001e 	beq	8000ba40 <cprintf+0x160>
8000b9c4:	e5d40000 	ldrb	r0, [r4]
8000b9c8:	e3500000 	cmp	r0, #0
8000b9cc:	0affffe3 	beq	8000b960 <cprintf+0x80>
8000b9d0:	ebfffee7 	bl	8000b574 <gpuputc>
8000b9d4:	e5d40000 	ldrb	r0, [r4]
8000b9d8:	eb000fe6 	bl	8000f978 <uartputc>
8000b9dc:	e5f40001 	ldrb	r0, [r4, #1]!
8000b9e0:	e3500000 	cmp	r0, #0
8000b9e4:	1afffff9 	bne	8000b9d0 <cprintf+0xf0>
8000b9e8:	eaffffdc 	b	8000b960 <cprintf+0x80>
8000b9ec:	e3540078 	cmp	r4, #120	; 0x78
8000b9f0:	0a000008 	beq	8000ba18 <cprintf+0x138>
8000b9f4:	e3a00025 	mov	r0, #37	; 0x25
8000b9f8:	ebfffedd 	bl	8000b574 <gpuputc>
8000b9fc:	e3a00025 	mov	r0, #37	; 0x25
8000ba00:	eb000fdc 	bl	8000f978 <uartputc>
8000ba04:	e1a00004 	mov	r0, r4
8000ba08:	ebfffed9 	bl	8000b574 <gpuputc>
8000ba0c:	e1a00004 	mov	r0, r4
8000ba10:	eb000fd8 	bl	8000f978 <uartputc>
8000ba14:	eaffffd1 	b	8000b960 <cprintf+0x80>
8000ba18:	e49a0004 	ldr	r0, [sl], #4
8000ba1c:	e3a02000 	mov	r2, #0
8000ba20:	e3a01010 	mov	r1, #16
8000ba24:	ebffff67 	bl	8000b7c8 <printint>
8000ba28:	eaffffcc 	b	8000b960 <cprintf+0x80>
8000ba2c:	e1a00005 	mov	r0, r5
8000ba30:	ebfffecf 	bl	8000b574 <gpuputc>
8000ba34:	e1a00005 	mov	r0, r5
8000ba38:	eb000fce 	bl	8000f978 <uartputc>
8000ba3c:	eaffffc7 	b	8000b960 <cprintf+0x80>
8000ba40:	e308417c 	movw	r4, #33148	; 0x817c
8000ba44:	e3a00028 	mov	r0, #40	; 0x28
8000ba48:	e3484001 	movt	r4, #32769	; 0x8001
8000ba4c:	eaffffdf 	b	8000b9d0 <cprintf+0xf0>
8000ba50:	e2800028 	add	r0, r0, #40	; 0x28
8000ba54:	eb0000e3 	bl	8000bde8 <acquire>
8000ba58:	eaffffa7 	b	8000b8fc <cprintf+0x1c>
8000ba5c:	e59f0018 	ldr	r0, [pc, #24]	; 8000ba7c <cprintf+0x19c>
8000ba60:	eb000116 	bl	8000bec0 <release>
8000ba64:	e8bd47f0 	pop	{r4, r5, r6, r7, r8, r9, sl, lr}
8000ba68:	e28dd010 	add	sp, sp, #16
8000ba6c:	e12fff1e 	bx	lr
8000ba70:	e3080184 	movw	r0, #33156	; 0x8184
8000ba74:	e3480001 	movt	r0, #32769	; 0x8001
8000ba78:	ebffff7b 	bl	8000b86c <panic>
8000ba7c:	8009a968 	.word	0x8009a968

8000ba80 <consputc>:
8000ba80:	e30a3870 	movw	r3, #43120	; 0xa870
8000ba84:	e3483009 	movt	r3, #32777	; 0x8009
8000ba88:	e92d4010 	push	{r4, lr}
8000ba8c:	e593301c 	ldr	r3, [r3, #28]
8000ba90:	e3530000 	cmp	r3, #0
8000ba94:	1a000008 	bne	8000babc <consputc+0x3c>
8000ba98:	e3500c01 	cmp	r0, #256	; 0x100
8000ba9c:	e1a04000 	mov	r4, r0
8000baa0:	0a000010 	beq	8000bae8 <consputc+0x68>
8000baa4:	e3500004 	cmp	r0, #4
8000baa8:	0a000005 	beq	8000bac4 <consputc+0x44>
8000baac:	ebfffeb0 	bl	8000b574 <gpuputc>
8000bab0:	e1a00004 	mov	r0, r4
8000bab4:	e8bd4010 	pop	{r4, lr}
8000bab8:	ea000fae 	b	8000f978 <uartputc>
8000babc:	ebfff278 	bl	800084a4 <cli>
8000bac0:	eafffffe 	b	8000bac0 <consputc+0x40>
8000bac4:	e3a0005e 	mov	r0, #94	; 0x5e
8000bac8:	ebfffea9 	bl	8000b574 <gpuputc>
8000bacc:	e3a00044 	mov	r0, #68	; 0x44
8000bad0:	ebfffea7 	bl	8000b574 <gpuputc>
8000bad4:	e3a0005e 	mov	r0, #94	; 0x5e
8000bad8:	eb000fa6 	bl	8000f978 <uartputc>
8000badc:	e3a00044 	mov	r0, #68	; 0x44
8000bae0:	e8bd4010 	pop	{r4, lr}
8000bae4:	ea000fa3 	b	8000f978 <uartputc>
8000bae8:	e3a00008 	mov	r0, #8
8000baec:	ebfffea0 	bl	8000b574 <gpuputc>
8000baf0:	e3a00020 	mov	r0, #32
8000baf4:	ebfffe9e 	bl	8000b574 <gpuputc>
8000baf8:	e3a00008 	mov	r0, #8
8000bafc:	ebfffe9c 	bl	8000b574 <gpuputc>
8000bb00:	e3a00008 	mov	r0, #8
8000bb04:	eb000f9b 	bl	8000f978 <uartputc>
8000bb08:	e3a00020 	mov	r0, #32
8000bb0c:	eb000f99 	bl	8000f978 <uartputc>
8000bb10:	e3a00008 	mov	r0, #8
8000bb14:	e8bd4010 	pop	{r4, lr}
8000bb18:	ea000f96 	b	8000f978 <uartputc>

8000bb1c <consoleintr>:
8000bb1c:	e92d41f0 	push	{r4, r5, r6, r7, r8, lr}
8000bb20:	e30a4c98 	movw	r4, #44184	; 0xac98
8000bb24:	e3484009 	movt	r4, #32777	; 0x8009
8000bb28:	e1a05000 	mov	r5, r0
8000bb2c:	e1a00004 	mov	r0, r4
8000bb30:	e28460b4 	add	r6, r4, #180	; 0xb4
8000bb34:	eb0000ab 	bl	8000bde8 <acquire>
8000bb38:	e12fff35 	blx	r5
8000bb3c:	e2507000 	subs	r7, r0, #0
8000bb40:	da00001c 	ble	8000bbb8 <consoleintr+0x9c>
8000bb44:	e3570010 	cmp	r7, #16
8000bb48:	0a000048 	beq	8000bc70 <consoleintr+0x154>
8000bb4c:	da00001d 	ble	8000bbc8 <consoleintr+0xac>
8000bb50:	e3570015 	cmp	r7, #21
8000bb54:	1a00003b 	bne	8000bc48 <consoleintr+0x12c>
8000bb58:	e1c42bd8 	ldrd	r2, [r4, #184]	; 0xb8
8000bb5c:	e1520003 	cmp	r2, r3
8000bb60:	0afffff4 	beq	8000bb38 <consoleintr+0x1c>
8000bb64:	e2433001 	sub	r3, r3, #1
8000bb68:	e203207f 	and	r2, r3, #127	; 0x7f
8000bb6c:	e0842002 	add	r2, r4, r2
8000bb70:	e5d22034 	ldrb	r2, [r2, #52]	; 0x34
8000bb74:	e352000a 	cmp	r2, #10
8000bb78:	0affffee 	beq	8000bb38 <consoleintr+0x1c>
8000bb7c:	e58430bc 	str	r3, [r4, #188]	; 0xbc
8000bb80:	e3a00c01 	mov	r0, #256	; 0x100
8000bb84:	ebffffbd 	bl	8000ba80 <consputc>
8000bb88:	e1c42bd8 	ldrd	r2, [r4, #184]	; 0xb8
8000bb8c:	e1530002 	cmp	r3, r2
8000bb90:	e2433001 	sub	r3, r3, #1
8000bb94:	e203207f 	and	r2, r3, #127	; 0x7f
8000bb98:	e0842002 	add	r2, r4, r2
8000bb9c:	0affffe5 	beq	8000bb38 <consoleintr+0x1c>
8000bba0:	e5d22034 	ldrb	r2, [r2, #52]	; 0x34
8000bba4:	e352000a 	cmp	r2, #10
8000bba8:	1afffff3 	bne	8000bb7c <consoleintr+0x60>
8000bbac:	e12fff35 	blx	r5
8000bbb0:	e2507000 	subs	r7, r0, #0
8000bbb4:	caffffe2 	bgt	8000bb44 <consoleintr+0x28>
8000bbb8:	e30a0c98 	movw	r0, #44184	; 0xac98
8000bbbc:	e3480009 	movt	r0, #32777	; 0x8009
8000bbc0:	e8bd41f0 	pop	{r4, r5, r6, r7, r8, lr}
8000bbc4:	ea0000bd 	b	8000bec0 <release>
8000bbc8:	e3570008 	cmp	r7, #8
8000bbcc:	0a00001f 	beq	8000bc50 <consoleintr+0x134>
8000bbd0:	e59410bc 	ldr	r1, [r4, #188]	; 0xbc
8000bbd4:	e247300d 	sub	r3, r7, #13
8000bbd8:	e59420b4 	ldr	r2, [r4, #180]	; 0xb4
8000bbdc:	e16f3f13 	clz	r3, r3
8000bbe0:	e0412002 	sub	r2, r1, r2
8000bbe4:	e1a032a3 	lsr	r3, r3, #5
8000bbe8:	e352007f 	cmp	r2, #127	; 0x7f
8000bbec:	83833001 	orrhi	r3, r3, #1
8000bbf0:	e3530000 	cmp	r3, #0
8000bbf4:	1affffcf 	bne	8000bb38 <consoleintr+0x1c>
8000bbf8:	e201307f 	and	r3, r1, #127	; 0x7f
8000bbfc:	e1a00007 	mov	r0, r7
8000bc00:	e0843003 	add	r3, r4, r3
8000bc04:	e2811001 	add	r1, r1, #1
8000bc08:	e58410bc 	str	r1, [r4, #188]	; 0xbc
8000bc0c:	e5c37034 	strb	r7, [r3, #52]	; 0x34
8000bc10:	ebffff9a 	bl	8000ba80 <consputc>
8000bc14:	e3570004 	cmp	r7, #4
8000bc18:	1357000a 	cmpne	r7, #10
8000bc1c:	059430bc 	ldreq	r3, [r4, #188]	; 0xbc
8000bc20:	0a000004 	beq	8000bc38 <consoleintr+0x11c>
8000bc24:	e59430b4 	ldr	r3, [r4, #180]	; 0xb4
8000bc28:	e59420bc 	ldr	r2, [r4, #188]	; 0xbc
8000bc2c:	e2833080 	add	r3, r3, #128	; 0x80
8000bc30:	e1520003 	cmp	r2, r3
8000bc34:	1affffbf 	bne	8000bb38 <consoleintr+0x1c>
8000bc38:	e58430b8 	str	r3, [r4, #184]	; 0xb8
8000bc3c:	e1a00006 	mov	r0, r6
8000bc40:	eb00276e 	bl	80015a00 <wakeup>
8000bc44:	eaffffbb 	b	8000bb38 <consoleintr+0x1c>
8000bc48:	e357007f 	cmp	r7, #127	; 0x7f
8000bc4c:	1affffdf 	bne	8000bbd0 <consoleintr+0xb4>
8000bc50:	e1c42bd8 	ldrd	r2, [r4, #184]	; 0xb8
8000bc54:	e1530002 	cmp	r3, r2
8000bc58:	0affffb6 	beq	8000bb38 <consoleintr+0x1c>
8000bc5c:	e2433001 	sub	r3, r3, #1
8000bc60:	e3a00c01 	mov	r0, #256	; 0x100
8000bc64:	e58430bc 	str	r3, [r4, #188]	; 0xbc
8000bc68:	ebffff84 	bl	8000ba80 <consputc>
8000bc6c:	eaffffb1 	b	8000bb38 <consoleintr+0x1c>
8000bc70:	eb002797 	bl	80015ad4 <procdump>
8000bc74:	eaffffaf 	b	8000bb38 <consoleintr+0x1c>

8000bc78 <gpuinit>:
8000bc78:	e30a3870 	movw	r3, #43120	; 0xa870
8000bc7c:	e3483009 	movt	r3, #32777	; 0x8009
8000bc80:	e92d4010 	push	{r4, lr}
8000bc84:	e5932020 	ldr	r2, [r3, #32]
8000bc88:	e1c300d4 	ldrd	r0, [r3, #4]
8000bc8c:	ebfffdd2 	bl	8000b3dc <initframebuf>
8000bc90:	e3500000 	cmp	r0, #0
8000bc94:	1a000006 	bne	8000bcb4 <gpuinit+0x3c>
8000bc98:	e30a2940 	movw	r2, #43328	; 0xa940
8000bc9c:	e3482009 	movt	r2, #32777	; 0x8009
8000bca0:	e5923020 	ldr	r3, [r2, #32]
8000bca4:	e3c33103 	bic	r3, r3, #-1073741824	; 0xc0000000
8000bca8:	e2833101 	add	r3, r3, #1073741824	; 0x40000000
8000bcac:	e5823020 	str	r3, [r2, #32]
8000bcb0:	e8bd8010 	pop	{r4, pc}
8000bcb4:	e30a3940 	movw	r3, #43328	; 0xa940
8000bcb8:	e3080190 	movw	r0, #33168	; 0x8190
8000bcbc:	e3483009 	movt	r3, #32777	; 0x8009
8000bcc0:	e3a02000 	mov	r2, #0
8000bcc4:	e3480001 	movt	r0, #32769	; 0x8001
8000bcc8:	e8bd4010 	pop	{r4, lr}
8000bccc:	e5832020 	str	r2, [r3, #32]
8000bcd0:	eaffff02 	b	8000b8e0 <cprintf>

8000bcd4 <consoleinit>:
8000bcd4:	e92d41f0 	push	{r4, r5, r6, r7, r8, lr}
8000bcd8:	e30a6940 	movw	r6, #43328	; 0xa940
8000bcdc:	e3486009 	movt	r6, #32777	; 0x8009
8000bce0:	e30811b8 	movw	r1, #33208	; 0x81b8
8000bce4:	e3481001 	movt	r1, #32769	; 0x8001
8000bce8:	e30a7c98 	movw	r7, #44184	; 0xac98
8000bcec:	e3487009 	movt	r7, #32777	; 0x8009
8000bcf0:	e3a04000 	mov	r4, #0
8000bcf4:	e5864020 	str	r4, [r6, #32]
8000bcf8:	e2860028 	add	r0, r6, #40	; 0x28
8000bcfc:	e30c5f1c 	movw	r5, #53020	; 0xcf1c
8000bd00:	eb00001a 	bl	8000bd70 <initlock>
8000bd04:	e3485009 	movt	r5, #32777	; 0x8009
8000bd08:	e3a020c0 	mov	r2, #192	; 0xc0
8000bd0c:	e1a01004 	mov	r1, r4
8000bd10:	e1a00007 	mov	r0, r7
8000bd14:	ebfff9ac 	bl	8000a3cc <memset>
8000bd18:	e30811c0 	movw	r1, #33216	; 0x81c0
8000bd1c:	e1a00007 	mov	r0, r7
8000bd20:	e3481001 	movt	r1, #32769	; 0x8001
8000bd24:	eb000011 	bl	8000bd70 <initlock>
8000bd28:	e1a01004 	mov	r1, r4
8000bd2c:	e3a02050 	mov	r2, #80	; 0x50
8000bd30:	e1a00005 	mov	r0, r5
8000bd34:	ebfff9a4 	bl	8000a3cc <memset>
8000bd38:	e30a3870 	movw	r3, #43120	; 0xa870
8000bd3c:	e30b1768 	movw	r1, #46952	; 0xb768
8000bd40:	e3483009 	movt	r3, #32777	; 0x8009
8000bd44:	e30b22bc 	movw	r2, #45756	; 0xb2bc
8000bd48:	e3481000 	movt	r1, #32768	; 0x8000
8000bd4c:	e3a00001 	mov	r0, #1
8000bd50:	e3482000 	movt	r2, #32768	; 0x8000
8000bd54:	e585100c 	str	r1, [r5, #12]
8000bd58:	e5852008 	str	r2, [r5, #8]
8000bd5c:	e586005c 	str	r0, [r6, #92]	; 0x5c
8000bd60:	e583401c 	str	r4, [r3, #28]
8000bd64:	e5834014 	str	r4, [r3, #20]
8000bd68:	e583400c 	str	r4, [r3, #12]
8000bd6c:	e8bd81f0 	pop	{r4, r5, r6, r7, r8, pc}

8000bd70 <initlock>:
8000bd70:	e5801004 	str	r1, [r0, #4]
8000bd74:	e3a03000 	mov	r3, #0
8000bd78:	e5803000 	str	r3, [r0]
8000bd7c:	e5803008 	str	r3, [r0, #8]
8000bd80:	e12fff1e 	bx	lr

8000bd84 <getcallerpcs>:
8000bd84:	e12fff1e 	bx	lr

8000bd88 <holding>:
8000bd88:	e5903000 	ldr	r3, [r0]
8000bd8c:	e3530000 	cmp	r3, #0
8000bd90:	130a3b14 	movwne	r3, #43796	; 0xab14
8000bd94:	15900008 	ldrne	r0, [r0, #8]
8000bd98:	13483009 	movtne	r3, #32777	; 0x8009
8000bd9c:	10400003 	subne	r0, r0, r3
8000bda0:	116f0f10 	clzne	r0, r0
8000bda4:	11a002a0 	lsrne	r0, r0, #5
8000bda8:	01a00003 	moveq	r0, r3
8000bdac:	e12fff1e 	bx	lr

8000bdb0 <pushcli>:
8000bdb0:	e92d4010 	push	{r4, lr}
8000bdb4:	ebfff1b8 	bl	8000849c <readcpsr>
8000bdb8:	e1a04000 	mov	r4, r0
8000bdbc:	ebfff1b8 	bl	800084a4 <cli>
8000bdc0:	e30a3b14 	movw	r3, #43796	; 0xab14
8000bdc4:	e3483009 	movt	r3, #32777	; 0x8009
8000bdc8:	e593200c 	ldr	r2, [r3, #12]
8000bdcc:	e3520000 	cmp	r2, #0
8000bdd0:	e2822001 	add	r2, r2, #1
8000bdd4:	e583200c 	str	r2, [r3, #12]
8000bdd8:	02244080 	eoreq	r4, r4, #128	; 0x80
8000bddc:	07e043d4 	ubfxeq	r4, r4, #7, #1
8000bde0:	05834010 	streq	r4, [r3, #16]
8000bde4:	e8bd8010 	pop	{r4, pc}

8000bde8 <acquire>:
8000bde8:	e92d4070 	push	{r4, r5, r6, lr}
8000bdec:	e1a04000 	mov	r4, r0
8000bdf0:	e24dd008 	sub	sp, sp, #8
8000bdf4:	ebffffed 	bl	8000bdb0 <pushcli>
8000bdf8:	e5945000 	ldr	r5, [r4]
8000bdfc:	e3550000 	cmp	r5, #0
8000be00:	030a1b14 	movweq	r1, #43796	; 0xab14
8000be04:	03481009 	movteq	r1, #32777	; 0x8009
8000be08:	0a000004 	beq	8000be20 <acquire+0x38>
8000be0c:	e5946008 	ldr	r6, [r4, #8]
8000be10:	e30a1b14 	movw	r1, #43796	; 0xab14
8000be14:	e3481009 	movt	r1, #32777	; 0x8009
8000be18:	e1560001 	cmp	r6, r1
8000be1c:	0a000004 	beq	8000be34 <acquire+0x4c>
8000be20:	e5841008 	str	r1, [r4, #8]
8000be24:	e3a03001 	mov	r3, #1
8000be28:	e5843000 	str	r3, [r4]
8000be2c:	e28dd008 	add	sp, sp, #8
8000be30:	e8bd8070 	pop	{r4, r5, r6, pc}
8000be34:	e5944004 	ldr	r4, [r4, #4]
8000be38:	ebfff197 	bl	8000849c <readcpsr>
8000be3c:	e58d0000 	str	r0, [sp]
8000be40:	e30801c8 	movw	r0, #33224	; 0x81c8
8000be44:	e3480001 	movt	r0, #32769	; 0x8001
8000be48:	e1a01004 	mov	r1, r4
8000be4c:	e1a03006 	mov	r3, r6
8000be50:	e1a02005 	mov	r2, r5
8000be54:	ebfffea1 	bl	8000b8e0 <cprintf>
8000be58:	e30801f8 	movw	r0, #33272	; 0x81f8
8000be5c:	e3480001 	movt	r0, #32769	; 0x8001
8000be60:	ebfffe81 	bl	8000b86c <panic>

8000be64 <popcli>:
8000be64:	e92d4010 	push	{r4, lr}
8000be68:	ebfff18b 	bl	8000849c <readcpsr>
8000be6c:	e3100080 	tst	r0, #128	; 0x80
8000be70:	0a00000c 	beq	8000bea8 <popcli+0x44>
8000be74:	e30a3b14 	movw	r3, #43796	; 0xab14
8000be78:	e3483009 	movt	r3, #32777	; 0x8009
8000be7c:	e593200c 	ldr	r2, [r3, #12]
8000be80:	e2422001 	sub	r2, r2, #1
8000be84:	e583200c 	str	r2, [r3, #12]
8000be88:	e3520000 	cmp	r2, #0
8000be8c:	ba000008 	blt	8000beb4 <popcli+0x50>
8000be90:	18bd8010 	popne	{r4, pc}
8000be94:	e5933010 	ldr	r3, [r3, #16]
8000be98:	e3530000 	cmp	r3, #0
8000be9c:	08bd8010 	popeq	{r4, pc}
8000bea0:	e8bd4010 	pop	{r4, lr}
8000bea4:	eafff182 	b	800084b4 <sti>
8000bea8:	e3080200 	movw	r0, #33280	; 0x8200
8000beac:	e3480001 	movt	r0, #32769	; 0x8001
8000beb0:	ebfffe6d 	bl	8000b86c <panic>
8000beb4:	e3080218 	movw	r0, #33304	; 0x8218
8000beb8:	e3480001 	movt	r0, #32769	; 0x8001
8000bebc:	ebfffe6a 	bl	8000b86c <panic>

8000bec0 <release>:
8000bec0:	e5903000 	ldr	r3, [r0]
8000bec4:	e3530000 	cmp	r3, #0
8000bec8:	0a000004 	beq	8000bee0 <release+0x20>
8000becc:	e5902008 	ldr	r2, [r0, #8]
8000bed0:	e30a3b14 	movw	r3, #43796	; 0xab14
8000bed4:	e3483009 	movt	r3, #32777	; 0x8009
8000bed8:	e1520003 	cmp	r2, r3
8000bedc:	0a000003 	beq	8000bef0 <release+0x30>
8000bee0:	e3080220 	movw	r0, #33312	; 0x8220
8000bee4:	e92d4010 	push	{r4, lr}
8000bee8:	e3480001 	movt	r0, #32769	; 0x8001
8000beec:	ebfffe5e 	bl	8000b86c <panic>
8000bef0:	e3a03000 	mov	r3, #0
8000bef4:	e580300c 	str	r3, [r0, #12]
8000bef8:	e5803008 	str	r3, [r0, #8]
8000befc:	e5803000 	str	r3, [r0]
8000bf00:	eaffffd7 	b	8000be64 <popcli>

8000bf04 <led25_on>:
8000bf04:	e92d4010 	push	{r4, lr}
8000bf08:	e3a01001 	mov	r1, #1
8000bf0c:	e3a00019 	mov	r0, #25
8000bf10:	eb000e89 	bl	8000f93c <setgpiofunc>
8000bf14:	e3a01001 	mov	r1, #1
8000bf18:	e3a00019 	mov	r0, #25
8000bf1c:	e8bd4010 	pop	{r4, lr}
8000bf20:	ea000e72 	b	8000f8f0 <setgpioval>

8000bf24 <led25_off>:
8000bf24:	e92d4010 	push	{r4, lr}
8000bf28:	e3a01001 	mov	r1, #1
8000bf2c:	e3a00019 	mov	r0, #25
8000bf30:	eb000e81 	bl	8000f93c <setgpiofunc>
8000bf34:	e3a01000 	mov	r1, #0
8000bf38:	e3a00019 	mov	r0, #25
8000bf3c:	e8bd4010 	pop	{r4, lr}
8000bf40:	ea000e6a 	b	8000f8f0 <setgpioval>

8000bf44 <enable_intrs>:
8000bf44:	e3a03cb2 	mov	r3, #45568	; 0xb200
8000bf48:	e34d3000 	movt	r3, #53248	; 0xd000
8000bf4c:	e5932010 	ldr	r2, [r3, #16]
8000bf50:	e3822202 	orr	r2, r2, #536870912	; 0x20000000
8000bf54:	e5832010 	str	r2, [r3, #16]
8000bf58:	e5932018 	ldr	r2, [r3, #24]
8000bf5c:	e3822001 	orr	r2, r2, #1
8000bf60:	e5832018 	str	r2, [r3, #24]
8000bf64:	e12fff1e 	bx	lr

8000bf68 <disable_intrs>:
8000bf68:	e3a03cb2 	mov	r3, #45568	; 0xb200
8000bf6c:	e3e02000 	mvn	r2, #0
8000bf70:	e34d3000 	movt	r3, #53248	; 0xd000
8000bf74:	e3a01000 	mov	r1, #0
8000bf78:	e583201c 	str	r2, [r3, #28]
8000bf7c:	e5832020 	str	r2, [r3, #32]
8000bf80:	e5832024 	str	r2, [r3, #36]	; 0x24
8000bf84:	e583100c 	str	r1, [r3, #12]
8000bf88:	e12fff1e 	bx	lr

8000bf8c <tvinit>:
8000bf8c:	e30812a0 	movw	r1, #33440	; 0x82a0
8000bf90:	e3a00000 	mov	r0, #0
8000bf94:	e92d4010 	push	{r4, lr}
8000bf98:	e3a02040 	mov	r2, #64	; 0x40
8000bf9c:	e3481000 	movt	r1, #32768	; 0x8000
8000bfa0:	e34f0fff 	movt	r0, #65535	; 0xffff
8000bfa4:	ebfff935 	bl	8000a480 <memmove>
8000bfa8:	ebfff09f 	bl	8000822c <dsb_barrier>
8000bfac:	ebfff0a4 	bl	80008244 <flush_idcache>
8000bfb0:	eb001a63 	bl	80012944 <kalloc>
8000bfb4:	e1a04000 	mov	r4, r0
8000bfb8:	e3a02a01 	mov	r2, #4096	; 0x1000
8000bfbc:	e3a01000 	mov	r1, #0
8000bfc0:	ebfff901 	bl	8000a3cc <memset>
8000bfc4:	e2840a01 	add	r0, r4, #4096	; 0x1000
8000bfc8:	e3a010d1 	mov	r1, #209	; 0xd1
8000bfcc:	ebfff129 	bl	80008478 <set_mode_sp>
8000bfd0:	eb001a5b 	bl	80012944 <kalloc>
8000bfd4:	e1a04000 	mov	r4, r0
8000bfd8:	e3a02a01 	mov	r2, #4096	; 0x1000
8000bfdc:	e3a01000 	mov	r1, #0
8000bfe0:	ebfff8f9 	bl	8000a3cc <memset>
8000bfe4:	e2840a01 	add	r0, r4, #4096	; 0x1000
8000bfe8:	e3a010d2 	mov	r1, #210	; 0xd2
8000bfec:	ebfff121 	bl	80008478 <set_mode_sp>
8000bff0:	eb001a53 	bl	80012944 <kalloc>
8000bff4:	e1a04000 	mov	r4, r0
8000bff8:	e3a02a01 	mov	r2, #4096	; 0x1000
8000bffc:	e3a01000 	mov	r1, #0
8000c000:	ebfff8f1 	bl	8000a3cc <memset>
8000c004:	e2840a01 	add	r0, r4, #4096	; 0x1000
8000c008:	e3a010db 	mov	r1, #219	; 0xdb
8000c00c:	ebfff119 	bl	80008478 <set_mode_sp>
8000c010:	eb001a4b 	bl	80012944 <kalloc>
8000c014:	e1a04000 	mov	r4, r0
8000c018:	e3a02a01 	mov	r2, #4096	; 0x1000
8000c01c:	e3a01000 	mov	r1, #0
8000c020:	ebfff8e9 	bl	8000a3cc <memset>
8000c024:	e2840a01 	add	r0, r4, #4096	; 0x1000
8000c028:	e3a010d7 	mov	r1, #215	; 0xd7
8000c02c:	ebfff111 	bl	80008478 <set_mode_sp>
8000c030:	eb001a43 	bl	80012944 <kalloc>
8000c034:	e1a04000 	mov	r4, r0
8000c038:	e3a02a01 	mov	r2, #4096	; 0x1000
8000c03c:	e3a01000 	mov	r1, #0
8000c040:	ebfff8e1 	bl	8000a3cc <memset>
8000c044:	e2840a01 	add	r0, r4, #4096	; 0x1000
8000c048:	e3a010d6 	mov	r1, #214	; 0xd6
8000c04c:	ebfff109 	bl	80008478 <set_mode_sp>
8000c050:	eb001a3b 	bl	80012944 <kalloc>
8000c054:	e1a04000 	mov	r4, r0
8000c058:	e3a02a01 	mov	r2, #4096	; 0x1000
8000c05c:	e3a01000 	mov	r1, #0
8000c060:	ebfff8d9 	bl	8000a3cc <memset>
8000c064:	e2840a01 	add	r0, r4, #4096	; 0x1000
8000c068:	e3a010df 	mov	r1, #223	; 0xdf
8000c06c:	ebfff101 	bl	80008478 <set_mode_sp>
8000c070:	e8bd4010 	pop	{r4, lr}
8000c074:	eafff06c 	b	8000822c <dsb_barrier>

8000c078 <trap_oops>:
8000c078:	e92d4010 	push	{r4, lr}
8000c07c:	e1a04000 	mov	r4, r0
8000c080:	e24dd010 	sub	sp, sp, #16
8000c084:	e3080228 	movw	r0, #33320	; 0x8228
8000c088:	e5941044 	ldr	r1, [r4, #68]	; 0x44
8000c08c:	e5942048 	ldr	r2, [r4, #72]	; 0x48
8000c090:	e5943050 	ldr	r3, [r4, #80]	; 0x50
8000c094:	e3480001 	movt	r0, #32769	; 0x8001
8000c098:	e58d1008 	str	r1, [sp, #8]
8000c09c:	e58d2004 	str	r2, [sp, #4]
8000c0a0:	e58d3000 	str	r3, [sp]
8000c0a4:	e5943000 	ldr	r3, [r4]
8000c0a8:	e594204c 	ldr	r2, [r4, #76]	; 0x4c
8000c0ac:	e5941040 	ldr	r1, [r4, #64]	; 0x40
8000c0b0:	ebfffe0a 	bl	8000b8e0 <cprintf>
8000c0b4:	e5941018 	ldr	r1, [r4, #24]
8000c0b8:	e3080260 	movw	r0, #33376	; 0x8260
8000c0bc:	e5942014 	ldr	r2, [r4, #20]
8000c0c0:	e5943010 	ldr	r3, [r4, #16]
8000c0c4:	e3480001 	movt	r0, #32769	; 0x8001
8000c0c8:	e58d1008 	str	r1, [sp, #8]
8000c0cc:	e58d2004 	str	r2, [sp, #4]
8000c0d0:	e58d3000 	str	r3, [sp]
8000c0d4:	e1c420d8 	ldrd	r2, [r4, #8]
8000c0d8:	e5941004 	ldr	r1, [r4, #4]
8000c0dc:	ebfffdff 	bl	8000b8e0 <cprintf>
8000c0e0:	e5941030 	ldr	r1, [r4, #48]	; 0x30
8000c0e4:	e30802a4 	movw	r0, #33444	; 0x82a4
8000c0e8:	e594202c 	ldr	r2, [r4, #44]	; 0x2c
8000c0ec:	e5943028 	ldr	r3, [r4, #40]	; 0x28
8000c0f0:	e594c034 	ldr	ip, [r4, #52]	; 0x34
8000c0f4:	e3480001 	movt	r0, #32769	; 0x8001
8000c0f8:	e58dc00c 	str	ip, [sp, #12]
8000c0fc:	e58d1008 	str	r1, [sp, #8]
8000c100:	e58d2004 	str	r2, [sp, #4]
8000c104:	e58d3000 	str	r3, [sp]
8000c108:	e1c422d0 	ldrd	r2, [r4, #32]
8000c10c:	e594101c 	ldr	r1, [r4, #28]
8000c110:	ebfffdf2 	bl	8000b8e0 <cprintf>
8000c114:	e28dd010 	add	sp, sp, #16
8000c118:	e8bd8010 	pop	{r4, pc}

8000c11c <handle_irq>:
8000c11c:	e92d4010 	push	{r4, lr}
8000c120:	e3a04cb2 	mov	r4, #45568	; 0xb200
8000c124:	e34d4000 	movt	r4, #53248	; 0xd000
8000c128:	ea000002 	b	8000c138 <handle_irq+0x1c>
8000c12c:	e5943004 	ldr	r3, [r4, #4]
8000c130:	e3130202 	tst	r3, #536870912	; 0x20000000
8000c134:	1a00000f 	bne	8000c178 <handle_irq+0x5c>
8000c138:	e5943004 	ldr	r3, [r4, #4]
8000c13c:	e3530000 	cmp	r3, #0
8000c140:	1a000005 	bne	8000c15c <handle_irq+0x40>
8000c144:	e5943008 	ldr	r3, [r4, #8]
8000c148:	e3530000 	cmp	r3, #0
8000c14c:	1a000002 	bne	8000c15c <handle_irq+0x40>
8000c150:	e5943000 	ldr	r3, [r4]
8000c154:	e3530000 	cmp	r3, #0
8000c158:	08bd8010 	popeq	{r4, pc}
8000c15c:	e5943004 	ldr	r3, [r4, #4]
8000c160:	e3130008 	tst	r3, #8
8000c164:	0afffff0 	beq	8000c12c <handle_irq+0x10>
8000c168:	eb0027c1 	bl	80016074 <timer3intr>
8000c16c:	e5943004 	ldr	r3, [r4, #4]
8000c170:	e3130202 	tst	r3, #536870912	; 0x20000000
8000c174:	0affffef 	beq	8000c138 <handle_irq+0x1c>
8000c178:	eb000e21 	bl	8000fa04 <miniuartintr>
8000c17c:	eaffffed 	b	8000c138 <handle_irq+0x1c>

8000c180 <trap>:
8000c180:	e590c040 	ldr	ip, [r0, #64]	; 0x40
8000c184:	e92d41f0 	push	{r4, r5, r6, r7, r8, lr}
8000c188:	e35c0040 	cmp	ip, #64	; 0x40
8000c18c:	e24dd018 	sub	sp, sp, #24
8000c190:	e1a07000 	mov	r7, r0
8000c194:	0a00006b 	beq	8000c348 <trap+0x1c8>
8000c198:	e35c0080 	cmp	ip, #128	; 0x80
8000c19c:	0a00001d 	beq	8000c218 <trap+0x98>
8000c1a0:	e590e04c 	ldr	lr, [r0, #76]	; 0x4c
8000c1a4:	e30a4b14 	movw	r4, #43796	; 0xab14
8000c1a8:	e3484009 	movt	r4, #32777	; 0x8009
8000c1ac:	e5906050 	ldr	r6, [r0, #80]	; 0x50
8000c1b0:	e5942018 	ldr	r2, [r4, #24]
8000c1b4:	e5d45000 	ldrb	r5, [r4]
8000c1b8:	e5908048 	ldr	r8, [r0, #72]	; 0x48
8000c1bc:	e3520000 	cmp	r2, #0
8000c1c0:	e5903044 	ldr	r3, [r0, #68]	; 0x44
8000c1c4:	0a00007b 	beq	8000c3b8 <trap+0x238>
8000c1c8:	e31e000f 	tst	lr, #15
8000c1cc:	1a000079 	bne	8000c3b8 <trap+0x238>
8000c1d0:	e5921010 	ldr	r1, [r2, #16]
8000c1d4:	e3080338 	movw	r0, #33592	; 0x8338
8000c1d8:	e58d3010 	str	r3, [sp, #16]
8000c1dc:	e282206c 	add	r2, r2, #108	; 0x6c
8000c1e0:	e58d800c 	str	r8, [sp, #12]
8000c1e4:	e1a0300c 	mov	r3, ip
8000c1e8:	e58de008 	str	lr, [sp, #8]
8000c1ec:	e88d0060 	stm	sp, {r5, r6}
8000c1f0:	e3480001 	movt	r0, #32769	; 0x8001
8000c1f4:	ebfffdb9 	bl	8000b8e0 <cprintf>
8000c1f8:	e597304c 	ldr	r3, [r7, #76]	; 0x4c
8000c1fc:	e3a01001 	mov	r1, #1
8000c200:	e5942018 	ldr	r2, [r4, #24]
8000c204:	e313000f 	tst	r3, #15
8000c208:	e5821024 	str	r1, [r2, #36]	; 0x24
8000c20c:	0a00005b 	beq	8000c380 <trap+0x200>
8000c210:	e28dd018 	add	sp, sp, #24
8000c214:	e8bd81f0 	pop	{r4, r5, r6, r7, r8, pc}
8000c218:	e3a04cb2 	mov	r4, #45568	; 0xb200
8000c21c:	e30a5d60 	movw	r5, #44384	; 0xad60
8000c220:	e34d4000 	movt	r4, #53248	; 0xd000
8000c224:	e30a6d5c 	movw	r6, #44380	; 0xad5c
8000c228:	e3485009 	movt	r5, #32777	; 0x8009
8000c22c:	e3a08000 	mov	r8, #0
8000c230:	e3486009 	movt	r6, #32777	; 0x8009
8000c234:	e5943004 	ldr	r3, [r4, #4]
8000c238:	e3530000 	cmp	r3, #0
8000c23c:	1a000005 	bne	8000c258 <trap+0xd8>
8000c240:	e5943008 	ldr	r3, [r4, #8]
8000c244:	e3530000 	cmp	r3, #0
8000c248:	1a000002 	bne	8000c258 <trap+0xd8>
8000c24c:	e5943000 	ldr	r3, [r4]
8000c250:	e3530000 	cmp	r3, #0
8000c254:	0a00002a 	beq	8000c304 <trap+0x184>
8000c258:	e5943004 	ldr	r3, [r4, #4]
8000c25c:	e3130008 	tst	r3, #8
8000c260:	1a000022 	bne	8000c2f0 <trap+0x170>
8000c264:	e5943004 	ldr	r3, [r4, #4]
8000c268:	e3a01001 	mov	r1, #1
8000c26c:	e5952000 	ldr	r2, [r5]
8000c270:	e0133211 	ands	r3, r3, r1, lsl r2
8000c274:	0a000004 	beq	8000c28c <trap+0x10c>
8000c278:	e5960000 	ldr	r0, [r6]
8000c27c:	e30a3d98 	movw	r3, #44440	; 0xad98
8000c280:	e3483009 	movt	r3, #32777	; 0x8009
8000c284:	e5933000 	ldr	r3, [r3]
8000c288:	e12fff33 	blx	r3
8000c28c:	e5942004 	ldr	r2, [r4, #4]
8000c290:	e30a3da4 	movw	r3, #44452	; 0xada4
8000c294:	e3483009 	movt	r3, #32777	; 0x8009
8000c298:	e3a01001 	mov	r1, #1
8000c29c:	e5933000 	ldr	r3, [r3]
8000c2a0:	e0123311 	ands	r3, r2, r1, lsl r3
8000c2a4:	0a000006 	beq	8000c2c4 <trap+0x144>
8000c2a8:	e30a2d58 	movw	r2, #44376	; 0xad58
8000c2ac:	e30a3da0 	movw	r3, #44448	; 0xada0
8000c2b0:	e3482009 	movt	r2, #32777	; 0x8009
8000c2b4:	e3483009 	movt	r3, #32777	; 0x8009
8000c2b8:	e5920000 	ldr	r0, [r2]
8000c2bc:	e5933000 	ldr	r3, [r3]
8000c2c0:	e12fff33 	blx	r3
8000c2c4:	e5943004 	ldr	r3, [r4, #4]
8000c2c8:	e3130202 	tst	r3, #536870912	; 0x20000000
8000c2cc:	0affffd8 	beq	8000c234 <trap+0xb4>
8000c2d0:	ebffff0b 	bl	8000bf04 <led25_on>
8000c2d4:	e30c3584 	movw	r3, #50564	; 0xc584
8000c2d8:	e3483009 	movt	r3, #32777	; 0x8009
8000c2dc:	e5933000 	ldr	r3, [r3]
8000c2e0:	e3530000 	cmp	r3, #0
8000c2e4:	0a000004 	beq	8000c2fc <trap+0x17c>
8000c2e8:	ebffff0d 	bl	8000bf24 <led25_off>
8000c2ec:	eaffffd0 	b	8000c234 <trap+0xb4>
8000c2f0:	e3a08001 	mov	r8, #1
8000c2f4:	eb00275e 	bl	80016074 <timer3intr>
8000c2f8:	eaffffd9 	b	8000c264 <trap+0xe4>
8000c2fc:	eb000dc0 	bl	8000fa04 <miniuartintr>
8000c300:	eafffff8 	b	8000c2e8 <trap+0x168>
8000c304:	e30a4b14 	movw	r4, #43796	; 0xab14
8000c308:	e3484009 	movt	r4, #32777	; 0x8009
8000c30c:	e5943018 	ldr	r3, [r4, #24]
8000c310:	e3530000 	cmp	r3, #0
8000c314:	0affffbd 	beq	8000c210 <trap+0x90>
8000c318:	e5932024 	ldr	r2, [r3, #36]	; 0x24
8000c31c:	e3520000 	cmp	r2, #0
8000c320:	1a000030 	bne	8000c3e8 <trap+0x268>
8000c324:	e593300c 	ldr	r3, [r3, #12]
8000c328:	e3530004 	cmp	r3, #4
8000c32c:	13a08000 	movne	r8, #0
8000c330:	02088001 	andeq	r8, r8, #1
8000c334:	e3580000 	cmp	r8, #0
8000c338:	0affffb4 	beq	8000c210 <trap+0x90>
8000c33c:	eb00253e 	bl	8001583c <yield>
8000c340:	e5943018 	ldr	r3, [r4, #24]
8000c344:	ea00000f 	b	8000c388 <trap+0x208>
8000c348:	e30a4b14 	movw	r4, #43796	; 0xab14
8000c34c:	e3484009 	movt	r4, #32777	; 0x8009
8000c350:	e5943018 	ldr	r3, [r4, #24]
8000c354:	e5932024 	ldr	r2, [r3, #36]	; 0x24
8000c358:	e3520000 	cmp	r2, #0
8000c35c:	1a000012 	bne	8000c3ac <trap+0x22c>
8000c360:	e5837018 	str	r7, [r3, #24]
8000c364:	eb000356 	bl	8000d0c4 <syscall>
8000c368:	e5943018 	ldr	r3, [r4, #24]
8000c36c:	e5933024 	ldr	r3, [r3, #36]	; 0x24
8000c370:	e3530000 	cmp	r3, #0
8000c374:	1a000009 	bne	8000c3a0 <trap+0x220>
8000c378:	e28dd018 	add	sp, sp, #24
8000c37c:	e8bd81f0 	pop	{r4, r5, r6, r7, r8, pc}
8000c380:	eb0024dd 	bl	800156fc <exit>
8000c384:	e5943018 	ldr	r3, [r4, #24]
8000c388:	e5933024 	ldr	r3, [r3, #36]	; 0x24
8000c38c:	e3530000 	cmp	r3, #0
8000c390:	0affff9e 	beq	8000c210 <trap+0x90>
8000c394:	e597304c 	ldr	r3, [r7, #76]	; 0x4c
8000c398:	e313000f 	tst	r3, #15
8000c39c:	1affff9b 	bne	8000c210 <trap+0x90>
8000c3a0:	e28dd018 	add	sp, sp, #24
8000c3a4:	e8bd41f0 	pop	{r4, r5, r6, r7, r8, lr}
8000c3a8:	ea0024d3 	b	800156fc <exit>
8000c3ac:	eb0024d2 	bl	800156fc <exit>
8000c3b0:	e5943018 	ldr	r3, [r4, #24]
8000c3b4:	eaffffe9 	b	8000c360 <trap+0x1e0>
8000c3b8:	e58d3008 	str	r3, [sp, #8]
8000c3bc:	e30802f0 	movw	r0, #33520	; 0x82f0
8000c3c0:	e3480001 	movt	r0, #32769	; 0x8001
8000c3c4:	e1a03006 	mov	r3, r6
8000c3c8:	e58d8004 	str	r8, [sp, #4]
8000c3cc:	e1a02005 	mov	r2, r5
8000c3d0:	e58de000 	str	lr, [sp]
8000c3d4:	e1a0100c 	mov	r1, ip
8000c3d8:	ebfffd40 	bl	8000b8e0 <cprintf>
8000c3dc:	e3080330 	movw	r0, #33584	; 0x8330
8000c3e0:	e3480001 	movt	r0, #32769	; 0x8001
8000c3e4:	ebfffd20 	bl	8000b86c <panic>
8000c3e8:	e597204c 	ldr	r2, [r7, #76]	; 0x4c
8000c3ec:	e312000f 	tst	r2, #15
8000c3f0:	0a000006 	beq	8000c410 <trap+0x290>
8000c3f4:	e593300c 	ldr	r3, [r3, #12]
8000c3f8:	e3530004 	cmp	r3, #4
8000c3fc:	13a08000 	movne	r8, #0
8000c400:	02088001 	andeq	r8, r8, #1
8000c404:	e3580000 	cmp	r8, #0
8000c408:	1affffcb 	bne	8000c33c <trap+0x1bc>
8000c40c:	eaffff7f 	b	8000c210 <trap+0x90>
8000c410:	eb0024b9 	bl	800156fc <exit>
8000c414:	e5943018 	ldr	r3, [r4, #24]
8000c418:	e593200c 	ldr	r2, [r3, #12]
8000c41c:	e3520004 	cmp	r2, #4
8000c420:	13a08000 	movne	r8, #0
8000c424:	02088001 	andeq	r8, r8, #1
8000c428:	e3580000 	cmp	r8, #0
8000c42c:	1affffc2 	bne	8000c33c <trap+0x1bc>
8000c430:	eaffffd4 	b	8000c388 <trap+0x208>

8000c434 <ConnectInterrupt>:
8000c434:	e30acda0 	movw	ip, #44448	; 0xada0
8000c438:	e30a3da4 	movw	r3, #44452	; 0xada4
8000c43c:	e348c009 	movt	ip, #32777	; 0x8009
8000c440:	e350001f 	cmp	r0, #31
8000c444:	e52de004 	push	{lr}		; (str lr, [sp, #-4]!)
8000c448:	e200e01f 	and	lr, r0, #31
8000c44c:	e58c1000 	str	r1, [ip]
8000c450:	e30acd58 	movw	ip, #44376	; 0xad58
8000c454:	e3483009 	movt	r3, #32777	; 0x8009
8000c458:	e3a01001 	mov	r1, #1
8000c45c:	e348c009 	movt	ip, #32777	; 0x8009
8000c460:	e5830000 	str	r0, [r3]
8000c464:	930b0210 	movwls	r0, #45584	; 0xb210
8000c468:	e58c2000 	str	r2, [ip]
8000c46c:	e1a01e11 	lsl	r1, r1, lr
8000c470:	934d0000 	movtls	r0, #53248	; 0xd000
8000c474:	9a000006 	bls	8000c494 <ConnectInterrupt+0x60>
8000c478:	e30b2214 	movw	r2, #45588	; 0xb214
8000c47c:	e30bc218 	movw	ip, #45592	; 0xb218
8000c480:	e34d2000 	movt	r2, #53248	; 0xd000
8000c484:	e350003f 	cmp	r0, #63	; 0x3f
8000c488:	e34dc000 	movt	ip, #53248	; 0xd000
8000c48c:	91a00002 	movls	r0, r2
8000c490:	81a0000c 	movhi	r0, ip
8000c494:	e5801000 	str	r1, [r0]
8000c498:	e308038c 	movw	r0, #33676	; 0x838c
8000c49c:	e5931000 	ldr	r1, [r3]
8000c4a0:	e3480001 	movt	r0, #32769	; 0x8001
8000c4a4:	e49de004 	pop	{lr}		; (ldr lr, [sp], #4)
8000c4a8:	eafffd0c 	b	8000b8e0 <cprintf>

8000c4ac <ConnectTimerInterrupt>:
8000c4ac:	e30acd98 	movw	ip, #44440	; 0xad98
8000c4b0:	e30a3d60 	movw	r3, #44384	; 0xad60
8000c4b4:	e348c009 	movt	ip, #32777	; 0x8009
8000c4b8:	e350001f 	cmp	r0, #31
8000c4bc:	e52de004 	push	{lr}		; (str lr, [sp, #-4]!)
8000c4c0:	e200e01f 	and	lr, r0, #31
8000c4c4:	e58c1000 	str	r1, [ip]
8000c4c8:	e30acd5c 	movw	ip, #44380	; 0xad5c
8000c4cc:	e3483009 	movt	r3, #32777	; 0x8009
8000c4d0:	e3a01001 	mov	r1, #1
8000c4d4:	e348c009 	movt	ip, #32777	; 0x8009
8000c4d8:	e5830000 	str	r0, [r3]
8000c4dc:	930b0210 	movwls	r0, #45584	; 0xb210
8000c4e0:	e58c2000 	str	r2, [ip]
8000c4e4:	e1a01e11 	lsl	r1, r1, lr
8000c4e8:	934d0000 	movtls	r0, #53248	; 0xd000
8000c4ec:	9a000006 	bls	8000c50c <ConnectTimerInterrupt+0x60>
8000c4f0:	e30b2214 	movw	r2, #45588	; 0xb214
8000c4f4:	e30bc218 	movw	ip, #45592	; 0xb218
8000c4f8:	e34d2000 	movt	r2, #53248	; 0xd000
8000c4fc:	e350003f 	cmp	r0, #63	; 0x3f
8000c500:	e34dc000 	movt	ip, #53248	; 0xd000
8000c504:	91a00002 	movls	r0, r2
8000c508:	81a0000c 	movhi	r0, ip
8000c50c:	e5801000 	str	r1, [r0]
8000c510:	e30803ac 	movw	r0, #33708	; 0x83ac
8000c514:	e5931000 	ldr	r1, [r3]
8000c518:	e3480001 	movt	r0, #32769	; 0x8001
8000c51c:	e49de004 	pop	{lr}		; (ldr lr, [sp], #4)
8000c520:	eafffcee 	b	8000b8e0 <cprintf>

8000c524 <_DWHCIFrameSchedulerNonPeriodic>:
8000c524:	e3a03006 	mov	r3, #6
8000c528:	e5803018 	str	r3, [r0, #24]
8000c52c:	e12fff1e 	bx	lr

8000c530 <DWHCIFrameSchedulerNonPeriodicStartSplit>:
8000c530:	e3a03000 	mov	r3, #0
8000c534:	e5803018 	str	r3, [r0, #24]
8000c538:	e12fff1e 	bx	lr

8000c53c <DWHCIFrameSchedulerNonPeriodicWaitForFrame>:
8000c53c:	e12fff1e 	bx	lr

8000c540 <DWHCIFrameSchedulerNonPeriodicIsOddFrame>:
8000c540:	e3a00000 	mov	r0, #0
8000c544:	e12fff1e 	bx	lr

8000c548 <DWHCIFrameSchedulerNonPeriodicCompleteSplit>:
8000c548:	e5903018 	ldr	r3, [r0, #24]
8000c54c:	e3530001 	cmp	r3, #1
8000c550:	0a000009 	beq	8000c57c <DWHCIFrameSchedulerNonPeriodicCompleteSplit+0x34>
8000c554:	e3530000 	cmp	r3, #0
8000c558:	0a00000b 	beq	8000c58c <DWHCIFrameSchedulerNonPeriodicCompleteSplit+0x44>
8000c55c:	e3530003 	cmp	r3, #3
8000c560:	8a00000b 	bhi	8000c594 <DWHCIFrameSchedulerNonPeriodicCompleteSplit+0x4c>
8000c564:	e92d4010 	push	{r4, lr}
8000c568:	e3000271 	movw	r0, #625	; 0x271
8000c56c:	eb001535 	bl	80011a48 <usDelay>
8000c570:	e3a03001 	mov	r3, #1
8000c574:	e1a00003 	mov	r0, r3
8000c578:	e8bd8010 	pop	{r4, pc}
8000c57c:	e3a01002 	mov	r1, #2
8000c580:	e3a02003 	mov	r2, #3
8000c584:	e5801018 	str	r1, [r0, #24]
8000c588:	e580201c 	str	r2, [r0, #28]
8000c58c:	e1a00003 	mov	r0, r3
8000c590:	e12fff1e 	bx	lr
8000c594:	e3a03000 	mov	r3, #0
8000c598:	e1a00003 	mov	r0, r3
8000c59c:	e12fff1e 	bx	lr

8000c5a0 <DWHCIFrameSchedulerNonPeriodicTransactionComplete>:
8000c5a0:	e5902018 	ldr	r2, [r0, #24]
8000c5a4:	e3520000 	cmp	r2, #0
8000c5a8:	0a00000e 	beq	8000c5e8 <DWHCIFrameSchedulerNonPeriodicTransactionComplete+0x48>
8000c5ac:	e2422002 	sub	r2, r2, #2
8000c5b0:	e3520001 	cmp	r2, #1
8000c5b4:	812fff1e 	bxhi	lr
8000c5b8:	e3110001 	tst	r1, #1
8000c5bc:	1a00000c 	bne	8000c5f4 <DWHCIFrameSchedulerNonPeriodicTransactionComplete+0x54>
8000c5c0:	e3110060 	tst	r1, #96	; 0x60
8000c5c4:	0a00000d 	beq	8000c600 <DWHCIFrameSchedulerNonPeriodicTransactionComplete+0x60>
8000c5c8:	e590301c 	ldr	r3, [r0, #28]
8000c5cc:	e3530000 	cmp	r3, #0
8000c5d0:	e2433001 	sub	r3, r3, #1
8000c5d4:	e580301c 	str	r3, [r0, #28]
8000c5d8:	1a00000f 	bne	8000c61c <DWHCIFrameSchedulerNonPeriodicTransactionComplete+0x7c>
8000c5dc:	e3a03005 	mov	r3, #5
8000c5e0:	e5803018 	str	r3, [r0, #24]
8000c5e4:	e12fff1e 	bx	lr
8000c5e8:	e3a03001 	mov	r3, #1
8000c5ec:	e5803018 	str	r3, [r0, #24]
8000c5f0:	e12fff1e 	bx	lr
8000c5f4:	e3a03004 	mov	r3, #4
8000c5f8:	e5803018 	str	r3, [r0, #24]
8000c5fc:	e12fff1e 	bx	lr
8000c600:	e3110010 	tst	r1, #16
8000c604:	0a00000e 	beq	8000c644 <DWHCIFrameSchedulerNonPeriodicTransactionComplete+0xa4>
8000c608:	e590301c 	ldr	r3, [r0, #28]
8000c60c:	e3530000 	cmp	r3, #0
8000c610:	e2433001 	sub	r3, r3, #1
8000c614:	e580301c 	str	r3, [r0, #28]
8000c618:	0a000002 	beq	8000c628 <DWHCIFrameSchedulerNonPeriodicTransactionComplete+0x88>
8000c61c:	e3a03003 	mov	r3, #3
8000c620:	e5803018 	str	r3, [r0, #24]
8000c624:	e12fff1e 	bx	lr
8000c628:	e92d4010 	push	{r4, lr}
8000c62c:	e1a04000 	mov	r4, r0
8000c630:	e3000271 	movw	r0, #625	; 0x271
8000c634:	eb001503 	bl	80011a48 <usDelay>
8000c638:	e3a03005 	mov	r3, #5
8000c63c:	e5843018 	str	r3, [r4, #24]
8000c640:	e8bd8010 	pop	{r4, pc}
8000c644:	e30823d4 	movw	r2, #33748	; 0x83d4
8000c648:	e30803e8 	movw	r0, #33768	; 0x83e8
8000c64c:	e3482001 	movt	r2, #32769	; 0x8001
8000c650:	e1a03001 	mov	r3, r1
8000c654:	e3480001 	movt	r0, #32769	; 0x8001
8000c658:	e3a01001 	mov	r1, #1
8000c65c:	ea00153e 	b	80011b5c <LogWrite>

8000c660 <DWHCIFrameSchedulerNonPeriodic>:
8000c660:	e92d4010 	push	{r4, lr}
8000c664:	e30c4524 	movw	r4, #50468	; 0xc524
8000c668:	e3484000 	movt	r4, #32768	; 0x8000
8000c66c:	e30ce530 	movw	lr, #50480	; 0xc530
8000c670:	e348e000 	movt	lr, #32768	; 0x8000
8000c674:	e30cc548 	movw	ip, #50504	; 0xc548
8000c678:	e348c000 	movt	ip, #32768	; 0x8000
8000c67c:	e30c15a0 	movw	r1, #50592	; 0xc5a0
8000c680:	e3481000 	movt	r1, #32768	; 0x8000
8000c684:	e30c253c 	movw	r2, #50492	; 0xc53c
8000c688:	e3482000 	movt	r2, #32768	; 0x8000
8000c68c:	e30c3540 	movw	r3, #50496	; 0xc540
8000c690:	e3483000 	movt	r3, #32768	; 0x8000
8000c694:	e5804000 	str	r4, [r0]
8000c698:	e3a04006 	mov	r4, #6
8000c69c:	e580e004 	str	lr, [r0, #4]
8000c6a0:	e580c008 	str	ip, [r0, #8]
8000c6a4:	e580100c 	str	r1, [r0, #12]
8000c6a8:	e1c021f0 	strd	r2, [r0, #16]
8000c6ac:	e5804018 	str	r4, [r0, #24]
8000c6b0:	e8bd8010 	pop	{r4, pc}

8000c6b4 <TimerSimpleusDelay.part.0>:
8000c6b4:	e92d4070 	push	{r4, r5, r6, lr}
8000c6b8:	e1a06000 	mov	r6, r0
8000c6bc:	f57ff05f 	dmb	sy
8000c6c0:	e3030004 	movw	r0, #12292	; 0x3004
8000c6c4:	e1a04000 	mov	r4, r0
8000c6c8:	e34d0000 	movt	r0, #53248	; 0xd000
8000c6cc:	e34d4000 	movt	r4, #53248	; 0xd000
8000c6d0:	eb001bf0 	bl	80013698 <read32>
8000c6d4:	e1a05000 	mov	r5, r0
8000c6d8:	e1a00004 	mov	r0, r4
8000c6dc:	eb001bed 	bl	80013698 <read32>
8000c6e0:	e0400005 	sub	r0, r0, r5
8000c6e4:	e1500006 	cmp	r0, r6
8000c6e8:	3afffffa 	bcc	8000c6d8 <TimerSimpleusDelay.part.0+0x24>
8000c6ec:	f57ff05f 	dmb	sy
8000c6f0:	e8bd8070 	pop	{r4, r5, r6, pc}

8000c6f4 <TimerEnvInit>:
8000c6f4:	e3a02000 	mov	r2, #0
8000c6f8:	e30ac898 	movw	ip, #43160	; 0xa898
8000c6fc:	e52de004 	push	{lr}		; (str lr, [sp, #-4]!)
8000c700:	e305e730 	movw	lr, #22320	; 0x5730
8000c704:	e340e005 	movt	lr, #5
8000c708:	e1a03002 	mov	r3, r2
8000c70c:	e348c009 	movt	ip, #32777	; 0x8009
8000c710:	e1a01002 	mov	r1, r2
8000c714:	e580e148 	str	lr, [r0, #328]	; 0x148
8000c718:	e300e15e 	movw	lr, #350	; 0x15e
8000c71c:	e5802000 	str	r2, [r0]
8000c720:	e580e14c 	str	lr, [r0, #332]	; 0x14c
8000c724:	e58c0000 	str	r0, [ip]
8000c728:	e5802004 	str	r2, [r0, #4]
8000c72c:	e0802203 	add	r2, r0, r3, lsl #4
8000c730:	e2833001 	add	r3, r3, #1
8000c734:	e3530014 	cmp	r3, #20
8000c738:	e5821008 	str	r1, [r2, #8]
8000c73c:	1afffffa 	bne	8000c72c <TimerEnvInit+0x38>
8000c740:	e49df004 	pop	{pc}		; (ldr pc, [sp], #4)

8000c744 <_Timer>:
8000c744:	e30a3898 	movw	r3, #43160	; 0xa898
8000c748:	e3a02000 	mov	r2, #0
8000c74c:	e3483009 	movt	r3, #32777	; 0x8009
8000c750:	e5832000 	str	r2, [r3]
8000c754:	e12fff1e 	bx	lr

8000c758 <TimerGetClockTicks>:
8000c758:	e92d4010 	push	{r4, lr}
8000c75c:	f57ff05f 	dmb	sy
8000c760:	e3030004 	movw	r0, #12292	; 0x3004
8000c764:	e34d0000 	movt	r0, #53248	; 0xd000
8000c768:	eb001bca 	bl	80013698 <read32>
8000c76c:	f57ff05f 	dmb	sy
8000c770:	e8bd8010 	pop	{r4, pc}

8000c774 <TimerGetTicks>:
8000c774:	e5900000 	ldr	r0, [r0]
8000c778:	e12fff1e 	bx	lr

8000c77c <TimerGetTime>:
8000c77c:	e5900004 	ldr	r0, [r0, #4]
8000c780:	e12fff1e 	bx	lr

8000c784 <TimerStartKernelTimer>:
8000c784:	e92d47f0 	push	{r4, r5, r6, r7, r8, r9, sl, lr}
8000c788:	e1a06000 	mov	r6, r0
8000c78c:	e1a08001 	mov	r8, r1
8000c790:	e1a09002 	mov	r9, r2
8000c794:	e1a07003 	mov	r7, r3
8000c798:	eb0016dc 	bl	80012310 <uspi_EnterCritical>
8000c79c:	e3a0c000 	mov	ip, #0
8000c7a0:	ea000001 	b	8000c7ac <TimerStartKernelTimer+0x28>
8000c7a4:	e3540014 	cmp	r4, #20
8000c7a8:	0a00000f 	beq	8000c7ec <TimerStartKernelTimer+0x68>
8000c7ac:	e086e20c 	add	lr, r6, ip, lsl #4
8000c7b0:	e28c4001 	add	r4, ip, #1
8000c7b4:	e1a0c004 	mov	ip, r4
8000c7b8:	e59e5008 	ldr	r5, [lr, #8]
8000c7bc:	e3550000 	cmp	r5, #0
8000c7c0:	1afffff7 	bne	8000c7a4 <TimerStartKernelTimer+0x20>
8000c7c4:	e58e9008 	str	r9, [lr, #8]
8000c7c8:	e5962000 	ldr	r2, [r6]
8000c7cc:	e59d3020 	ldr	r3, [sp, #32]
8000c7d0:	e0822008 	add	r2, r2, r8
8000c7d4:	e58e200c 	str	r2, [lr, #12]
8000c7d8:	e58e7010 	str	r7, [lr, #16]
8000c7dc:	e58e3014 	str	r3, [lr, #20]
8000c7e0:	eb0016d9 	bl	8001234c <uspi_LeaveCritical>
8000c7e4:	e1a00004 	mov	r0, r4
8000c7e8:	e8bd87f0 	pop	{r4, r5, r6, r7, r8, r9, sl, pc}
8000c7ec:	e3a04000 	mov	r4, #0
8000c7f0:	eb0016d5 	bl	8001234c <uspi_LeaveCritical>
8000c7f4:	e1a00004 	mov	r0, r4
8000c7f8:	e8bd87f0 	pop	{r4, r5, r6, r7, r8, r9, sl, pc}

8000c7fc <TimerCancelKernelTimer>:
8000c7fc:	e2411001 	sub	r1, r1, #1
8000c800:	e3a03000 	mov	r3, #0
8000c804:	e0801201 	add	r1, r0, r1, lsl #4
8000c808:	e5813008 	str	r3, [r1, #8]
8000c80c:	e12fff1e 	bx	lr

8000c810 <TimerMsDelay>:
8000c810:	e3510000 	cmp	r1, #0
8000c814:	012fff1e 	bxeq	lr
8000c818:	e5900148 	ldr	r0, [r0, #328]	; 0x148
8000c81c:	e0000190 	mul	r0, r0, r1
8000c820:	eaffef40 	b	80008528 <DelayLoop>

8000c824 <TimerusDelay>:
8000c824:	e3510000 	cmp	r1, #0
8000c828:	012fff1e 	bxeq	lr
8000c82c:	e590014c 	ldr	r0, [r0, #332]	; 0x14c
8000c830:	e0000190 	mul	r0, r0, r1
8000c834:	eaffef3b 	b	80008528 <DelayLoop>

8000c838 <TimerGet>:
8000c838:	e30a3898 	movw	r3, #43160	; 0xa898
8000c83c:	e3483009 	movt	r3, #32777	; 0x8009
8000c840:	e5930000 	ldr	r0, [r3]
8000c844:	e12fff1e 	bx	lr

8000c848 <TimerSimpleMsDelay>:
8000c848:	e3500000 	cmp	r0, #0
8000c84c:	012fff1e 	bxeq	lr
8000c850:	e3a03ffa 	mov	r3, #1000	; 0x3e8
8000c854:	e0000093 	mul	r0, r3, r0
8000c858:	e3500000 	cmp	r0, #0
8000c85c:	012fff1e 	bxeq	lr
8000c860:	eaffff93 	b	8000c6b4 <TimerSimpleusDelay.part.0>

8000c864 <TimerSimpleusDelay>:
8000c864:	e3500000 	cmp	r0, #0
8000c868:	012fff1e 	bxeq	lr
8000c86c:	eaffff90 	b	8000c6b4 <TimerSimpleusDelay.part.0>

8000c870 <TimerPollKernelTimers>:
8000c870:	e92d41f0 	push	{r4, r5, r6, r7, r8, lr}
8000c874:	e3a04000 	mov	r4, #0
8000c878:	e1a07004 	mov	r7, r4
8000c87c:	e1a06000 	mov	r6, r0
8000c880:	eb0016a2 	bl	80012310 <uspi_EnterCritical>
8000c884:	e0863204 	add	r3, r6, r4, lsl #4
8000c888:	e2844001 	add	r4, r4, #1
8000c88c:	e5935008 	ldr	r5, [r3, #8]
8000c890:	e3550000 	cmp	r5, #0
8000c894:	0a000009 	beq	8000c8c0 <TimerPollKernelTimers+0x50>
8000c898:	e593200c 	ldr	r2, [r3, #12]
8000c89c:	e1a00004 	mov	r0, r4
8000c8a0:	e5961000 	ldr	r1, [r6]
8000c8a4:	e0422001 	sub	r2, r2, r1
8000c8a8:	e3520000 	cmp	r2, #0
8000c8ac:	ca000003 	bgt	8000c8c0 <TimerPollKernelTimers+0x50>
8000c8b0:	e5837008 	str	r7, [r3, #8]
8000c8b4:	e5931010 	ldr	r1, [r3, #16]
8000c8b8:	e5932014 	ldr	r2, [r3, #20]
8000c8bc:	e12fff35 	blx	r5
8000c8c0:	e3540014 	cmp	r4, #20
8000c8c4:	1affffee 	bne	8000c884 <TimerPollKernelTimers+0x14>
8000c8c8:	e8bd41f0 	pop	{r4, r5, r6, r7, r8, lr}
8000c8cc:	ea00169e 	b	8001234c <uspi_LeaveCritical>

8000c8d0 <TimerInterruptHandler>:
8000c8d0:	e92d4070 	push	{r4, r5, r6, lr}
8000c8d4:	e1a04000 	mov	r4, r0
8000c8d8:	f57ff05f 	dmb	sy
8000c8dc:	e3030010 	movw	r0, #12304	; 0x3010
8000c8e0:	e30c6350 	movw	r6, #50000	; 0xc350
8000c8e4:	e34d0000 	movt	r0, #53248	; 0xd000
8000c8e8:	eb001b6a 	bl	80013698 <read32>
8000c8ec:	e0805006 	add	r5, r0, r6
8000c8f0:	e3030010 	movw	r0, #12304	; 0x3010
8000c8f4:	e34d0000 	movt	r0, #53248	; 0xd000
8000c8f8:	e1a01005 	mov	r1, r5
8000c8fc:	eb001b67 	bl	800136a0 <write32>
8000c900:	e3030004 	movw	r0, #12292	; 0x3004
8000c904:	e34d0000 	movt	r0, #53248	; 0xd000
8000c908:	eb001b62 	bl	80013698 <read32>
8000c90c:	e1500005 	cmp	r0, r5
8000c910:	8a000014 	bhi	8000c968 <TimerInterruptHandler+0x98>
8000c914:	e3a00a03 	mov	r0, #12288	; 0x3000
8000c918:	e3a01002 	mov	r1, #2
8000c91c:	e34d0000 	movt	r0, #53248	; 0xd000
8000c920:	eb001b5e 	bl	800136a0 <write32>
8000c924:	f57ff05f 	dmb	sy
8000c928:	e5942000 	ldr	r2, [r4]
8000c92c:	e308351f 	movw	r3, #34079	; 0x851f
8000c930:	e34531eb 	movt	r3, #20971	; 0x51eb
8000c934:	e3a01064 	mov	r1, #100	; 0x64
8000c938:	e2822001 	add	r2, r2, #1
8000c93c:	e0830293 	umull	r0, r3, r3, r2
8000c940:	e5842000 	str	r2, [r4]
8000c944:	e1a00004 	mov	r0, r4
8000c948:	e1a032a3 	lsr	r3, r3, #5
8000c94c:	e0632391 	mls	r3, r1, r3, r2
8000c950:	e3530000 	cmp	r3, #0
8000c954:	05943004 	ldreq	r3, [r4, #4]
8000c958:	02833001 	addeq	r3, r3, #1
8000c95c:	05843004 	streq	r3, [r4, #4]
8000c960:	e8bd4070 	pop	{r4, r5, r6, lr}
8000c964:	eaffffc1 	b	8000c870 <TimerPollKernelTimers>
8000c968:	e3030004 	movw	r0, #12292	; 0x3004
8000c96c:	e34d0000 	movt	r0, #53248	; 0xd000
8000c970:	eb001b48 	bl	80013698 <read32>
8000c974:	e0801006 	add	r1, r0, r6
8000c978:	e3030010 	movw	r0, #12304	; 0x3010
8000c97c:	e34d0000 	movt	r0, #53248	; 0xd000
8000c980:	eb001b46 	bl	800136a0 <write32>
8000c984:	eaffffe2 	b	8000c914 <TimerInterruptHandler+0x44>

8000c988 <TimerTuneMsDelay>:
8000c988:	e92d4070 	push	{r4, r5, r6, lr}
8000c98c:	e1a04000 	mov	r4, r0
8000c990:	e3a00ffa 	mov	r0, #1000	; 0x3e8
8000c994:	e5943148 	ldr	r3, [r4, #328]	; 0x148
8000c998:	e5945000 	ldr	r5, [r4]
8000c99c:	e0000390 	mul	r0, r0, r3
8000c9a0:	ebffeee0 	bl	80008528 <DelayLoop>
8000c9a4:	e5941000 	ldr	r1, [r4]
8000c9a8:	e3023710 	movw	r3, #10000	; 0x2710
8000c9ac:	e5942148 	ldr	r2, [r4, #328]	; 0x148
8000c9b0:	e308c51f 	movw	ip, #34079	; 0x851f
8000c9b4:	e0411005 	sub	r1, r1, r5
8000c9b8:	e3040dd3 	movw	r0, #19923	; 0x4dd3
8000c9bc:	e345c1eb 	movt	ip, #20971	; 0x51eb
8000c9c0:	e733f113 	udiv	r3, r3, r1
8000c9c4:	e0030392 	mul	r3, r2, r3
8000c9c8:	e3410062 	movt	r0, #4194	; 0x1062
8000c9cc:	e083239c 	umull	r2, r3, ip, r3
8000c9d0:	e1a032a3 	lsr	r3, r3, #5
8000c9d4:	e5843148 	str	r3, [r4, #328]	; 0x148
8000c9d8:	e2833f7d 	add	r3, r3, #500	; 0x1f4
8000c9dc:	e0832390 	umull	r2, r3, r0, r3
8000c9e0:	e1a03323 	lsr	r3, r3, #6
8000c9e4:	e584314c 	str	r3, [r4, #332]	; 0x14c
8000c9e8:	e8bd8070 	pop	{r4, r5, r6, pc}

8000c9ec <TimerInitialize>:
8000c9ec:	e30c18d0 	movw	r1, #51408	; 0xc8d0
8000c9f0:	e1a02000 	mov	r2, r0
8000c9f4:	e92d4070 	push	{r4, r5, r6, lr}
8000c9f8:	e1a05000 	mov	r5, r0
8000c9fc:	e3481000 	movt	r1, #32768	; 0x8000
8000ca00:	e3a00001 	mov	r0, #1
8000ca04:	ebfffea8 	bl	8000c4ac <ConnectTimerInterrupt>
8000ca08:	f57ff05f 	dmb	sy
8000ca0c:	e3034004 	movw	r4, #12292	; 0x3004
8000ca10:	e3a01df2 	mov	r1, #15488	; 0x3c80
8000ca14:	e34d4000 	movt	r4, #53248	; 0xd000
8000ca18:	e34f1e36 	movt	r1, #65078	; 0xfe36
8000ca1c:	e1a00004 	mov	r0, r4
8000ca20:	eb001b1e 	bl	800136a0 <write32>
8000ca24:	e1a00004 	mov	r0, r4
8000ca28:	eb001b1a 	bl	80013698 <read32>
8000ca2c:	e2801cc3 	add	r1, r0, #49920	; 0xc300
8000ca30:	e3030010 	movw	r0, #12304	; 0x3010
8000ca34:	e34d0000 	movt	r0, #53248	; 0xd000
8000ca38:	e2811050 	add	r1, r1, #80	; 0x50
8000ca3c:	eb001b17 	bl	800136a0 <write32>
8000ca40:	e1a00005 	mov	r0, r5
8000ca44:	ebffffcf 	bl	8000c988 <TimerTuneMsDelay>
8000ca48:	f57ff05f 	dmb	sy
8000ca4c:	e3a00001 	mov	r0, #1
8000ca50:	e8bd8070 	pop	{r4, r5, r6, pc}

8000ca54 <OkLoop>:
8000ca54:	e92d4010 	push	{r4, lr}
8000ca58:	e3a01001 	mov	r1, #1
8000ca5c:	e3084480 	movw	r4, #33920	; 0x8480
8000ca60:	e3a00012 	mov	r0, #18
8000ca64:	e340401e 	movt	r4, #30
8000ca68:	eb000bb3 	bl	8000f93c <setgpiofunc>
8000ca6c:	e3a01000 	mov	r1, #0
8000ca70:	e3a00012 	mov	r0, #18
8000ca74:	eb000b9d 	bl	8000f8f0 <setgpioval>
8000ca78:	e1a00004 	mov	r0, r4
8000ca7c:	eb002591 	bl	800160c8 <delay>
8000ca80:	e3a01001 	mov	r1, #1
8000ca84:	e3a00012 	mov	r0, #18
8000ca88:	eb000b98 	bl	8000f8f0 <setgpioval>
8000ca8c:	e1a00004 	mov	r0, r4
8000ca90:	eb00258c 	bl	800160c8 <delay>
8000ca94:	eafffff4 	b	8000ca6c <OkLoop+0x18>

8000ca98 <NotOkLoop>:
8000ca98:	e92d4010 	push	{r4, lr}
8000ca9c:	e3a01001 	mov	r1, #1
8000caa0:	e30a4120 	movw	r4, #41248	; 0xa120
8000caa4:	e3a00012 	mov	r0, #18
8000caa8:	e3404007 	movt	r4, #7
8000caac:	eb000ba2 	bl	8000f93c <setgpiofunc>
8000cab0:	e3a01000 	mov	r1, #0
8000cab4:	e3a00012 	mov	r0, #18
8000cab8:	eb000b8c 	bl	8000f8f0 <setgpioval>
8000cabc:	e1a00004 	mov	r0, r4
8000cac0:	eb002580 	bl	800160c8 <delay>
8000cac4:	e3a01001 	mov	r1, #1
8000cac8:	e3a00012 	mov	r0, #18
8000cacc:	eb000b87 	bl	8000f8f0 <setgpioval>
8000cad0:	e1a00004 	mov	r0, r4
8000cad4:	eb00257b 	bl	800160c8 <delay>
8000cad8:	eafffff4 	b	8000cab0 <NotOkLoop+0x18>

8000cadc <getpmsize>:
8000cadc:	e92d4010 	push	{r4, lr}
8000cae0:	e30c450c 	movw	r4, #50444	; 0xc50c
8000cae4:	e3484009 	movt	r4, #32777	; 0x8009
8000cae8:	e24dd008 	sub	sp, sp, #8
8000caec:	e3a03000 	mov	r3, #0
8000caf0:	e3a01005 	mov	r1, #5
8000caf4:	e58d3000 	str	r3, [sp]
8000caf8:	e3a02008 	mov	r2, #8
8000cafc:	e5940000 	ldr	r0, [r4]
8000cb00:	e3401001 	movt	r1, #1
8000cb04:	eb00028b 	bl	8000d538 <create_request>
8000cb08:	e5940000 	ldr	r0, [r4]
8000cb0c:	e3a01008 	mov	r1, #8
8000cb10:	eb0002c1 	bl	8000d61c <writemailbox>
8000cb14:	e3a00008 	mov	r0, #8
8000cb18:	eb0002b1 	bl	8000d5e4 <readmailbox>
8000cb1c:	e5943000 	ldr	r3, [r4]
8000cb20:	e5932004 	ldr	r2, [r3, #4]
8000cb24:	e3520102 	cmp	r2, #-2147483648	; 0x80000000
8000cb28:	0a000005 	beq	8000cb44 <getpmsize+0x68>
8000cb2c:	e3a01005 	mov	r1, #5
8000cb30:	e30803f0 	movw	r0, #33776	; 0x83f0
8000cb34:	e3401001 	movt	r1, #1
8000cb38:	e3480001 	movt	r0, #32769	; 0x8001
8000cb3c:	ebfffb67 	bl	8000b8e0 <cprintf>
8000cb40:	e5943000 	ldr	r3, [r4]
8000cb44:	e5930018 	ldr	r0, [r3, #24]
8000cb48:	e28dd008 	add	sp, sp, #8
8000cb4c:	e8bd8010 	pop	{r4, pc}

8000cb50 <machinit>:
8000cb50:	e30a0b14 	movw	r0, #43796	; 0xab14
8000cb54:	e3a020e0 	mov	r2, #224	; 0xe0
8000cb58:	e3480009 	movt	r0, #32777	; 0x8009
8000cb5c:	e3a01000 	mov	r1, #0
8000cb60:	eafff619 	b	8000a3cc <memset>

8000cb64 <cmain>:
8000cb64:	e92d4010 	push	{r4, lr}
8000cb68:	eb0008a0 	bl	8000edf0 <mmuinit0>
8000cb6c:	e30a0b14 	movw	r0, #43796	; 0xab14
8000cb70:	e3a020e0 	mov	r2, #224	; 0xe0
8000cb74:	e3480009 	movt	r0, #32777	; 0x8009
8000cb78:	e3a01000 	mov	r1, #0
8000cb7c:	e3a05000 	mov	r5, #0
8000cb80:	ebfff611 	bl	8000a3cc <memset>
8000cb84:	e3485080 	movt	r5, #32896	; 0x8080
8000cb88:	eb000bd5 	bl	8000fae4 <uartinit>
8000cb8c:	e30c4510 	movw	r4, #50448	; 0xc510
8000cb90:	ebffeda5 	bl	8000822c <dsb_barrier>
8000cb94:	e3484009 	movt	r4, #32777	; 0x8009
8000cb98:	ebfffc4d 	bl	8000bcd4 <consoleinit>
8000cb9c:	e3080408 	movw	r0, #33800	; 0x8408
8000cba0:	e3480001 	movt	r0, #32769	; 0x8001
8000cba4:	ebfffb4d 	bl	8000b8e0 <cprintf>
8000cba8:	e30f0eb4 	movw	r0, #65204	; 0xfeb4
8000cbac:	e1a01005 	mov	r1, r5
8000cbb0:	e3480009 	movt	r0, #32777	; 0x8009
8000cbb4:	eb001732 	bl	80012884 <kinit1>
8000cbb8:	e30c3f6c 	movw	r3, #53100	; 0xcf6c
8000cbbc:	e3a02901 	mov	r2, #16384	; 0x4000
8000cbc0:	e3483009 	movt	r3, #32777	; 0x8009
8000cbc4:	e3482000 	movt	r2, #32768	; 0x8000
8000cbc8:	e5832000 	str	r2, [r3]
8000cbcc:	eb00027e 	bl	8000d5cc <mailboxinit>
8000cbd0:	ebffffc1 	bl	8000cadc <getpmsize>
8000cbd4:	e1a03000 	mov	r3, r0
8000cbd8:	e3080420 	movw	r0, #33824	; 0x8420
8000cbdc:	e3480001 	movt	r0, #32769	; 0x8001
8000cbe0:	e1a01003 	mov	r1, r3
8000cbe4:	e5843000 	str	r3, [r4]
8000cbe8:	ebfffb3c 	bl	8000b8e0 <cprintf>
8000cbec:	eb0008a8 	bl	8000ee94 <mmuinit1>
8000cbf0:	e3080430 	movw	r0, #33840	; 0x8430
8000cbf4:	e3480001 	movt	r0, #32769	; 0x8001
8000cbf8:	ebfffb38 	bl	8000b8e0 <cprintf>
8000cbfc:	ebfffc1d 	bl	8000bc78 <gpuinit>
8000cc00:	e3080440 	movw	r0, #33856	; 0x8440
8000cc04:	e3480001 	movt	r0, #32769	; 0x8001
8000cc08:	ebfffb34 	bl	8000b8e0 <cprintf>
8000cc0c:	eb0021dd 	bl	80015388 <pinit>
8000cc10:	e3080450 	movw	r0, #33872	; 0x8450
8000cc14:	e3480001 	movt	r0, #32769	; 0x8001
8000cc18:	ebfffb30 	bl	8000b8e0 <cprintf>
8000cc1c:	ebfffcda 	bl	8000bf8c <tvinit>
8000cc20:	e308045c 	movw	r0, #33884	; 0x845c
8000cc24:	e3480001 	movt	r0, #32769	; 0x8001
8000cc28:	ebfffb2c 	bl	8000b8e0 <cprintf>
8000cc2c:	eb000024 	bl	8000ccc4 <binit>
8000cc30:	e3080468 	movw	r0, #33896	; 0x8468
8000cc34:	e3480001 	movt	r0, #32769	; 0x8001
8000cc38:	ebfffb28 	bl	8000b8e0 <cprintf>
8000cc3c:	eb000db1 	bl	80010308 <fileinit>
8000cc40:	e3080474 	movw	r0, #33908	; 0x8474
8000cc44:	e3480001 	movt	r0, #32769	; 0x8001
8000cc48:	ebfffb24 	bl	8000b8e0 <cprintf>
8000cc4c:	eb002947 	bl	80017170 <iinit>
8000cc50:	e3080484 	movw	r0, #33924	; 0x8484
8000cc54:	e3480001 	movt	r0, #32769	; 0x8001
8000cc58:	ebfffb20 	bl	8000b8e0 <cprintf>
8000cc5c:	eb000506 	bl	8000e07c <ideinit>
8000cc60:	e3080490 	movw	r0, #33936	; 0x8490
8000cc64:	e3480001 	movt	r0, #32769	; 0x8001
8000cc68:	ebfffb1c 	bl	8000b8e0 <cprintf>
8000cc6c:	e5941000 	ldr	r1, [r4]
8000cc70:	e1a00005 	mov	r0, r5
8000cc74:	e2811102 	add	r1, r1, #-2147483648	; 0x80000000
8000cc78:	eb00171e 	bl	800128f8 <kinit2>
8000cc7c:	e30804a0 	movw	r0, #33952	; 0x84a0
8000cc80:	e3480001 	movt	r0, #32769	; 0x8001
8000cc84:	ebfffb15 	bl	8000b8e0 <cprintf>
8000cc88:	eb0013ca 	bl	80011bb8 <usbinit>
8000cc8c:	eb0021c9 	bl	800153b8 <userinit>
8000cc90:	e30804ac 	movw	r0, #33964	; 0x84ac
8000cc94:	e3480001 	movt	r0, #32769	; 0x8001
8000cc98:	ebfffb10 	bl	8000b8e0 <cprintf>
8000cc9c:	eb0024e2 	bl	8001602c <timer3init>
8000cca0:	e30804bc 	movw	r0, #33980	; 0x84bc
8000cca4:	e3480001 	movt	r0, #32769	; 0x8001
8000cca8:	ebfffb0c 	bl	8000b8e0 <cprintf>
8000ccac:	eb000b25 	bl	8000f948 <enableirqminiuart>
8000ccb0:	ebfff1ad 	bl	8000936c <storageinit>
8000ccb4:	e30804cc 	movw	r0, #33996	; 0x84cc
8000ccb8:	e3480001 	movt	r0, #32769	; 0x8001
8000ccbc:	ebfffb07 	bl	8000b8e0 <cprintf>
8000ccc0:	eb00223b 	bl	800155b4 <scheduler>

8000ccc4 <binit>:
8000ccc4:	e30a0dd0 	movw	r0, #44496	; 0xadd0
8000ccc8:	e301273c 	movw	r2, #5948	; 0x173c
8000cccc:	e92d4010 	push	{r4, lr}
8000ccd0:	e3a01000 	mov	r1, #0
8000ccd4:	e3480009 	movt	r0, #32777	; 0x8009
8000ccd8:	e3e04000 	mvn	r4, #0
8000ccdc:	ebfff5ba 	bl	8000a3cc <memset>
8000cce0:	e30814ec 	movw	r1, #34028	; 0x84ec
8000cce4:	e30a0dd0 	movw	r0, #44496	; 0xadd0
8000cce8:	e3481001 	movt	r1, #32769	; 0x8001
8000ccec:	e3480009 	movt	r0, #32777	; 0x8009
8000ccf0:	ebfffc1e 	bl	8000bd70 <initlock>
8000ccf4:	e59f2044 	ldr	r2, [pc, #68]	; 8000cd40 <binit+0x7c>
8000ccf8:	e59f1044 	ldr	r1, [pc, #68]	; 8000cd44 <binit+0x80>
8000ccfc:	e59f3044 	ldr	r3, [pc, #68]	; 8000cd48 <binit+0x84>
8000cd00:	e1a00002 	mov	r0, r2
8000cd04:	e5812530 	str	r2, [r1, #1328]	; 0x530
8000cd08:	e1a0c002 	mov	ip, r2
8000cd0c:	e5812534 	str	r2, [r1, #1332]	; 0x534
8000cd10:	e583c010 	str	ip, [r3, #16]
8000cd14:	e2832f86 	add	r2, r3, #536	; 0x218
8000cd18:	e583000c 	str	r0, [r3, #12]
8000cd1c:	e1a0c003 	mov	ip, r3
8000cd20:	e591e534 	ldr	lr, [r1, #1332]	; 0x534
8000cd24:	e1520000 	cmp	r2, r0
8000cd28:	e5834004 	str	r4, [r3, #4]
8000cd2c:	e58e300c 	str	r3, [lr, #12]
8000cd30:	e5813534 	str	r3, [r1, #1332]	; 0x534
8000cd34:	e1a03002 	mov	r3, r2
8000cd38:	1afffff4 	bne	8000cd10 <binit+0x4c>
8000cd3c:	e8bd8010 	pop	{r4, pc}
8000cd40:	8009c2f4 	.word	0x8009c2f4
8000cd44:	8009bdd0 	.word	0x8009bdd0
8000cd48:	8009ae04 	.word	0x8009ae04

8000cd4c <bread>:
8000cd4c:	e92d47f0 	push	{r4, r5, r6, r7, r8, r9, sl, lr}
8000cd50:	e1a08000 	mov	r8, r0
8000cd54:	e59f60f0 	ldr	r6, [pc, #240]	; 8000ce4c <bread+0x100>
8000cd58:	e30a0dd0 	movw	r0, #44496	; 0xadd0
8000cd5c:	e3480009 	movt	r0, #32777	; 0x8009
8000cd60:	e1a07001 	mov	r7, r1
8000cd64:	e59f50e4 	ldr	r5, [pc, #228]	; 8000ce50 <bread+0x104>
8000cd68:	e2469a01 	sub	r9, r6, #4096	; 0x1000
8000cd6c:	ebfffc1d 	bl	8000bde8 <acquire>
8000cd70:	e5964534 	ldr	r4, [r6, #1332]	; 0x534
8000cd74:	e1540005 	cmp	r4, r5
8000cd78:	1a000003 	bne	8000cd8c <bread+0x40>
8000cd7c:	ea00000f 	b	8000cdc0 <bread+0x74>
8000cd80:	e5944010 	ldr	r4, [r4, #16]
8000cd84:	e1540005 	cmp	r4, r5
8000cd88:	0a00000c 	beq	8000cdc0 <bread+0x74>
8000cd8c:	e5943004 	ldr	r3, [r4, #4]
8000cd90:	e1580003 	cmp	r8, r3
8000cd94:	1afffff9 	bne	8000cd80 <bread+0x34>
8000cd98:	e5943008 	ldr	r3, [r4, #8]
8000cd9c:	e1570003 	cmp	r7, r3
8000cda0:	1afffff6 	bne	8000cd80 <bread+0x34>
8000cda4:	e5943000 	ldr	r3, [r4]
8000cda8:	e3130001 	tst	r3, #1
8000cdac:	0a00001d 	beq	8000ce28 <bread+0xdc>
8000cdb0:	e1a00004 	mov	r0, r4
8000cdb4:	e1a01009 	mov	r1, r9
8000cdb8:	eb0022ad 	bl	80015874 <sleep>
8000cdbc:	eaffffeb 	b	8000cd70 <bread+0x24>
8000cdc0:	e5964530 	ldr	r4, [r6, #1328]	; 0x530
8000cdc4:	e1540005 	cmp	r4, r5
8000cdc8:	1a000003 	bne	8000cddc <bread+0x90>
8000cdcc:	ea00001b 	b	8000ce40 <bread+0xf4>
8000cdd0:	e594400c 	ldr	r4, [r4, #12]
8000cdd4:	e1540005 	cmp	r4, r5
8000cdd8:	0a000018 	beq	8000ce40 <bread+0xf4>
8000cddc:	e5943000 	ldr	r3, [r4]
8000cde0:	e3130005 	tst	r3, #5
8000cde4:	1afffff9 	bne	8000cdd0 <bread+0x84>
8000cde8:	e5848004 	str	r8, [r4, #4]
8000cdec:	e3a03001 	mov	r3, #1
8000cdf0:	e5847008 	str	r7, [r4, #8]
8000cdf4:	e30a0dd0 	movw	r0, #44496	; 0xadd0
8000cdf8:	e5843000 	str	r3, [r4]
8000cdfc:	e3480009 	movt	r0, #32777	; 0x8009
8000ce00:	ebfffc2e 	bl	8000bec0 <release>
8000ce04:	e5943000 	ldr	r3, [r4]
8000ce08:	e3130002 	tst	r3, #2
8000ce0c:	0a000001 	beq	8000ce18 <bread+0xcc>
8000ce10:	e1a00004 	mov	r0, r4
8000ce14:	e8bd87f0 	pop	{r4, r5, r6, r7, r8, r9, sl, pc}
8000ce18:	e1a00004 	mov	r0, r4
8000ce1c:	eb0004d0 	bl	8000e164 <usbrw>
8000ce20:	e1a00004 	mov	r0, r4
8000ce24:	e8bd87f0 	pop	{r4, r5, r6, r7, r8, r9, sl, pc}
8000ce28:	e3833001 	orr	r3, r3, #1
8000ce2c:	e30a0dd0 	movw	r0, #44496	; 0xadd0
8000ce30:	e5843000 	str	r3, [r4]
8000ce34:	e3480009 	movt	r0, #32777	; 0x8009
8000ce38:	ebfffc20 	bl	8000bec0 <release>
8000ce3c:	eafffff0 	b	8000ce04 <bread+0xb8>
8000ce40:	e30804f4 	movw	r0, #34036	; 0x84f4
8000ce44:	e3480001 	movt	r0, #32769	; 0x8001
8000ce48:	ebfffa87 	bl	8000b86c <panic>
8000ce4c:	8009bdd0 	.word	0x8009bdd0
8000ce50:	8009c2f4 	.word	0x8009c2f4

8000ce54 <bwrite>:
8000ce54:	e5903000 	ldr	r3, [r0]
8000ce58:	e3130001 	tst	r3, #1
8000ce5c:	0a000002 	beq	8000ce6c <bwrite+0x18>
8000ce60:	e3833004 	orr	r3, r3, #4
8000ce64:	e5803000 	str	r3, [r0]
8000ce68:	ea0004bd 	b	8000e164 <usbrw>
8000ce6c:	e3080508 	movw	r0, #34056	; 0x8508
8000ce70:	e92d4010 	push	{r4, lr}
8000ce74:	e3480001 	movt	r0, #32769	; 0x8001
8000ce78:	ebfffa7b 	bl	8000b86c <panic>

8000ce7c <brelse>:
8000ce7c:	e5903000 	ldr	r3, [r0]
8000ce80:	e92d4070 	push	{r4, r5, r6, lr}
8000ce84:	e3130001 	tst	r3, #1
8000ce88:	0a000016 	beq	8000cee8 <brelse+0x6c>
8000ce8c:	e59f5060 	ldr	r5, [pc, #96]	; 8000cef4 <brelse+0x78>
8000ce90:	e1a04000 	mov	r4, r0
8000ce94:	e30a0dd0 	movw	r0, #44496	; 0xadd0
8000ce98:	e3480009 	movt	r0, #32777	; 0x8009
8000ce9c:	ebfffbd1 	bl	8000bde8 <acquire>
8000cea0:	e5941010 	ldr	r1, [r4, #16]
8000cea4:	e1a00004 	mov	r0, r4
8000cea8:	e594200c 	ldr	r2, [r4, #12]
8000ceac:	e5943000 	ldr	r3, [r4]
8000ceb0:	e581200c 	str	r2, [r1, #12]
8000ceb4:	e5821010 	str	r1, [r2, #16]
8000ceb8:	e59f1038 	ldr	r1, [pc, #56]	; 8000cef8 <brelse+0x7c>
8000cebc:	e5952534 	ldr	r2, [r5, #1332]	; 0x534
8000cec0:	e3c33001 	bic	r3, r3, #1
8000cec4:	e5842010 	str	r2, [r4, #16]
8000cec8:	e584100c 	str	r1, [r4, #12]
8000cecc:	e582400c 	str	r4, [r2, #12]
8000ced0:	e5854534 	str	r4, [r5, #1332]	; 0x534
8000ced4:	e5843000 	str	r3, [r4]
8000ced8:	eb0022c8 	bl	80015a00 <wakeup>
8000cedc:	e2450a01 	sub	r0, r5, #4096	; 0x1000
8000cee0:	e8bd4070 	pop	{r4, r5, r6, lr}
8000cee4:	eafffbf5 	b	8000bec0 <release>
8000cee8:	e3080510 	movw	r0, #34064	; 0x8510
8000ceec:	e3480001 	movt	r0, #32769	; 0x8001
8000cef0:	ebfffa5d 	bl	8000b86c <panic>
8000cef4:	8009bdd0 	.word	0x8009bdd0
8000cef8:	8009c2f4 	.word	0x8009c2f4

8000cefc <fetchint>:
8000cefc:	e30a3b14 	movw	r3, #43796	; 0xab14
8000cf00:	e3483009 	movt	r3, #32777	; 0x8009
8000cf04:	e5933018 	ldr	r3, [r3, #24]
8000cf08:	e5933000 	ldr	r3, [r3]
8000cf0c:	e1530000 	cmp	r3, r0
8000cf10:	9a000006 	bls	8000cf30 <fetchint+0x34>
8000cf14:	e2802004 	add	r2, r0, #4
8000cf18:	e1530002 	cmp	r3, r2
8000cf1c:	3a000003 	bcc	8000cf30 <fetchint+0x34>
8000cf20:	e5903000 	ldr	r3, [r0]
8000cf24:	e3a00000 	mov	r0, #0
8000cf28:	e5813000 	str	r3, [r1]
8000cf2c:	e12fff1e 	bx	lr
8000cf30:	e3e00000 	mvn	r0, #0
8000cf34:	e12fff1e 	bx	lr

8000cf38 <fetchstr>:
8000cf38:	e30a3b14 	movw	r3, #43796	; 0xab14
8000cf3c:	e3483009 	movt	r3, #32777	; 0x8009
8000cf40:	e5933018 	ldr	r3, [r3, #24]
8000cf44:	e593c000 	ldr	ip, [r3]
8000cf48:	e15c0000 	cmp	ip, r0
8000cf4c:	9a00000d 	bls	8000cf88 <fetchstr+0x50>
8000cf50:	e150000c 	cmp	r0, ip
8000cf54:	e5810000 	str	r0, [r1]
8000cf58:	2a00000a 	bcs	8000cf88 <fetchstr+0x50>
8000cf5c:	e5d03000 	ldrb	r3, [r0]
8000cf60:	e3530000 	cmp	r3, #0
8000cf64:	0a00000b 	beq	8000cf98 <fetchstr+0x60>
8000cf68:	e1a03000 	mov	r3, r0
8000cf6c:	ea000002 	b	8000cf7c <fetchstr+0x44>
8000cf70:	e5d32000 	ldrb	r2, [r3]
8000cf74:	e3520000 	cmp	r2, #0
8000cf78:	0a000004 	beq	8000cf90 <fetchstr+0x58>
8000cf7c:	e2833001 	add	r3, r3, #1
8000cf80:	e15c0003 	cmp	ip, r3
8000cf84:	8afffff9 	bhi	8000cf70 <fetchstr+0x38>
8000cf88:	e3e00000 	mvn	r0, #0
8000cf8c:	e12fff1e 	bx	lr
8000cf90:	e0430000 	sub	r0, r3, r0
8000cf94:	e12fff1e 	bx	lr
8000cf98:	e1a00003 	mov	r0, r3
8000cf9c:	e12fff1e 	bx	lr

8000cfa0 <argint>:
8000cfa0:	e30a3b14 	movw	r3, #43796	; 0xab14
8000cfa4:	e3483009 	movt	r3, #32777	; 0x8009
8000cfa8:	e5933018 	ldr	r3, [r3, #24]
8000cfac:	e593c018 	ldr	ip, [r3, #24]
8000cfb0:	e5932000 	ldr	r2, [r3]
8000cfb4:	e59cc000 	ldr	ip, [ip]
8000cfb8:	e08c3100 	add	r3, ip, r0, lsl #2
8000cfbc:	e1530002 	cmp	r3, r2
8000cfc0:	2a000006 	bcs	8000cfe0 <argint+0x40>
8000cfc4:	e2833004 	add	r3, r3, #4
8000cfc8:	e1520003 	cmp	r2, r3
8000cfcc:	3a000003 	bcc	8000cfe0 <argint+0x40>
8000cfd0:	e79c3100 	ldr	r3, [ip, r0, lsl #2]
8000cfd4:	e3a00000 	mov	r0, #0
8000cfd8:	e5813000 	str	r3, [r1]
8000cfdc:	e12fff1e 	bx	lr
8000cfe0:	e3e00000 	mvn	r0, #0
8000cfe4:	e12fff1e 	bx	lr

8000cfe8 <argptr>:
8000cfe8:	e30a3b14 	movw	r3, #43796	; 0xab14
8000cfec:	e3483009 	movt	r3, #32777	; 0x8009
8000cff0:	e52de004 	push	{lr}		; (str lr, [sp, #-4]!)
8000cff4:	e5933018 	ldr	r3, [r3, #24]
8000cff8:	e593e018 	ldr	lr, [r3, #24]
8000cffc:	e593c000 	ldr	ip, [r3]
8000d000:	e59ee000 	ldr	lr, [lr]
8000d004:	e08e3100 	add	r3, lr, r0, lsl #2
8000d008:	e153000c 	cmp	r3, ip
8000d00c:	2a00000b 	bcs	8000d040 <argptr+0x58>
8000d010:	e2833004 	add	r3, r3, #4
8000d014:	e15c0003 	cmp	ip, r3
8000d018:	3a000008 	bcc	8000d040 <argptr+0x58>
8000d01c:	e79e3100 	ldr	r3, [lr, r0, lsl #2]
8000d020:	e153000c 	cmp	r3, ip
8000d024:	2a000005 	bcs	8000d040 <argptr+0x58>
8000d028:	e0822003 	add	r2, r2, r3
8000d02c:	e152000c 	cmp	r2, ip
8000d030:	8a000002 	bhi	8000d040 <argptr+0x58>
8000d034:	e5813000 	str	r3, [r1]
8000d038:	e3a00000 	mov	r0, #0
8000d03c:	e49df004 	pop	{pc}		; (ldr pc, [sp], #4)
8000d040:	e3e00000 	mvn	r0, #0
8000d044:	e49df004 	pop	{pc}		; (ldr pc, [sp], #4)

8000d048 <argstr>:
8000d048:	e30a3b14 	movw	r3, #43796	; 0xab14
8000d04c:	e3483009 	movt	r3, #32777	; 0x8009
8000d050:	e5933018 	ldr	r3, [r3, #24]
8000d054:	e593c018 	ldr	ip, [r3, #24]
8000d058:	e5932000 	ldr	r2, [r3]
8000d05c:	e59cc000 	ldr	ip, [ip]
8000d060:	e08c3100 	add	r3, ip, r0, lsl #2
8000d064:	e1530002 	cmp	r3, r2
8000d068:	2a000011 	bcs	8000d0b4 <argstr+0x6c>
8000d06c:	e2833004 	add	r3, r3, #4
8000d070:	e1520003 	cmp	r2, r3
8000d074:	3a00000e 	bcc	8000d0b4 <argstr+0x6c>
8000d078:	e79cc100 	ldr	ip, [ip, r0, lsl #2]
8000d07c:	e15c0002 	cmp	ip, r2
8000d080:	2a00000b 	bcs	8000d0b4 <argstr+0x6c>
8000d084:	e581c000 	str	ip, [r1]
8000d088:	e5dc0000 	ldrb	r0, [ip]
8000d08c:	e3500000 	cmp	r0, #0
8000d090:	012fff1e 	bxeq	lr
8000d094:	e1a0000c 	mov	r0, ip
8000d098:	ea000002 	b	8000d0a8 <argstr+0x60>
8000d09c:	e5d03000 	ldrb	r3, [r0]
8000d0a0:	e3530000 	cmp	r3, #0
8000d0a4:	0a000004 	beq	8000d0bc <argstr+0x74>
8000d0a8:	e2800001 	add	r0, r0, #1
8000d0ac:	e1520000 	cmp	r2, r0
8000d0b0:	8afffff9 	bhi	8000d09c <argstr+0x54>
8000d0b4:	e3e00000 	mvn	r0, #0
8000d0b8:	e12fff1e 	bx	lr
8000d0bc:	e040000c 	sub	r0, r0, ip
8000d0c0:	e12fff1e 	bx	lr

8000d0c4 <syscall>:
8000d0c4:	e92d4010 	push	{r4, lr}
8000d0c8:	e30a4b14 	movw	r4, #43796	; 0xab14
8000d0cc:	e3484009 	movt	r4, #32777	; 0x8009
8000d0d0:	e5942018 	ldr	r2, [r4, #24]
8000d0d4:	e5923018 	ldr	r3, [r2, #24]
8000d0d8:	e5933004 	ldr	r3, [r3, #4]
8000d0dc:	e2431001 	sub	r1, r3, #1
8000d0e0:	e3510015 	cmp	r1, #21
8000d0e4:	8a00000b 	bhi	8000d118 <syscall+0x54>
8000d0e8:	e3081518 	movw	r1, #34072	; 0x8518
8000d0ec:	e3481001 	movt	r1, #32769	; 0x8001
8000d0f0:	e7911103 	ldr	r1, [r1, r3, lsl #2]
8000d0f4:	e3510000 	cmp	r1, #0
8000d0f8:	0a000006 	beq	8000d118 <syscall+0x54>
8000d0fc:	e3530007 	cmp	r3, #7
8000d100:	0a00000e 	beq	8000d140 <syscall+0x7c>
8000d104:	e12fff31 	blx	r1
8000d108:	e5943018 	ldr	r3, [r4, #24]
8000d10c:	e5933018 	ldr	r3, [r3, #24]
8000d110:	e5830004 	str	r0, [r3, #4]
8000d114:	e8bd8010 	pop	{r4, pc}
8000d118:	e5921010 	ldr	r1, [r2, #16]
8000d11c:	e3080574 	movw	r0, #34164	; 0x8574
8000d120:	e3480001 	movt	r0, #32769	; 0x8001
8000d124:	e282206c 	add	r2, r2, #108	; 0x6c
8000d128:	ebfff9ec 	bl	8000b8e0 <cprintf>
8000d12c:	e5943018 	ldr	r3, [r4, #24]
8000d130:	e3e02000 	mvn	r2, #0
8000d134:	e5933018 	ldr	r3, [r3, #24]
8000d138:	e5832004 	str	r2, [r3, #4]
8000d13c:	e8bd8010 	pop	{r4, pc}
8000d140:	ebfff409 	bl	8000a16c <sys_exec>
8000d144:	e3700001 	cmn	r0, #1
8000d148:	18bd8010 	popne	{r4, pc}
8000d14c:	eaffffed 	b	8000d108 <syscall+0x44>

8000d150 <USBEndpoint>:
8000d150:	e5801000 	str	r1, [r0]
8000d154:	e3a03008 	mov	r3, #8
8000d158:	e5803010 	str	r3, [r0, #16]
8000d15c:	e3a02001 	mov	r2, #1
8000d160:	e5802014 	str	r2, [r0, #20]
8000d164:	e3a03000 	mov	r3, #0
8000d168:	e5c03004 	strb	r3, [r0, #4]
8000d16c:	e5803008 	str	r3, [r0, #8]
8000d170:	e580300c 	str	r3, [r0, #12]
8000d174:	e5803018 	str	r3, [r0, #24]
8000d178:	e12fff1e 	bx	lr

8000d17c <USBEndpoint2>:
8000d17c:	e92d4070 	push	{r4, r5, r6, lr}
8000d180:	e3a05001 	mov	r5, #1
8000d184:	e5801000 	str	r1, [r0]
8000d188:	e5805014 	str	r5, [r0, #20]
8000d18c:	e5d23003 	ldrb	r3, [r2, #3]
8000d190:	e2033003 	and	r3, r3, #3
8000d194:	e3530002 	cmp	r3, #2
8000d198:	0a000016 	beq	8000d1f8 <USBEndpoint2+0x7c>
8000d19c:	e3530003 	cmp	r3, #3
8000d1a0:	18bd8070 	popne	{r4, r5, r6, pc}
8000d1a4:	e5805018 	str	r5, [r0, #24]
8000d1a8:	e3a03002 	mov	r3, #2
8000d1ac:	e5803008 	str	r3, [r0, #8]
8000d1b0:	e1a04000 	mov	r4, r0
8000d1b4:	e5d23002 	ldrb	r3, [r2, #2]
8000d1b8:	e203000f 	and	r0, r3, #15
8000d1bc:	e1a033a3 	lsr	r3, r3, #7
8000d1c0:	e5c40004 	strb	r0, [r4, #4]
8000d1c4:	e1a00001 	mov	r0, r1
8000d1c8:	e584300c 	str	r3, [r4, #12]
8000d1cc:	e1d230b4 	ldrh	r3, [r2, #4]
8000d1d0:	e5843010 	str	r3, [r4, #16]
8000d1d4:	e5d26006 	ldrb	r6, [r2, #6]
8000d1d8:	e3560000 	cmp	r6, #0
8000d1dc:	0a00000f 	beq	8000d220 <USBEndpoint2+0xa4>
8000d1e0:	ebfff795 	bl	8000b03c <USBDeviceGetSpeed>
8000d1e4:	e3500002 	cmp	r0, #2
8000d1e8:	0a000012 	beq	8000d238 <USBEndpoint2+0xbc>
8000d1ec:	e1a05006 	mov	r5, r6
8000d1f0:	e5845014 	str	r5, [r4, #20]
8000d1f4:	e8bd8070 	pop	{r4, r5, r6, pc}
8000d1f8:	e5805008 	str	r5, [r0, #8]
8000d1fc:	e5805018 	str	r5, [r0, #24]
8000d200:	e5d23002 	ldrb	r3, [r2, #2]
8000d204:	e203100f 	and	r1, r3, #15
8000d208:	e1a033a3 	lsr	r3, r3, #7
8000d20c:	e5c01004 	strb	r1, [r0, #4]
8000d210:	e580300c 	str	r3, [r0, #12]
8000d214:	e1d230b4 	ldrh	r3, [r2, #4]
8000d218:	e5803010 	str	r3, [r0, #16]
8000d21c:	e8bd8070 	pop	{r4, r5, r6, pc}
8000d220:	ebfff785 	bl	8000b03c <USBDeviceGetSpeed>
8000d224:	e3500002 	cmp	r0, #2
8000d228:	1afffff0 	bne	8000d1f0 <USBEndpoint2+0x74>
8000d22c:	e3a03001 	mov	r3, #1
8000d230:	e5843014 	str	r3, [r4, #20]
8000d234:	e8bd8070 	pop	{r4, r5, r6, pc}
8000d238:	e3560010 	cmp	r6, #16
8000d23c:	9a000002 	bls	8000d24c <USBEndpoint2+0xd0>
8000d240:	e3a03a01 	mov	r3, #4096	; 0x1000
8000d244:	e5843014 	str	r3, [r4, #20]
8000d248:	e8bd8070 	pop	{r4, r5, r6, pc}
8000d24c:	e2466001 	sub	r6, r6, #1
8000d250:	e1a05615 	lsl	r5, r5, r6
8000d254:	e3550007 	cmp	r5, #7
8000d258:	e1a051a5 	lsr	r5, r5, #3
8000d25c:	e5845014 	str	r5, [r4, #20]
8000d260:	c8bd8070 	popgt	{r4, r5, r6, pc}
8000d264:	eafffff0 	b	8000d22c <USBEndpoint2+0xb0>

8000d268 <USBEndpointCopy>:
8000d268:	e5802000 	str	r2, [r0]
8000d26c:	e5d13004 	ldrb	r3, [r1, #4]
8000d270:	e92d4010 	push	{r4, lr}
8000d274:	e5c03004 	strb	r3, [r0, #4]
8000d278:	e5914008 	ldr	r4, [r1, #8]
8000d27c:	e591e00c 	ldr	lr, [r1, #12]
8000d280:	e591c010 	ldr	ip, [r1, #16]
8000d284:	e1c121d4 	ldrd	r2, [r1, #20]
8000d288:	e5804008 	str	r4, [r0, #8]
8000d28c:	e580e00c 	str	lr, [r0, #12]
8000d290:	e580c010 	str	ip, [r0, #16]
8000d294:	e1c021f4 	strd	r2, [r0, #20]
8000d298:	e8bd8010 	pop	{r4, pc}

8000d29c <_USBEndpoint>:
8000d29c:	e3a03000 	mov	r3, #0
8000d2a0:	e5803000 	str	r3, [r0]
8000d2a4:	e12fff1e 	bx	lr

8000d2a8 <USBEndpointGetDevice>:
8000d2a8:	e5900000 	ldr	r0, [r0]
8000d2ac:	e12fff1e 	bx	lr

8000d2b0 <USBEndpointGetNumber>:
8000d2b0:	e5d00004 	ldrb	r0, [r0, #4]
8000d2b4:	e12fff1e 	bx	lr

8000d2b8 <USBEndpointGetType>:
8000d2b8:	e5900008 	ldr	r0, [r0, #8]
8000d2bc:	e12fff1e 	bx	lr

8000d2c0 <USBEndpointIsDirectionIn>:
8000d2c0:	e590000c 	ldr	r0, [r0, #12]
8000d2c4:	e12fff1e 	bx	lr

8000d2c8 <USBEndpointSetMaxPacketSize>:
8000d2c8:	e5801010 	str	r1, [r0, #16]
8000d2cc:	e12fff1e 	bx	lr

8000d2d0 <USBEndpointGetMaxPacketSize>:
8000d2d0:	e5900010 	ldr	r0, [r0, #16]
8000d2d4:	e12fff1e 	bx	lr

8000d2d8 <USBEndpointGetInterval>:
8000d2d8:	e5900014 	ldr	r0, [r0, #20]
8000d2dc:	e12fff1e 	bx	lr

8000d2e0 <USBEndpointGetNextPID>:
8000d2e0:	e3510000 	cmp	r1, #0
8000d2e4:	05900018 	ldreq	r0, [r0, #24]
8000d2e8:	13a00002 	movne	r0, #2
8000d2ec:	e12fff1e 	bx	lr

8000d2f0 <USBEndpointSkipPID>:
8000d2f0:	e3520000 	cmp	r2, #0
8000d2f4:	1a00000a 	bne	8000d324 <USBEndpointSkipPID+0x34>
8000d2f8:	e5903018 	ldr	r3, [r0, #24]
8000d2fc:	e3530001 	cmp	r3, #1
8000d300:	0a00000a 	beq	8000d330 <USBEndpointSkipPID+0x40>
8000d304:	e3530000 	cmp	r3, #0
8000d308:	0a00000a 	beq	8000d338 <USBEndpointSkipPID+0x48>
8000d30c:	e3530002 	cmp	r3, #2
8000d310:	112fff1e 	bxne	lr
8000d314:	e3110001 	tst	r1, #1
8000d318:	13a03001 	movne	r3, #1
8000d31c:	15803018 	strne	r3, [r0, #24]
8000d320:	e12fff1e 	bx	lr
8000d324:	e3a03000 	mov	r3, #0
8000d328:	e5803018 	str	r3, [r0, #24]
8000d32c:	e12fff1e 	bx	lr
8000d330:	e3110001 	tst	r1, #1
8000d334:	012fff1e 	bxeq	lr
8000d338:	e3a03002 	mov	r3, #2
8000d33c:	e5803018 	str	r3, [r0, #24]
8000d340:	e12fff1e 	bx	lr

8000d344 <USBEndpointResetPID>:
8000d344:	e3a03001 	mov	r3, #1
8000d348:	e5803018 	str	r3, [r0, #24]
8000d34c:	e12fff1e 	bx	lr

8000d350 <USBConfigurationParser>:
8000d350:	e081c002 	add	ip, r1, r2
8000d354:	e2423004 	sub	r3, r2, #4
8000d358:	e5801000 	str	r1, [r0]
8000d35c:	e3530f7f 	cmp	r3, #508	; 0x1fc
8000d360:	e5802004 	str	r2, [r0, #4]
8000d364:	e3a03000 	mov	r3, #0
8000d368:	e5801010 	str	r1, [r0, #16]
8000d36c:	e5801014 	str	r1, [r0, #20]
8000d370:	e5803008 	str	r3, [r0, #8]
8000d374:	e580c00c 	str	ip, [r0, #12]
8000d378:	812fff1e 	bxhi	lr
8000d37c:	e5d13000 	ldrb	r3, [r1]
8000d380:	e3530009 	cmp	r3, #9
8000d384:	112fff1e 	bxne	lr
8000d388:	e5d13001 	ldrb	r3, [r1, #1]
8000d38c:	e3530002 	cmp	r3, #2
8000d390:	112fff1e 	bxne	lr
8000d394:	e1d130b2 	ldrh	r3, [r1, #2]
8000d398:	e1530002 	cmp	r3, r2
8000d39c:	812fff1e 	bxhi	lr
8000d3a0:	e92d4030 	push	{r4, r5, lr}
8000d3a4:	e3a05000 	mov	r5, #0
8000d3a8:	3081c003 	addcc	ip, r1, r3
8000d3ac:	e1a04005 	mov	r4, r5
8000d3b0:	3580c00c 	strcc	ip, [r0, #12]
8000d3b4:	ea000003 	b	8000d3c8 <USBConfigurationParser+0x78>
8000d3b8:	e3530002 	cmp	r3, #2
8000d3bc:	0a000016 	beq	8000d41c <USBConfigurationParser+0xcc>
8000d3c0:	e1a04003 	mov	r4, r3
8000d3c4:	e1a01002 	mov	r1, r2
8000d3c8:	e2813002 	add	r3, r1, #2
8000d3cc:	e15c0003 	cmp	ip, r3
8000d3d0:	9a00001d 	bls	8000d44c <USBConfigurationParser+0xfc>
8000d3d4:	e5d1e000 	ldrb	lr, [r1]
8000d3d8:	e5d13001 	ldrb	r3, [r1, #1]
8000d3dc:	e081200e 	add	r2, r1, lr
8000d3e0:	e15c0002 	cmp	ip, r2
8000d3e4:	3a00000a 	bcc	8000d414 <USBConfigurationParser+0xc4>
8000d3e8:	e3530004 	cmp	r3, #4
8000d3ec:	0a00000e 	beq	8000d42c <USBConfigurationParser+0xdc>
8000d3f0:	e3530005 	cmp	r3, #5
8000d3f4:	1affffef 	bne	8000d3b8 <USBConfigurationParser+0x68>
8000d3f8:	e31400fd 	tst	r4, #253	; 0xfd
8000d3fc:	0a000004 	beq	8000d414 <USBConfigurationParser+0xc4>
8000d400:	e3550000 	cmp	r5, #0
8000d404:	13a04009 	movne	r4, #9
8000d408:	03a04007 	moveq	r4, #7
8000d40c:	e154000e 	cmp	r4, lr
8000d410:	0affffea 	beq	8000d3c0 <USBConfigurationParser+0x70>
8000d414:	e5801014 	str	r1, [r0, #20]
8000d418:	e8bd8030 	pop	{r4, r5, pc}
8000d41c:	e3540000 	cmp	r4, #0
8000d420:	1afffffb 	bne	8000d414 <USBConfigurationParser+0xc4>
8000d424:	e3a04009 	mov	r4, #9
8000d428:	eafffff7 	b	8000d40c <USBConfigurationParser+0xbc>
8000d42c:	e3540000 	cmp	r4, #0
8000d430:	0afffff7 	beq	8000d414 <USBConfigurationParser+0xc4>
8000d434:	e5d15005 	ldrb	r5, [r1, #5]
8000d438:	e3a04009 	mov	r4, #9
8000d43c:	e2455001 	sub	r5, r5, #1
8000d440:	e16f5f15 	clz	r5, r5
8000d444:	e1a052a5 	lsr	r5, r5, #5
8000d448:	eaffffef 	b	8000d40c <USBConfigurationParser+0xbc>
8000d44c:	e15c0001 	cmp	ip, r1
8000d450:	1affffef 	bne	8000d414 <USBConfigurationParser+0xc4>
8000d454:	e3a03001 	mov	r3, #1
8000d458:	e5803008 	str	r3, [r0, #8]
8000d45c:	e8bd8030 	pop	{r4, r5, pc}

8000d460 <_USBConfigurationParser>:
8000d460:	e3a03000 	mov	r3, #0
8000d464:	e5803000 	str	r3, [r0]
8000d468:	e12fff1e 	bx	lr

8000d46c <USBConfigurationParserIsValid>:
8000d46c:	e5900008 	ldr	r0, [r0, #8]
8000d470:	e12fff1e 	bx	lr

8000d474 <USBConfigurationParserGetDescriptor>:
8000d474:	e92d4030 	push	{r4, r5, lr}
8000d478:	e590c010 	ldr	ip, [r0, #16]
8000d47c:	e590400c 	ldr	r4, [r0, #12]
8000d480:	e15c0004 	cmp	ip, r4
8000d484:	2a000021 	bcs	8000d510 <USBConfigurationParserGetDescriptor+0x9c>
8000d488:	e5dc2001 	ldrb	r2, [ip, #1]
8000d48c:	e2415005 	sub	r5, r1, #5
8000d490:	e16f5f15 	clz	r5, r5
8000d494:	e5dc3000 	ldrb	r3, [ip]
8000d498:	e3520004 	cmp	r2, #4
8000d49c:	03510005 	cmpeq	r1, #5
8000d4a0:	e1a052a5 	lsr	r5, r5, #5
8000d4a4:	e08c3003 	add	r3, ip, r3
8000d4a8:	0a000018 	beq	8000d510 <USBConfigurationParserGetDescriptor+0x9c>
8000d4ac:	e1510002 	cmp	r1, r2
8000d4b0:	1a00000b 	bne	8000d4e4 <USBConfigurationParserGetDescriptor+0x70>
8000d4b4:	ea000010 	b	8000d4fc <USBConfigurationParserGetDescriptor+0x88>
8000d4b8:	e5d3c001 	ldrb	ip, [r3, #1]
8000d4bc:	e5d32000 	ldrb	r2, [r3]
8000d4c0:	e35c0004 	cmp	ip, #4
8000d4c4:	13a0e000 	movne	lr, #0
8000d4c8:	0205e001 	andeq	lr, r5, #1
8000d4cc:	e0832002 	add	r2, r3, r2
8000d4d0:	e35e0000 	cmp	lr, #0
8000d4d4:	1a000004 	bne	8000d4ec <USBConfigurationParserGetDescriptor+0x78>
8000d4d8:	e15c0001 	cmp	ip, r1
8000d4dc:	0a000008 	beq	8000d504 <USBConfigurationParserGetDescriptor+0x90>
8000d4e0:	e1a03002 	mov	r3, r2
8000d4e4:	e1540003 	cmp	r4, r3
8000d4e8:	8afffff2 	bhi	8000d4b8 <USBConfigurationParserGetDescriptor+0x44>
8000d4ec:	e5803010 	str	r3, [r0, #16]
8000d4f0:	e3a03000 	mov	r3, #0
8000d4f4:	e1a00003 	mov	r0, r3
8000d4f8:	e8bd8030 	pop	{r4, r5, pc}
8000d4fc:	e1a02003 	mov	r2, r3
8000d500:	e1a0300c 	mov	r3, ip
8000d504:	e1c021f0 	strd	r2, [r0, #16]
8000d508:	e1a00003 	mov	r0, r3
8000d50c:	e8bd8030 	pop	{r4, r5, pc}
8000d510:	e3a03000 	mov	r3, #0
8000d514:	eafffff6 	b	8000d4f4 <USBConfigurationParserGetDescriptor+0x80>

8000d518 <USBConfigurationParserError>:
8000d518:	e590c014 	ldr	ip, [r0, #20]
8000d51c:	e3082590 	movw	r2, #34192	; 0x8590
8000d520:	e5903000 	ldr	r3, [r0]
8000d524:	e1a00001 	mov	r0, r1
8000d528:	e3482001 	movt	r2, #32769	; 0x8001
8000d52c:	e3a01001 	mov	r1, #1
8000d530:	e04c3003 	sub	r3, ip, r3
8000d534:	ea001188 	b	80011b5c <LogWrite>

8000d538 <create_request>:
8000d538:	e52de004 	push	{lr}		; (str lr, [sp, #-4]!)
8000d53c:	e59dc004 	ldr	ip, [sp, #4]
8000d540:	e3c33102 	bic	r3, r3, #-2147483648	; 0x80000000
8000d544:	e5801008 	str	r1, [r0, #8]
8000d548:	e35c0000 	cmp	ip, #0
8000d54c:	e580200c 	str	r2, [r0, #12]
8000d550:	e1a0e122 	lsr	lr, r2, #2
8000d554:	e5803010 	str	r3, [r0, #16]
8000d558:	0a000011 	beq	8000d5a4 <create_request+0x6c>
8000d55c:	e35e0000 	cmp	lr, #0
8000d560:	11a0300c 	movne	r3, ip
8000d564:	12802014 	addne	r2, r0, #20
8000d568:	1083c10e 	addne	ip, r3, lr, lsl #2
8000d56c:	0a000003 	beq	8000d580 <create_request+0x48>
8000d570:	e4931004 	ldr	r1, [r3], #4
8000d574:	e153000c 	cmp	r3, ip
8000d578:	e4821004 	str	r1, [r2], #4
8000d57c:	1afffffb 	bne	8000d570 <create_request+0x38>
8000d580:	e1a0e10e 	lsl	lr, lr, #2
8000d584:	e3a02000 	mov	r2, #0
8000d588:	e28ee014 	add	lr, lr, #20
8000d58c:	e780200e 	str	r2, [r0, lr]
8000d590:	e590300c 	ldr	r3, [r0, #12]
8000d594:	e2833018 	add	r3, r3, #24
8000d598:	e5803000 	str	r3, [r0]
8000d59c:	e5802004 	str	r2, [r0, #4]
8000d5a0:	e49df004 	pop	{pc}		; (ldr pc, [sp], #4)
8000d5a4:	e35e0000 	cmp	lr, #0
8000d5a8:	0afffff4 	beq	8000d580 <create_request+0x48>
8000d5ac:	e080110e 	add	r1, r0, lr, lsl #2
8000d5b0:	e1a0300c 	mov	r3, ip
8000d5b4:	e2811014 	add	r1, r1, #20
8000d5b8:	e2802014 	add	r2, r0, #20
8000d5bc:	e4823004 	str	r3, [r2], #4
8000d5c0:	e1510002 	cmp	r1, r2
8000d5c4:	1afffffc 	bne	8000d5bc <create_request+0x84>
8000d5c8:	eaffffec 	b	8000d580 <create_request+0x48>

8000d5cc <mailboxinit>:
8000d5cc:	e92d4010 	push	{r4, lr}
8000d5d0:	eb0014db 	bl	80012944 <kalloc>
8000d5d4:	e30c350c 	movw	r3, #50444	; 0xc50c
8000d5d8:	e3483009 	movt	r3, #32777	; 0x8009
8000d5dc:	e5830000 	str	r0, [r3]
8000d5e0:	e8bd8010 	pop	{r4, pc}

8000d5e4 <readmailbox>:
8000d5e4:	e30b2898 	movw	r2, #47256	; 0xb898
8000d5e8:	e30bc880 	movw	ip, #47232	; 0xb880
8000d5ec:	e34d2000 	movt	r2, #53248	; 0xd000
8000d5f0:	e200000f 	and	r0, r0, #15
8000d5f4:	e34dc000 	movt	ip, #53248	; 0xd000
8000d5f8:	e5923000 	ldr	r3, [r2]
8000d5fc:	e3130101 	tst	r3, #1073741824	; 0x40000000
8000d600:	1afffffc 	bne	8000d5f8 <readmailbox+0x14>
8000d604:	e59c3000 	ldr	r3, [ip]
8000d608:	e203100f 	and	r1, r3, #15
8000d60c:	e1500001 	cmp	r0, r1
8000d610:	1afffff8 	bne	8000d5f8 <readmailbox+0x14>
8000d614:	e3c3000f 	bic	r0, r3, #15
8000d618:	e12fff1e 	bx	lr

8000d61c <writemailbox>:
8000d61c:	e2800101 	add	r0, r0, #1073741824	; 0x40000000
8000d620:	e201100f 	and	r1, r1, #15
8000d624:	e92d4010 	push	{r4, lr}
8000d628:	e3c0000f 	bic	r0, r0, #15
8000d62c:	e1804001 	orr	r4, r0, r1
8000d630:	ebffeb00 	bl	80008238 <flush_dcache_all>
8000d634:	e30b2898 	movw	r2, #47256	; 0xb898
8000d638:	e34d2000 	movt	r2, #53248	; 0xd000
8000d63c:	e5923000 	ldr	r3, [r2]
8000d640:	e3530000 	cmp	r3, #0
8000d644:	bafffffc 	blt	8000d63c <writemailbox+0x20>
8000d648:	e30b38a0 	movw	r3, #47264	; 0xb8a0
8000d64c:	e34d3000 	movt	r3, #53248	; 0xd000
8000d650:	e5834000 	str	r4, [r3]
8000d654:	e8bd8010 	pop	{r4, pc}

8000d658 <USBStandardHub>:
8000d658:	e92d4010 	push	{r4, lr}
8000d65c:	e1a04000 	mov	r4, r0
8000d660:	ebfff515 	bl	8000aabc <USBDeviceCopy>
8000d664:	e30d2dcc 	movw	r2, #56780	; 0xddcc
8000d668:	e3a00000 	mov	r0, #0
8000d66c:	e3482000 	movt	r2, #32768	; 0x8000
8000d670:	e2843044 	add	r3, r4, #68	; 0x44
8000d674:	e5842000 	str	r2, [r4]
8000d678:	e2841064 	add	r1, r4, #100	; 0x64
8000d67c:	e584003c 	str	r0, [r4, #60]	; 0x3c
8000d680:	e1a02000 	mov	r2, r0
8000d684:	e5840040 	str	r0, [r4, #64]	; 0x40
8000d688:	e4832004 	str	r2, [r3], #4
8000d68c:	e1530001 	cmp	r3, r1
8000d690:	e583201c 	str	r2, [r3, #28]
8000d694:	1afffffb 	bne	8000d688 <USBStandardHub+0x30>
8000d698:	e8bd8010 	pop	{r4, pc}

8000d69c <_USBStandardHub>:
8000d69c:	e5903040 	ldr	r3, [r0, #64]	; 0x40
8000d6a0:	e92d41f0 	push	{r4, r5, r6, r7, r8, lr}
8000d6a4:	e3530000 	cmp	r3, #0
8000d6a8:	e1a06000 	mov	r6, r0
8000d6ac:	0a000012 	beq	8000d6fc <_USBStandardHub+0x60>
8000d6b0:	e3a05000 	mov	r5, #0
8000d6b4:	e2804060 	add	r4, r0, #96	; 0x60
8000d6b8:	e1a07005 	mov	r7, r5
8000d6bc:	e5b40004 	ldr	r0, [r4, #4]!
8000d6c0:	e2855001 	add	r5, r5, #1
8000d6c4:	e3500000 	cmp	r0, #0
8000d6c8:	0a000001 	beq	8000d6d4 <_USBStandardHub+0x38>
8000d6cc:	eb0010cf 	bl	80011a10 <free>
8000d6d0:	e5847000 	str	r7, [r4]
8000d6d4:	e5140020 	ldr	r0, [r4, #-32]	; 0xffffffe0
8000d6d8:	e3500000 	cmp	r0, #0
8000d6dc:	0a000003 	beq	8000d6f0 <_USBStandardHub+0x54>
8000d6e0:	ebfff532 	bl	8000abb0 <_USBDevice>
8000d6e4:	e5140020 	ldr	r0, [r4, #-32]	; 0xffffffe0
8000d6e8:	eb0010c8 	bl	80011a10 <free>
8000d6ec:	e5047020 	str	r7, [r4, #-32]	; 0xffffffe0
8000d6f0:	e5963040 	ldr	r3, [r6, #64]	; 0x40
8000d6f4:	e1530005 	cmp	r3, r5
8000d6f8:	8affffef 	bhi	8000d6bc <_USBStandardHub+0x20>
8000d6fc:	e596003c 	ldr	r0, [r6, #60]	; 0x3c
8000d700:	e3a04000 	mov	r4, #0
8000d704:	e5864040 	str	r4, [r6, #64]	; 0x40
8000d708:	e1500004 	cmp	r0, r4
8000d70c:	0a000001 	beq	8000d718 <_USBStandardHub+0x7c>
8000d710:	eb0010be 	bl	80011a10 <free>
8000d714:	e586403c 	str	r4, [r6, #60]	; 0x3c
8000d718:	e1a00006 	mov	r0, r6
8000d71c:	e8bd41f0 	pop	{r4, r5, r6, r7, r8, lr}
8000d720:	eafff522 	b	8000abb0 <_USBDevice>

8000d724 <USBStandardHubInitialize>:
8000d724:	eafff547 	b	8000ac48 <USBDeviceInitialize>

8000d728 <USBStandardHubGetDeviceNames>:
8000d728:	e92d47f0 	push	{r4, r5, r6, r7, r8, r9, sl, lr}
8000d72c:	e1a08000 	mov	r8, r0
8000d730:	e3a0000c 	mov	r0, #12
8000d734:	e30860d4 	movw	r6, #32980	; 0x80d4
8000d738:	e3486001 	movt	r6, #32769	; 0x8001
8000d73c:	e30895c8 	movw	r9, #34248	; 0x85c8
8000d740:	e3489001 	movt	r9, #32769	; 0x8001
8000d744:	eb0010aa 	bl	800119f4 <malloc>
8000d748:	e1a07000 	mov	r7, r0
8000d74c:	e3a04000 	mov	r4, #0
8000d750:	ebffec9c 	bl	800089c8 <String>
8000d754:	e1a01004 	mov	r1, r4
8000d758:	e1a00008 	mov	r0, r8
8000d75c:	e2844001 	add	r4, r4, #1
8000d760:	ebfff5f3 	bl	8000af34 <USBDeviceGetName>
8000d764:	e1a01006 	mov	r1, r6
8000d768:	e1a05000 	mov	r5, r0
8000d76c:	ebffece9 	bl	80008b18 <StringCompare>
8000d770:	e3500000 	cmp	r0, #0
8000d774:	1a00000b 	bne	8000d7a8 <USBStandardHubGetDeviceNames+0x80>
8000d778:	e1a00005 	mov	r0, r5
8000d77c:	ebffeca1 	bl	80008a08 <_String>
8000d780:	e1a00005 	mov	r0, r5
8000d784:	eb0010a1 	bl	80011a10 <free>
8000d788:	e3540003 	cmp	r4, #3
8000d78c:	1afffff0 	bne	8000d754 <USBStandardHubGetDeviceNames+0x2c>
8000d790:	e1a00007 	mov	r0, r7
8000d794:	ebffecbc 	bl	80008a8c <StringGetLength>
8000d798:	e3500000 	cmp	r0, #0
8000d79c:	0a00000b 	beq	8000d7d0 <USBStandardHubGetDeviceNames+0xa8>
8000d7a0:	e1a00007 	mov	r0, r7
8000d7a4:	e8bd87f0 	pop	{r4, r5, r6, r7, r8, r9, sl, pc}
8000d7a8:	e1a00007 	mov	r0, r7
8000d7ac:	ebffecb6 	bl	80008a8c <StringGetLength>
8000d7b0:	e3500000 	cmp	r0, #0
8000d7b4:	1a00000b 	bne	8000d7e8 <USBStandardHubGetDeviceNames+0xc0>
8000d7b8:	e1a00005 	mov	r0, r5
8000d7bc:	ebffec9b 	bl	80008a30 <StringGet>
8000d7c0:	e1a01000 	mov	r1, r0
8000d7c4:	e1a00007 	mov	r0, r7
8000d7c8:	ebffecb3 	bl	80008a9c <StringAppend>
8000d7cc:	eaffffe9 	b	8000d778 <USBStandardHubGetDeviceNames+0x50>
8000d7d0:	e30810d4 	movw	r1, #32980	; 0x80d4
8000d7d4:	e1a00007 	mov	r0, r7
8000d7d8:	e3481001 	movt	r1, #32769	; 0x8001
8000d7dc:	ebffec99 	bl	80008a48 <StringSet>
8000d7e0:	e1a00007 	mov	r0, r7
8000d7e4:	e8bd87f0 	pop	{r4, r5, r6, r7, r8, r9, sl, pc}
8000d7e8:	e1a01009 	mov	r1, r9
8000d7ec:	e1a00007 	mov	r0, r7
8000d7f0:	ebffeca9 	bl	80008a9c <StringAppend>
8000d7f4:	eaffffef 	b	8000d7b8 <USBStandardHubGetDeviceNames+0x90>

8000d7f8 <USBStandardHubEnumeratePorts>:
8000d7f8:	e92d4ff0 	push	{r4, r5, r6, r7, r8, r9, sl, fp, lr}
8000d7fc:	e24dd024 	sub	sp, sp, #36	; 0x24
8000d800:	e1a08000 	mov	r8, r0
8000d804:	ebfff614 	bl	8000b05c <USBDeviceGetHost>
8000d808:	e1a07000 	mov	r7, r0
8000d80c:	e1a00008 	mov	r0, r8
8000d810:	ebfff60f 	bl	8000b054 <USBDeviceGetEndpoint0>
8000d814:	e5983040 	ldr	r3, [r8, #64]	; 0x40
8000d818:	e1a09000 	mov	r9, r0
8000d81c:	e3530000 	cmp	r3, #0
8000d820:	13a04001 	movne	r4, #1
8000d824:	13a05000 	movne	r5, #0
8000d828:	13a06008 	movne	r6, #8
8000d82c:	1a000004 	bne	8000d844 <USBStandardHubEnumeratePorts+0x4c>
8000d830:	ea00001b 	b	8000d8a4 <USBStandardHubEnumeratePorts+0xac>
8000d834:	e5982040 	ldr	r2, [r8, #64]	; 0x40
8000d838:	e1520004 	cmp	r2, r4
8000d83c:	e1a04003 	mov	r4, r3
8000d840:	9a000017 	bls	8000d8a4 <USBStandardHubEnumeratePorts+0xac>
8000d844:	e58d500c 	str	r5, [sp, #12]
8000d848:	e6ff1074 	uxth	r1, r4
8000d84c:	e58d1004 	str	r1, [sp, #4]
8000d850:	e3a03003 	mov	r3, #3
8000d854:	e58d5008 	str	r5, [sp, #8]
8000d858:	e3a02023 	mov	r2, #35	; 0x23
8000d85c:	e58d6000 	str	r6, [sp]
8000d860:	e1a01009 	mov	r1, r9
8000d864:	e1a00007 	mov	r0, r7
8000d868:	eb001b70 	bl	80014630 <DWHCIDeviceControlMessage>
8000d86c:	e3500000 	cmp	r0, #0
8000d870:	e2843001 	add	r3, r4, #1
8000d874:	aaffffee 	bge	8000d834 <USBStandardHubEnumeratePorts+0x3c>
8000d878:	e30825cc 	movw	r2, #34252	; 0x85cc
8000d87c:	e30805c0 	movw	r0, #34240	; 0x85c0
8000d880:	e3482001 	movt	r2, #32769	; 0x8001
8000d884:	e1a03004 	mov	r3, r4
8000d888:	e3480001 	movt	r0, #32769	; 0x8001
8000d88c:	e3a01001 	mov	r1, #1
8000d890:	e3a04000 	mov	r4, #0
8000d894:	eb0010b0 	bl	80011b5c <LogWrite>
8000d898:	e1a00004 	mov	r0, r4
8000d89c:	e28dd024 	add	sp, sp, #36	; 0x24
8000d8a0:	e8bd8ff0 	pop	{r4, r5, r6, r7, r8, r9, sl, fp, pc}
8000d8a4:	e30001fe 	movw	r0, #510	; 0x1fe
8000d8a8:	eb001059 	bl	80011a14 <MsDelay>
8000d8ac:	e5983040 	ldr	r3, [r8, #64]	; 0x40
8000d8b0:	e3530000 	cmp	r3, #0
8000d8b4:	0a0000a5 	beq	8000db50 <USBStandardHubEnumeratePorts+0x358>
8000d8b8:	e3083658 	movw	r3, #34392	; 0x8658
8000d8bc:	e30825c0 	movw	r2, #34240	; 0x85c0
8000d8c0:	e3483001 	movt	r3, #32769	; 0x8001
8000d8c4:	e2886060 	add	r6, r8, #96	; 0x60
8000d8c8:	e3482001 	movt	r2, #32769	; 0x8001
8000d8cc:	e3a05001 	mov	r5, #1
8000d8d0:	e58d3018 	str	r3, [sp, #24]
8000d8d4:	e58d2014 	str	r2, [sp, #20]
8000d8d8:	ea00004c 	b	8000da10 <USBStandardHubEnumeratePorts+0x218>
8000d8dc:	e5963000 	ldr	r3, [r6]
8000d8e0:	e1d330b0 	ldrh	r3, [r3]
8000d8e4:	e3130001 	tst	r3, #1
8000d8e8:	0a000043 	beq	8000d9fc <USBStandardHubEnumeratePorts+0x204>
8000d8ec:	e58d0000 	str	r0, [sp]
8000d8f0:	e3a03003 	mov	r3, #3
8000d8f4:	e58d400c 	str	r4, [sp, #12]
8000d8f8:	e3a02023 	mov	r2, #35	; 0x23
8000d8fc:	e58d4008 	str	r4, [sp, #8]
8000d900:	e1a01009 	mov	r1, r9
8000d904:	e58da004 	str	sl, [sp, #4]
8000d908:	e1a00007 	mov	r0, r7
8000d90c:	eb001b47 	bl	80014630 <DWHCIDeviceControlMessage>
8000d910:	e3500000 	cmp	r0, #0
8000d914:	ba0000c1 	blt	8000dc20 <USBStandardHubEnumeratePorts+0x428>
8000d918:	e3a00064 	mov	r0, #100	; 0x64
8000d91c:	eb00103c 	bl	80011a14 <MsDelay>
8000d920:	e596c000 	ldr	ip, [r6]
8000d924:	e1a03004 	mov	r3, r4
8000d928:	e58db00c 	str	fp, [sp, #12]
8000d92c:	e3a020a3 	mov	r2, #163	; 0xa3
8000d930:	e58da004 	str	sl, [sp, #4]
8000d934:	e1a01009 	mov	r1, r9
8000d938:	e58d4000 	str	r4, [sp]
8000d93c:	e1a00007 	mov	r0, r7
8000d940:	e58dc008 	str	ip, [sp, #8]
8000d944:	eb001b39 	bl	80014630 <DWHCIDeviceControlMessage>
8000d948:	e3500004 	cmp	r0, #4
8000d94c:	1affffd1 	bne	8000d898 <USBStandardHubEnumeratePorts+0xa0>
8000d950:	e5963000 	ldr	r3, [r6]
8000d954:	e1d330b0 	ldrh	r3, [r3]
8000d958:	e3130002 	tst	r3, #2
8000d95c:	0a0000bb 	beq	8000dc50 <USBStandardHubEnumeratePorts+0x458>
8000d960:	e2132008 	ands	r2, r3, #8
8000d964:	1a000104 	bne	8000dd7c <USBStandardHubEnumeratePorts+0x584>
8000d968:	e3130c02 	tst	r3, #512	; 0x200
8000d96c:	11a04002 	movne	r4, r2
8000d970:	1a000002 	bne	8000d980 <USBStandardHubEnumeratePorts+0x188>
8000d974:	e3130b01 	tst	r3, #1024	; 0x400
8000d978:	13a04002 	movne	r4, #2
8000d97c:	03a04001 	moveq	r4, #1
8000d980:	e3a0003c 	mov	r0, #60	; 0x3c
8000d984:	eb00101a 	bl	800119f4 <malloc>
8000d988:	e1a0a000 	mov	sl, r0
8000d98c:	e1a00008 	mov	r0, r8
8000d990:	e506a020 	str	sl, [r6, #-32]	; 0xffffffe0
8000d994:	ebfff5a6 	bl	8000b034 <USBDeviceGetAddress>
8000d998:	e6ef2075 	uxtb	r2, r5
8000d99c:	e1a03000 	mov	r3, r0
8000d9a0:	e58d2000 	str	r2, [sp]
8000d9a4:	e1a0000a 	mov	r0, sl
8000d9a8:	e1a02004 	mov	r2, r4
8000d9ac:	e1a01007 	mov	r1, r7
8000d9b0:	ebfff425 	bl	8000aa4c <USBDevice>
8000d9b4:	e5160020 	ldr	r0, [r6, #-32]	; 0xffffffe0
8000d9b8:	ebfff4a2 	bl	8000ac48 <USBDeviceInitialize>
8000d9bc:	e2504000 	subs	r4, r0, #0
8000d9c0:	e5160020 	ldr	r0, [r6, #-32]	; 0xffffffe0
8000d9c4:	0a00009c 	beq	8000dc3c <USBStandardHubEnumeratePorts+0x444>
8000d9c8:	ebffff56 	bl	8000d728 <USBStandardHubGetDeviceNames>
8000d9cc:	e1a04000 	mov	r4, r0
8000d9d0:	ebffec16 	bl	80008a30 <StringGet>
8000d9d4:	e58d0000 	str	r0, [sp]
8000d9d8:	e1a03005 	mov	r3, r5
8000d9dc:	e59d2018 	ldr	r2, [sp, #24]
8000d9e0:	e3a01003 	mov	r1, #3
8000d9e4:	e59d0014 	ldr	r0, [sp, #20]
8000d9e8:	eb00105b 	bl	80011b5c <LogWrite>
8000d9ec:	e1a00004 	mov	r0, r4
8000d9f0:	ebffec04 	bl	80008a08 <_String>
8000d9f4:	e1a00004 	mov	r0, r4
8000d9f8:	eb001004 	bl	80011a10 <free>
8000d9fc:	e5983040 	ldr	r3, [r8, #64]	; 0x40
8000da00:	e2852001 	add	r2, r5, #1
8000da04:	e1530005 	cmp	r3, r5
8000da08:	9a00001c 	bls	8000da80 <USBStandardHubEnumeratePorts+0x288>
8000da0c:	e1a05002 	mov	r5, r2
8000da10:	e3a00004 	mov	r0, #4
8000da14:	e3a04000 	mov	r4, #0
8000da18:	e6ffa075 	uxth	sl, r5
8000da1c:	eb000ff4 	bl	800119f4 <malloc>
8000da20:	e5a60004 	str	r0, [r6, #4]!
8000da24:	e3a01004 	mov	r1, #4
8000da28:	e58d0008 	str	r0, [sp, #8]
8000da2c:	e1a03004 	mov	r3, r4
8000da30:	e58d100c 	str	r1, [sp, #12]
8000da34:	e3a020a3 	mov	r2, #163	; 0xa3
8000da38:	e58da004 	str	sl, [sp, #4]
8000da3c:	e1a01009 	mov	r1, r9
8000da40:	e58d4000 	str	r4, [sp]
8000da44:	e1a00007 	mov	r0, r7
8000da48:	eb001af8 	bl	80014630 <DWHCIDeviceControlMessage>
8000da4c:	e3500004 	cmp	r0, #4
8000da50:	e1a0b000 	mov	fp, r0
8000da54:	0affffa0 	beq	8000d8dc <USBStandardHubEnumeratePorts+0xe4>
8000da58:	e59d0014 	ldr	r0, [sp, #20]
8000da5c:	e30825e4 	movw	r2, #34276	; 0x85e4
8000da60:	e3482001 	movt	r2, #32769	; 0x8001
8000da64:	e1a03005 	mov	r3, r5
8000da68:	e3a01001 	mov	r1, #1
8000da6c:	eb00103a 	bl	80011b5c <LogWrite>
8000da70:	e5983040 	ldr	r3, [r8, #64]	; 0x40
8000da74:	e2852001 	add	r2, r5, #1
8000da78:	e1530005 	cmp	r3, r5
8000da7c:	8affffe2 	bhi	8000da0c <USBStandardHubEnumeratePorts+0x214>
8000da80:	e3530000 	cmp	r3, #0
8000da84:	0a000031 	beq	8000db50 <USBStandardHubEnumeratePorts+0x358>
8000da88:	e30826b4 	movw	r2, #34484	; 0x86b4
8000da8c:	e308a5c0 	movw	sl, #34240	; 0x85c0
8000da90:	e3482001 	movt	r2, #32769	; 0x8001
8000da94:	e308b698 	movw	fp, #34456	; 0x8698
8000da98:	e58d2014 	str	r2, [sp, #20]
8000da9c:	e2884044 	add	r4, r8, #68	; 0x44
8000daa0:	e348a001 	movt	sl, #32769	; 0x8001
8000daa4:	e3a05000 	mov	r5, #0
8000daa8:	e348b001 	movt	fp, #32769	; 0x8001
8000daac:	ea000013 	b	8000db00 <USBStandardHubEnumeratePorts+0x308>
8000dab0:	e5140004 	ldr	r0, [r4, #-4]
8000dab4:	ebfff43d 	bl	8000abb0 <_USBDevice>
8000dab8:	e5140004 	ldr	r0, [r4, #-4]
8000dabc:	eb000fd3 	bl	80011a10 <free>
8000dac0:	e5963000 	ldr	r3, [r6]
8000dac4:	e1a00006 	mov	r0, r6
8000dac8:	e5046004 	str	r6, [r4, #-4]
8000dacc:	e12fff33 	blx	r3
8000dad0:	e3500000 	cmp	r0, #0
8000dad4:	e1a0200b 	mov	r2, fp
8000dad8:	03082674 	movweq	r2, #34420	; 0x8674
8000dadc:	e1a03005 	mov	r3, r5
8000dae0:	03482001 	movteq	r2, #32769	; 0x8001
8000dae4:	e3a01004 	mov	r1, #4
8000dae8:	e1a0000a 	mov	r0, sl
8000daec:	03a01001 	moveq	r1, #1
8000daf0:	eb001019 	bl	80011b5c <LogWrite>
8000daf4:	e5983040 	ldr	r3, [r8, #64]	; 0x40
8000daf8:	e1530005 	cmp	r3, r5
8000dafc:	9a000013 	bls	8000db50 <USBStandardHubEnumeratePorts+0x358>
8000db00:	e4942004 	ldr	r2, [r4], #4
8000db04:	e2855001 	add	r5, r5, #1
8000db08:	e2520000 	subs	r0, r2, #0
8000db0c:	0afffff9 	beq	8000daf8 <USBStandardHubEnumeratePorts+0x300>
8000db10:	ebfff5d1 	bl	8000b25c <USBDeviceFactoryGetDevice>
8000db14:	e2506000 	subs	r6, r0, #0
8000db18:	1affffe4 	bne	8000dab0 <USBStandardHubEnumeratePorts+0x2b8>
8000db1c:	e59d2014 	ldr	r2, [sp, #20]
8000db20:	e1a03005 	mov	r3, r5
8000db24:	e3a01003 	mov	r1, #3
8000db28:	e1a0000a 	mov	r0, sl
8000db2c:	eb00100a 	bl	80011b5c <LogWrite>
8000db30:	e5140004 	ldr	r0, [r4, #-4]
8000db34:	ebfff41d 	bl	8000abb0 <_USBDevice>
8000db38:	e5140004 	ldr	r0, [r4, #-4]
8000db3c:	eb000fb3 	bl	80011a10 <free>
8000db40:	e5983040 	ldr	r3, [r8, #64]	; 0x40
8000db44:	e5046004 	str	r6, [r4, #-4]
8000db48:	e1530005 	cmp	r3, r5
8000db4c:	8affffeb 	bhi	8000db00 <USBStandardHubEnumeratePorts+0x308>
8000db50:	e3a00004 	mov	r0, #4
8000db54:	e3a04000 	mov	r4, #0
8000db58:	eb000fa5 	bl	800119f4 <malloc>
8000db5c:	e58d0008 	str	r0, [sp, #8]
8000db60:	e3a02004 	mov	r2, #4
8000db64:	e58d200c 	str	r2, [sp, #12]
8000db68:	e1a06000 	mov	r6, r0
8000db6c:	e58d4004 	str	r4, [sp, #4]
8000db70:	e1a03004 	mov	r3, r4
8000db74:	e58d4000 	str	r4, [sp]
8000db78:	e3a020a0 	mov	r2, #160	; 0xa0
8000db7c:	e1a01009 	mov	r1, r9
8000db80:	e1a00007 	mov	r0, r7
8000db84:	eb001aa9 	bl	80014630 <DWHCIDeviceControlMessage>
8000db88:	e3500004 	cmp	r0, #4
8000db8c:	e1a0a000 	mov	sl, r0
8000db90:	1a00006e 	bne	8000dd50 <USBStandardHubEnumeratePorts+0x558>
8000db94:	e1d630b0 	ldrh	r3, [r6]
8000db98:	e3130002 	tst	r3, #2
8000db9c:	0a000032 	beq	8000dc6c <USBStandardHubEnumeratePorts+0x474>
8000dba0:	e5983040 	ldr	r3, [r8, #64]	; 0x40
8000dba4:	e3530000 	cmp	r3, #0
8000dba8:	13a05001 	movne	r5, #1
8000dbac:	13a0a008 	movne	sl, #8
8000dbb0:	0a00000e 	beq	8000dbf0 <USBStandardHubEnumeratePorts+0x3f8>
8000dbb4:	e58d400c 	str	r4, [sp, #12]
8000dbb8:	e6ff1075 	uxth	r1, r5
8000dbbc:	e58d1004 	str	r1, [sp, #4]
8000dbc0:	e3a03001 	mov	r3, #1
8000dbc4:	e58d4008 	str	r4, [sp, #8]
8000dbc8:	e3a02023 	mov	r2, #35	; 0x23
8000dbcc:	e58da000 	str	sl, [sp]
8000dbd0:	e1a01009 	mov	r1, r9
8000dbd4:	e1a00007 	mov	r0, r7
8000dbd8:	eb001a94 	bl	80014630 <DWHCIDeviceControlMessage>
8000dbdc:	e5982040 	ldr	r2, [r8, #64]	; 0x40
8000dbe0:	e2853001 	add	r3, r5, #1
8000dbe4:	e1520005 	cmp	r2, r5
8000dbe8:	e1a05003 	mov	r5, r3
8000dbec:	8afffff0 	bhi	8000dbb4 <USBStandardHubEnumeratePorts+0x3bc>
8000dbf0:	e30826f0 	movw	r2, #34544	; 0x86f0
8000dbf4:	e30805c0 	movw	r0, #34240	; 0x85c0
8000dbf8:	e3482001 	movt	r2, #32769	; 0x8001
8000dbfc:	e3a01001 	mov	r1, #1
8000dc00:	e3480001 	movt	r0, #32769	; 0x8001
8000dc04:	e3a04000 	mov	r4, #0
8000dc08:	eb000fd3 	bl	80011b5c <LogWrite>
8000dc0c:	e1a00006 	mov	r0, r6
8000dc10:	eb000f7e 	bl	80011a10 <free>
8000dc14:	e1a00004 	mov	r0, r4
8000dc18:	e28dd024 	add	sp, sp, #36	; 0x24
8000dc1c:	e8bd8ff0 	pop	{r4, r5, r6, r7, r8, r9, sl, fp, pc}
8000dc20:	e59d0014 	ldr	r0, [sp, #20]
8000dc24:	e3082604 	movw	r2, #34308	; 0x8604
8000dc28:	e3482001 	movt	r2, #32769	; 0x8001
8000dc2c:	e1a03005 	mov	r3, r5
8000dc30:	e3a01001 	mov	r1, #1
8000dc34:	eb000fc8 	bl	80011b5c <LogWrite>
8000dc38:	eaffff6f 	b	8000d9fc <USBStandardHubEnumeratePorts+0x204>
8000dc3c:	ebfff3db 	bl	8000abb0 <_USBDevice>
8000dc40:	e5160020 	ldr	r0, [r6, #-32]	; 0xffffffe0
8000dc44:	eb000f71 	bl	80011a10 <free>
8000dc48:	e5064020 	str	r4, [r6, #-32]	; 0xffffffe0
8000dc4c:	eaffff6a 	b	8000d9fc <USBStandardHubEnumeratePorts+0x204>
8000dc50:	e59d0014 	ldr	r0, [sp, #20]
8000dc54:	e308261c 	movw	r2, #34332	; 0x861c
8000dc58:	e3482001 	movt	r2, #32769	; 0x8001
8000dc5c:	e1a03005 	mov	r3, r5
8000dc60:	e3a01001 	mov	r1, #1
8000dc64:	eb000fbc 	bl	80011b5c <LogWrite>
8000dc68:	eaffff63 	b	8000d9fc <USBStandardHubEnumeratePorts+0x204>
8000dc6c:	e1a00006 	mov	r0, r6
8000dc70:	eb000f66 	bl	80011a10 <free>
8000dc74:	e5983040 	ldr	r3, [r8, #64]	; 0x40
8000dc78:	e3530000 	cmp	r3, #0
8000dc7c:	0a000050 	beq	8000ddc4 <USBStandardHubEnumeratePorts+0x5cc>
8000dc80:	e58da014 	str	sl, [sp, #20]
8000dc84:	e3083634 	movw	r3, #34356	; 0x8634
8000dc88:	e3483001 	movt	r3, #32769	; 0x8001
8000dc8c:	e3a05001 	mov	r5, #1
8000dc90:	e58d3018 	str	r3, [sp, #24]
8000dc94:	e30835c0 	movw	r3, #34240	; 0x85c0
8000dc98:	e3483001 	movt	r3, #32769	; 0x8001
8000dc9c:	e1a04005 	mov	r4, r5
8000dca0:	e58d301c 	str	r3, [sp, #28]
8000dca4:	e288a060 	add	sl, r8, #96	; 0x60
8000dca8:	ea000004 	b	8000dcc0 <USBStandardHubEnumeratePorts+0x4c8>
8000dcac:	e5982040 	ldr	r2, [r8, #64]	; 0x40
8000dcb0:	e2853001 	add	r3, r5, #1
8000dcb4:	e1520005 	cmp	r2, r5
8000dcb8:	e1a05003 	mov	r5, r3
8000dcbc:	9afffef5 	bls	8000d898 <USBStandardHubEnumeratePorts+0xa0>
8000dcc0:	e5ba3004 	ldr	r3, [sl, #4]!
8000dcc4:	e3a06000 	mov	r6, #0
8000dcc8:	e59d2014 	ldr	r2, [sp, #20]
8000dccc:	e6ffb075 	uxth	fp, r5
8000dcd0:	e58d3008 	str	r3, [sp, #8]
8000dcd4:	e1a01009 	mov	r1, r9
8000dcd8:	e58d200c 	str	r2, [sp, #12]
8000dcdc:	e1a03006 	mov	r3, r6
8000dce0:	e58db004 	str	fp, [sp, #4]
8000dce4:	e3a020a3 	mov	r2, #163	; 0xa3
8000dce8:	e58d6000 	str	r6, [sp]
8000dcec:	e1a00007 	mov	r0, r7
8000dcf0:	eb001a4e 	bl	80014630 <DWHCIDeviceControlMessage>
8000dcf4:	e3500004 	cmp	r0, #4
8000dcf8:	1affffeb 	bne	8000dcac <USBStandardHubEnumeratePorts+0x4b4>
8000dcfc:	e59a3000 	ldr	r3, [sl]
8000dd00:	e1d330b0 	ldrh	r3, [r3]
8000dd04:	e3130008 	tst	r3, #8
8000dd08:	0affffe7 	beq	8000dcac <USBStandardHubEnumeratePorts+0x4b4>
8000dd0c:	e58d600c 	str	r6, [sp, #12]
8000dd10:	e3a01008 	mov	r1, #8
8000dd14:	e58d1000 	str	r1, [sp]
8000dd18:	e3a03001 	mov	r3, #1
8000dd1c:	e58d6008 	str	r6, [sp, #8]
8000dd20:	e1a01009 	mov	r1, r9
8000dd24:	e58db004 	str	fp, [sp, #4]
8000dd28:	e3a02023 	mov	r2, #35	; 0x23
8000dd2c:	e1a00007 	mov	r0, r7
8000dd30:	e1a04006 	mov	r4, r6
8000dd34:	eb001a3d 	bl	80014630 <DWHCIDeviceControlMessage>
8000dd38:	e59d2018 	ldr	r2, [sp, #24]
8000dd3c:	e1a03005 	mov	r3, r5
8000dd40:	e59d001c 	ldr	r0, [sp, #28]
8000dd44:	e3a01001 	mov	r1, #1
8000dd48:	eb000f83 	bl	80011b5c <LogWrite>
8000dd4c:	eaffffd6 	b	8000dcac <USBStandardHubEnumeratePorts+0x4b4>
8000dd50:	e30826d8 	movw	r2, #34520	; 0x86d8
8000dd54:	e30805c0 	movw	r0, #34240	; 0x85c0
8000dd58:	e3482001 	movt	r2, #32769	; 0x8001
8000dd5c:	e3a01001 	mov	r1, #1
8000dd60:	e3480001 	movt	r0, #32769	; 0x8001
8000dd64:	eb000f7c 	bl	80011b5c <LogWrite>
8000dd68:	e1a00006 	mov	r0, r6
8000dd6c:	eb000f27 	bl	80011a10 <free>
8000dd70:	e1a00004 	mov	r0, r4
8000dd74:	e28dd024 	add	sp, sp, #36	; 0x24
8000dd78:	e8bd8ff0 	pop	{r4, r5, r6, r7, r8, r9, sl, fp, pc}
8000dd7c:	e58d400c 	str	r4, [sp, #12]
8000dd80:	e3a03008 	mov	r3, #8
8000dd84:	e58d3000 	str	r3, [sp]
8000dd88:	e1a01009 	mov	r1, r9
8000dd8c:	e58d4008 	str	r4, [sp, #8]
8000dd90:	e1a00007 	mov	r0, r7
8000dd94:	e58da004 	str	sl, [sp, #4]
8000dd98:	e3a03001 	mov	r3, #1
8000dd9c:	e3a02023 	mov	r2, #35	; 0x23
8000dda0:	eb001a22 	bl	80014630 <DWHCIDeviceControlMessage>
8000dda4:	e3082634 	movw	r2, #34356	; 0x8634
8000dda8:	e30805c0 	movw	r0, #34240	; 0x85c0
8000ddac:	e3482001 	movt	r2, #32769	; 0x8001
8000ddb0:	e1a03005 	mov	r3, r5
8000ddb4:	e3480001 	movt	r0, #32769	; 0x8001
8000ddb8:	e3a01001 	mov	r1, #1
8000ddbc:	eb000f66 	bl	80011b5c <LogWrite>
8000ddc0:	eafffeb4 	b	8000d898 <USBStandardHubEnumeratePorts+0xa0>
8000ddc4:	e3a04001 	mov	r4, #1
8000ddc8:	eafffeb2 	b	8000d898 <USBStandardHubEnumeratePorts+0xa0>

8000ddcc <USBStandardHubConfigure>:
8000ddcc:	e92d40f0 	push	{r4, r5, r6, r7, lr}
8000ddd0:	e24dd014 	sub	sp, sp, #20
8000ddd4:	e1a05000 	mov	r5, r0
8000ddd8:	ebfff4a1 	bl	8000b064 <USBDeviceGetDeviceDescriptor>
8000dddc:	e5d03004 	ldrb	r3, [r0, #4]
8000dde0:	e3530009 	cmp	r3, #9
8000dde4:	15d03006 	ldrbne	r3, [r0, #6]
8000dde8:	1a000008 	bne	8000de10 <USBStandardHubConfigure+0x44>
8000ddec:	e5d02005 	ldrb	r2, [r0, #5]
8000ddf0:	e5d03006 	ldrb	r3, [r0, #6]
8000ddf4:	e3520000 	cmp	r2, #0
8000ddf8:	1a000004 	bne	8000de10 <USBStandardHubConfigure+0x44>
8000ddfc:	e3530002 	cmp	r3, #2
8000de00:	1a000002 	bne	8000de10 <USBStandardHubConfigure+0x44>
8000de04:	e5d02011 	ldrb	r2, [r0, #17]
8000de08:	e3520001 	cmp	r2, #1
8000de0c:	0a000009 	beq	8000de38 <USBStandardHubConfigure+0x6c>
8000de10:	e308270c 	movw	r2, #34572	; 0x870c
8000de14:	e30805c0 	movw	r0, #34240	; 0x85c0
8000de18:	e3482001 	movt	r2, #32769	; 0x8001
8000de1c:	e3a01001 	mov	r1, #1
8000de20:	e3480001 	movt	r0, #32769	; 0x8001
8000de24:	e3a04000 	mov	r4, #0
8000de28:	eb000f4b 	bl	80011b5c <LogWrite>
8000de2c:	e1a00004 	mov	r0, r4
8000de30:	e28dd014 	add	sp, sp, #20
8000de34:	e8bd80f0 	pop	{r4, r5, r6, r7, pc}
8000de38:	e1a01003 	mov	r1, r3
8000de3c:	e1a00005 	mov	r0, r5
8000de40:	ebfff48b 	bl	8000b074 <USBDeviceGetDescriptor>
8000de44:	e3500000 	cmp	r0, #0
8000de48:	0a000018 	beq	8000deb0 <USBStandardHubConfigure+0xe4>
8000de4c:	e5d03004 	ldrb	r3, [r0, #4]
8000de50:	e3530001 	cmp	r3, #1
8000de54:	1a000015 	bne	8000deb0 <USBStandardHubConfigure+0xe4>
8000de58:	e3a01004 	mov	r1, #4
8000de5c:	e1a00005 	mov	r0, r5
8000de60:	ebfff483 	bl	8000b074 <USBDeviceGetDescriptor>
8000de64:	e2506000 	subs	r6, r0, #0
8000de68:	0a000010 	beq	8000deb0 <USBStandardHubConfigure+0xe4>
8000de6c:	e5d63005 	ldrb	r3, [r6, #5]
8000de70:	e3530009 	cmp	r3, #9
8000de74:	1afffff7 	bne	8000de58 <USBStandardHubConfigure+0x8c>
8000de78:	e5d64006 	ldrb	r4, [r6, #6]
8000de7c:	e3540000 	cmp	r4, #0
8000de80:	1afffff4 	bne	8000de58 <USBStandardHubConfigure+0x8c>
8000de84:	e5d63007 	ldrb	r3, [r6, #7]
8000de88:	e3530002 	cmp	r3, #2
8000de8c:	1afffff1 	bne	8000de58 <USBStandardHubConfigure+0x8c>
8000de90:	e5d67004 	ldrb	r7, [r6, #4]
8000de94:	e3570001 	cmp	r7, #1
8000de98:	0a00000a 	beq	8000dec8 <USBStandardHubConfigure+0xfc>
8000de9c:	e30815c0 	movw	r1, #34240	; 0x85c0
8000dea0:	e1a00005 	mov	r0, r5
8000dea4:	e3481001 	movt	r1, #32769	; 0x8001
8000dea8:	ebfff473 	bl	8000b07c <USBDeviceConfigurationError>
8000deac:	eaffffde 	b	8000de2c <USBStandardHubConfigure+0x60>
8000deb0:	e30815c0 	movw	r1, #34240	; 0x85c0
8000deb4:	e1a00005 	mov	r0, r5
8000deb8:	e3481001 	movt	r1, #32769	; 0x8001
8000debc:	e3a04000 	mov	r4, #0
8000dec0:	ebfff46d 	bl	8000b07c <USBDeviceConfigurationError>
8000dec4:	eaffffd8 	b	8000de2c <USBStandardHubConfigure+0x60>
8000dec8:	e3a01005 	mov	r1, #5
8000decc:	e1a00005 	mov	r0, r5
8000ded0:	ebfff467 	bl	8000b074 <USBDeviceGetDescriptor>
8000ded4:	e3500000 	cmp	r0, #0
8000ded8:	0afffff4 	beq	8000deb0 <USBStandardHubConfigure+0xe4>
8000dedc:	e1d030d2 	ldrsb	r3, [r0, #2]
8000dee0:	e3530000 	cmp	r3, #0
8000dee4:	aafffff1 	bge	8000deb0 <USBStandardHubConfigure+0xe4>
8000dee8:	e5d03003 	ldrb	r3, [r0, #3]
8000deec:	e203303f 	and	r3, r3, #63	; 0x3f
8000def0:	e3530003 	cmp	r3, #3
8000def4:	1affffed 	bne	8000deb0 <USBStandardHubConfigure+0xe4>
8000def8:	e1a00005 	mov	r0, r5
8000defc:	ebfff2b9 	bl	8000a9e8 <USBDeviceConfigure>
8000df00:	e2504000 	subs	r4, r0, #0
8000df04:	0a000038 	beq	8000dfec <USBStandardHubConfigure+0x220>
8000df08:	e1a00005 	mov	r0, r5
8000df0c:	ebfff452 	bl	8000b05c <USBDeviceGetHost>
8000df10:	e5d63003 	ldrb	r3, [r6, #3]
8000df14:	e1a07000 	mov	r7, r0
8000df18:	e3530000 	cmp	r3, #0
8000df1c:	0a00000f 	beq	8000df60 <USBStandardHubConfigure+0x194>
8000df20:	e1a00005 	mov	r0, r5
8000df24:	e3a04000 	mov	r4, #0
8000df28:	ebfff449 	bl	8000b054 <USBDeviceGetEndpoint0>
8000df2c:	e58d400c 	str	r4, [sp, #12]
8000df30:	e1a01000 	mov	r1, r0
8000df34:	e58d4008 	str	r4, [sp, #8]
8000df38:	e3a0300b 	mov	r3, #11
8000df3c:	e5d60002 	ldrb	r0, [r6, #2]
8000df40:	e3a02001 	mov	r2, #1
8000df44:	e58d0004 	str	r0, [sp, #4]
8000df48:	e1a00007 	mov	r0, r7
8000df4c:	e5d6c003 	ldrb	ip, [r6, #3]
8000df50:	e58dc000 	str	ip, [sp]
8000df54:	eb0019b5 	bl	80014630 <DWHCIDeviceControlMessage>
8000df58:	e1500004 	cmp	r0, r4
8000df5c:	ba00003f 	blt	8000e060 <USBStandardHubConfigure+0x294>
8000df60:	e3a00009 	mov	r0, #9
8000df64:	eb000ea2 	bl	800119f4 <malloc>
8000df68:	e585003c 	str	r0, [r5, #60]	; 0x3c
8000df6c:	e1a00005 	mov	r0, r5
8000df70:	ebfff437 	bl	8000b054 <USBDeviceGetEndpoint0>
8000df74:	e595203c 	ldr	r2, [r5, #60]	; 0x3c
8000df78:	e3a030a0 	mov	r3, #160	; 0xa0
8000df7c:	e58d3008 	str	r3, [sp, #8]
8000df80:	e3a03009 	mov	r3, #9
8000df84:	e58d2000 	str	r2, [sp]
8000df88:	e1a01000 	mov	r1, r0
8000df8c:	e58d3004 	str	r3, [sp, #4]
8000df90:	e1a00007 	mov	r0, r7
8000df94:	e3a03000 	mov	r3, #0
8000df98:	e3a02029 	mov	r2, #41	; 0x29
8000df9c:	eb0019cb 	bl	800146d0 <DWHCIDeviceGetDescriptor>
8000dfa0:	e3500009 	cmp	r0, #9
8000dfa4:	1a000017 	bne	8000e008 <USBStandardHubConfigure+0x23c>
8000dfa8:	e595303c 	ldr	r3, [r5, #60]	; 0x3c
8000dfac:	e5d33002 	ldrb	r3, [r3, #2]
8000dfb0:	e5853040 	str	r3, [r5, #64]	; 0x40
8000dfb4:	e3530008 	cmp	r3, #8
8000dfb8:	8a00001d 	bhi	8000e034 <USBStandardHubConfigure+0x268>
8000dfbc:	e1a00005 	mov	r0, r5
8000dfc0:	ebfffe0c 	bl	8000d7f8 <USBStandardHubEnumeratePorts>
8000dfc4:	e2504000 	subs	r4, r0, #0
8000dfc8:	13a04001 	movne	r4, #1
8000dfcc:	1affff96 	bne	8000de2c <USBStandardHubConfigure+0x60>
8000dfd0:	e3082770 	movw	r2, #34672	; 0x8770
8000dfd4:	e30805c0 	movw	r0, #34240	; 0x85c0
8000dfd8:	e3482001 	movt	r2, #32769	; 0x8001
8000dfdc:	e3a01001 	mov	r1, #1
8000dfe0:	e3480001 	movt	r0, #32769	; 0x8001
8000dfe4:	eb000edc 	bl	80011b5c <LogWrite>
8000dfe8:	eaffff8f 	b	8000de2c <USBStandardHubConfigure+0x60>
8000dfec:	e3072f60 	movw	r2, #32608	; 0x7f60
8000dff0:	e30805c0 	movw	r0, #34240	; 0x85c0
8000dff4:	e3482001 	movt	r2, #32769	; 0x8001
8000dff8:	e1a01007 	mov	r1, r7
8000dffc:	e3480001 	movt	r0, #32769	; 0x8001
8000e000:	eb000ed5 	bl	80011b5c <LogWrite>
8000e004:	eaffff88 	b	8000de2c <USBStandardHubConfigure+0x60>
8000e008:	e3082740 	movw	r2, #34624	; 0x8740
8000e00c:	e30805c0 	movw	r0, #34240	; 0x85c0
8000e010:	e3482001 	movt	r2, #32769	; 0x8001
8000e014:	e3a01001 	mov	r1, #1
8000e018:	e3480001 	movt	r0, #32769	; 0x8001
8000e01c:	e3a04000 	mov	r4, #0
8000e020:	eb000ecd 	bl	80011b5c <LogWrite>
8000e024:	e595003c 	ldr	r0, [r5, #60]	; 0x3c
8000e028:	eb000e78 	bl	80011a10 <free>
8000e02c:	e585403c 	str	r4, [r5, #60]	; 0x3c
8000e030:	eaffff7d 	b	8000de2c <USBStandardHubConfigure+0x60>
8000e034:	e308275c 	movw	r2, #34652	; 0x875c
8000e038:	e30805c0 	movw	r0, #34240	; 0x85c0
8000e03c:	e3482001 	movt	r2, #32769	; 0x8001
8000e040:	e3a01001 	mov	r1, #1
8000e044:	e3480001 	movt	r0, #32769	; 0x8001
8000e048:	e3a04000 	mov	r4, #0
8000e04c:	eb000ec2 	bl	80011b5c <LogWrite>
8000e050:	e595003c 	ldr	r0, [r5, #60]	; 0x3c
8000e054:	eb000e6d 	bl	80011a10 <free>
8000e058:	e585403c 	str	r4, [r5, #60]	; 0x3c
8000e05c:	eaffff72 	b	8000de2c <USBStandardHubConfigure+0x60>
8000e060:	e3082728 	movw	r2, #34600	; 0x8728
8000e064:	e30805c0 	movw	r0, #34240	; 0x85c0
8000e068:	e3482001 	movt	r2, #32769	; 0x8001
8000e06c:	e3a01001 	mov	r1, #1
8000e070:	e3480001 	movt	r0, #32769	; 0x8001
8000e074:	eb000eb8 	bl	80011b5c <LogWrite>
8000e078:	eaffff6b 	b	8000de2c <USBStandardHubConfigure+0x60>

8000e07c <ideinit>:
8000e07c:	e92d4010 	push	{r4, lr}
8000e080:	e30a3850 	movw	r3, #43088	; 0xa850
8000e084:	e3483001 	movt	r3, #32769	; 0x8001
8000e088:	e30a49a0 	movw	r4, #43424	; 0xa9a0
8000e08c:	e3484009 	movt	r4, #32777	; 0x8009
8000e090:	e30a0850 	movw	r0, #43088	; 0xa850
8000e094:	e3480009 	movt	r0, #32777	; 0x8009
8000e098:	e3a01c02 	mov	r1, #512	; 0x200
8000e09c:	e0400003 	sub	r0, r0, r3
8000e0a0:	e5843000 	str	r3, [r4]
8000e0a4:	ebfff15c 	bl	8000a61c <div>
8000e0a8:	e5840004 	str	r0, [r4, #4]
8000e0ac:	e8bd8010 	pop	{r4, pc}

8000e0b0 <ideintr>:
8000e0b0:	e12fff1e 	bx	lr

8000e0b4 <iderw>:
8000e0b4:	e5903000 	ldr	r3, [r0]
8000e0b8:	e92d4010 	push	{r4, lr}
8000e0bc:	e3130001 	tst	r3, #1
8000e0c0:	0a00001b 	beq	8000e134 <iderw+0x80>
8000e0c4:	e2032006 	and	r2, r3, #6
8000e0c8:	e3520002 	cmp	r2, #2
8000e0cc:	0a000021 	beq	8000e158 <iderw+0xa4>
8000e0d0:	e5902004 	ldr	r2, [r0, #4]
8000e0d4:	e1a04000 	mov	r4, r0
8000e0d8:	e3520001 	cmp	r2, #1
8000e0dc:	1a00001a 	bne	8000e14c <iderw+0x98>
8000e0e0:	e5901008 	ldr	r1, [r0, #8]
8000e0e4:	e30a29a0 	movw	r2, #43424	; 0xa9a0
8000e0e8:	e3482009 	movt	r2, #32777	; 0x8009
8000e0ec:	e5920004 	ldr	r0, [r2, #4]
8000e0f0:	e1510000 	cmp	r1, r0
8000e0f4:	2a000011 	bcs	8000e140 <iderw+0x8c>
8000e0f8:	e5922000 	ldr	r2, [r2]
8000e0fc:	e3130004 	tst	r3, #4
8000e100:	13c33004 	bicne	r3, r3, #4
8000e104:	e2840018 	add	r0, r4, #24
8000e108:	e0822481 	add	r2, r2, r1, lsl #9
8000e10c:	11a01000 	movne	r1, r0
8000e110:	15843000 	strne	r3, [r4]
8000e114:	11a00002 	movne	r0, r2
8000e118:	01a01002 	moveq	r1, r2
8000e11c:	e3a02c02 	mov	r2, #512	; 0x200
8000e120:	ebfff0d6 	bl	8000a480 <memmove>
8000e124:	e5943000 	ldr	r3, [r4]
8000e128:	e3833002 	orr	r3, r3, #2
8000e12c:	e5843000 	str	r3, [r4]
8000e130:	e8bd8010 	pop	{r4, pc}
8000e134:	e3080788 	movw	r0, #34696	; 0x8788
8000e138:	e3480001 	movt	r0, #32769	; 0x8001
8000e13c:	ebfff5ca 	bl	8000b86c <panic>
8000e140:	e30807d4 	movw	r0, #34772	; 0x87d4
8000e144:	e3480001 	movt	r0, #32769	; 0x8001
8000e148:	ebfff5c7 	bl	8000b86c <panic>
8000e14c:	e30807b4 	movw	r0, #34740	; 0x87b4
8000e150:	e3480001 	movt	r0, #32769	; 0x8001
8000e154:	ebfff5c4 	bl	8000b86c <panic>
8000e158:	e308079c 	movw	r0, #34716	; 0x879c
8000e15c:	e3480001 	movt	r0, #32769	; 0x8001
8000e160:	ebfff5c1 	bl	8000b86c <panic>

8000e164 <usbrw>:
8000e164:	e5903004 	ldr	r3, [r0, #4]
8000e168:	e3530001 	cmp	r3, #1
8000e16c:	0a000002 	beq	8000e17c <usbrw+0x18>
8000e170:	e30807f0 	movw	r0, #34800	; 0x87f0
8000e174:	e3480001 	movt	r0, #32769	; 0x8001
8000e178:	eafff5d8 	b	8000b8e0 <cprintf>
8000e17c:	eaffffcc 	b	8000e0b4 <iderw>

8000e180 <_DWHCIFrameSchedulerPeriodic>:
8000e180:	e3a03006 	mov	r3, #6
8000e184:	e5803018 	str	r3, [r0, #24]
8000e188:	e12fff1e 	bx	lr

8000e18c <DWHCIFrameSchedulerPeriodicStartSplit>:
8000e18c:	e3a03000 	mov	r3, #0
8000e190:	e5803018 	str	r3, [r0, #24]
8000e194:	e3a03008 	mov	r3, #8
8000e198:	e5803020 	str	r3, [r0, #32]
8000e19c:	e12fff1e 	bx	lr

8000e1a0 <DWHCIFrameSchedulerPeriodicIsOddFrame>:
8000e1a0:	e5900020 	ldr	r0, [r0, #32]
8000e1a4:	e2000001 	and	r0, r0, #1
8000e1a8:	e12fff1e 	bx	lr

8000e1ac <DWHCIFrameSchedulerPeriodicWaitForFrame>:
8000e1ac:	e92d4010 	push	{r4, lr}
8000e1b0:	e3001408 	movw	r1, #1032	; 0x408
8000e1b4:	e34d1098 	movt	r1, #53400	; 0xd098
8000e1b8:	e24dd010 	sub	sp, sp, #16
8000e1bc:	e1a04000 	mov	r4, r0
8000e1c0:	e28d0004 	add	r0, sp, #4
8000e1c4:	eb001be9 	bl	80015170 <DWHCIRegister>
8000e1c8:	e5943020 	ldr	r3, [r4, #32]
8000e1cc:	e3530008 	cmp	r3, #8
8000e1d0:	0a000009 	beq	8000e1fc <DWHCIFrameSchedulerPeriodicWaitForFrame+0x50>
8000e1d4:	e28d0004 	add	r0, sp, #4
8000e1d8:	eb001bef 	bl	8001519c <DWHCIRegisterRead>
8000e1dc:	e5943020 	ldr	r3, [r4, #32]
8000e1e0:	e2000007 	and	r0, r0, #7
8000e1e4:	e1500003 	cmp	r0, r3
8000e1e8:	1afffff9 	bne	8000e1d4 <DWHCIFrameSchedulerPeriodicWaitForFrame+0x28>
8000e1ec:	e28d0004 	add	r0, sp, #4
8000e1f0:	eb001be6 	bl	80015190 <_DWHCIRegister>
8000e1f4:	e28dd010 	add	sp, sp, #16
8000e1f8:	e8bd8010 	pop	{r4, pc}
8000e1fc:	e28d0004 	add	r0, sp, #4
8000e200:	eb001be5 	bl	8001519c <DWHCIRegisterRead>
8000e204:	e2800001 	add	r0, r0, #1
8000e208:	e2000007 	and	r0, r0, #7
8000e20c:	e3500006 	cmp	r0, #6
8000e210:	15840020 	strne	r0, [r4, #32]
8000e214:	03a03007 	moveq	r3, #7
8000e218:	05843020 	streq	r3, [r4, #32]
8000e21c:	eaffffec 	b	8000e1d4 <DWHCIFrameSchedulerPeriodicWaitForFrame+0x28>

8000e220 <DWHCIFrameSchedulerPeriodicCompleteSplit>:
8000e220:	e5903018 	ldr	r3, [r0, #24]
8000e224:	e3530001 	cmp	r3, #1
8000e228:	0a000009 	beq	8000e254 <DWHCIFrameSchedulerPeriodicCompleteSplit+0x34>
8000e22c:	e3530003 	cmp	r3, #3
8000e230:	13a03000 	movne	r3, #0
8000e234:	1a000004 	bne	8000e24c <DWHCIFrameSchedulerPeriodicCompleteSplit+0x2c>
8000e238:	e5902020 	ldr	r2, [r0, #32]
8000e23c:	e3a03001 	mov	r3, #1
8000e240:	e0822003 	add	r2, r2, r3
8000e244:	e2022007 	and	r2, r2, #7
8000e248:	e5802020 	str	r2, [r0, #32]
8000e24c:	e1a00003 	mov	r0, r3
8000e250:	e12fff1e 	bx	lr
8000e254:	e5902020 	ldr	r2, [r0, #32]
8000e258:	e3a01002 	mov	r1, #2
8000e25c:	e5801018 	str	r1, [r0, #24]
8000e260:	e3520005 	cmp	r2, #5
8000e264:	e0822001 	add	r2, r2, r1
8000e268:	13a01003 	movne	r1, #3
8000e26c:	e580101c 	str	r1, [r0, #28]
8000e270:	e2022007 	and	r2, r2, #7
8000e274:	e5802020 	str	r2, [r0, #32]
8000e278:	e1a00003 	mov	r0, r3
8000e27c:	e12fff1e 	bx	lr

8000e280 <DWHCIFrameSchedulerPeriodicTransactionComplete>:
8000e280:	e5902018 	ldr	r2, [r0, #24]
8000e284:	e92d4010 	push	{r4, lr}
8000e288:	e3520000 	cmp	r2, #0
8000e28c:	e1a04000 	mov	r4, r0
8000e290:	0a00000e 	beq	8000e2d0 <DWHCIFrameSchedulerPeriodicTransactionComplete+0x50>
8000e294:	e2422002 	sub	r2, r2, #2
8000e298:	e3520001 	cmp	r2, #1
8000e29c:	88bd8010 	pophi	{r4, pc}
8000e2a0:	e3110001 	tst	r1, #1
8000e2a4:	1a00000c 	bne	8000e2dc <DWHCIFrameSchedulerPeriodicTransactionComplete+0x5c>
8000e2a8:	e3110060 	tst	r1, #96	; 0x60
8000e2ac:	0a00000d 	beq	8000e2e8 <DWHCIFrameSchedulerPeriodicTransactionComplete+0x68>
8000e2b0:	e590301c 	ldr	r3, [r0, #28]
8000e2b4:	e3530000 	cmp	r3, #0
8000e2b8:	e2433001 	sub	r3, r3, #1
8000e2bc:	e580301c 	str	r3, [r0, #28]
8000e2c0:	0a000017 	beq	8000e324 <DWHCIFrameSchedulerPeriodicTransactionComplete+0xa4>
8000e2c4:	e3a03003 	mov	r3, #3
8000e2c8:	e5803018 	str	r3, [r0, #24]
8000e2cc:	e8bd8010 	pop	{r4, pc}
8000e2d0:	e3a03001 	mov	r3, #1
8000e2d4:	e5803018 	str	r3, [r0, #24]
8000e2d8:	e8bd8010 	pop	{r4, pc}
8000e2dc:	e3a03004 	mov	r3, #4
8000e2e0:	e5803018 	str	r3, [r0, #24]
8000e2e4:	e8bd8010 	pop	{r4, pc}
8000e2e8:	e3110010 	tst	r1, #16
8000e2ec:	0a000004 	beq	8000e304 <DWHCIFrameSchedulerPeriodicTransactionComplete+0x84>
8000e2f0:	e3000271 	movw	r0, #625	; 0x271
8000e2f4:	eb000dd3 	bl	80011a48 <usDelay>
8000e2f8:	e3a03005 	mov	r3, #5
8000e2fc:	e5843018 	str	r3, [r4, #24]
8000e300:	e8bd8010 	pop	{r4, pc}
8000e304:	e30823d4 	movw	r2, #33748	; 0x83d4
8000e308:	e30803e8 	movw	r0, #33768	; 0x83e8
8000e30c:	e3482001 	movt	r2, #32769	; 0x8001
8000e310:	e1a03001 	mov	r3, r1
8000e314:	e3480001 	movt	r0, #32769	; 0x8001
8000e318:	e3a01001 	mov	r1, #1
8000e31c:	e8bd4010 	pop	{r4, lr}
8000e320:	ea000e0d 	b	80011b5c <LogWrite>
8000e324:	e3a03005 	mov	r3, #5
8000e328:	e3a00ffa 	mov	r0, #1000	; 0x3e8
8000e32c:	e5843018 	str	r3, [r4, #24]
8000e330:	e8bd4010 	pop	{r4, lr}
8000e334:	ea000dc3 	b	80011a48 <usDelay>

8000e338 <DWHCIFrameSchedulerPeriodic>:
8000e338:	e92d4010 	push	{r4, lr}
8000e33c:	e30e4180 	movw	r4, #57728	; 0xe180
8000e340:	e3484000 	movt	r4, #32768	; 0x8000
8000e344:	e30ee18c 	movw	lr, #57740	; 0xe18c
8000e348:	e348e000 	movt	lr, #32768	; 0x8000
8000e34c:	e30ec220 	movw	ip, #57888	; 0xe220
8000e350:	e348c000 	movt	ip, #32768	; 0x8000
8000e354:	e30e1280 	movw	r1, #57984	; 0xe280
8000e358:	e3481000 	movt	r1, #32768	; 0x8000
8000e35c:	e30e21ac 	movw	r2, #57772	; 0xe1ac
8000e360:	e3482000 	movt	r2, #32768	; 0x8000
8000e364:	e30e31a0 	movw	r3, #57760	; 0xe1a0
8000e368:	e3483000 	movt	r3, #32768	; 0x8000
8000e36c:	e5804000 	str	r4, [r0]
8000e370:	e3a04006 	mov	r4, #6
8000e374:	e580e004 	str	lr, [r0, #4]
8000e378:	e3a0e008 	mov	lr, #8
8000e37c:	e580c008 	str	ip, [r0, #8]
8000e380:	e580100c 	str	r1, [r0, #12]
8000e384:	e1c021f0 	strd	r2, [r0, #16]
8000e388:	e5804018 	str	r4, [r0, #24]
8000e38c:	e580e020 	str	lr, [r0, #32]
8000e390:	e8bd8010 	pop	{r4, pc}

8000e394 <USBBulkOnlyMassStorageDevice>:
8000e394:	e92d4010 	push	{r4, lr}
8000e398:	e1a04000 	mov	r4, r0
8000e39c:	ebfff1c6 	bl	8000aabc <USBDeviceCopy>
8000e3a0:	e30e2644 	movw	r2, #58948	; 0xe644
8000e3a4:	e3a03000 	mov	r3, #0
8000e3a8:	e3482000 	movt	r2, #32768	; 0x8000
8000e3ac:	e3a00000 	mov	r0, #0
8000e3b0:	e5842000 	str	r2, [r4]
8000e3b4:	e3a01000 	mov	r1, #0
8000e3b8:	e1c405f0 	strd	r0, [r4, #80]	; 0x50
8000e3bc:	e584303c 	str	r3, [r4, #60]	; 0x3c
8000e3c0:	e5843040 	str	r3, [r4, #64]	; 0x40
8000e3c4:	e5843044 	str	r3, [r4, #68]	; 0x44
8000e3c8:	e5843048 	str	r3, [r4, #72]	; 0x48
8000e3cc:	e8bd8010 	pop	{r4, pc}

8000e3d0 <_USBBulkOnlyMassStorageDevice>:
8000e3d0:	e92d4010 	push	{r4, lr}
8000e3d4:	e1a04000 	mov	r4, r0
8000e3d8:	e5900040 	ldr	r0, [r0, #64]	; 0x40
8000e3dc:	e3500000 	cmp	r0, #0
8000e3e0:	0a000004 	beq	8000e3f8 <_USBBulkOnlyMassStorageDevice+0x28>
8000e3e4:	ebfffbac 	bl	8000d29c <_USBEndpoint>
8000e3e8:	e5940040 	ldr	r0, [r4, #64]	; 0x40
8000e3ec:	eb000d87 	bl	80011a10 <free>
8000e3f0:	e3a03000 	mov	r3, #0
8000e3f4:	e5843040 	str	r3, [r4, #64]	; 0x40
8000e3f8:	e594003c 	ldr	r0, [r4, #60]	; 0x3c
8000e3fc:	e3500000 	cmp	r0, #0
8000e400:	0a000004 	beq	8000e418 <_USBBulkOnlyMassStorageDevice+0x48>
8000e404:	ebfffba4 	bl	8000d29c <_USBEndpoint>
8000e408:	e594003c 	ldr	r0, [r4, #60]	; 0x3c
8000e40c:	eb000d7f 	bl	80011a10 <free>
8000e410:	e3a03000 	mov	r3, #0
8000e414:	e584303c 	str	r3, [r4, #60]	; 0x3c
8000e418:	e1a00004 	mov	r0, r4
8000e41c:	e8bd4010 	pop	{r4, lr}
8000e420:	eafff1e2 	b	8000abb0 <_USBDevice>

8000e424 <USBBulkOnlyMassStorageDeviceSeek>:
8000e424:	e1c025f0 	strd	r2, [r0, #80]	; 0x50
8000e428:	e1a01003 	mov	r1, r3
8000e42c:	e1a00002 	mov	r0, r2
8000e430:	e12fff1e 	bx	lr

8000e434 <USBBulkOnlyMassStorageDeviceGetCapacity>:
8000e434:	e5900048 	ldr	r0, [r0, #72]	; 0x48
8000e438:	e12fff1e 	bx	lr

8000e43c <USBBulkOnlyMassStorageDeviceCommand>:
8000e43c:	e92d47f0 	push	{r4, r5, r6, r7, r8, r9, sl, lr}
8000e440:	e24dd030 	sub	sp, sp, #48	; 0x30
8000e444:	e1a04000 	mov	r4, r0
8000e448:	e1a06002 	mov	r6, r2
8000e44c:	e59d7054 	ldr	r7, [sp, #84]	; 0x54
8000e450:	e1a09001 	mov	r9, r1
8000e454:	e59d5050 	ldr	r5, [sp, #80]	; 0x50
8000e458:	e3a0201f 	mov	r2, #31
8000e45c:	e3a01000 	mov	r1, #0
8000e460:	e28d0010 	add	r0, sp, #16
8000e464:	e1a08003 	mov	r8, r3
8000e468:	eb001150 	bl	800129b0 <uspi_memset>
8000e46c:	e5943044 	ldr	r3, [r4, #68]	; 0x44
8000e470:	e3570000 	cmp	r7, #0
8000e474:	e5dda01e 	ldrb	sl, [sp, #30]
8000e478:	13a00080 	movne	r0, #128	; 0x80
8000e47c:	e5dde01d 	ldrb	lr, [sp, #29]
8000e480:	03a00000 	moveq	r0, #0
8000e484:	e7c4a016 	bfi	sl, r6, #0, #5
8000e488:	e2833001 	add	r3, r3, #1
8000e48c:	e5843044 	str	r3, [r4, #68]	; 0x44
8000e490:	e305c355 	movw	ip, #21333	; 0x5355
8000e494:	e344c342 	movt	ip, #17218	; 0x4342
8000e498:	e1a02006 	mov	r2, r6
8000e49c:	e7c3e01f 	bfc	lr, #0, #4
8000e4a0:	e1a01009 	mov	r1, r9
8000e4a4:	e5cd001c 	strb	r0, [sp, #28]
8000e4a8:	e28d001f 	add	r0, sp, #31
8000e4ac:	e58d3014 	str	r3, [sp, #20]
8000e4b0:	e5cde01d 	strb	lr, [sp, #29]
8000e4b4:	e58dc010 	str	ip, [sp, #16]
8000e4b8:	e58d5018 	str	r5, [sp, #24]
8000e4bc:	e5cda01e 	strb	sl, [sp, #30]
8000e4c0:	eb001143 	bl	800129d4 <uspi_memcpy>
8000e4c4:	e1a00004 	mov	r0, r4
8000e4c8:	ebfff2e3 	bl	8000b05c <USBDeviceGetHost>
8000e4cc:	e5941040 	ldr	r1, [r4, #64]	; 0x40
8000e4d0:	e28d2010 	add	r2, sp, #16
8000e4d4:	e3a0301f 	mov	r3, #31
8000e4d8:	e1a06000 	mov	r6, r0
8000e4dc:	eb0018ae 	bl	8001479c <DWHCIDeviceTransfer>
8000e4e0:	e3500000 	cmp	r0, #0
8000e4e4:	ba000046 	blt	8000e604 <USBBulkOnlyMassStorageDeviceCommand+0x1c8>
8000e4e8:	e594103c 	ldr	r1, [r4, #60]	; 0x3c
8000e4ec:	e3550000 	cmp	r5, #0
8000e4f0:	0a000009 	beq	8000e51c <USBBulkOnlyMassStorageDeviceCommand+0xe0>
8000e4f4:	e594c040 	ldr	ip, [r4, #64]	; 0x40
8000e4f8:	e3570000 	cmp	r7, #0
8000e4fc:	e1a03005 	mov	r3, r5
8000e500:	e1a02008 	mov	r2, r8
8000e504:	01a0100c 	moveq	r1, ip
8000e508:	e1a00006 	mov	r0, r6
8000e50c:	eb0018a2 	bl	8001479c <DWHCIDeviceTransfer>
8000e510:	e2505000 	subs	r5, r0, #0
8000e514:	ba000042 	blt	8000e624 <USBBulkOnlyMassStorageDeviceCommand+0x1e8>
8000e518:	e594103c 	ldr	r1, [r4, #60]	; 0x3c
8000e51c:	e1a00006 	mov	r0, r6
8000e520:	e3a0300d 	mov	r3, #13
8000e524:	e1a0200d 	mov	r2, sp
8000e528:	eb00189b 	bl	8001479c <DWHCIDeviceTransfer>
8000e52c:	e350000d 	cmp	r0, #13
8000e530:	1a000013 	bne	8000e584 <USBBulkOnlyMassStorageDeviceCommand+0x148>
8000e534:	e59d2000 	ldr	r2, [sp]
8000e538:	e3053355 	movw	r3, #21333	; 0x5355
8000e53c:	e3453342 	movt	r3, #21314	; 0x5342
8000e540:	e1520003 	cmp	r2, r3
8000e544:	1a000016 	bne	8000e5a4 <USBBulkOnlyMassStorageDeviceCommand+0x168>
8000e548:	e5943044 	ldr	r3, [r4, #68]	; 0x44
8000e54c:	e59d2004 	ldr	r2, [sp, #4]
8000e550:	e1520003 	cmp	r2, r3
8000e554:	1a00001a 	bne	8000e5c4 <USBBulkOnlyMassStorageDeviceCommand+0x188>
8000e558:	e5dd300c 	ldrb	r3, [sp, #12]
8000e55c:	e3530000 	cmp	r3, #0
8000e560:	1a000005 	bne	8000e57c <USBBulkOnlyMassStorageDeviceCommand+0x140>
8000e564:	e59d3008 	ldr	r3, [sp, #8]
8000e568:	e3530000 	cmp	r3, #0
8000e56c:	1a00001c 	bne	8000e5e4 <USBBulkOnlyMassStorageDeviceCommand+0x1a8>
8000e570:	e1a00005 	mov	r0, r5
8000e574:	e28dd030 	add	sp, sp, #48	; 0x30
8000e578:	e8bd87f0 	pop	{r4, r5, r6, r7, r8, r9, sl, pc}
8000e57c:	e3e05000 	mvn	r5, #0
8000e580:	eafffffa 	b	8000e570 <USBBulkOnlyMassStorageDeviceCommand+0x134>
8000e584:	e308282c 	movw	r2, #34860	; 0x882c
8000e588:	e30807f8 	movw	r0, #34808	; 0x87f8
8000e58c:	e3482001 	movt	r2, #32769	; 0x8001
8000e590:	e3a01001 	mov	r1, #1
8000e594:	e3480001 	movt	r0, #32769	; 0x8001
8000e598:	e3e05000 	mvn	r5, #0
8000e59c:	eb000d6e 	bl	80011b5c <LogWrite>
8000e5a0:	eafffff2 	b	8000e570 <USBBulkOnlyMassStorageDeviceCommand+0x134>
8000e5a4:	e3082840 	movw	r2, #34880	; 0x8840
8000e5a8:	e30807f8 	movw	r0, #34808	; 0x87f8
8000e5ac:	e3482001 	movt	r2, #32769	; 0x8001
8000e5b0:	e3a01001 	mov	r1, #1
8000e5b4:	e3480001 	movt	r0, #32769	; 0x8001
8000e5b8:	e3e05000 	mvn	r5, #0
8000e5bc:	eb000d66 	bl	80011b5c <LogWrite>
8000e5c0:	eaffffea 	b	8000e570 <USBBulkOnlyMassStorageDeviceCommand+0x134>
8000e5c4:	e3082858 	movw	r2, #34904	; 0x8858
8000e5c8:	e30807f8 	movw	r0, #34808	; 0x87f8
8000e5cc:	e3482001 	movt	r2, #32769	; 0x8001
8000e5d0:	e3a01001 	mov	r1, #1
8000e5d4:	e3480001 	movt	r0, #32769	; 0x8001
8000e5d8:	e3e05000 	mvn	r5, #0
8000e5dc:	eb000d5e 	bl	80011b5c <LogWrite>
8000e5e0:	eaffffe2 	b	8000e570 <USBBulkOnlyMassStorageDeviceCommand+0x134>
8000e5e4:	e308286c 	movw	r2, #34924	; 0x886c
8000e5e8:	e30807f8 	movw	r0, #34808	; 0x87f8
8000e5ec:	e3482001 	movt	r2, #32769	; 0x8001
8000e5f0:	e3a01001 	mov	r1, #1
8000e5f4:	e3480001 	movt	r0, #32769	; 0x8001
8000e5f8:	e3e05000 	mvn	r5, #0
8000e5fc:	eb000d56 	bl	80011b5c <LogWrite>
8000e600:	eaffffda 	b	8000e570 <USBBulkOnlyMassStorageDeviceCommand+0x134>
8000e604:	e3082800 	movw	r2, #34816	; 0x8800
8000e608:	e30807f8 	movw	r0, #34808	; 0x87f8
8000e60c:	e3482001 	movt	r2, #32769	; 0x8001
8000e610:	e3a01001 	mov	r1, #1
8000e614:	e3480001 	movt	r0, #32769	; 0x8001
8000e618:	e3e05000 	mvn	r5, #0
8000e61c:	eb000d4e 	bl	80011b5c <LogWrite>
8000e620:	eaffffd2 	b	8000e570 <USBBulkOnlyMassStorageDeviceCommand+0x134>
8000e624:	e3082814 	movw	r2, #34836	; 0x8814
8000e628:	e30807f8 	movw	r0, #34808	; 0x87f8
8000e62c:	e3482001 	movt	r2, #32769	; 0x8001
8000e630:	e3a01001 	mov	r1, #1
8000e634:	e3480001 	movt	r0, #32769	; 0x8001
8000e638:	e3e05000 	mvn	r5, #0
8000e63c:	eb000d46 	bl	80011b5c <LogWrite>
8000e640:	eaffffca 	b	8000e570 <USBBulkOnlyMassStorageDeviceCommand+0x134>

8000e644 <USBBulkOnlyMassStorageDeviceConfigure>:
8000e644:	e92d41f0 	push	{r4, r5, r6, r7, r8, lr}
8000e648:	e3a01002 	mov	r1, #2
8000e64c:	e24dd060 	sub	sp, sp, #96	; 0x60
8000e650:	e1a04000 	mov	r4, r0
8000e654:	ebfff286 	bl	8000b074 <USBDeviceGetDescriptor>
8000e658:	e3500000 	cmp	r0, #0
8000e65c:	0a000002 	beq	8000e66c <USBBulkOnlyMassStorageDeviceConfigure+0x28>
8000e660:	e5d03004 	ldrb	r3, [r0, #4]
8000e664:	e3530000 	cmp	r3, #0
8000e668:	1a000007 	bne	8000e68c <USBBulkOnlyMassStorageDeviceConfigure+0x48>
8000e66c:	e30817f8 	movw	r1, #34808	; 0x87f8
8000e670:	e1a00004 	mov	r0, r4
8000e674:	e3481001 	movt	r1, #32769	; 0x8001
8000e678:	e3a05000 	mov	r5, #0
8000e67c:	ebfff27e 	bl	8000b07c <USBDeviceConfigurationError>
8000e680:	e1a00005 	mov	r0, r5
8000e684:	e28dd060 	add	sp, sp, #96	; 0x60
8000e688:	e8bd81f0 	pop	{r4, r5, r6, r7, r8, pc}
8000e68c:	e3a01004 	mov	r1, #4
8000e690:	e1a00004 	mov	r0, r4
8000e694:	ebfff276 	bl	8000b074 <USBDeviceGetDescriptor>
8000e698:	e3500000 	cmp	r0, #0
8000e69c:	0afffff2 	beq	8000e66c <USBBulkOnlyMassStorageDeviceConfigure+0x28>
8000e6a0:	e5d03002 	ldrb	r3, [r0, #2]
8000e6a4:	e3530000 	cmp	r3, #0
8000e6a8:	1affffef 	bne	8000e66c <USBBulkOnlyMassStorageDeviceConfigure+0x28>
8000e6ac:	e5d03003 	ldrb	r3, [r0, #3]
8000e6b0:	e3530000 	cmp	r3, #0
8000e6b4:	1affffec 	bne	8000e66c <USBBulkOnlyMassStorageDeviceConfigure+0x28>
8000e6b8:	e5d03004 	ldrb	r3, [r0, #4]
8000e6bc:	e3530001 	cmp	r3, #1
8000e6c0:	9affffe9 	bls	8000e66c <USBBulkOnlyMassStorageDeviceConfigure+0x28>
8000e6c4:	e5d03005 	ldrb	r3, [r0, #5]
8000e6c8:	e3530008 	cmp	r3, #8
8000e6cc:	1affffe6 	bne	8000e66c <USBBulkOnlyMassStorageDeviceConfigure+0x28>
8000e6d0:	e5d03006 	ldrb	r3, [r0, #6]
8000e6d4:	e3530006 	cmp	r3, #6
8000e6d8:	1affffe3 	bne	8000e66c <USBBulkOnlyMassStorageDeviceConfigure+0x28>
8000e6dc:	e5d03007 	ldrb	r3, [r0, #7]
8000e6e0:	e3530050 	cmp	r3, #80	; 0x50
8000e6e4:	0a000004 	beq	8000e6fc <USBBulkOnlyMassStorageDeviceConfigure+0xb8>
8000e6e8:	eaffffdf 	b	8000e66c <USBBulkOnlyMassStorageDeviceConfigure+0x28>
8000e6ec:	e5d63003 	ldrb	r3, [r6, #3]
8000e6f0:	e203303f 	and	r3, r3, #63	; 0x3f
8000e6f4:	e3530002 	cmp	r3, #2
8000e6f8:	0a000056 	beq	8000e858 <USBBulkOnlyMassStorageDeviceConfigure+0x214>
8000e6fc:	e3a01005 	mov	r1, #5
8000e700:	e1a00004 	mov	r0, r4
8000e704:	ebfff25a 	bl	8000b074 <USBDeviceGetDescriptor>
8000e708:	e2506000 	subs	r6, r0, #0
8000e70c:	1afffff6 	bne	8000e6ec <USBBulkOnlyMassStorageDeviceConfigure+0xa8>
8000e710:	e594303c 	ldr	r3, [r4, #60]	; 0x3c
8000e714:	e3530000 	cmp	r3, #0
8000e718:	0affffd3 	beq	8000e66c <USBBulkOnlyMassStorageDeviceConfigure+0x28>
8000e71c:	e5943040 	ldr	r3, [r4, #64]	; 0x40
8000e720:	e3530000 	cmp	r3, #0
8000e724:	0affffd0 	beq	8000e66c <USBBulkOnlyMassStorageDeviceConfigure+0x28>
8000e728:	e1a00004 	mov	r0, r4
8000e72c:	ebfff0ad 	bl	8000a9e8 <USBDeviceConfigure>
8000e730:	e2505000 	subs	r5, r0, #0
8000e734:	0a00005d 	beq	8000e8b0 <USBBulkOnlyMassStorageDeviceConfigure+0x26c>
8000e738:	e3a02024 	mov	r2, #36	; 0x24
8000e73c:	e3a01012 	mov	r1, #18
8000e740:	e58d2000 	str	r2, [sp]
8000e744:	e3a05001 	mov	r5, #1
8000e748:	e1cd21b0 	strh	r2, [sp, #16]
8000e74c:	e28d303c 	add	r3, sp, #60	; 0x3c
8000e750:	e58d100c 	str	r1, [sp, #12]
8000e754:	e3a02006 	mov	r2, #6
8000e758:	e58d5004 	str	r5, [sp, #4]
8000e75c:	e28d100c 	add	r1, sp, #12
8000e760:	e1a00004 	mov	r0, r4
8000e764:	ebffff34 	bl	8000e43c <USBBulkOnlyMassStorageDeviceCommand>
8000e768:	e3500024 	cmp	r0, #36	; 0x24
8000e76c:	1a000056 	bne	8000e8cc <USBBulkOnlyMassStorageDeviceConfigure+0x288>
8000e770:	e5dd303c 	ldrb	r3, [sp, #60]	; 0x3c
8000e774:	e213201f 	ands	r2, r3, #31
8000e778:	01a06002 	moveq	r6, r2
8000e77c:	03a05063 	moveq	r5, #99	; 0x63
8000e780:	03a08003 	moveq	r8, #3
8000e784:	0a00000b 	beq	8000e7b8 <USBBulkOnlyMassStorageDeviceConfigure+0x174>
8000e788:	ea00005f 	b	8000e90c <USBBulkOnlyMassStorageDeviceConfigure+0x2c8>
8000e78c:	e58d7004 	str	r7, [sp, #4]
8000e790:	e58dc000 	str	ip, [sp]
8000e794:	e58d801c 	str	r8, [sp, #28]
8000e798:	e1cdc2b0 	strh	ip, [sp, #32]
8000e79c:	ebffff26 	bl	8000e43c <USBBulkOnlyMassStorageDeviceCommand>
8000e7a0:	e3500000 	cmp	r0, #0
8000e7a4:	e3a00064 	mov	r0, #100	; 0x64
8000e7a8:	ba00004f 	blt	8000e8ec <USBBulkOnlyMassStorageDeviceConfigure+0x2a8>
8000e7ac:	eb000c98 	bl	80011a14 <MsDelay>
8000e7b0:	e2555001 	subs	r5, r5, #1
8000e7b4:	0a00005d 	beq	8000e930 <USBBulkOnlyMassStorageDeviceConfigure+0x2ec>
8000e7b8:	e58d6004 	str	r6, [sp, #4]
8000e7bc:	e3a03000 	mov	r3, #0
8000e7c0:	e58d6000 	str	r6, [sp]
8000e7c4:	e3a02006 	mov	r2, #6
8000e7c8:	e58d6014 	str	r6, [sp, #20]
8000e7cc:	e28d1014 	add	r1, sp, #20
8000e7d0:	e1cd61b8 	strh	r6, [sp, #24]
8000e7d4:	e1a00004 	mov	r0, r4
8000e7d8:	e3a07001 	mov	r7, #1
8000e7dc:	ebffff16 	bl	8000e43c <USBBulkOnlyMassStorageDeviceCommand>
8000e7e0:	e3500000 	cmp	r0, #0
8000e7e4:	e3a0c012 	mov	ip, #18
8000e7e8:	e28d3028 	add	r3, sp, #40	; 0x28
8000e7ec:	e3a02006 	mov	r2, #6
8000e7f0:	e28d101c 	add	r1, sp, #28
8000e7f4:	e1a00004 	mov	r0, r4
8000e7f8:	baffffe3 	blt	8000e78c <USBBulkOnlyMassStorageDeviceConfigure+0x148>
8000e7fc:	e58d6020 	str	r6, [sp, #32]
8000e800:	e3a03008 	mov	r3, #8
8000e804:	e58d3000 	str	r3, [sp]
8000e808:	e3a00025 	mov	r0, #37	; 0x25
8000e80c:	e58d001c 	str	r0, [sp, #28]
8000e810:	e3a07001 	mov	r7, #1
8000e814:	e58d7004 	str	r7, [sp, #4]
8000e818:	e28d3014 	add	r3, sp, #20
8000e81c:	e1cd62b4 	strh	r6, [sp, #36]	; 0x24
8000e820:	e28d101c 	add	r1, sp, #28
8000e824:	e3a0200a 	mov	r2, #10
8000e828:	e1a00004 	mov	r0, r4
8000e82c:	ebffff02 	bl	8000e43c <USBBulkOnlyMassStorageDeviceCommand>
8000e830:	e3500008 	cmp	r0, #8
8000e834:	0a000044 	beq	8000e94c <USBBulkOnlyMassStorageDeviceConfigure+0x308>
8000e838:	e30828d4 	movw	r2, #35028	; 0x88d4
8000e83c:	e30807f8 	movw	r0, #34808	; 0x87f8
8000e840:	e3482001 	movt	r2, #32769	; 0x8001
8000e844:	e1a01007 	mov	r1, r7
8000e848:	e3480001 	movt	r0, #32769	; 0x8001
8000e84c:	e3a05000 	mov	r5, #0
8000e850:	eb000cc1 	bl	80011b5c <LogWrite>
8000e854:	eaffff89 	b	8000e680 <USBBulkOnlyMassStorageDeviceConfigure+0x3c>
8000e858:	e1d630d2 	ldrsb	r3, [r6, #2]
8000e85c:	e3a0001c 	mov	r0, #28
8000e860:	e3530000 	cmp	r3, #0
8000e864:	ba000008 	blt	8000e88c <USBBulkOnlyMassStorageDeviceConfigure+0x248>
8000e868:	e5943040 	ldr	r3, [r4, #64]	; 0x40
8000e86c:	e3530000 	cmp	r3, #0
8000e870:	1affff7d 	bne	8000e66c <USBBulkOnlyMassStorageDeviceConfigure+0x28>
8000e874:	eb000c5e 	bl	800119f4 <malloc>
8000e878:	e5840040 	str	r0, [r4, #64]	; 0x40
8000e87c:	e1a02006 	mov	r2, r6
8000e880:	e1a01004 	mov	r1, r4
8000e884:	ebfffa3c 	bl	8000d17c <USBEndpoint2>
8000e888:	eaffff9b 	b	8000e6fc <USBBulkOnlyMassStorageDeviceConfigure+0xb8>
8000e88c:	e594303c 	ldr	r3, [r4, #60]	; 0x3c
8000e890:	e3530000 	cmp	r3, #0
8000e894:	1affff74 	bne	8000e66c <USBBulkOnlyMassStorageDeviceConfigure+0x28>
8000e898:	eb000c55 	bl	800119f4 <malloc>
8000e89c:	e584003c 	str	r0, [r4, #60]	; 0x3c
8000e8a0:	e1a02006 	mov	r2, r6
8000e8a4:	e1a01004 	mov	r1, r4
8000e8a8:	ebfffa33 	bl	8000d17c <USBEndpoint2>
8000e8ac:	eaffff92 	b	8000e6fc <USBBulkOnlyMassStorageDeviceConfigure+0xb8>
8000e8b0:	e3072f60 	movw	r2, #32608	; 0x7f60
8000e8b4:	e30807f8 	movw	r0, #34808	; 0x87f8
8000e8b8:	e3482001 	movt	r2, #32769	; 0x8001
8000e8bc:	e3a01001 	mov	r1, #1
8000e8c0:	e3480001 	movt	r0, #32769	; 0x8001
8000e8c4:	eb000ca4 	bl	80011b5c <LogWrite>
8000e8c8:	eaffff6c 	b	8000e680 <USBBulkOnlyMassStorageDeviceConfigure+0x3c>
8000e8cc:	e3082884 	movw	r2, #34948	; 0x8884
8000e8d0:	e30807f8 	movw	r0, #34808	; 0x87f8
8000e8d4:	e3482001 	movt	r2, #32769	; 0x8001
8000e8d8:	e1a01005 	mov	r1, r5
8000e8dc:	e3480001 	movt	r0, #32769	; 0x8001
8000e8e0:	e1a05006 	mov	r5, r6
8000e8e4:	eb000c9c 	bl	80011b5c <LogWrite>
8000e8e8:	eaffff64 	b	8000e680 <USBBulkOnlyMassStorageDeviceConfigure+0x3c>
8000e8ec:	e30828bc 	movw	r2, #35004	; 0x88bc
8000e8f0:	e30807f8 	movw	r0, #34808	; 0x87f8
8000e8f4:	e3482001 	movt	r2, #32769	; 0x8001
8000e8f8:	e1a01007 	mov	r1, r7
8000e8fc:	e3480001 	movt	r0, #32769	; 0x8001
8000e900:	e3a05000 	mov	r5, #0
8000e904:	eb000c94 	bl	80011b5c <LogWrite>
8000e908:	eaffff5c 	b	8000e680 <USBBulkOnlyMassStorageDeviceConfigure+0x3c>
8000e90c:	e308289c 	movw	r2, #34972	; 0x889c
8000e910:	e30807f8 	movw	r0, #34808	; 0x87f8
8000e914:	e3482001 	movt	r2, #32769	; 0x8001
8000e918:	e1a01005 	mov	r1, r5
8000e91c:	e3480001 	movt	r0, #32769	; 0x8001
8000e920:	e203301f 	and	r3, r3, #31
8000e924:	e1a05006 	mov	r5, r6
8000e928:	eb000c8b 	bl	80011b5c <LogWrite>
8000e92c:	eaffff53 	b	8000e680 <USBBulkOnlyMassStorageDeviceConfigure+0x3c>
8000e930:	e3082944 	movw	r2, #35140	; 0x8944
8000e934:	e30807f8 	movw	r0, #34808	; 0x87f8
8000e938:	e3482001 	movt	r2, #32769	; 0x8001
8000e93c:	e1a01007 	mov	r1, r7
8000e940:	e3480001 	movt	r0, #32769	; 0x8001
8000e944:	eb000c84 	bl	80011b5c <LogWrite>
8000e948:	eaffff4c 	b	8000e680 <USBBulkOnlyMassStorageDeviceConfigure+0x3c>
8000e94c:	e59d0018 	ldr	r0, [sp, #24]
8000e950:	eb001094 	bl	80012ba8 <uspi_le2be32>
8000e954:	e3500c02 	cmp	r0, #512	; 0x200
8000e958:	e1a03000 	mov	r3, r0
8000e95c:	0a000007 	beq	8000e980 <USBBulkOnlyMassStorageDeviceConfigure+0x33c>
8000e960:	e30828ec 	movw	r2, #35052	; 0x88ec
8000e964:	e30807f8 	movw	r0, #34808	; 0x87f8
8000e968:	e3482001 	movt	r2, #32769	; 0x8001
8000e96c:	e1a01007 	mov	r1, r7
8000e970:	e3480001 	movt	r0, #32769	; 0x8001
8000e974:	e3a05000 	mov	r5, #0
8000e978:	eb000c77 	bl	80011b5c <LogWrite>
8000e97c:	eaffff3f 	b	8000e680 <USBBulkOnlyMassStorageDeviceConfigure+0x3c>
8000e980:	e59d0014 	ldr	r0, [sp, #20]
8000e984:	eb001087 	bl	80012ba8 <uspi_le2be32>
8000e988:	e5840048 	str	r0, [r4, #72]	; 0x48
8000e98c:	e3700001 	cmn	r0, #1
8000e990:	0a000020 	beq	8000ea18 <USBBulkOnlyMassStorageDeviceConfigure+0x3d4>
8000e994:	e2803001 	add	r3, r0, #1
8000e998:	e3082924 	movw	r2, #35108	; 0x8924
8000e99c:	e5843048 	str	r3, [r4, #72]	; 0x48
8000e9a0:	e30807f8 	movw	r0, #34808	; 0x87f8
8000e9a4:	e1a035a3 	lsr	r3, r3, #11
8000e9a8:	e3a01004 	mov	r1, #4
8000e9ac:	e3482001 	movt	r2, #32769	; 0x8001
8000e9b0:	e1a05007 	mov	r5, r7
8000e9b4:	e3480001 	movt	r0, #32769	; 0x8001
8000e9b8:	eb000c67 	bl	80011b5c <LogWrite>
8000e9bc:	e28d0028 	add	r0, sp, #40	; 0x28
8000e9c0:	ebffe800 	bl	800089c8 <String>
8000e9c4:	e30a389c 	movw	r3, #43164	; 0xa89c
8000e9c8:	e308193c 	movw	r1, #35132	; 0x893c
8000e9cc:	e3483009 	movt	r3, #32777	; 0x8009
8000e9d0:	e28d0028 	add	r0, sp, #40	; 0x28
8000e9d4:	e3481001 	movt	r1, #32769	; 0x8001
8000e9d8:	e5932000 	ldr	r2, [r3]
8000e9dc:	e282c001 	add	ip, r2, #1
8000e9e0:	e583c000 	str	ip, [r3]
8000e9e4:	ebffea30 	bl	800092ac <StringFormat>
8000e9e8:	eb001e17 	bl	8001624c <DeviceNameServiceGet>
8000e9ec:	e1a06000 	mov	r6, r0
8000e9f0:	e28d0028 	add	r0, sp, #40	; 0x28
8000e9f4:	ebffe80d 	bl	80008a30 <StringGet>
8000e9f8:	e1a01000 	mov	r1, r0
8000e9fc:	e1a03007 	mov	r3, r7
8000ea00:	e1a00006 	mov	r0, r6
8000ea04:	e1a02004 	mov	r2, r4
8000ea08:	eb001de5 	bl	800161a4 <DeviceNameServiceAddDevice>
8000ea0c:	e28d0028 	add	r0, sp, #40	; 0x28
8000ea10:	ebffe7fc 	bl	80008a08 <_String>
8000ea14:	eaffff19 	b	8000e680 <USBBulkOnlyMassStorageDeviceConfigure+0x3c>
8000ea18:	e3082908 	movw	r2, #35080	; 0x8908
8000ea1c:	e30807f8 	movw	r0, #34808	; 0x87f8
8000ea20:	e3482001 	movt	r2, #32769	; 0x8001
8000ea24:	e1a01007 	mov	r1, r7
8000ea28:	e3480001 	movt	r0, #32769	; 0x8001
8000ea2c:	e3a05000 	mov	r5, #0
8000ea30:	eb000c49 	bl	80011b5c <LogWrite>
8000ea34:	eaffff11 	b	8000e680 <USBBulkOnlyMassStorageDeviceConfigure+0x3c>

8000ea38 <USBBulkOnlyMassStorageDeviceTryRead>:
8000ea38:	e92d41f0 	push	{r4, r5, r6, r7, r8, lr}
8000ea3c:	e30071ff 	movw	r7, #511	; 0x1ff
8000ea40:	e1c045d0 	ldrd	r4, [r0, #80]	; 0x50
8000ea44:	e3e06000 	mvn	r6, #0
8000ea48:	e24dd018 	sub	sp, sp, #24
8000ea4c:	e1550007 	cmp	r5, r7
8000ea50:	01540006 	cmpeq	r4, r6
8000ea54:	e7e83054 	ubfx	r3, r4, #0, #9
8000ea58:	83a0c001 	movhi	ip, #1
8000ea5c:	93a0c000 	movls	ip, #0
8000ea60:	e3530000 	cmp	r3, #0
8000ea64:	13a0c001 	movne	ip, #1
8000ea68:	e35c0000 	cmp	ip, #0
8000ea6c:	1a00001e 	bne	8000eaec <USBBulkOnlyMassStorageDeviceTryRead+0xb4>
8000ea70:	e7e87052 	ubfx	r7, r2, #0, #9
8000ea74:	e1a0c4a4 	lsr	ip, r4, #9
8000ea78:	e3570000 	cmp	r7, #0
8000ea7c:	e18ccb85 	orr	ip, ip, r5, lsl #23
8000ea80:	1a000019 	bne	8000eaec <USBBulkOnlyMassStorageDeviceTryRead+0xb4>
8000ea84:	e3a03028 	mov	r3, #40	; 0x28
8000ea88:	e1a05000 	mov	r5, r0
8000ea8c:	e1cd30bc 	strh	r3, [sp, #12]
8000ea90:	e1a0000c 	mov	r0, ip
8000ea94:	e1a04002 	mov	r4, r2
8000ea98:	e1a06001 	mov	r6, r1
8000ea9c:	e3a08001 	mov	r8, #1
8000eaa0:	eb001040 	bl	80012ba8 <uspi_le2be32>
8000eaa4:	e58d000e 	str	r0, [sp, #14]
8000eaa8:	e7ef04d4 	ubfx	r0, r4, #9, #16
8000eaac:	e5cd7012 	strb	r7, [sp, #18]
8000eab0:	eb001039 	bl	80012b9c <uspi_le2be16>
8000eab4:	e1cd01b3 	strh	r0, [sp, #19]
8000eab8:	e1a03006 	mov	r3, r6
8000eabc:	e58d4000 	str	r4, [sp]
8000eac0:	e1a00005 	mov	r0, r5
8000eac4:	e58d8004 	str	r8, [sp, #4]
8000eac8:	e3a0200a 	mov	r2, #10
8000eacc:	e5cd7015 	strb	r7, [sp, #21]
8000ead0:	e28d100c 	add	r1, sp, #12
8000ead4:	ebfffe58 	bl	8000e43c <USBBulkOnlyMassStorageDeviceCommand>
8000ead8:	e1500004 	cmp	r0, r4
8000eadc:	1a000004 	bne	8000eaf4 <USBBulkOnlyMassStorageDeviceTryRead+0xbc>
8000eae0:	e1a00004 	mov	r0, r4
8000eae4:	e28dd018 	add	sp, sp, #24
8000eae8:	e8bd81f0 	pop	{r4, r5, r6, r7, r8, pc}
8000eaec:	e3e04000 	mvn	r4, #0
8000eaf0:	eafffffa 	b	8000eae0 <USBBulkOnlyMassStorageDeviceTryRead+0xa8>
8000eaf4:	e3082958 	movw	r2, #35160	; 0x8958
8000eaf8:	e30807f8 	movw	r0, #34808	; 0x87f8
8000eafc:	e3482001 	movt	r2, #32769	; 0x8001
8000eb00:	e1a01008 	mov	r1, r8
8000eb04:	e3480001 	movt	r0, #32769	; 0x8001
8000eb08:	e3e04000 	mvn	r4, #0
8000eb0c:	eb000c12 	bl	80011b5c <LogWrite>
8000eb10:	eafffff2 	b	8000eae0 <USBBulkOnlyMassStorageDeviceTryRead+0xa8>

8000eb14 <USBBulkOnlyMassStorageDeviceTryWrite>:
8000eb14:	e92d40f0 	push	{r4, r5, r6, r7, lr}
8000eb18:	e30071ff 	movw	r7, #511	; 0x1ff
8000eb1c:	e1c045d0 	ldrd	r4, [r0, #80]	; 0x50
8000eb20:	e3e06000 	mvn	r6, #0
8000eb24:	e24dd01c 	sub	sp, sp, #28
8000eb28:	e1550007 	cmp	r5, r7
8000eb2c:	01540006 	cmpeq	r4, r6
8000eb30:	e7e83054 	ubfx	r3, r4, #0, #9
8000eb34:	83a0c001 	movhi	ip, #1
8000eb38:	93a0c000 	movls	ip, #0
8000eb3c:	e3530000 	cmp	r3, #0
8000eb40:	13a0c001 	movne	ip, #1
8000eb44:	e35c0000 	cmp	ip, #0
8000eb48:	1a00001d 	bne	8000ebc4 <USBBulkOnlyMassStorageDeviceTryWrite+0xb0>
8000eb4c:	e7e86052 	ubfx	r6, r2, #0, #9
8000eb50:	e1a0c4a4 	lsr	ip, r4, #9
8000eb54:	e3560000 	cmp	r6, #0
8000eb58:	e18ccb85 	orr	ip, ip, r5, lsl #23
8000eb5c:	1a000018 	bne	8000ebc4 <USBBulkOnlyMassStorageDeviceTryWrite+0xb0>
8000eb60:	e300382a 	movw	r3, #2090	; 0x82a
8000eb64:	e1a05000 	mov	r5, r0
8000eb68:	e1cd30bc 	strh	r3, [sp, #12]
8000eb6c:	e1a0000c 	mov	r0, ip
8000eb70:	e1a04002 	mov	r4, r2
8000eb74:	e1a07001 	mov	r7, r1
8000eb78:	eb00100a 	bl	80012ba8 <uspi_le2be32>
8000eb7c:	e58d000e 	str	r0, [sp, #14]
8000eb80:	e7ef04d4 	ubfx	r0, r4, #9, #16
8000eb84:	e5cd6012 	strb	r6, [sp, #18]
8000eb88:	eb001003 	bl	80012b9c <uspi_le2be16>
8000eb8c:	e1cd01b3 	strh	r0, [sp, #19]
8000eb90:	e1a03007 	mov	r3, r7
8000eb94:	e58d6004 	str	r6, [sp, #4]
8000eb98:	e1a00005 	mov	r0, r5
8000eb9c:	e58d4000 	str	r4, [sp]
8000eba0:	e3a0200a 	mov	r2, #10
8000eba4:	e5cd6015 	strb	r6, [sp, #21]
8000eba8:	e28d100c 	add	r1, sp, #12
8000ebac:	ebfffe22 	bl	8000e43c <USBBulkOnlyMassStorageDeviceCommand>
8000ebb0:	e3500000 	cmp	r0, #0
8000ebb4:	a1a00004 	movge	r0, r4
8000ebb8:	ba000003 	blt	8000ebcc <USBBulkOnlyMassStorageDeviceTryWrite+0xb8>
8000ebbc:	e28dd01c 	add	sp, sp, #28
8000ebc0:	e8bd80f0 	pop	{r4, r5, r6, r7, pc}
8000ebc4:	e3e00000 	mvn	r0, #0
8000ebc8:	eafffffb 	b	8000ebbc <USBBulkOnlyMassStorageDeviceTryWrite+0xa8>
8000ebcc:	e3082968 	movw	r2, #35176	; 0x8968
8000ebd0:	e30807f8 	movw	r0, #34808	; 0x87f8
8000ebd4:	e3480001 	movt	r0, #32769	; 0x8001
8000ebd8:	e3a01001 	mov	r1, #1
8000ebdc:	e3482001 	movt	r2, #32769	; 0x8001
8000ebe0:	eb000bdd 	bl	80011b5c <LogWrite>
8000ebe4:	e3e00000 	mvn	r0, #0
8000ebe8:	eafffff3 	b	8000ebbc <USBBulkOnlyMassStorageDeviceTryWrite+0xa8>

8000ebec <USBBulkOnlyMassStorageDeviceReset>:
8000ebec:	e92d40f0 	push	{r4, r5, r6, r7, lr}
8000ebf0:	e24dd014 	sub	sp, sp, #20
8000ebf4:	e1a05000 	mov	r5, r0
8000ebf8:	ebfff117 	bl	8000b05c <USBDeviceGetHost>
8000ebfc:	e1a06000 	mov	r6, r0
8000ec00:	e1a00005 	mov	r0, r5
8000ec04:	e3a04000 	mov	r4, #0
8000ec08:	ebfff111 	bl	8000b054 <USBDeviceGetEndpoint0>
8000ec0c:	e58d400c 	str	r4, [sp, #12]
8000ec10:	e1a01000 	mov	r1, r0
8000ec14:	e58d4008 	str	r4, [sp, #8]
8000ec18:	e1a00006 	mov	r0, r6
8000ec1c:	e58d4004 	str	r4, [sp, #4]
8000ec20:	e3a030ff 	mov	r3, #255	; 0xff
8000ec24:	e58d4000 	str	r4, [sp]
8000ec28:	e3a02021 	mov	r2, #33	; 0x21
8000ec2c:	eb00167f 	bl	80014630 <DWHCIDeviceControlMessage>
8000ec30:	e1500004 	cmp	r0, r4
8000ec34:	ba000021 	blt	8000ecc0 <USBBulkOnlyMassStorageDeviceReset+0xd4>
8000ec38:	e1a00005 	mov	r0, r5
8000ec3c:	e3a07001 	mov	r7, #1
8000ec40:	ebfff103 	bl	8000b054 <USBDeviceGetEndpoint0>
8000ec44:	e58d400c 	str	r4, [sp, #12]
8000ec48:	e1a01000 	mov	r1, r0
8000ec4c:	e58d4008 	str	r4, [sp, #8]
8000ec50:	e1a03007 	mov	r3, r7
8000ec54:	e58d4000 	str	r4, [sp]
8000ec58:	e3a02002 	mov	r2, #2
8000ec5c:	e58d7004 	str	r7, [sp, #4]
8000ec60:	e1a00006 	mov	r0, r6
8000ec64:	eb001671 	bl	80014630 <DWHCIDeviceControlMessage>
8000ec68:	e3500000 	cmp	r0, #0
8000ec6c:	ba000023 	blt	8000ed00 <USBBulkOnlyMassStorageDeviceReset+0x114>
8000ec70:	e1a00005 	mov	r0, r5
8000ec74:	ebfff0f6 	bl	8000b054 <USBDeviceGetEndpoint0>
8000ec78:	e58d400c 	str	r4, [sp, #12]
8000ec7c:	e3a02002 	mov	r2, #2
8000ec80:	e58d4008 	str	r4, [sp, #8]
8000ec84:	e1a01000 	mov	r1, r0
8000ec88:	e58d4000 	str	r4, [sp]
8000ec8c:	e1a03007 	mov	r3, r7
8000ec90:	e58d2004 	str	r2, [sp, #4]
8000ec94:	e1a00006 	mov	r0, r6
8000ec98:	eb001664 	bl	80014630 <DWHCIDeviceControlMessage>
8000ec9c:	e3500000 	cmp	r0, #0
8000eca0:	ba00000e 	blt	8000ece0 <USBBulkOnlyMassStorageDeviceReset+0xf4>
8000eca4:	e595003c 	ldr	r0, [r5, #60]	; 0x3c
8000eca8:	ebfff9a5 	bl	8000d344 <USBEndpointResetPID>
8000ecac:	e5950040 	ldr	r0, [r5, #64]	; 0x40
8000ecb0:	ebfff9a3 	bl	8000d344 <USBEndpointResetPID>
8000ecb4:	e1a00004 	mov	r0, r4
8000ecb8:	e28dd014 	add	sp, sp, #20
8000ecbc:	e8bd80f0 	pop	{r4, r5, r6, r7, pc}
8000ecc0:	e3082978 	movw	r2, #35192	; 0x8978
8000ecc4:	e30807f8 	movw	r0, #34808	; 0x87f8
8000ecc8:	e3480001 	movt	r0, #32769	; 0x8001
8000eccc:	e3a01004 	mov	r1, #4
8000ecd0:	e3482001 	movt	r2, #32769	; 0x8001
8000ecd4:	eb000ba0 	bl	80011b5c <LogWrite>
8000ecd8:	e3e00000 	mvn	r0, #0
8000ecdc:	eafffff5 	b	8000ecb8 <USBBulkOnlyMassStorageDeviceReset+0xcc>
8000ece0:	e30829ac 	movw	r2, #35244	; 0x89ac
8000ece4:	e30807f8 	movw	r0, #34808	; 0x87f8
8000ece8:	e3480001 	movt	r0, #32769	; 0x8001
8000ecec:	e3a01004 	mov	r1, #4
8000ecf0:	e3482001 	movt	r2, #32769	; 0x8001
8000ecf4:	eb000b98 	bl	80011b5c <LogWrite>
8000ecf8:	e3e00000 	mvn	r0, #0
8000ecfc:	eaffffed 	b	8000ecb8 <USBBulkOnlyMassStorageDeviceReset+0xcc>
8000ed00:	e308298c 	movw	r2, #35212	; 0x898c
8000ed04:	e30807f8 	movw	r0, #34808	; 0x87f8
8000ed08:	e3480001 	movt	r0, #32769	; 0x8001
8000ed0c:	e3a01004 	mov	r1, #4
8000ed10:	e3482001 	movt	r2, #32769	; 0x8001
8000ed14:	eb000b90 	bl	80011b5c <LogWrite>
8000ed18:	e3e00000 	mvn	r0, #0
8000ed1c:	eaffffe5 	b	8000ecb8 <USBBulkOnlyMassStorageDeviceReset+0xcc>

8000ed20 <USBBulkOnlyMassStorageDeviceRead>:
8000ed20:	e92d47f0 	push	{r4, r5, r6, r7, r8, r9, sl, lr}
8000ed24:	e1a05002 	mov	r5, r2
8000ed28:	e1a06000 	mov	r6, r0
8000ed2c:	e1a08001 	mov	r8, r1
8000ed30:	e1a09002 	mov	r9, r2
8000ed34:	e3a04004 	mov	r4, #4
8000ed38:	e1a02005 	mov	r2, r5
8000ed3c:	e1a01008 	mov	r1, r8
8000ed40:	e1a00006 	mov	r0, r6
8000ed44:	ebffff3b 	bl	8000ea38 <USBBulkOnlyMassStorageDeviceTryRead>
8000ed48:	e1a07000 	mov	r7, r0
8000ed4c:	e1a00006 	mov	r0, r6
8000ed50:	e1570005 	cmp	r7, r5
8000ed54:	1a000001 	bne	8000ed60 <USBBulkOnlyMassStorageDeviceRead+0x40>
8000ed58:	e1a00009 	mov	r0, r9
8000ed5c:	e8bd87f0 	pop	{r4, r5, r6, r7, r8, r9, sl, pc}
8000ed60:	ebffffa1 	bl	8000ebec <USBBulkOnlyMassStorageDeviceReset>
8000ed64:	e3500000 	cmp	r0, #0
8000ed68:	1a000004 	bne	8000ed80 <USBBulkOnlyMassStorageDeviceRead+0x60>
8000ed6c:	e2544001 	subs	r4, r4, #1
8000ed70:	1afffff0 	bne	8000ed38 <USBBulkOnlyMassStorageDeviceRead+0x18>
8000ed74:	e1a09007 	mov	r9, r7
8000ed78:	e1a00009 	mov	r0, r9
8000ed7c:	e8bd87f0 	pop	{r4, r5, r6, r7, r8, r9, sl, pc}
8000ed80:	e1a09000 	mov	r9, r0
8000ed84:	eafffff3 	b	8000ed58 <USBBulkOnlyMassStorageDeviceRead+0x38>

8000ed88 <USBBulkOnlyMassStorageDeviceWrite>:
8000ed88:	e92d47f0 	push	{r4, r5, r6, r7, r8, r9, sl, lr}
8000ed8c:	e1a05002 	mov	r5, r2
8000ed90:	e1a06000 	mov	r6, r0
8000ed94:	e1a08001 	mov	r8, r1
8000ed98:	e1a09002 	mov	r9, r2
8000ed9c:	e3a04004 	mov	r4, #4
8000eda0:	e1a02005 	mov	r2, r5
8000eda4:	e1a01008 	mov	r1, r8
8000eda8:	e1a00006 	mov	r0, r6
8000edac:	ebffff58 	bl	8000eb14 <USBBulkOnlyMassStorageDeviceTryWrite>
8000edb0:	e1a07000 	mov	r7, r0
8000edb4:	e1a00006 	mov	r0, r6
8000edb8:	e1570005 	cmp	r7, r5
8000edbc:	1a000001 	bne	8000edc8 <USBBulkOnlyMassStorageDeviceWrite+0x40>
8000edc0:	e1a00009 	mov	r0, r9
8000edc4:	e8bd87f0 	pop	{r4, r5, r6, r7, r8, r9, sl, pc}
8000edc8:	ebffff87 	bl	8000ebec <USBBulkOnlyMassStorageDeviceReset>
8000edcc:	e3500000 	cmp	r0, #0
8000edd0:	1a000004 	bne	8000ede8 <USBBulkOnlyMassStorageDeviceWrite+0x60>
8000edd4:	e2544001 	subs	r4, r4, #1
8000edd8:	1afffff0 	bne	8000eda0 <USBBulkOnlyMassStorageDeviceWrite+0x18>
8000eddc:	e1a09007 	mov	r9, r7
8000ede0:	e1a00009 	mov	r0, r9
8000ede4:	e8bd87f0 	pop	{r4, r5, r6, r7, r8, r9, sl, pc}
8000ede8:	e1a09000 	mov	r9, r0
8000edec:	eafffff3 	b	8000edc0 <USBBulkOnlyMassStorageDeviceWrite+0x38>

8000edf0 <mmuinit0>:
8000edf0:	e3a02000 	mov	r2, #0
8000edf4:	e300040e 	movw	r0, #1038	; 0x40e
8000edf8:	e3482010 	movt	r2, #32784	; 0x8010
8000edfc:	e1a03a22 	lsr	r3, r2, #20
8000ee00:	e2821102 	add	r1, r2, #-2147483648	; 0x80000000
8000ee04:	e1811000 	orr	r1, r1, r0
8000ee08:	e2822601 	add	r2, r2, #1048576	; 0x100000
8000ee0c:	e1a03103 	lsl	r3, r3, #2
8000ee10:	e3520209 	cmp	r2, #-1879048192	; 0x90000000
8000ee14:	e2833901 	add	r3, r3, #16384	; 0x4000
8000ee18:	e5831000 	str	r1, [r3]
8000ee1c:	1afffff6 	bne	8000edfc <mmuinit0+0xc>
8000ee20:	e3a0220d 	mov	r2, #-805306368	; 0xd0000000
8000ee24:	e3000402 	movw	r0, #1026	; 0x402
8000ee28:	e1a03a22 	lsr	r3, r2, #20
8000ee2c:	e282146f 	add	r1, r2, #1862270976	; 0x6f000000
8000ee30:	e1811000 	orr	r1, r1, r0
8000ee34:	e2822601 	add	r2, r2, #1048576	; 0x100000
8000ee38:	e1a03103 	lsl	r3, r3, #2
8000ee3c:	e35204d1 	cmp	r2, #-788529152	; 0xd1000000
8000ee40:	e2833901 	add	r3, r3, #16384	; 0x4000
8000ee44:	e5831000 	str	r1, [r3]
8000ee48:	1afffff6 	bne	8000ee28 <mmuinit0+0x38>
8000ee4c:	e3a02101 	mov	r2, #1073741824	; 0x40000000
8000ee50:	e3000402 	movw	r0, #1026	; 0x402
8000ee54:	e1a03a22 	lsr	r3, r2, #20
8000ee58:	e2821103 	add	r1, r2, #-1073741824	; 0xc0000000
8000ee5c:	e1811000 	orr	r1, r1, r0
8000ee60:	e2822601 	add	r2, r2, #1048576	; 0x100000
8000ee64:	e1a03103 	lsl	r3, r3, #2
8000ee68:	e3520102 	cmp	r2, #-2147483648	; 0x80000000
8000ee6c:	e2833901 	add	r3, r3, #16384	; 0x4000
8000ee70:	e5831000 	str	r1, [r3]
8000ee74:	1afffff6 	bne	8000ee54 <mmuinit0+0x64>
8000ee78:	e3a01a07 	mov	r1, #28672	; 0x7000
8000ee7c:	e3a03a03 	mov	r3, #12288	; 0x3000
8000ee80:	e3030001 	movw	r0, #12289	; 0x3001
8000ee84:	e3002552 	movw	r2, #1362	; 0x552
8000ee88:	e5810ffc 	str	r0, [r1, #4092]	; 0xffc
8000ee8c:	e58323c0 	str	r2, [r3, #960]	; 0x3c0
8000ee90:	e12fff1e 	bx	lr

8000ee94 <mmuinit1>:
8000ee94:	e30c0510 	movw	r0, #50448	; 0xc510
8000ee98:	e3480009 	movt	r0, #32777	; 0x8009
8000ee9c:	e92d4010 	push	{r4, lr}
8000eea0:	e5903000 	ldr	r3, [r0]
8000eea4:	e3530201 	cmp	r3, #268435456	; 0x10000000
8000eea8:	9a00000b 	bls	8000eedc <mmuinit1+0x48>
8000eeac:	e3a02201 	mov	r2, #268435456	; 0x10000000
8000eeb0:	e300c40e 	movw	ip, #1038	; 0x40e
8000eeb4:	e182100c 	orr	r1, r2, ip
8000eeb8:	e2823102 	add	r3, r2, #-2147483648	; 0x80000000
8000eebc:	e2822601 	add	r2, r2, #1048576	; 0x100000
8000eec0:	e1a03a23 	lsr	r3, r3, #20
8000eec4:	e1a03103 	lsl	r3, r3, #2
8000eec8:	e2833901 	add	r3, r3, #16384	; 0x4000
8000eecc:	e5831000 	str	r1, [r3]
8000eed0:	e5903000 	ldr	r3, [r0]
8000eed4:	e1530002 	cmp	r3, r2
8000eed8:	8afffff5 	bhi	8000eeb4 <mmuinit1+0x20>
8000eedc:	e3a01901 	mov	r1, #16384	; 0x4000
8000eee0:	e3a03000 	mov	r3, #0
8000eee4:	e1a00001 	mov	r0, r1
8000eee8:	e5813000 	str	r3, [r1]
8000eeec:	ebffe4df 	bl	80008270 <flush_dcache>
8000eef0:	e8bd4010 	pop	{r4, lr}
8000eef4:	eaffe4d5 	b	80008250 <flush_tlb>

8000eef8 <SMSC951xDevice>:
8000eef8:	e92d4010 	push	{r4, lr}
8000eefc:	e1a04000 	mov	r4, r0
8000ef00:	ebffeeed 	bl	8000aabc <USBDeviceCopy>
8000ef04:	e30f2154 	movw	r2, #61780	; 0xf154
8000ef08:	e3a03000 	mov	r3, #0
8000ef0c:	e3482000 	movt	r2, #32768	; 0x8000
8000ef10:	e3a00d19 	mov	r0, #1600	; 0x640
8000ef14:	e5842000 	str	r2, [r4]
8000ef18:	e584303c 	str	r3, [r4, #60]	; 0x3c
8000ef1c:	e5843040 	str	r3, [r4, #64]	; 0x40
8000ef20:	e5843050 	str	r3, [r4, #80]	; 0x50
8000ef24:	eb000ab2 	bl	800119f4 <malloc>
8000ef28:	e5840050 	str	r0, [r4, #80]	; 0x50
8000ef2c:	e8bd8010 	pop	{r4, pc}

8000ef30 <_SMSC951xDevice>:
8000ef30:	e92d4010 	push	{r4, lr}
8000ef34:	e1a04000 	mov	r4, r0
8000ef38:	e5900050 	ldr	r0, [r0, #80]	; 0x50
8000ef3c:	e3500000 	cmp	r0, #0
8000ef40:	0a000002 	beq	8000ef50 <_SMSC951xDevice+0x20>
8000ef44:	eb000ab1 	bl	80011a10 <free>
8000ef48:	e3a03000 	mov	r3, #0
8000ef4c:	e5843050 	str	r3, [r4, #80]	; 0x50
8000ef50:	e5940040 	ldr	r0, [r4, #64]	; 0x40
8000ef54:	e3500000 	cmp	r0, #0
8000ef58:	0a000004 	beq	8000ef70 <_SMSC951xDevice+0x40>
8000ef5c:	ebfff8ce 	bl	8000d29c <_USBEndpoint>
8000ef60:	e5940040 	ldr	r0, [r4, #64]	; 0x40
8000ef64:	eb000aa9 	bl	80011a10 <free>
8000ef68:	e3a03000 	mov	r3, #0
8000ef6c:	e5843040 	str	r3, [r4, #64]	; 0x40
8000ef70:	e594003c 	ldr	r0, [r4, #60]	; 0x3c
8000ef74:	e3500000 	cmp	r0, #0
8000ef78:	0a000004 	beq	8000ef90 <_SMSC951xDevice+0x60>
8000ef7c:	ebfff8c6 	bl	8000d29c <_USBEndpoint>
8000ef80:	e594003c 	ldr	r0, [r4, #60]	; 0x3c
8000ef84:	eb000aa1 	bl	80011a10 <free>
8000ef88:	e3a03000 	mov	r3, #0
8000ef8c:	e584303c 	str	r3, [r4, #60]	; 0x3c
8000ef90:	e1a00004 	mov	r0, r4
8000ef94:	e8bd4010 	pop	{r4, lr}
8000ef98:	eaffef04 	b	8000abb0 <_USBDevice>

8000ef9c <SMSC951xDeviceGetMACAddress>:
8000ef9c:	e2800044 	add	r0, r0, #68	; 0x44
8000efa0:	e12fff1e 	bx	lr

8000efa4 <SMSC951xDeviceSendFrame>:
8000efa4:	e300c637 	movw	ip, #1591	; 0x637
8000efa8:	e152000c 	cmp	r2, ip
8000efac:	9a000001 	bls	8000efb8 <SMSC951xDeviceSendFrame+0x14>
8000efb0:	e3a00000 	mov	r0, #0
8000efb4:	e12fff1e 	bx	lr
8000efb8:	e92d4070 	push	{r4, r5, r6, lr}
8000efbc:	e1a05000 	mov	r5, r0
8000efc0:	e5900050 	ldr	r0, [r0, #80]	; 0x50
8000efc4:	e1a04002 	mov	r4, r2
8000efc8:	e2800008 	add	r0, r0, #8
8000efcc:	eb000e80 	bl	800129d4 <uspi_memcpy>
8000efd0:	e5953050 	ldr	r3, [r5, #80]	; 0x50
8000efd4:	e3842a03 	orr	r2, r4, #12288	; 0x3000
8000efd8:	e1a00005 	mov	r0, r5
8000efdc:	e5834004 	str	r4, [r3, #4]
8000efe0:	e5832000 	str	r2, [r3]
8000efe4:	ebfff01c 	bl	8000b05c <USBDeviceGetHost>
8000efe8:	e5952050 	ldr	r2, [r5, #80]	; 0x50
8000efec:	e2843008 	add	r3, r4, #8
8000eff0:	e5951040 	ldr	r1, [r5, #64]	; 0x40
8000eff4:	eb0015e8 	bl	8001479c <DWHCIDeviceTransfer>
8000eff8:	e1e00000 	mvn	r0, r0
8000effc:	e1a00fa0 	lsr	r0, r0, #31
8000f000:	e8bd8070 	pop	{r4, r5, r6, pc}

8000f004 <SMSC951xDeviceReceiveFrame>:
8000f004:	e92d40f0 	push	{r4, r5, r6, r7, lr}
8000f008:	e24dd034 	sub	sp, sp, #52	; 0x34
8000f00c:	e1a05001 	mov	r5, r1
8000f010:	e3a04000 	mov	r4, #0
8000f014:	e590103c 	ldr	r1, [r0, #60]	; 0x3c
8000f018:	e3a03d19 	mov	r3, #1600	; 0x640
8000f01c:	e58d4000 	str	r4, [sp]
8000f020:	e1a06000 	mov	r6, r0
8000f024:	e1a07002 	mov	r7, r2
8000f028:	e28d000c 	add	r0, sp, #12
8000f02c:	e1a02005 	mov	r2, r5
8000f030:	eb000c8b 	bl	80012264 <USBRequest>
8000f034:	e1a00006 	mov	r0, r6
8000f038:	ebfff007 	bl	8000b05c <USBDeviceGetHost>
8000f03c:	e28d100c 	add	r1, sp, #12
8000f040:	eb00152b 	bl	800144f4 <DWHCIDeviceSubmitBlockingRequest>
8000f044:	e1500004 	cmp	r0, r4
8000f048:	0a000017 	beq	8000f0ac <SMSC951xDeviceReceiveFrame+0xa8>
8000f04c:	e28d000c 	add	r0, sp, #12
8000f050:	eb000c9c 	bl	800122c8 <USBRequestGetResultLength>
8000f054:	e3500003 	cmp	r0, #3
8000f058:	9a000013 	bls	8000f0ac <SMSC951xDeviceReceiveFrame+0xa8>
8000f05c:	e5953000 	ldr	r3, [r5]
8000f060:	e30920de 	movw	r2, #37086	; 0x90de
8000f064:	e3442000 	movt	r2, #16384	; 0x4000
8000f068:	e0022003 	and	r2, r2, r3
8000f06c:	e3520000 	cmp	r2, #0
8000f070:	1a000012 	bne	8000f0c0 <SMSC951xDeviceReceiveFrame+0xbc>
8000f074:	e7ed3853 	ubfx	r3, r3, #16, #14
8000f078:	e3530004 	cmp	r3, #4
8000f07c:	9a00000a 	bls	8000f0ac <SMSC951xDeviceReceiveFrame+0xa8>
8000f080:	e2434004 	sub	r4, r3, #4
8000f084:	e2851004 	add	r1, r5, #4
8000f088:	e1a02004 	mov	r2, r4
8000f08c:	e1a00005 	mov	r0, r5
8000f090:	eb000e4f 	bl	800129d4 <uspi_memcpy>
8000f094:	e5874000 	str	r4, [r7]
8000f098:	e28d000c 	add	r0, sp, #12
8000f09c:	eb000c7b 	bl	80012290 <_USBRequest>
8000f0a0:	e3a00001 	mov	r0, #1
8000f0a4:	e28dd034 	add	sp, sp, #52	; 0x34
8000f0a8:	e8bd80f0 	pop	{r4, r5, r6, r7, pc}
8000f0ac:	e28d000c 	add	r0, sp, #12
8000f0b0:	eb000c76 	bl	80012290 <_USBRequest>
8000f0b4:	e3a00000 	mov	r0, #0
8000f0b8:	e28dd034 	add	sp, sp, #52	; 0x34
8000f0bc:	e8bd80f0 	pop	{r4, r5, r6, r7, pc}
8000f0c0:	e30829d8 	movw	r2, #35288	; 0x89d8
8000f0c4:	e30809cc 	movw	r0, #35276	; 0x89cc
8000f0c8:	e3482001 	movt	r2, #32769	; 0x8001
8000f0cc:	e3a01002 	mov	r1, #2
8000f0d0:	e3480001 	movt	r0, #32769	; 0x8001
8000f0d4:	eb000aa0 	bl	80011b5c <LogWrite>
8000f0d8:	e28d000c 	add	r0, sp, #12
8000f0dc:	eb000c6b 	bl	80012290 <_USBRequest>
8000f0e0:	e1a00004 	mov	r0, r4
8000f0e4:	e28dd034 	add	sp, sp, #52	; 0x34
8000f0e8:	e8bd80f0 	pop	{r4, r5, r6, r7, pc}

8000f0ec <SMSC951xDeviceWriteReg>:
8000f0ec:	e92d4070 	push	{r4, r5, r6, lr}
8000f0f0:	e24dd018 	sub	sp, sp, #24
8000f0f4:	e1a04001 	mov	r4, r1
8000f0f8:	e1a06000 	mov	r6, r0
8000f0fc:	e58d2014 	str	r2, [sp, #20]
8000f100:	ebffefd5 	bl	8000b05c <USBDeviceGetHost>
8000f104:	e1a05000 	mov	r5, r0
8000f108:	e1a00006 	mov	r0, r6
8000f10c:	e6ff4074 	uxth	r4, r4
8000f110:	ebffefcf 	bl	8000b054 <USBDeviceGetEndpoint0>
8000f114:	e58d4004 	str	r4, [sp, #4]
8000f118:	e3a03004 	mov	r3, #4
8000f11c:	e58d300c 	str	r3, [sp, #12]
8000f120:	e28d2014 	add	r2, sp, #20
8000f124:	e58d2008 	str	r2, [sp, #8]
8000f128:	e3a03000 	mov	r3, #0
8000f12c:	e58d3000 	str	r3, [sp]
8000f130:	e1a01000 	mov	r1, r0
8000f134:	e3a030a0 	mov	r3, #160	; 0xa0
8000f138:	e1a00005 	mov	r0, r5
8000f13c:	e3a02040 	mov	r2, #64	; 0x40
8000f140:	eb00153a 	bl	80014630 <DWHCIDeviceControlMessage>
8000f144:	e1e00000 	mvn	r0, r0
8000f148:	e1a00fa0 	lsr	r0, r0, #31
8000f14c:	e28dd018 	add	sp, sp, #24
8000f150:	e8bd8070 	pop	{r4, r5, r6, pc}

8000f154 <SMSC951xDeviceConfigure>:
8000f154:	e92d40f0 	push	{r4, r5, r6, r7, lr}
8000f158:	e24dd02c 	sub	sp, sp, #44	; 0x2c
8000f15c:	e1a04000 	mov	r4, r0
8000f160:	e1a0000d 	mov	r0, sp
8000f164:	eb000a7a 	bl	80011b54 <GetMACAddress>
8000f168:	e2505000 	subs	r5, r0, #0
8000f16c:	0a000023 	beq	8000f200 <SMSC951xDeviceConfigure+0xac>
8000f170:	e2846044 	add	r6, r4, #68	; 0x44
8000f174:	e1a0100d 	mov	r1, sp
8000f178:	e1a00006 	mov	r0, r6
8000f17c:	eb000b41 	bl	80011e88 <MACAddressSet>
8000f180:	e28d0010 	add	r0, sp, #16
8000f184:	ebffe60f 	bl	800089c8 <String>
8000f188:	e28d1010 	add	r1, sp, #16
8000f18c:	e1a00006 	mov	r0, r6
8000f190:	eb000b5a 	bl	80011f00 <MACAddressFormat>
8000f194:	e28d0010 	add	r0, sp, #16
8000f198:	ebffe624 	bl	80008a30 <StringGet>
8000f19c:	e1a03000 	mov	r3, r0
8000f1a0:	e30829f0 	movw	r2, #35312	; 0x89f0
8000f1a4:	e3482001 	movt	r2, #32769	; 0x8001
8000f1a8:	e30809cc 	movw	r0, #35276	; 0x89cc
8000f1ac:	e3480001 	movt	r0, #32769	; 0x8001
8000f1b0:	e3a01004 	mov	r1, #4
8000f1b4:	eb000a68 	bl	80011b5c <LogWrite>
8000f1b8:	e3a01002 	mov	r1, #2
8000f1bc:	e1a00004 	mov	r0, r4
8000f1c0:	ebffefab 	bl	8000b074 <USBDeviceGetDescriptor>
8000f1c4:	e3500000 	cmp	r0, #0
8000f1c8:	0a000002 	beq	8000f1d8 <SMSC951xDeviceConfigure+0x84>
8000f1cc:	e5d03004 	ldrb	r3, [r0, #4]
8000f1d0:	e3530001 	cmp	r3, #1
8000f1d4:	0a000012 	beq	8000f224 <SMSC951xDeviceConfigure+0xd0>
8000f1d8:	e30819cc 	movw	r1, #35276	; 0x89cc
8000f1dc:	e1a00004 	mov	r0, r4
8000f1e0:	e3481001 	movt	r1, #32769	; 0x8001
8000f1e4:	e3a05000 	mov	r5, #0
8000f1e8:	ebffefa3 	bl	8000b07c <USBDeviceConfigurationError>
8000f1ec:	e28d0010 	add	r0, sp, #16
8000f1f0:	ebffe604 	bl	80008a08 <_String>
8000f1f4:	e1a00005 	mov	r0, r5
8000f1f8:	e28dd02c 	add	sp, sp, #44	; 0x2c
8000f1fc:	e8bd80f0 	pop	{r4, r5, r6, r7, pc}
8000f200:	e3082a04 	movw	r2, #35332	; 0x8a04
8000f204:	e30809cc 	movw	r0, #35276	; 0x89cc
8000f208:	e3482001 	movt	r2, #32769	; 0x8001
8000f20c:	e3a01001 	mov	r1, #1
8000f210:	e3480001 	movt	r0, #32769	; 0x8001
8000f214:	eb000a50 	bl	80011b5c <LogWrite>
8000f218:	e1a00005 	mov	r0, r5
8000f21c:	e28dd02c 	add	sp, sp, #44	; 0x2c
8000f220:	e8bd80f0 	pop	{r4, r5, r6, r7, pc}
8000f224:	e3a01004 	mov	r1, #4
8000f228:	e1a00004 	mov	r0, r4
8000f22c:	ebffef90 	bl	8000b074 <USBDeviceGetDescriptor>
8000f230:	e3500000 	cmp	r0, #0
8000f234:	0affffe7 	beq	8000f1d8 <SMSC951xDeviceConfigure+0x84>
8000f238:	e5d03002 	ldrb	r3, [r0, #2]
8000f23c:	e3530000 	cmp	r3, #0
8000f240:	1affffe4 	bne	8000f1d8 <SMSC951xDeviceConfigure+0x84>
8000f244:	e5d03003 	ldrb	r3, [r0, #3]
8000f248:	e3530000 	cmp	r3, #0
8000f24c:	1affffe1 	bne	8000f1d8 <SMSC951xDeviceConfigure+0x84>
8000f250:	e5d03004 	ldrb	r3, [r0, #4]
8000f254:	e3530003 	cmp	r3, #3
8000f258:	0a000004 	beq	8000f270 <SMSC951xDeviceConfigure+0x11c>
8000f25c:	eaffffdd 	b	8000f1d8 <SMSC951xDeviceConfigure+0x84>
8000f260:	e5d72003 	ldrb	r2, [r7, #3]
8000f264:	e202203f 	and	r2, r2, #63	; 0x3f
8000f268:	e3520002 	cmp	r2, #2
8000f26c:	0a00004e 	beq	8000f3ac <SMSC951xDeviceConfigure+0x258>
8000f270:	e3a01005 	mov	r1, #5
8000f274:	e1a00004 	mov	r0, r4
8000f278:	ebffef7d 	bl	8000b074 <USBDeviceGetDescriptor>
8000f27c:	e2507000 	subs	r7, r0, #0
8000f280:	1afffff6 	bne	8000f260 <SMSC951xDeviceConfigure+0x10c>
8000f284:	e594303c 	ldr	r3, [r4, #60]	; 0x3c
8000f288:	e3530000 	cmp	r3, #0
8000f28c:	0affffd1 	beq	8000f1d8 <SMSC951xDeviceConfigure+0x84>
8000f290:	e5943040 	ldr	r3, [r4, #64]	; 0x40
8000f294:	e3530000 	cmp	r3, #0
8000f298:	0affffce 	beq	8000f1d8 <SMSC951xDeviceConfigure+0x84>
8000f29c:	e1a00004 	mov	r0, r4
8000f2a0:	ebffedd0 	bl	8000a9e8 <USBDeviceConfigure>
8000f2a4:	e2505000 	subs	r5, r0, #0
8000f2a8:	0a00005f 	beq	8000f42c <SMSC951xDeviceConfigure+0x2d8>
8000f2ac:	e1a00006 	mov	r0, r6
8000f2b0:	e28d1008 	add	r1, sp, #8
8000f2b4:	eb000aff 	bl	80011eb8 <MACAddressCopyTo>
8000f2b8:	e5dd200d 	ldrb	r2, [sp, #13]
8000f2bc:	e3a01f41 	mov	r1, #260	; 0x104
8000f2c0:	e5dd300c 	ldrb	r3, [sp, #12]
8000f2c4:	e1a00004 	mov	r0, r4
8000f2c8:	e59d5008 	ldr	r5, [sp, #8]
8000f2cc:	e1832402 	orr	r2, r3, r2, lsl #8
8000f2d0:	ebffff85 	bl	8000f0ec <SMSC951xDeviceWriteReg>
8000f2d4:	e3500000 	cmp	r0, #0
8000f2d8:	0a000049 	beq	8000f404 <SMSC951xDeviceConfigure+0x2b0>
8000f2dc:	e1a02005 	mov	r2, r5
8000f2e0:	e3a01f42 	mov	r1, #264	; 0x108
8000f2e4:	e1a00004 	mov	r0, r4
8000f2e8:	ebffff7f 	bl	8000f0ec <SMSC951xDeviceWriteReg>
8000f2ec:	e3500000 	cmp	r0, #0
8000f2f0:	0a000043 	beq	8000f404 <SMSC951xDeviceConfigure+0x2b0>
8000f2f4:	e3a02000 	mov	r2, #0
8000f2f8:	e3a01024 	mov	r1, #36	; 0x24
8000f2fc:	e3402111 	movt	r2, #273	; 0x111
8000f300:	e1a00004 	mov	r0, r4
8000f304:	ebffff78 	bl	8000f0ec <SMSC951xDeviceWriteReg>
8000f308:	e3500000 	cmp	r0, #0
8000f30c:	0a00004f 	beq	8000f450 <SMSC951xDeviceConfigure+0x2fc>
8000f310:	e3a0200c 	mov	r2, #12
8000f314:	e3a01c01 	mov	r1, #256	; 0x100
8000f318:	e3402080 	movt	r2, #128	; 0x80
8000f31c:	e1a00004 	mov	r0, r4
8000f320:	ebffff71 	bl	8000f0ec <SMSC951xDeviceWriteReg>
8000f324:	e3500000 	cmp	r0, #0
8000f328:	0a000048 	beq	8000f450 <SMSC951xDeviceConfigure+0x2fc>
8000f32c:	e3a02004 	mov	r2, #4
8000f330:	e3a01010 	mov	r1, #16
8000f334:	e1a00004 	mov	r0, r4
8000f338:	ebffff6b 	bl	8000f0ec <SMSC951xDeviceWriteReg>
8000f33c:	e3500000 	cmp	r0, #0
8000f340:	0a000042 	beq	8000f450 <SMSC951xDeviceConfigure+0x2fc>
8000f344:	e28d001c 	add	r0, sp, #28
8000f348:	e3a05001 	mov	r5, #1
8000f34c:	ebffe59d 	bl	800089c8 <String>
8000f350:	e30a38a0 	movw	r3, #43168	; 0xa8a0
8000f354:	e3081a48 	movw	r1, #35400	; 0x8a48
8000f358:	e3483009 	movt	r3, #32777	; 0x8009
8000f35c:	e28d001c 	add	r0, sp, #28
8000f360:	e3481001 	movt	r1, #32769	; 0x8001
8000f364:	e5932000 	ldr	r2, [r3]
8000f368:	e082c005 	add	ip, r2, r5
8000f36c:	e583c000 	str	ip, [r3]
8000f370:	ebffe7cd 	bl	800092ac <StringFormat>
8000f374:	eb001bb4 	bl	8001624c <DeviceNameServiceGet>
8000f378:	e1a06000 	mov	r6, r0
8000f37c:	e28d001c 	add	r0, sp, #28
8000f380:	ebffe5aa 	bl	80008a30 <StringGet>
8000f384:	e1a01000 	mov	r1, r0
8000f388:	e1a03007 	mov	r3, r7
8000f38c:	e1a02004 	mov	r2, r4
8000f390:	e1a00006 	mov	r0, r6
8000f394:	eb001b82 	bl	800161a4 <DeviceNameServiceAddDevice>
8000f398:	e28d001c 	add	r0, sp, #28
8000f39c:	ebffe599 	bl	80008a08 <_String>
8000f3a0:	e28d0010 	add	r0, sp, #16
8000f3a4:	ebffe597 	bl	80008a08 <_String>
8000f3a8:	eaffff91 	b	8000f1f4 <SMSC951xDeviceConfigure+0xa0>
8000f3ac:	e1d730d2 	ldrsb	r3, [r7, #2]
8000f3b0:	e3a0001c 	mov	r0, #28
8000f3b4:	e3530000 	cmp	r3, #0
8000f3b8:	ba000008 	blt	8000f3e0 <SMSC951xDeviceConfigure+0x28c>
8000f3bc:	e5943040 	ldr	r3, [r4, #64]	; 0x40
8000f3c0:	e3530000 	cmp	r3, #0
8000f3c4:	1affff83 	bne	8000f1d8 <SMSC951xDeviceConfigure+0x84>
8000f3c8:	eb000989 	bl	800119f4 <malloc>
8000f3cc:	e5840040 	str	r0, [r4, #64]	; 0x40
8000f3d0:	e1a02007 	mov	r2, r7
8000f3d4:	e1a01004 	mov	r1, r4
8000f3d8:	ebfff767 	bl	8000d17c <USBEndpoint2>
8000f3dc:	eaffffa3 	b	8000f270 <SMSC951xDeviceConfigure+0x11c>
8000f3e0:	e594303c 	ldr	r3, [r4, #60]	; 0x3c
8000f3e4:	e3530000 	cmp	r3, #0
8000f3e8:	1affff7a 	bne	8000f1d8 <SMSC951xDeviceConfigure+0x84>
8000f3ec:	eb000980 	bl	800119f4 <malloc>
8000f3f0:	e584003c 	str	r0, [r4, #60]	; 0x3c
8000f3f4:	e1a02007 	mov	r2, r7
8000f3f8:	e1a01004 	mov	r1, r4
8000f3fc:	ebfff75e 	bl	8000d17c <USBEndpoint2>
8000f400:	eaffff9a 	b	8000f270 <SMSC951xDeviceConfigure+0x11c>
8000f404:	e3082a1c 	movw	r2, #35356	; 0x8a1c
8000f408:	e30809cc 	movw	r0, #35276	; 0x89cc
8000f40c:	e3482001 	movt	r2, #32769	; 0x8001
8000f410:	e3480001 	movt	r0, #32769	; 0x8001
8000f414:	e3a01001 	mov	r1, #1
8000f418:	e3a05000 	mov	r5, #0
8000f41c:	eb0009ce 	bl	80011b5c <LogWrite>
8000f420:	e28d0010 	add	r0, sp, #16
8000f424:	ebffe577 	bl	80008a08 <_String>
8000f428:	eaffff71 	b	8000f1f4 <SMSC951xDeviceConfigure+0xa0>
8000f42c:	e3072f60 	movw	r2, #32608	; 0x7f60
8000f430:	e30809cc 	movw	r0, #35276	; 0x89cc
8000f434:	e3482001 	movt	r2, #32769	; 0x8001
8000f438:	e3a01001 	mov	r1, #1
8000f43c:	e3480001 	movt	r0, #32769	; 0x8001
8000f440:	eb0009c5 	bl	80011b5c <LogWrite>
8000f444:	e28d0010 	add	r0, sp, #16
8000f448:	ebffe56e 	bl	80008a08 <_String>
8000f44c:	eaffff68 	b	8000f1f4 <SMSC951xDeviceConfigure+0xa0>
8000f450:	e3082a34 	movw	r2, #35380	; 0x8a34
8000f454:	e30809cc 	movw	r0, #35276	; 0x89cc
8000f458:	e3482001 	movt	r2, #32769	; 0x8001
8000f45c:	eaffffeb 	b	8000f410 <SMSC951xDeviceConfigure+0x2bc>

8000f460 <SMSC951xDeviceReadReg>:
8000f460:	e92d40f0 	push	{r4, r5, r6, r7, lr}
8000f464:	e24dd014 	sub	sp, sp, #20
8000f468:	e1a06002 	mov	r6, r2
8000f46c:	e1a04001 	mov	r4, r1
8000f470:	e1a07000 	mov	r7, r0
8000f474:	ebffeef8 	bl	8000b05c <USBDeviceGetHost>
8000f478:	e1a05000 	mov	r5, r0
8000f47c:	e1a00007 	mov	r0, r7
8000f480:	e6ff4074 	uxth	r4, r4
8000f484:	ebffeef2 	bl	8000b054 <USBDeviceGetEndpoint0>
8000f488:	e58d6008 	str	r6, [sp, #8]
8000f48c:	e3a03004 	mov	r3, #4
8000f490:	e58d300c 	str	r3, [sp, #12]
8000f494:	e3a03000 	mov	r3, #0
8000f498:	e58d3000 	str	r3, [sp]
8000f49c:	e1a01000 	mov	r1, r0
8000f4a0:	e58d4004 	str	r4, [sp, #4]
8000f4a4:	e3a030a1 	mov	r3, #161	; 0xa1
8000f4a8:	e1a00005 	mov	r0, r5
8000f4ac:	e3a020c0 	mov	r2, #192	; 0xc0
8000f4b0:	eb00145e 	bl	80014630 <DWHCIDeviceControlMessage>
8000f4b4:	e2400004 	sub	r0, r0, #4
8000f4b8:	e16f0f10 	clz	r0, r0
8000f4bc:	e1a002a0 	lsr	r0, r0, #5
8000f4c0:	e28dd014 	add	sp, sp, #20
8000f4c4:	e8bd80f0 	pop	{r4, r5, r6, r7, pc}

8000f4c8 <install_trans>:
8000f4c8:	e92d41f0 	push	{r4, r5, r6, r7, r8, lr}
8000f4cc:	e30c4514 	movw	r4, #50452	; 0xc514
8000f4d0:	e3484009 	movt	r4, #32777	; 0x8009
8000f4d4:	e5943044 	ldr	r3, [r4, #68]	; 0x44
8000f4d8:	e3530000 	cmp	r3, #0
8000f4dc:	d8bd81f0 	pople	{r4, r5, r6, r7, r8, pc}
8000f4e0:	e2848044 	add	r8, r4, #68	; 0x44
8000f4e4:	e3a05000 	mov	r5, #0
8000f4e8:	e5941034 	ldr	r1, [r4, #52]	; 0x34
8000f4ec:	e5940040 	ldr	r0, [r4, #64]	; 0x40
8000f4f0:	e0851001 	add	r1, r5, r1
8000f4f4:	e2855001 	add	r5, r5, #1
8000f4f8:	e2811001 	add	r1, r1, #1
8000f4fc:	ebfff612 	bl	8000cd4c <bread>
8000f500:	e5b81004 	ldr	r1, [r8, #4]!
8000f504:	e1a07000 	mov	r7, r0
8000f508:	e5940040 	ldr	r0, [r4, #64]	; 0x40
8000f50c:	ebfff60e 	bl	8000cd4c <bread>
8000f510:	e1a06000 	mov	r6, r0
8000f514:	e2871018 	add	r1, r7, #24
8000f518:	e3a02c02 	mov	r2, #512	; 0x200
8000f51c:	e2800018 	add	r0, r0, #24
8000f520:	ebffebd6 	bl	8000a480 <memmove>
8000f524:	e1a00006 	mov	r0, r6
8000f528:	ebfff649 	bl	8000ce54 <bwrite>
8000f52c:	e1a00007 	mov	r0, r7
8000f530:	ebfff651 	bl	8000ce7c <brelse>
8000f534:	e1a00006 	mov	r0, r6
8000f538:	ebfff64f 	bl	8000ce7c <brelse>
8000f53c:	e5943044 	ldr	r3, [r4, #68]	; 0x44
8000f540:	e1530005 	cmp	r3, r5
8000f544:	caffffe7 	bgt	8000f4e8 <install_trans+0x20>
8000f548:	e8bd81f0 	pop	{r4, r5, r6, r7, r8, pc}

8000f54c <write_head>:
8000f54c:	e92d4070 	push	{r4, r5, r6, lr}
8000f550:	e30c4514 	movw	r4, #50452	; 0xc514
8000f554:	e3484009 	movt	r4, #32777	; 0x8009
8000f558:	e5941034 	ldr	r1, [r4, #52]	; 0x34
8000f55c:	e5940040 	ldr	r0, [r4, #64]	; 0x40
8000f560:	ebfff5f9 	bl	8000cd4c <bread>
8000f564:	e1a05000 	mov	r5, r0
8000f568:	e5940044 	ldr	r0, [r4, #68]	; 0x44
8000f56c:	e5850018 	str	r0, [r5, #24]
8000f570:	e3500000 	cmp	r0, #0
8000f574:	da000007 	ble	8000f598 <write_head+0x4c>
8000f578:	e0850100 	add	r0, r5, r0, lsl #2
8000f57c:	e2842044 	add	r2, r4, #68	; 0x44
8000f580:	e2800018 	add	r0, r0, #24
8000f584:	e2853018 	add	r3, r5, #24
8000f588:	e5b21004 	ldr	r1, [r2, #4]!
8000f58c:	e5a31004 	str	r1, [r3, #4]!
8000f590:	e1530000 	cmp	r3, r0
8000f594:	1afffffb 	bne	8000f588 <write_head+0x3c>
8000f598:	e1a00005 	mov	r0, r5
8000f59c:	ebfff62c 	bl	8000ce54 <bwrite>
8000f5a0:	e1a00005 	mov	r0, r5
8000f5a4:	e8bd4070 	pop	{r4, r5, r6, lr}
8000f5a8:	eafff633 	b	8000ce7c <brelse>

8000f5ac <initlog>:
8000f5ac:	e92d4010 	push	{r4, lr}
8000f5b0:	e30c4514 	movw	r4, #50452	; 0xc514
8000f5b4:	e3484009 	movt	r4, #32777	; 0x8009
8000f5b8:	e24dd010 	sub	sp, sp, #16
8000f5bc:	e3a02070 	mov	r2, #112	; 0x70
8000f5c0:	e3a01000 	mov	r1, #0
8000f5c4:	e1a00004 	mov	r0, r4
8000f5c8:	ebffeb7f 	bl	8000a3cc <memset>
8000f5cc:	e3081a50 	movw	r1, #35408	; 0x8a50
8000f5d0:	e1a00004 	mov	r0, r4
8000f5d4:	e3481001 	movt	r1, #32769	; 0x8001
8000f5d8:	ebfff1e4 	bl	8000bd70 <initlock>
8000f5dc:	e1a0100d 	mov	r1, sp
8000f5e0:	e3a00001 	mov	r0, #1
8000f5e4:	eb001e49 	bl	80016f10 <readsb>
8000f5e8:	e59d200c 	ldr	r2, [sp, #12]
8000f5ec:	e3a03001 	mov	r3, #1
8000f5f0:	e59d1000 	ldr	r1, [sp]
8000f5f4:	e1a00003 	mov	r0, r3
8000f5f8:	e5843040 	str	r3, [r4, #64]	; 0x40
8000f5fc:	e0411002 	sub	r1, r1, r2
8000f600:	e5842038 	str	r2, [r4, #56]	; 0x38
8000f604:	e5841034 	str	r1, [r4, #52]	; 0x34
8000f608:	ebfff5cf 	bl	8000cd4c <bread>
8000f60c:	e5903018 	ldr	r3, [r0, #24]
8000f610:	e5843044 	str	r3, [r4, #68]	; 0x44
8000f614:	e3530000 	cmp	r3, #0
8000f618:	da000006 	ble	8000f638 <initlog+0x8c>
8000f61c:	e2802018 	add	r2, r0, #24
8000f620:	e2841044 	add	r1, r4, #68	; 0x44
8000f624:	e0823103 	add	r3, r2, r3, lsl #2
8000f628:	e5b2c004 	ldr	ip, [r2, #4]!
8000f62c:	e1520003 	cmp	r2, r3
8000f630:	e5a1c004 	str	ip, [r1, #4]!
8000f634:	1afffffb 	bne	8000f628 <initlog+0x7c>
8000f638:	ebfff60f 	bl	8000ce7c <brelse>
8000f63c:	ebffffa1 	bl	8000f4c8 <install_trans>
8000f640:	e3a03000 	mov	r3, #0
8000f644:	e5843044 	str	r3, [r4, #68]	; 0x44
8000f648:	ebffffbf 	bl	8000f54c <write_head>
8000f64c:	e28dd010 	add	sp, sp, #16
8000f650:	e8bd8010 	pop	{r4, pc}

8000f654 <begin_trans>:
8000f654:	e92d4070 	push	{r4, r5, r6, lr}
8000f658:	e30c4514 	movw	r4, #50452	; 0xc514
8000f65c:	e3484009 	movt	r4, #32777	; 0x8009
8000f660:	e1a00004 	mov	r0, r4
8000f664:	ebfff1df 	bl	8000bde8 <acquire>
8000f668:	e594303c 	ldr	r3, [r4, #60]	; 0x3c
8000f66c:	e3530000 	cmp	r3, #0
8000f670:	0a000007 	beq	8000f694 <begin_trans+0x40>
8000f674:	e1a05004 	mov	r5, r4
8000f678:	e30c0514 	movw	r0, #50452	; 0xc514
8000f67c:	e1a01005 	mov	r1, r5
8000f680:	e3480009 	movt	r0, #32777	; 0x8009
8000f684:	eb00187a 	bl	80015874 <sleep>
8000f688:	e594303c 	ldr	r3, [r4, #60]	; 0x3c
8000f68c:	e3530000 	cmp	r3, #0
8000f690:	1afffff8 	bne	8000f678 <begin_trans+0x24>
8000f694:	e30c0514 	movw	r0, #50452	; 0xc514
8000f698:	e3a03001 	mov	r3, #1
8000f69c:	e584303c 	str	r3, [r4, #60]	; 0x3c
8000f6a0:	e3480009 	movt	r0, #32777	; 0x8009
8000f6a4:	e8bd4070 	pop	{r4, r5, r6, lr}
8000f6a8:	eafff204 	b	8000bec0 <release>

8000f6ac <commit_trans>:
8000f6ac:	e92d4010 	push	{r4, lr}
8000f6b0:	e30c4514 	movw	r4, #50452	; 0xc514
8000f6b4:	e3484009 	movt	r4, #32777	; 0x8009
8000f6b8:	e5943044 	ldr	r3, [r4, #68]	; 0x44
8000f6bc:	e3530000 	cmp	r3, #0
8000f6c0:	da000004 	ble	8000f6d8 <commit_trans+0x2c>
8000f6c4:	ebffffa0 	bl	8000f54c <write_head>
8000f6c8:	ebffff7e 	bl	8000f4c8 <install_trans>
8000f6cc:	e3a03000 	mov	r3, #0
8000f6d0:	e5843044 	str	r3, [r4, #68]	; 0x44
8000f6d4:	ebffff9c 	bl	8000f54c <write_head>
8000f6d8:	e30c0514 	movw	r0, #50452	; 0xc514
8000f6dc:	e3480009 	movt	r0, #32777	; 0x8009
8000f6e0:	ebfff1c0 	bl	8000bde8 <acquire>
8000f6e4:	e30c0514 	movw	r0, #50452	; 0xc514
8000f6e8:	e3a03000 	mov	r3, #0
8000f6ec:	e3480009 	movt	r0, #32777	; 0x8009
8000f6f0:	e584303c 	str	r3, [r4, #60]	; 0x3c
8000f6f4:	eb0018c1 	bl	80015a00 <wakeup>
8000f6f8:	e30c0514 	movw	r0, #50452	; 0xc514
8000f6fc:	e3480009 	movt	r0, #32777	; 0x8009
8000f700:	e8bd4010 	pop	{r4, lr}
8000f704:	eafff1ed 	b	8000bec0 <release>

8000f708 <log_write>:
8000f708:	e92d41f0 	push	{r4, r5, r6, r7, r8, lr}
8000f70c:	e30c5514 	movw	r5, #50452	; 0xc514
8000f710:	e3485009 	movt	r5, #32777	; 0x8009
8000f714:	e5954044 	ldr	r4, [r5, #68]	; 0x44
8000f718:	e3540009 	cmp	r4, #9
8000f71c:	ca000032 	bgt	8000f7ec <log_write+0xe4>
8000f720:	e5953038 	ldr	r3, [r5, #56]	; 0x38
8000f724:	e2433001 	sub	r3, r3, #1
8000f728:	e1540003 	cmp	r4, r3
8000f72c:	aa00002e 	bge	8000f7ec <log_write+0xe4>
8000f730:	e595303c 	ldr	r3, [r5, #60]	; 0x3c
8000f734:	e3530000 	cmp	r3, #0
8000f738:	0a00002e 	beq	8000f7f8 <log_write+0xf0>
8000f73c:	e590c008 	ldr	ip, [r0, #8]
8000f740:	e3540000 	cmp	r4, #0
8000f744:	e1a06000 	mov	r6, r0
8000f748:	da000025 	ble	8000f7e4 <log_write+0xdc>
8000f74c:	e5953048 	ldr	r3, [r5, #72]	; 0x48
8000f750:	e153000c 	cmp	r3, ip
8000f754:	0a000022 	beq	8000f7e4 <log_write+0xdc>
8000f758:	e2852048 	add	r2, r5, #72	; 0x48
8000f75c:	e3a03000 	mov	r3, #0
8000f760:	ea000002 	b	8000f770 <log_write+0x68>
8000f764:	e5b21004 	ldr	r1, [r2, #4]!
8000f768:	e151000c 	cmp	r1, ip
8000f76c:	0a00001a 	beq	8000f7dc <log_write+0xd4>
8000f770:	e2833001 	add	r3, r3, #1
8000f774:	e1540003 	cmp	r4, r3
8000f778:	1afffff9 	bne	8000f764 <log_write+0x5c>
8000f77c:	e5951034 	ldr	r1, [r5, #52]	; 0x34
8000f780:	e0853104 	add	r3, r5, r4, lsl #2
8000f784:	e0841001 	add	r1, r4, r1
8000f788:	e5960004 	ldr	r0, [r6, #4]
8000f78c:	e2811001 	add	r1, r1, #1
8000f790:	e583c048 	str	ip, [r3, #72]	; 0x48
8000f794:	ebfff56c 	bl	8000cd4c <bread>
8000f798:	e1a07000 	mov	r7, r0
8000f79c:	e3a02c02 	mov	r2, #512	; 0x200
8000f7a0:	e2861018 	add	r1, r6, #24
8000f7a4:	e2800018 	add	r0, r0, #24
8000f7a8:	ebffeb34 	bl	8000a480 <memmove>
8000f7ac:	e1a00007 	mov	r0, r7
8000f7b0:	ebfff5a7 	bl	8000ce54 <bwrite>
8000f7b4:	e1a00007 	mov	r0, r7
8000f7b8:	ebfff5af 	bl	8000ce7c <brelse>
8000f7bc:	e5953044 	ldr	r3, [r5, #68]	; 0x44
8000f7c0:	e1530004 	cmp	r3, r4
8000f7c4:	e5963000 	ldr	r3, [r6]
8000f7c8:	02844001 	addeq	r4, r4, #1
8000f7cc:	05854044 	streq	r4, [r5, #68]	; 0x44
8000f7d0:	e3833004 	orr	r3, r3, #4
8000f7d4:	e5863000 	str	r3, [r6]
8000f7d8:	e8bd81f0 	pop	{r4, r5, r6, r7, r8, pc}
8000f7dc:	e1a04003 	mov	r4, r3
8000f7e0:	eaffffe5 	b	8000f77c <log_write+0x74>
8000f7e4:	e3a04000 	mov	r4, #0
8000f7e8:	eaffffe3 	b	8000f77c <log_write+0x74>
8000f7ec:	e3080a54 	movw	r0, #35412	; 0x8a54
8000f7f0:	e3480001 	movt	r0, #32769	; 0x8001
8000f7f4:	ebfff01c 	bl	8000b86c <panic>
8000f7f8:	e3080a6c 	movw	r0, #35436	; 0x8a6c
8000f7fc:	e3480001 	movt	r0, #32769	; 0x8001
8000f800:	ebfff019 	bl	8000b86c <panic>

8000f804 <uartgetc>:
8000f804:	e30a39a8 	movw	r3, #43432	; 0xa9a8
8000f808:	e3483009 	movt	r3, #32777	; 0x8009
8000f80c:	e5932000 	ldr	r2, [r3]
8000f810:	e3520000 	cmp	r2, #0
8000f814:	1a000008 	bne	8000f83c <uartgetc+0x38>
8000f818:	e3053054 	movw	r3, #20564	; 0x5054
8000f81c:	e34d3021 	movt	r3, #53281	; 0xd021
8000f820:	e5933000 	ldr	r3, [r3]
8000f824:	e3130001 	tst	r3, #1
8000f828:	0a000007 	beq	8000f84c <uartgetc+0x48>
8000f82c:	e3050040 	movw	r0, #20544	; 0x5040
8000f830:	e34d0021 	movt	r0, #53281	; 0xd021
8000f834:	e5900000 	ldr	r0, [r0]
8000f838:	e12fff1e 	bx	lr
8000f83c:	e5930004 	ldr	r0, [r3, #4]
8000f840:	e3a02000 	mov	r2, #0
8000f844:	e5832000 	str	r2, [r3]
8000f848:	e12fff1e 	bx	lr
8000f84c:	e3e00000 	mvn	r0, #0
8000f850:	e12fff1e 	bx	lr

8000f854 <setgpiofunc.part.2>:
8000f854:	e350000a 	cmp	r0, #10
8000f858:	e3a03000 	mov	r3, #0
8000f85c:	e52de004 	push	{lr}		; (str lr, [sp, #-4]!)
8000f860:	934d3020 	movtls	r3, #53280	; 0xd020
8000f864:	9a000006 	bls	8000f884 <setgpiofunc.part.2+0x30>
8000f868:	e240000a 	sub	r0, r0, #10
8000f86c:	e2833001 	add	r3, r3, #1
8000f870:	e350000a 	cmp	r0, #10
8000f874:	8afffffb 	bhi	8000f868 <setgpiofunc.part.2+0x14>
8000f878:	e1a03103 	lsl	r3, r3, #2
8000f87c:	e283320d 	add	r3, r3, #-805306368	; 0xd0000000
8000f880:	e2833602 	add	r3, r3, #2097152	; 0x200000
8000f884:	e5932000 	ldr	r2, [r3]
8000f888:	e1a0c080 	lsl	ip, r0, #1
8000f88c:	e3a0e007 	mov	lr, #7
8000f890:	e08c0000 	add	r0, ip, r0
8000f894:	e1c2201e 	bic	r2, r2, lr, lsl r0
8000f898:	e5832000 	str	r2, [r3]
8000f89c:	e1822011 	orr	r2, r2, r1, lsl r0
8000f8a0:	e5832000 	str	r2, [r3]
8000f8a4:	e49df004 	pop	{pc}		; (ldr pc, [sp], #4)

8000f8a8 <led18_on>:
8000f8a8:	e92d4010 	push	{r4, lr}
8000f8ac:	e3a01001 	mov	r1, #1
8000f8b0:	e3a00012 	mov	r0, #18
8000f8b4:	ebffffe6 	bl	8000f854 <setgpiofunc.part.2>
8000f8b8:	e3a0301c 	mov	r3, #28
8000f8bc:	e3a02701 	mov	r2, #262144	; 0x40000
8000f8c0:	e34d3020 	movt	r3, #53280	; 0xd020
8000f8c4:	e5832000 	str	r2, [r3]
8000f8c8:	e8bd8010 	pop	{r4, pc}

8000f8cc <led18_off>:
8000f8cc:	e92d4010 	push	{r4, lr}
8000f8d0:	e3a01001 	mov	r1, #1
8000f8d4:	e3a00012 	mov	r0, #18
8000f8d8:	ebffffdd 	bl	8000f854 <setgpiofunc.part.2>
8000f8dc:	e3a03028 	mov	r3, #40	; 0x28
8000f8e0:	e3a02701 	mov	r2, #262144	; 0x40000
8000f8e4:	e34d3020 	movt	r3, #53280	; 0xd020
8000f8e8:	e5832000 	str	r2, [r3]
8000f8ec:	e8bd8010 	pop	{r4, pc}

8000f8f0 <setgpioval>:
8000f8f0:	e3500035 	cmp	r0, #53	; 0x35
8000f8f4:	812fff1e 	bxhi	lr
8000f8f8:	e350001f 	cmp	r0, #31
8000f8fc:	e3a03001 	mov	r3, #1
8000f900:	83a0c02c 	movhi	ip, #44	; 0x2c
8000f904:	93a0c028 	movls	ip, #40	; 0x28
8000f908:	834dc020 	movthi	ip, #53280	; 0xd020
8000f90c:	83a02020 	movhi	r2, #32
8000f910:	934dc020 	movtls	ip, #53280	; 0xd020
8000f914:	8200001f 	andhi	r0, r0, #31
8000f918:	93a0201c 	movls	r2, #28
8000f91c:	e3510000 	cmp	r1, #0
8000f920:	e34d2020 	movt	r2, #53280	; 0xd020
8000f924:	e1a00013 	lsl	r0, r3, r0
8000f928:	1a000001 	bne	8000f934 <setgpioval+0x44>
8000f92c:	e58c0000 	str	r0, [ip]
8000f930:	e12fff1e 	bx	lr
8000f934:	e5820000 	str	r0, [r2]
8000f938:	e12fff1e 	bx	lr

8000f93c <setgpiofunc>:
8000f93c:	e3500035 	cmp	r0, #53	; 0x35
8000f940:	812fff1e 	bxhi	lr
8000f944:	eaffffc2 	b	8000f854 <setgpiofunc.part.2>

8000f948 <enableirqminiuart>:
8000f948:	e3a03cb2 	mov	r3, #45568	; 0xb200
8000f94c:	e34d3000 	movt	r3, #53248	; 0xd000
8000f950:	e5932010 	ldr	r2, [r3, #16]
8000f954:	e3822202 	orr	r2, r2, #536870912	; 0x20000000
8000f958:	e5832010 	str	r2, [r3, #16]
8000f95c:	e12fff1e 	bx	lr

8000f960 <disableirqminiuart>:
8000f960:	e3a03cb2 	mov	r3, #45568	; 0xb200
8000f964:	e34d3000 	movt	r3, #53248	; 0xd000
8000f968:	e593201c 	ldr	r2, [r3, #28]
8000f96c:	e3822202 	orr	r2, r2, #536870912	; 0x20000000
8000f970:	e583201c 	str	r2, [r3, #28]
8000f974:	e12fff1e 	bx	lr

8000f978 <uartputc>:
8000f978:	e30c3584 	movw	r3, #50564	; 0xc584
8000f97c:	e3483009 	movt	r3, #32777	; 0x8009
8000f980:	e5933000 	ldr	r3, [r3]
8000f984:	e3530000 	cmp	r3, #0
8000f988:	112fff1e 	bxne	lr
8000f98c:	e350000a 	cmp	r0, #10
8000f990:	130033e9 	movwne	r3, #1001	; 0x3e9
8000f994:	0a00000b 	beq	8000f9c8 <uartputc+0x50>
8000f998:	e3051054 	movw	r1, #20564	; 0x5054
8000f99c:	e34d1021 	movt	r1, #53281	; 0xd021
8000f9a0:	ea000001 	b	8000f9ac <uartputc+0x34>
8000f9a4:	e2533001 	subs	r3, r3, #1
8000f9a8:	012fff1e 	bxeq	lr
8000f9ac:	e5912000 	ldr	r2, [r1]
8000f9b0:	e3120020 	tst	r2, #32
8000f9b4:	0afffffa 	beq	8000f9a4 <uartputc+0x2c>
8000f9b8:	e3053040 	movw	r3, #20544	; 0x5040
8000f9bc:	e34d3021 	movt	r3, #53281	; 0xd021
8000f9c0:	e5830000 	str	r0, [r3]
8000f9c4:	e12fff1e 	bx	lr
8000f9c8:	e3051054 	movw	r1, #20564	; 0x5054
8000f9cc:	e30033e9 	movw	r3, #1001	; 0x3e9
8000f9d0:	e34d1021 	movt	r1, #53281	; 0xd021
8000f9d4:	ea000001 	b	8000f9e0 <uartputc+0x68>
8000f9d8:	e2533001 	subs	r3, r3, #1
8000f9dc:	012fff1e 	bxeq	lr
8000f9e0:	e5912000 	ldr	r2, [r1]
8000f9e4:	e3120020 	tst	r2, #32
8000f9e8:	0afffffa 	beq	8000f9d8 <uartputc+0x60>
8000f9ec:	e3053040 	movw	r3, #20544	; 0x5040
8000f9f0:	e3a0200d 	mov	r2, #13
8000f9f4:	e34d3021 	movt	r3, #53281	; 0xd021
8000f9f8:	e5832000 	str	r2, [r3]
8000f9fc:	e30033e9 	movw	r3, #1001	; 0x3e9
8000fa00:	eaffffe4 	b	8000f998 <uartputc+0x20>

8000fa04 <miniuartintr>:
8000fa04:	e30c3584 	movw	r3, #50564	; 0xc584
8000fa08:	e3483009 	movt	r3, #32777	; 0x8009
8000fa0c:	e5931000 	ldr	r1, [r3]
8000fa10:	e3510000 	cmp	r1, #0
8000fa14:	112fff1e 	bxne	lr
8000fa18:	e30a29a8 	movw	r2, #43432	; 0xa9a8
8000fa1c:	e3482009 	movt	r2, #32777	; 0x8009
8000fa20:	e5920008 	ldr	r0, [r2, #8]
8000fa24:	e3500000 	cmp	r0, #0
8000fa28:	1a00001b 	bne	8000fa9c <miniuartintr+0x98>
8000fa2c:	e3051048 	movw	r1, #20552	; 0x5048
8000fa30:	e34d1021 	movt	r1, #53281	; 0xd021
8000fa34:	e5911000 	ldr	r1, [r1]
8000fa38:	e3110004 	tst	r1, #4
8000fa3c:	012fff1e 	bxeq	lr
8000fa40:	e3051064 	movw	r1, #20580	; 0x5064
8000fa44:	e34d1021 	movt	r1, #53281	; 0xd021
8000fa48:	e5911000 	ldr	r1, [r1]
8000fa4c:	e311080f 	tst	r1, #983040	; 0xf0000
8000fa50:	012fff1e 	bxeq	lr
8000fa54:	e3051054 	movw	r1, #20564	; 0x5054
8000fa58:	e34d1021 	movt	r1, #53281	; 0xd021
8000fa5c:	e5911000 	ldr	r1, [r1]
8000fa60:	e3110001 	tst	r1, #1
8000fa64:	05921004 	ldreq	r1, [r2, #4]
8000fa68:	0a000003 	beq	8000fa7c <miniuartintr+0x78>
8000fa6c:	e3051040 	movw	r1, #20544	; 0x5040
8000fa70:	e34d1021 	movt	r1, #53281	; 0xd021
8000fa74:	e5911000 	ldr	r1, [r1]
8000fa78:	e5821004 	str	r1, [r2, #4]
8000fa7c:	e3510000 	cmp	r1, #0
8000fa80:	1a000012 	bne	8000fad0 <miniuartintr+0xcc>
8000fa84:	e3052044 	movw	r2, #20548	; 0x5044
8000fa88:	e34d2021 	movt	r2, #53281	; 0xd021
8000fa8c:	e5821000 	str	r1, [r2]
8000fa90:	e3a02001 	mov	r2, #1
8000fa94:	e5832000 	str	r2, [r3]
8000fa98:	e12fff1e 	bx	lr
8000fa9c:	e5821008 	str	r1, [r2, #8]
8000faa0:	e3052054 	movw	r2, #20564	; 0x5054
8000faa4:	e34d2021 	movt	r2, #53281	; 0xd021
8000faa8:	e5923000 	ldr	r3, [r2]
8000faac:	e3130001 	tst	r3, #1
8000fab0:	012fff1e 	bxeq	lr
8000fab4:	e3051040 	movw	r1, #20544	; 0x5040
8000fab8:	e34d1021 	movt	r1, #53281	; 0xd021
8000fabc:	e5913000 	ldr	r3, [r1]
8000fac0:	e5923000 	ldr	r3, [r2]
8000fac4:	e3130001 	tst	r3, #1
8000fac8:	1afffffb 	bne	8000fabc <miniuartintr+0xb8>
8000facc:	e12fff1e 	bx	lr
8000fad0:	e30f0804 	movw	r0, #63492	; 0xf804
8000fad4:	e3a03001 	mov	r3, #1
8000fad8:	e3480000 	movt	r0, #32768	; 0x8000
8000fadc:	e5823000 	str	r3, [r2]
8000fae0:	eafff00d 	b	8000bb1c <consoleintr>

8000fae4 <uartinit>:
8000fae4:	e3053004 	movw	r3, #20484	; 0x5004
8000fae8:	e92d41f0 	push	{r4, r5, r6, r7, r8, lr}
8000faec:	e3a05001 	mov	r5, #1
8000faf0:	e34d3021 	movt	r3, #53281	; 0xd021
8000faf4:	e5835000 	str	r5, [r3]
8000faf8:	e3056060 	movw	r6, #20576	; 0x5060
8000fafc:	e3a04000 	mov	r4, #0
8000fb00:	e34d6021 	movt	r6, #53281	; 0xd021
8000fb04:	e5864000 	str	r4, [r6]
8000fb08:	e305304c 	movw	r3, #20556	; 0x504c
8000fb0c:	e3a08003 	mov	r8, #3
8000fb10:	e34d3021 	movt	r3, #53281	; 0xd021
8000fb14:	e5838000 	str	r8, [r3]
8000fb18:	e3053050 	movw	r3, #20560	; 0x5050
8000fb1c:	e34d3021 	movt	r3, #53281	; 0xd021
8000fb20:	e5834000 	str	r4, [r3]
8000fb24:	e3053044 	movw	r3, #20548	; 0x5044
8000fb28:	e34d3021 	movt	r3, #53281	; 0xd021
8000fb2c:	e5835000 	str	r5, [r3]
8000fb30:	e3053048 	movw	r3, #20552	; 0x5048
8000fb34:	e3a020c7 	mov	r2, #199	; 0xc7
8000fb38:	e34d3021 	movt	r3, #53281	; 0xd021
8000fb3c:	e5832000 	str	r2, [r3]
8000fb40:	e3053068 	movw	r3, #20584	; 0x5068
8000fb44:	e300210e 	movw	r2, #270	; 0x10e
8000fb48:	e34d3021 	movt	r3, #53281	; 0xd021
8000fb4c:	e5832000 	str	r2, [r3]
8000fb50:	e3a01002 	mov	r1, #2
8000fb54:	e3a0000e 	mov	r0, #14
8000fb58:	ebffff3d 	bl	8000f854 <setgpiofunc.part.2>
8000fb5c:	e3a01002 	mov	r1, #2
8000fb60:	e3a0000f 	mov	r0, #15
8000fb64:	ebffff3a 	bl	8000f854 <setgpiofunc.part.2>
8000fb68:	e3a03094 	mov	r3, #148	; 0x94
8000fb6c:	e34d3020 	movt	r3, #53280	; 0xd020
8000fb70:	e5834000 	str	r4, [r3]
8000fb74:	e3a0000a 	mov	r0, #10
8000fb78:	e3a07098 	mov	r7, #152	; 0x98
8000fb7c:	e34d7020 	movt	r7, #53280	; 0xd020
8000fb80:	eb001950 	bl	800160c8 <delay>
8000fb84:	e3a03903 	mov	r3, #49152	; 0xc000
8000fb88:	e5873000 	str	r3, [r7]
8000fb8c:	e3a0000a 	mov	r0, #10
8000fb90:	eb00194c 	bl	800160c8 <delay>
8000fb94:	e5874000 	str	r4, [r7]
8000fb98:	e5868000 	str	r8, [r6]
8000fb9c:	e30a29a8 	movw	r2, #43432	; 0xa9a8
8000fba0:	e30c3584 	movw	r3, #50564	; 0xc584
8000fba4:	e3482009 	movt	r2, #32777	; 0x8009
8000fba8:	e3483009 	movt	r3, #32777	; 0x8009
8000fbac:	e5825008 	str	r5, [r2, #8]
8000fbb0:	e5834000 	str	r4, [r3]
8000fbb4:	e8bd81f0 	pop	{r4, r5, r6, r7, r8, pc}

8000fbb8 <DWHCITransferStageData>:
8000fbb8:	e92d4070 	push	{r4, r5, r6, lr}
8000fbbc:	e1a04000 	mov	r4, r0
8000fbc0:	e59d6010 	ldr	r6, [sp, #16]
8000fbc4:	e1a05002 	mov	r5, r2
8000fbc8:	e5803008 	str	r3, [r0, #8]
8000fbcc:	e3a03000 	mov	r3, #0
8000fbd0:	e5801000 	str	r1, [r0]
8000fbd4:	e5802004 	str	r2, [r0, #4]
8000fbd8:	e1a00002 	mov	r0, r2
8000fbdc:	e5843014 	str	r3, [r4, #20]
8000fbe0:	e5843038 	str	r3, [r4, #56]	; 0x38
8000fbe4:	e584303c 	str	r3, [r4, #60]	; 0x3c
8000fbe8:	e5843040 	str	r3, [r4, #64]	; 0x40
8000fbec:	e5843044 	str	r3, [r4, #68]	; 0x44
8000fbf0:	e5843048 	str	r3, [r4, #72]	; 0x48
8000fbf4:	e5843050 	str	r3, [r4, #80]	; 0x50
8000fbf8:	e584600c 	str	r6, [r4, #12]
8000fbfc:	eb0009a9 	bl	800122a8 <USBRequestGetEndpoint>
8000fc00:	e584001c 	str	r0, [r4, #28]
8000fc04:	ebfff5a7 	bl	8000d2a8 <USBEndpointGetDevice>
8000fc08:	e5840018 	str	r0, [r4, #24]
8000fc0c:	ebffed0a 	bl	8000b03c <USBDeviceGetSpeed>
8000fc10:	e5840020 	str	r0, [r4, #32]
8000fc14:	e594001c 	ldr	r0, [r4, #28]
8000fc18:	ebfff5ac 	bl	8000d2d0 <USBEndpointGetMaxPacketSize>
8000fc1c:	e5840024 	str	r0, [r4, #36]	; 0x24
8000fc20:	e5940018 	ldr	r0, [r4, #24]
8000fc24:	ebffed06 	bl	8000b044 <USBDeviceGetHubAddress>
8000fc28:	e3500000 	cmp	r0, #0
8000fc2c:	0a000002 	beq	8000fc3c <DWHCITransferStageData+0x84>
8000fc30:	e5940020 	ldr	r0, [r4, #32]
8000fc34:	e2500002 	subs	r0, r0, #2
8000fc38:	13a00001 	movne	r0, #1
8000fc3c:	e5840010 	str	r0, [r4, #16]
8000fc40:	e3560000 	cmp	r6, #0
8000fc44:	1a000021 	bne	8000fcd0 <DWHCITransferStageData+0x118>
8000fc48:	e594001c 	ldr	r0, [r4, #28]
8000fc4c:	e1a01006 	mov	r1, r6
8000fc50:	ebfff5a2 	bl	8000d2e0 <USBEndpointGetNextPID>
8000fc54:	e3500000 	cmp	r0, #0
8000fc58:	e1a00005 	mov	r0, r5
8000fc5c:	0a00003c 	beq	8000fd54 <DWHCITransferStageData+0x19c>
8000fc60:	eb00099c 	bl	800122d8 <USBRequestGetBuffer>
8000fc64:	e584004c 	str	r0, [r4, #76]	; 0x4c
8000fc68:	e1a00005 	mov	r0, r5
8000fc6c:	eb00099b 	bl	800122e0 <USBRequestGetBufLen>
8000fc70:	e5840028 	str	r0, [r4, #40]	; 0x28
8000fc74:	e5942024 	ldr	r2, [r4, #36]	; 0x24
8000fc78:	e5941010 	ldr	r1, [r4, #16]
8000fc7c:	e2423001 	sub	r3, r2, #1
8000fc80:	e0833000 	add	r3, r3, r0
8000fc84:	e3510000 	cmp	r1, #0
8000fc88:	e733f213 	udiv	r3, r3, r2
8000fc8c:	e584302c 	str	r3, [r4, #44]	; 0x2c
8000fc90:	0a000034 	beq	8000fd68 <DWHCITransferStageData+0x1b0>
8000fc94:	e1520000 	cmp	r2, r0
8000fc98:	e3a03001 	mov	r3, #1
8000fc9c:	e5843034 	str	r3, [r4, #52]	; 0x34
8000fca0:	31a00002 	movcc	r0, r2
8000fca4:	e5840030 	str	r0, [r4, #48]	; 0x30
8000fca8:	e594001c 	ldr	r0, [r4, #28]
8000fcac:	ebfff581 	bl	8000d2b8 <USBEndpointGetType>
8000fcb0:	e2400002 	sub	r0, r0, #2
8000fcb4:	e3500001 	cmp	r0, #1
8000fcb8:	9a00002d 	bls	8000fd74 <DWHCITransferStageData+0x1bc>
8000fcbc:	e3a00020 	mov	r0, #32
8000fcc0:	eb00074b 	bl	800119f4 <malloc>
8000fcc4:	e5840050 	str	r0, [r4, #80]	; 0x50
8000fcc8:	e8bd4070 	pop	{r4, r5, r6, lr}
8000fccc:	eafff263 	b	8000c660 <DWHCIFrameSchedulerNonPeriodic>
8000fcd0:	e3a00004 	mov	r0, #4
8000fcd4:	eb000746 	bl	800119f4 <malloc>
8000fcd8:	e5941010 	ldr	r1, [r4, #16]
8000fcdc:	e3a02000 	mov	r2, #0
8000fce0:	e5840048 	str	r0, [r4, #72]	; 0x48
8000fce4:	e3a03001 	mov	r3, #1
8000fce8:	e1510002 	cmp	r1, r2
8000fcec:	e584004c 	str	r0, [r4, #76]	; 0x4c
8000fcf0:	e5842028 	str	r2, [r4, #40]	; 0x28
8000fcf4:	e5842030 	str	r2, [r4, #48]	; 0x30
8000fcf8:	e584302c 	str	r3, [r4, #44]	; 0x2c
8000fcfc:	e5843034 	str	r3, [r4, #52]	; 0x34
8000fd00:	1affffe8 	bne	8000fca8 <DWHCITransferStageData+0xf0>
8000fd04:	e5940018 	ldr	r0, [r4, #24]
8000fd08:	ebffeccd 	bl	8000b044 <USBDeviceGetHubAddress>
8000fd0c:	e3500000 	cmp	r0, #0
8000fd10:	18bd8070 	popne	{r4, r5, r6, pc}
8000fd14:	e5943020 	ldr	r3, [r4, #32]
8000fd18:	e3530002 	cmp	r3, #2
8000fd1c:	08bd8070 	popeq	{r4, r5, r6, pc}
8000fd20:	e3a00020 	mov	r0, #32
8000fd24:	eb000732 	bl	800119f4 <malloc>
8000fd28:	e5840050 	str	r0, [r4, #80]	; 0x50
8000fd2c:	e1a05000 	mov	r5, r0
8000fd30:	e594001c 	ldr	r0, [r4, #28]
8000fd34:	ebfff55f 	bl	8000d2b8 <USBEndpointGetType>
8000fd38:	e2401002 	sub	r1, r0, #2
8000fd3c:	e1a00005 	mov	r0, r5
8000fd40:	e3510001 	cmp	r1, #1
8000fd44:	83a01000 	movhi	r1, #0
8000fd48:	93a01001 	movls	r1, #1
8000fd4c:	e8bd4070 	pop	{r4, r5, r6, lr}
8000fd50:	eaffe219 	b	800085bc <DWHCIFrameSchedulerNoSplit>
8000fd54:	eb00095d 	bl	800122d0 <USBRequestGetSetupData>
8000fd58:	e584004c 	str	r0, [r4, #76]	; 0x4c
8000fd5c:	e3a00008 	mov	r0, #8
8000fd60:	e5840028 	str	r0, [r4, #40]	; 0x28
8000fd64:	eaffffc2 	b	8000fc74 <DWHCITransferStageData+0xbc>
8000fd68:	e5840030 	str	r0, [r4, #48]	; 0x30
8000fd6c:	e5843034 	str	r3, [r4, #52]	; 0x34
8000fd70:	eaffffe3 	b	8000fd04 <DWHCITransferStageData+0x14c>
8000fd74:	e3a00024 	mov	r0, #36	; 0x24
8000fd78:	eb00071d 	bl	800119f4 <malloc>
8000fd7c:	e5840050 	str	r0, [r4, #80]	; 0x50
8000fd80:	e8bd4070 	pop	{r4, r5, r6, lr}
8000fd84:	eafff96b 	b	8000e338 <DWHCIFrameSchedulerPeriodic>

8000fd88 <_DWHCITransferStageData>:
8000fd88:	e92d4070 	push	{r4, r5, r6, lr}
8000fd8c:	e1a04000 	mov	r4, r0
8000fd90:	e5900050 	ldr	r0, [r0, #80]	; 0x50
8000fd94:	e3500000 	cmp	r0, #0
8000fd98:	0a000005 	beq	8000fdb4 <_DWHCITransferStageData+0x2c>
8000fd9c:	e5903000 	ldr	r3, [r0]
8000fda0:	e12fff33 	blx	r3
8000fda4:	e5940050 	ldr	r0, [r4, #80]	; 0x50
8000fda8:	eb000718 	bl	80011a10 <free>
8000fdac:	e3a03000 	mov	r3, #0
8000fdb0:	e5843050 	str	r3, [r4, #80]	; 0x50
8000fdb4:	e5940048 	ldr	r0, [r4, #72]	; 0x48
8000fdb8:	e3a05000 	mov	r5, #0
8000fdbc:	e584504c 	str	r5, [r4, #76]	; 0x4c
8000fdc0:	e1500005 	cmp	r0, r5
8000fdc4:	0a000001 	beq	8000fdd0 <_DWHCITransferStageData+0x48>
8000fdc8:	eb000710 	bl	80011a10 <free>
8000fdcc:	e5845048 	str	r5, [r4, #72]	; 0x48
8000fdd0:	e3a03000 	mov	r3, #0
8000fdd4:	e584301c 	str	r3, [r4, #28]
8000fdd8:	e5843018 	str	r3, [r4, #24]
8000fddc:	e5843004 	str	r3, [r4, #4]
8000fde0:	e8bd8070 	pop	{r4, r5, r6, pc}

8000fde4 <DWHCITransferStageDataTransactionComplete>:
8000fde4:	e5801044 	str	r1, [r0, #68]	; 0x44
8000fde8:	e300c7dc 	movw	ip, #2012	; 0x7dc
8000fdec:	e111000c 	tst	r1, ip
8000fdf0:	112fff1e 	bxne	lr
8000fdf4:	e92d41f0 	push	{r4, r5, r6, r7, r8, lr}
8000fdf8:	e1a06002 	mov	r6, r2
8000fdfc:	e5902010 	ldr	r2, [r0, #16]
8000fe00:	e1a04000 	mov	r4, r0
8000fe04:	e5905034 	ldr	r5, [r0, #52]	; 0x34
8000fe08:	e590c030 	ldr	ip, [r0, #48]	; 0x30
8000fe0c:	e3520000 	cmp	r2, #0
8000fe10:	e0451006 	sub	r1, r5, r6
8000fe14:	e04c3003 	sub	r3, ip, r3
8000fe18:	e5900038 	ldr	r0, [r0, #56]	; 0x38
8000fe1c:	e594e04c 	ldr	lr, [r4, #76]	; 0x4c
8000fe20:	0a000014 	beq	8000fe78 <DWHCITransferStageDataTransactionComplete+0x94>
8000fe24:	e5947014 	ldr	r7, [r4, #20]
8000fe28:	e16f2f13 	clz	r2, r3
8000fe2c:	e3570000 	cmp	r7, #0
8000fe30:	e1a022a2 	lsr	r2, r2, #5
8000fe34:	03a02000 	moveq	r2, #0
8000fe38:	e3520000 	cmp	r2, #0
8000fe3c:	1a000017 	bne	8000fea0 <DWHCITransferStageDataTransactionComplete+0xbc>
8000fe40:	e0830000 	add	r0, r3, r0
8000fe44:	e3570000 	cmp	r7, #0
8000fe48:	e08e3003 	add	r3, lr, r3
8000fe4c:	e5840038 	str	r0, [r4, #56]	; 0x38
8000fe50:	e584304c 	str	r3, [r4, #76]	; 0x4c
8000fe54:	1a00000b 	bne	8000fe88 <DWHCITransferStageDataTransactionComplete+0xa4>
8000fe58:	e1c422d8 	ldrd	r2, [r4, #40]	; 0x28
8000fe5c:	e0420000 	sub	r0, r2, r0
8000fe60:	e0862003 	add	r2, r6, r3
8000fe64:	e150000c 	cmp	r0, ip
8000fe68:	e0422005 	sub	r2, r2, r5
8000fe6c:	e584202c 	str	r2, [r4, #44]	; 0x2c
8000fe70:	35840030 	strcc	r0, [r4, #48]	; 0x30
8000fe74:	e8bd81f0 	pop	{r4, r5, r6, r7, r8, pc}
8000fe78:	e0830000 	add	r0, r3, r0
8000fe7c:	e08e3003 	add	r3, lr, r3
8000fe80:	e5840038 	str	r0, [r4, #56]	; 0x38
8000fe84:	e584304c 	str	r3, [r4, #76]	; 0x4c
8000fe88:	e594001c 	ldr	r0, [r4, #28]
8000fe8c:	e594200c 	ldr	r2, [r4, #12]
8000fe90:	ebfff516 	bl	8000d2f0 <USBEndpointSkipPID>
8000fe94:	e5940038 	ldr	r0, [r4, #56]	; 0x38
8000fe98:	e594c030 	ldr	ip, [r4, #48]	; 0x30
8000fe9c:	eaffffed 	b	8000fe58 <DWHCITransferStageDataTransactionComplete+0x74>
8000fea0:	e35c0000 	cmp	ip, #0
8000fea4:	1594c024 	ldrne	ip, [r4, #36]	; 0x24
8000fea8:	100c019c 	mulne	ip, ip, r1
8000feac:	e08c0000 	add	r0, ip, r0
8000feb0:	e08e300c 	add	r3, lr, ip
8000feb4:	e5840038 	str	r0, [r4, #56]	; 0x38
8000feb8:	e584304c 	str	r3, [r4, #76]	; 0x4c
8000febc:	eafffff1 	b	8000fe88 <DWHCITransferStageDataTransactionComplete+0xa4>

8000fec0 <DWHCITransferStageDataSetSplitComplete>:
8000fec0:	e5801014 	str	r1, [r0, #20]
8000fec4:	e12fff1e 	bx	lr

8000fec8 <DWHCITransferStageDataSetState>:
8000fec8:	e580103c 	str	r1, [r0, #60]	; 0x3c
8000fecc:	e12fff1e 	bx	lr

8000fed0 <DWHCITransferStageDataGetState>:
8000fed0:	e590003c 	ldr	r0, [r0, #60]	; 0x3c
8000fed4:	e12fff1e 	bx	lr

8000fed8 <DWHCITransferStageDataSetSubState>:
8000fed8:	e5801040 	str	r1, [r0, #64]	; 0x40
8000fedc:	e12fff1e 	bx	lr

8000fee0 <DWHCITransferStageDataGetSubState>:
8000fee0:	e5900040 	ldr	r0, [r0, #64]	; 0x40
8000fee4:	e12fff1e 	bx	lr

8000fee8 <DWHCITransferStageDataBeginSplitCycle>:
8000fee8:	e3a00001 	mov	r0, #1
8000feec:	e12fff1e 	bx	lr

8000fef0 <DWHCITransferStageDataGetChannelNumber>:
8000fef0:	e5900000 	ldr	r0, [r0]
8000fef4:	e12fff1e 	bx	lr

8000fef8 <DWHCITransferStageDataIsPeriodic>:
8000fef8:	e92d4010 	push	{r4, lr}
8000fefc:	e590001c 	ldr	r0, [r0, #28]
8000ff00:	ebfff4ec 	bl	8000d2b8 <USBEndpointGetType>
8000ff04:	e2400002 	sub	r0, r0, #2
8000ff08:	e3500001 	cmp	r0, #1
8000ff0c:	83a00000 	movhi	r0, #0
8000ff10:	93a00001 	movls	r0, #1
8000ff14:	e8bd8010 	pop	{r4, pc}

8000ff18 <DWHCITransferStageDataGetDeviceAddress>:
8000ff18:	e5900018 	ldr	r0, [r0, #24]
8000ff1c:	eaffec44 	b	8000b034 <USBDeviceGetAddress>

8000ff20 <DWHCITransferStageDataGetEndpointType>:
8000ff20:	e92d4010 	push	{r4, lr}
8000ff24:	e590001c 	ldr	r0, [r0, #28]
8000ff28:	ebfff4e2 	bl	8000d2b8 <USBEndpointGetType>
8000ff2c:	e3500001 	cmp	r0, #1
8000ff30:	0a000003 	beq	8000ff44 <DWHCITransferStageDataGetEndpointType+0x24>
8000ff34:	e3500002 	cmp	r0, #2
8000ff38:	03a00003 	moveq	r0, #3
8000ff3c:	13a00000 	movne	r0, #0
8000ff40:	e8bd8010 	pop	{r4, pc}
8000ff44:	e3a00002 	mov	r0, #2
8000ff48:	e8bd8010 	pop	{r4, pc}

8000ff4c <DWHCITransferStageDataGetEndpointNumber>:
8000ff4c:	e590001c 	ldr	r0, [r0, #28]
8000ff50:	eafff4d6 	b	8000d2b0 <USBEndpointGetNumber>

8000ff54 <DWHCITransferStageDataGetMaxPacketSize>:
8000ff54:	e5900024 	ldr	r0, [r0, #36]	; 0x24
8000ff58:	e12fff1e 	bx	lr

8000ff5c <DWHCITransferStageDataGetSpeed>:
8000ff5c:	e5900020 	ldr	r0, [r0, #32]
8000ff60:	e12fff1e 	bx	lr

8000ff64 <DWHCITransferStageDataGetPID>:
8000ff64:	e590100c 	ldr	r1, [r0, #12]
8000ff68:	e92d4010 	push	{r4, lr}
8000ff6c:	e590001c 	ldr	r0, [r0, #28]
8000ff70:	ebfff4da 	bl	8000d2e0 <USBEndpointGetNextPID>
8000ff74:	e3500000 	cmp	r0, #0
8000ff78:	0a000003 	beq	8000ff8c <DWHCITransferStageDataGetPID+0x28>
8000ff7c:	e3500002 	cmp	r0, #2
8000ff80:	03a00002 	moveq	r0, #2
8000ff84:	13a00000 	movne	r0, #0
8000ff88:	e8bd8010 	pop	{r4, pc}
8000ff8c:	e3a00003 	mov	r0, #3
8000ff90:	e8bd8010 	pop	{r4, pc}

8000ff94 <DWHCITransferStageDataIsDirectionIn>:
8000ff94:	e5900008 	ldr	r0, [r0, #8]
8000ff98:	e12fff1e 	bx	lr

8000ff9c <DWHCITransferStageDataIsStatusStage>:
8000ff9c:	e590000c 	ldr	r0, [r0, #12]
8000ffa0:	e12fff1e 	bx	lr

8000ffa4 <DWHCITransferStageDataGetDMAAddress>:
8000ffa4:	e590004c 	ldr	r0, [r0, #76]	; 0x4c
8000ffa8:	e12fff1e 	bx	lr

8000ffac <DWHCITransferStageDataGetBytesToTransfer>:
8000ffac:	e5900030 	ldr	r0, [r0, #48]	; 0x30
8000ffb0:	e12fff1e 	bx	lr

8000ffb4 <DWHCITransferStageDataGetPacketsToTransfer>:
8000ffb4:	e5900034 	ldr	r0, [r0, #52]	; 0x34
8000ffb8:	e12fff1e 	bx	lr

8000ffbc <DWHCITransferStageDataIsSplit>:
8000ffbc:	e5900010 	ldr	r0, [r0, #16]
8000ffc0:	e12fff1e 	bx	lr

8000ffc4 <DWHCITransferStageDataIsSplitComplete>:
8000ffc4:	e5900014 	ldr	r0, [r0, #20]
8000ffc8:	e12fff1e 	bx	lr

8000ffcc <DWHCITransferStageDataGetHubAddress>:
8000ffcc:	e5900018 	ldr	r0, [r0, #24]
8000ffd0:	eaffec1b 	b	8000b044 <USBDeviceGetHubAddress>

8000ffd4 <DWHCITransferStageDataGetHubPortAddress>:
8000ffd4:	e5900018 	ldr	r0, [r0, #24]
8000ffd8:	eaffec1b 	b	8000b04c <USBDeviceGetHubPortNumber>

8000ffdc <DWHCITransferStageDataGetSplitPosition>:
8000ffdc:	e3a00003 	mov	r0, #3
8000ffe0:	e12fff1e 	bx	lr

8000ffe4 <DWHCITransferStageDataGetStatusMask>:
8000ffe4:	e5903010 	ldr	r3, [r0, #16]
8000ffe8:	e3530000 	cmp	r3, #0
8000ffec:	0a000001 	beq	8000fff8 <DWHCITransferStageDataGetStatusMask+0x14>
8000fff0:	e30007ff 	movw	r0, #2047	; 0x7ff
8000fff4:	e12fff1e 	bx	lr
8000fff8:	e92d4010 	push	{r4, lr}
8000fffc:	e590001c 	ldr	r0, [r0, #28]
80010000:	ebfff4ac 	bl	8000d2b8 <USBEndpointGetType>
80010004:	e2400002 	sub	r0, r0, #2
80010008:	e3500001 	cmp	r0, #1
8001000c:	930007ff 	movwls	r0, #2047	; 0x7ff
80010010:	8300078f 	movwhi	r0, #1935	; 0x78f
80010014:	e8bd8010 	pop	{r4, pc}

80010018 <DWHCITransferStageDataGetTransactionStatus>:
80010018:	e5900044 	ldr	r0, [r0, #68]	; 0x44
8001001c:	e12fff1e 	bx	lr

80010020 <DWHCITransferStageDataIsStageComplete>:
80010020:	e590002c 	ldr	r0, [r0, #44]	; 0x2c
80010024:	e16f0f10 	clz	r0, r0
80010028:	e1a002a0 	lsr	r0, r0, #5
8001002c:	e12fff1e 	bx	lr

80010030 <DWHCITransferStageDataGetResultLen>:
80010030:	e5902038 	ldr	r2, [r0, #56]	; 0x38
80010034:	e5900028 	ldr	r0, [r0, #40]	; 0x28
80010038:	e1520000 	cmp	r2, r0
8001003c:	31a00002 	movcc	r0, r2
80010040:	e12fff1e 	bx	lr

80010044 <DWHCITransferStageDataGetURB>:
80010044:	e5900004 	ldr	r0, [r0, #4]
80010048:	e12fff1e 	bx	lr

8001004c <DWHCITransferStageDataGetFrameScheduler>:
8001004c:	e5900050 	ldr	r0, [r0, #80]	; 0x50
80010050:	e12fff1e 	bx	lr

80010054 <KeyMap>:
80010054:	e3a02001 	mov	r2, #1
80010058:	e3081a84 	movw	r1, #35460	; 0x8a84
8001005c:	e5802404 	str	r2, [r0, #1028]	; 0x404
80010060:	e3a02000 	mov	r2, #0
80010064:	e5802400 	str	r2, [r0, #1024]	; 0x400
80010068:	e5802408 	str	r2, [r0, #1032]	; 0x408
8001006c:	e3a02b01 	mov	r2, #1024	; 0x400
80010070:	e3481001 	movt	r1, #32769	; 0x8001
80010074:	ea000a56 	b	800129d4 <uspi_memcpy>

80010078 <_KeyMap>:
80010078:	e12fff1e 	bx	lr

8001007c <KeyMapClearTable>:
8001007c:	e3510003 	cmp	r1, #3
80010080:	8a000009 	bhi	800100ac <KeyMapClearTable+0x30>
80010084:	e1a0c081 	lsl	ip, r1, #1
80010088:	e2802b01 	add	r2, r0, #1024	; 0x400
8001008c:	e080300c 	add	r3, r0, ip
80010090:	e3a01000 	mov	r1, #0
80010094:	e082200c 	add	r2, r2, ip
80010098:	e0c310b8 	strh	r1, [r3], #8
8001009c:	e1530002 	cmp	r3, r2
800100a0:	1afffffc 	bne	80010098 <KeyMapClearTable+0x1c>
800100a4:	e3a00001 	mov	r0, #1
800100a8:	e12fff1e 	bx	lr
800100ac:	e3a00000 	mov	r0, #0
800100b0:	e12fff1e 	bx	lr

800100b4 <KeyMapSetEntry>:
800100b4:	e6afc072 	sxtb	ip, r2
800100b8:	e35c0000 	cmp	ip, #0
800100bc:	c3a0c000 	movgt	ip, #0
800100c0:	d3a0c001 	movle	ip, #1
800100c4:	e3510003 	cmp	r1, #3
800100c8:	838cc001 	orrhi	ip, ip, #1
800100cc:	e35c0000 	cmp	ip, #0
800100d0:	1a000008 	bne	800100f8 <KeyMapSetEntry+0x44>
800100d4:	e52de004 	push	{lr}		; (str lr, [sp, #-4]!)
800100d8:	e300e132 	movw	lr, #306	; 0x132
800100dc:	e153000e 	cmp	r3, lr
800100e0:	90811102 	addls	r1, r1, r2, lsl #2
800100e4:	93a0c001 	movls	ip, #1
800100e8:	91a01c11 	lslls	r1, r1, ip
800100ec:	918030b1 	strhls	r3, [r0, r1]
800100f0:	e1a0000c 	mov	r0, ip
800100f4:	e49df004 	pop	{pc}		; (ldr pc, [sp], #4)
800100f8:	e3a0c000 	mov	ip, #0
800100fc:	e1a0000c 	mov	r0, ip
80010100:	e12fff1e 	bx	lr

80010104 <KeyMapTranslate>:
80010104:	e6af3071 	sxtb	r3, r1
80010108:	e3530000 	cmp	r3, #0
8001010c:	da00002d 	ble	800101c8 <KeyMapTranslate+0xc4>
80010110:	e1a03181 	lsl	r3, r1, #3
80010114:	e19030b3 	ldrh	r3, [r0, r3]
80010118:	e3530f42 	cmp	r3, #264	; 0x108
8001011c:	0a000023 	beq	800101b0 <KeyMapTranslate+0xac>
80010120:	e243cf43 	sub	ip, r3, #268	; 0x10c
80010124:	e24cc003 	sub	ip, ip, #3
80010128:	e35c000b 	cmp	ip, #11
8001012c:	8a000003 	bhi	80010140 <KeyMapTranslate+0x3c>
80010130:	e3120004 	tst	r2, #4
80010134:	12833027 	addne	r3, r3, #39	; 0x27
80010138:	16ff3073 	uxthne	r3, r3
8001013c:	1a000019 	bne	800101a8 <KeyMapTranslate+0xa4>
80010140:	e312008c 	tst	r2, #140	; 0x8c
80010144:	1a00001f 	bne	800101c8 <KeyMapTranslate+0xc4>
80010148:	e2413053 	sub	r3, r1, #83	; 0x53
8001014c:	e3530010 	cmp	r3, #16
80010150:	9a00001f 	bls	800101d4 <KeyMapTranslate+0xd0>
80010154:	e3120040 	tst	r2, #64	; 0x40
80010158:	e2022022 	and	r2, r2, #34	; 0x22
8001015c:	0a00002c 	beq	80010214 <KeyMapTranslate+0x110>
80010160:	e3520000 	cmp	r2, #0
80010164:	13a02003 	movne	r2, #3
80010168:	03a02002 	moveq	r2, #2
8001016c:	e0822101 	add	r2, r2, r1, lsl #2
80010170:	e300111e 	movw	r1, #286	; 0x11e
80010174:	e1a02082 	lsl	r2, r2, #1
80010178:	e19030b2 	ldrh	r3, [r0, r2]
8001017c:	e1530001 	cmp	r3, r1
80010180:	0a00001d 	beq	800101fc <KeyMapTranslate+0xf8>
80010184:	e3530e12 	cmp	r3, #288	; 0x120
80010188:	0a000015 	beq	800101e4 <KeyMapTranslate+0xe0>
8001018c:	e3530f47 	cmp	r3, #284	; 0x11c
80010190:	1a000004 	bne	800101a8 <KeyMapTranslate+0xa4>
80010194:	e5902400 	ldr	r2, [r0, #1024]	; 0x400
80010198:	e3003133 	movw	r3, #307	; 0x133
8001019c:	e16f2f12 	clz	r2, r2
800101a0:	e1a022a2 	lsr	r2, r2, #5
800101a4:	e5802400 	str	r2, [r0, #1024]	; 0x400
800101a8:	e1a00003 	mov	r0, r3
800101ac:	e12fff1e 	bx	lr
800101b0:	e3120011 	tst	r2, #17
800101b4:	0affffe1 	beq	80010140 <KeyMapTranslate+0x3c>
800101b8:	e3120004 	tst	r2, #4
800101bc:	0affffdf 	beq	80010140 <KeyMapTranslate+0x3c>
800101c0:	e3003142 	movw	r3, #322	; 0x142
800101c4:	eafffff7 	b	800101a8 <KeyMapTranslate+0xa4>
800101c8:	e3a03000 	mov	r3, #0
800101cc:	e1a00003 	mov	r0, r3
800101d0:	e12fff1e 	bx	lr
800101d4:	e5902404 	ldr	r2, [r0, #1028]	; 0x404
800101d8:	e2922000 	adds	r2, r2, #0
800101dc:	13a02001 	movne	r2, #1
800101e0:	eaffffe1 	b	8001016c <KeyMapTranslate+0x68>
800101e4:	e5902404 	ldr	r2, [r0, #1028]	; 0x404
800101e8:	e3a03f4d 	mov	r3, #308	; 0x134
800101ec:	e16f2f12 	clz	r2, r2
800101f0:	e1a022a2 	lsr	r2, r2, #5
800101f4:	e5802404 	str	r2, [r0, #1028]	; 0x404
800101f8:	eaffffea 	b	800101a8 <KeyMapTranslate+0xa4>
800101fc:	e5902408 	ldr	r2, [r0, #1032]	; 0x408
80010200:	e3003135 	movw	r3, #309	; 0x135
80010204:	e16f2f12 	clz	r2, r2
80010208:	e1a022a2 	lsr	r2, r2, #5
8001020c:	e5802408 	str	r2, [r0, #1032]	; 0x408
80010210:	eaffffe4 	b	800101a8 <KeyMapTranslate+0xa4>
80010214:	e2922000 	adds	r2, r2, #0
80010218:	13a02001 	movne	r2, #1
8001021c:	eaffffd2 	b	8001016c <KeyMapTranslate+0x68>

80010220 <KeyMapGetString>:
80010220:	e241c021 	sub	ip, r1, #33	; 0x21
80010224:	e52de004 	push	{lr}		; (str lr, [sp, #-4]!)
80010228:	e6ffc07c 	uxth	ip, ip
8001022c:	e300e111 	movw	lr, #273	; 0x111
80010230:	e15c000e 	cmp	ip, lr
80010234:	8a000020 	bhi	800102bc <KeyMapGetString+0x9c>
80010238:	e241cc01 	sub	ip, r1, #256	; 0x100
8001023c:	e6ffe07c 	uxth	lr, ip
80010240:	e35e0032 	cmp	lr, #50	; 0x32
80010244:	9a00001e 	bls	800102c4 <KeyMapGetString+0xa4>
80010248:	e3120011 	tst	r2, #17
8001024c:	e6ef1071 	uxtb	r1, r1
80010250:	0a000008 	beq	80010278 <KeyMapGetString+0x58>
80010254:	e2412061 	sub	r2, r1, #97	; 0x61
80010258:	e3520019 	cmp	r2, #25
8001025c:	8a000016 	bhi	800102bc <KeyMapGetString+0x9c>
80010260:	e2411060 	sub	r1, r1, #96	; 0x60
80010264:	e3a02000 	mov	r2, #0
80010268:	e5c31000 	strb	r1, [r3]
8001026c:	e1a00003 	mov	r0, r3
80010270:	e5c32001 	strb	r2, [r3, #1]
80010274:	e49df004 	pop	{pc}		; (ldr pc, [sp], #4)
80010278:	e5902400 	ldr	r2, [r0, #1024]	; 0x400
8001027c:	e3520000 	cmp	r2, #0
80010280:	0a000008 	beq	800102a8 <KeyMapGetString+0x88>
80010284:	e2412041 	sub	r2, r1, #65	; 0x41
80010288:	e3520019 	cmp	r2, #25
8001028c:	92811020 	addls	r1, r1, #32
80010290:	96ef1071 	uxtbls	r1, r1
80010294:	9a000003 	bls	800102a8 <KeyMapGetString+0x88>
80010298:	e2412061 	sub	r2, r1, #97	; 0x61
8001029c:	e3520019 	cmp	r2, #25
800102a0:	92411020 	subls	r1, r1, #32
800102a4:	96ef1071 	uxtbls	r1, r1
800102a8:	e5c31000 	strb	r1, [r3]
800102ac:	e3a02000 	mov	r2, #0
800102b0:	e5c32001 	strb	r2, [r3, #1]
800102b4:	e1a00003 	mov	r0, r3
800102b8:	e49df004 	pop	{pc}		; (ldr pc, [sp], #4)
800102bc:	e3a00000 	mov	r0, #0
800102c0:	e49df004 	pop	{pc}		; (ldr pc, [sp], #4)
800102c4:	e3083a84 	movw	r3, #35460	; 0x8a84
800102c8:	e3483001 	movt	r3, #32769	; 0x8001
800102cc:	e083c10c 	add	ip, r3, ip, lsl #2
800102d0:	e59c0400 	ldr	r0, [ip, #1024]	; 0x400
800102d4:	e49df004 	pop	{pc}		; (ldr pc, [sp], #4)

800102d8 <KeyMapGetLEDStatus>:
800102d8:	e5903400 	ldr	r3, [r0, #1024]	; 0x400
800102dc:	e5902404 	ldr	r2, [r0, #1028]	; 0x404
800102e0:	e3530000 	cmp	r3, #0
800102e4:	13a03002 	movne	r3, #2
800102e8:	03a03000 	moveq	r3, #0
800102ec:	e3520000 	cmp	r2, #0
800102f0:	e5902408 	ldr	r2, [r0, #1032]	; 0x408
800102f4:	13833001 	orrne	r3, r3, #1
800102f8:	e3520000 	cmp	r2, #0
800102fc:	13833004 	orrne	r3, r3, #4
80010300:	e1a00003 	mov	r0, r3
80010304:	e12fff1e 	bx	lr

80010308 <fileinit>:
80010308:	e92d4010 	push	{r4, lr}
8001030c:	e30c4588 	movw	r4, #50568	; 0xc588
80010310:	e3484009 	movt	r4, #32777	; 0x8009
80010314:	e3a01000 	mov	r1, #0
80010318:	e1a00004 	mov	r0, r4
8001031c:	e3002994 	movw	r2, #2452	; 0x994
80010320:	ebffe829 	bl	8000a3cc <memset>
80010324:	e3091020 	movw	r1, #36896	; 0x9020
80010328:	e1a00004 	mov	r0, r4
8001032c:	e3481001 	movt	r1, #32769	; 0x8001
80010330:	e8bd4010 	pop	{r4, lr}
80010334:	eaffee8d 	b	8000bd70 <initlock>

80010338 <filealloc>:
80010338:	e92d4010 	push	{r4, lr}
8001033c:	e30c0588 	movw	r0, #50568	; 0xc588
80010340:	e59f4058 	ldr	r4, [pc, #88]	; 800103a0 <filealloc+0x68>
80010344:	e3480009 	movt	r0, #32777	; 0x8009
80010348:	ebffeea6 	bl	8000bde8 <acquire>
8001034c:	e2842e96 	add	r2, r4, #2400	; 0x960
80010350:	ea000002 	b	80010360 <filealloc+0x28>
80010354:	e2844018 	add	r4, r4, #24
80010358:	e1540002 	cmp	r4, r2
8001035c:	0a000009 	beq	80010388 <filealloc+0x50>
80010360:	e5943004 	ldr	r3, [r4, #4]
80010364:	e3530000 	cmp	r3, #0
80010368:	1afffff9 	bne	80010354 <filealloc+0x1c>
8001036c:	e3a03001 	mov	r3, #1
80010370:	e30c0588 	movw	r0, #50568	; 0xc588
80010374:	e5843004 	str	r3, [r4, #4]
80010378:	e3480009 	movt	r0, #32777	; 0x8009
8001037c:	ebffeecf 	bl	8000bec0 <release>
80010380:	e1a00004 	mov	r0, r4
80010384:	e8bd8010 	pop	{r4, pc}
80010388:	e30c0588 	movw	r0, #50568	; 0xc588
8001038c:	e3a04000 	mov	r4, #0
80010390:	e3480009 	movt	r0, #32777	; 0x8009
80010394:	ebffeec9 	bl	8000bec0 <release>
80010398:	e1a00004 	mov	r0, r4
8001039c:	e8bd8010 	pop	{r4, pc}
800103a0:	8009c5bc 	.word	0x8009c5bc

800103a4 <filedup>:
800103a4:	e92d4010 	push	{r4, lr}
800103a8:	e1a04000 	mov	r4, r0
800103ac:	e30c0588 	movw	r0, #50568	; 0xc588
800103b0:	e3480009 	movt	r0, #32777	; 0x8009
800103b4:	ebffee8b 	bl	8000bde8 <acquire>
800103b8:	e5943004 	ldr	r3, [r4, #4]
800103bc:	e3530000 	cmp	r3, #0
800103c0:	da000006 	ble	800103e0 <filedup+0x3c>
800103c4:	e2833001 	add	r3, r3, #1
800103c8:	e30c0588 	movw	r0, #50568	; 0xc588
800103cc:	e5843004 	str	r3, [r4, #4]
800103d0:	e3480009 	movt	r0, #32777	; 0x8009
800103d4:	ebffeeb9 	bl	8000bec0 <release>
800103d8:	e1a00004 	mov	r0, r4
800103dc:	e8bd8010 	pop	{r4, pc}
800103e0:	e3090028 	movw	r0, #36904	; 0x9028
800103e4:	e3480001 	movt	r0, #32769	; 0x8001
800103e8:	ebffed1f 	bl	8000b86c <panic>

800103ec <fileclose>:
800103ec:	e92d41f0 	push	{r4, r5, r6, r7, r8, lr}
800103f0:	e1a04000 	mov	r4, r0
800103f4:	e30c0588 	movw	r0, #50568	; 0xc588
800103f8:	e3480009 	movt	r0, #32777	; 0x8009
800103fc:	ebffee79 	bl	8000bde8 <acquire>
80010400:	e5943004 	ldr	r3, [r4, #4]
80010404:	e3530000 	cmp	r3, #0
80010408:	da00001c 	ble	80010480 <fileclose+0x94>
8001040c:	e2433001 	sub	r3, r3, #1
80010410:	e5843004 	str	r3, [r4, #4]
80010414:	e3530000 	cmp	r3, #0
80010418:	1a000010 	bne	80010460 <fileclose+0x74>
8001041c:	e5945000 	ldr	r5, [r4]
80010420:	e30c0588 	movw	r0, #50568	; 0xc588
80010424:	e5843000 	str	r3, [r4]
80010428:	e3480009 	movt	r0, #32777	; 0x8009
8001042c:	e5d47009 	ldrb	r7, [r4, #9]
80010430:	e594600c 	ldr	r6, [r4, #12]
80010434:	e5944010 	ldr	r4, [r4, #16]
80010438:	ebffeea0 	bl	8000bec0 <release>
8001043c:	e3550001 	cmp	r5, #1
80010440:	0a00000a 	beq	80010470 <fileclose+0x84>
80010444:	e3550002 	cmp	r5, #2
80010448:	18bd81f0 	popne	{r4, r5, r6, r7, r8, pc}
8001044c:	ebfffc80 	bl	8000f654 <begin_trans>
80010450:	e1a00004 	mov	r0, r4
80010454:	eb001c03 	bl	80017468 <iput>
80010458:	e8bd41f0 	pop	{r4, r5, r6, r7, r8, lr}
8001045c:	eafffc92 	b	8000f6ac <commit_trans>
80010460:	e30c0588 	movw	r0, #50568	; 0xc588
80010464:	e3480009 	movt	r0, #32777	; 0x8009
80010468:	e8bd41f0 	pop	{r4, r5, r6, r7, r8, lr}
8001046c:	eaffee93 	b	8000bec0 <release>
80010470:	e1a01007 	mov	r1, r7
80010474:	e1a00006 	mov	r0, r6
80010478:	e8bd41f0 	pop	{r4, r5, r6, r7, r8, lr}
8001047c:	ea0006e6 	b	8001201c <pipeclose>
80010480:	e3090030 	movw	r0, #36912	; 0x9030
80010484:	e3480001 	movt	r0, #32769	; 0x8001
80010488:	ebffecf7 	bl	8000b86c <panic>

8001048c <filestat>:
8001048c:	e5903000 	ldr	r3, [r0]
80010490:	e3530002 	cmp	r3, #2
80010494:	1a00000b 	bne	800104c8 <filestat+0x3c>
80010498:	e92d4070 	push	{r4, r5, r6, lr}
8001049c:	e1a04000 	mov	r4, r0
800104a0:	e5900010 	ldr	r0, [r0, #16]
800104a4:	e1a05001 	mov	r5, r1
800104a8:	eb001b94 	bl	80017300 <ilock>
800104ac:	e5940010 	ldr	r0, [r4, #16]
800104b0:	e1a01005 	mov	r1, r5
800104b4:	eb001c43 	bl	800175c8 <stati>
800104b8:	e5940010 	ldr	r0, [r4, #16]
800104bc:	eb001bd1 	bl	80017408 <iunlock>
800104c0:	e3a00000 	mov	r0, #0
800104c4:	e8bd8070 	pop	{r4, r5, r6, pc}
800104c8:	e3e00000 	mvn	r0, #0
800104cc:	e12fff1e 	bx	lr

800104d0 <fileread>:
800104d0:	e92d4070 	push	{r4, r5, r6, lr}
800104d4:	e5d0e008 	ldrb	lr, [r0, #8]
800104d8:	e35e0000 	cmp	lr, #0
800104dc:	0a000019 	beq	80010548 <fileread+0x78>
800104e0:	e590e000 	ldr	lr, [r0]
800104e4:	e35e0001 	cmp	lr, #1
800104e8:	0a000013 	beq	8001053c <fileread+0x6c>
800104ec:	e35e0002 	cmp	lr, #2
800104f0:	e1a04000 	mov	r4, r0
800104f4:	1a000015 	bne	80010550 <fileread+0x80>
800104f8:	e5900010 	ldr	r0, [r0, #16]
800104fc:	e1a05001 	mov	r5, r1
80010500:	e1a06002 	mov	r6, r2
80010504:	eb001b7d 	bl	80017300 <ilock>
80010508:	e5942014 	ldr	r2, [r4, #20]
8001050c:	e1a03006 	mov	r3, r6
80010510:	e5940010 	ldr	r0, [r4, #16]
80010514:	e1a01005 	mov	r1, r5
80010518:	eb001c34 	bl	800175f0 <readi>
8001051c:	e2505000 	subs	r5, r0, #0
80010520:	e5940010 	ldr	r0, [r4, #16]
80010524:	c5943014 	ldrgt	r3, [r4, #20]
80010528:	c0833005 	addgt	r3, r3, r5
8001052c:	c5843014 	strgt	r3, [r4, #20]
80010530:	eb001bb4 	bl	80017408 <iunlock>
80010534:	e1a00005 	mov	r0, r5
80010538:	e8bd8070 	pop	{r4, r5, r6, pc}
8001053c:	e590000c 	ldr	r0, [r0, #12]
80010540:	e8bd4070 	pop	{r4, r5, r6, lr}
80010544:	ea000702 	b	80012154 <piperead>
80010548:	e3e05000 	mvn	r5, #0
8001054c:	eafffff8 	b	80010534 <fileread+0x64>
80010550:	e309003c 	movw	r0, #36924	; 0x903c
80010554:	e3480001 	movt	r0, #32769	; 0x8001
80010558:	ebffecc3 	bl	8000b86c <panic>

8001055c <filewrite>:
8001055c:	e92d47f0 	push	{r4, r5, r6, r7, r8, r9, sl, lr}
80010560:	e5d03009 	ldrb	r3, [r0, #9]
80010564:	e3530000 	cmp	r3, #0
80010568:	0a00002f 	beq	8001062c <filewrite+0xd0>
8001056c:	e5903000 	ldr	r3, [r0]
80010570:	e3530001 	cmp	r3, #1
80010574:	0a00002f 	beq	80010638 <filewrite+0xdc>
80010578:	e3530002 	cmp	r3, #2
8001057c:	e1a04000 	mov	r4, r0
80010580:	1a00002f 	bne	80010644 <filewrite+0xe8>
80010584:	e3520000 	cmp	r2, #0
80010588:	e1a08002 	mov	r8, r2
8001058c:	da000023 	ble	80010620 <filewrite+0xc4>
80010590:	e1a09001 	mov	r9, r1
80010594:	e3a06000 	mov	r6, #0
80010598:	ea00000a 	b	800105c8 <filewrite+0x6c>
8001059c:	e5943014 	ldr	r3, [r4, #20]
800105a0:	e5940010 	ldr	r0, [r4, #16]
800105a4:	e0833007 	add	r3, r3, r7
800105a8:	e5843014 	str	r3, [r4, #20]
800105ac:	eb001b95 	bl	80017408 <iunlock>
800105b0:	ebfffc3d 	bl	8000f6ac <commit_trans>
800105b4:	e1570005 	cmp	r7, r5
800105b8:	1a000015 	bne	80010614 <filewrite+0xb8>
800105bc:	e0866007 	add	r6, r6, r7
800105c0:	e1580006 	cmp	r8, r6
800105c4:	da000016 	ble	80010624 <filewrite+0xc8>
800105c8:	e0483006 	sub	r3, r8, r6
800105cc:	e3530c06 	cmp	r3, #1536	; 0x600
800105d0:	b1a05003 	movlt	r5, r3
800105d4:	a3a05c06 	movge	r5, #1536	; 0x600
800105d8:	ebfffc1d 	bl	8000f654 <begin_trans>
800105dc:	e5940010 	ldr	r0, [r4, #16]
800105e0:	eb001b46 	bl	80017300 <ilock>
800105e4:	e5942014 	ldr	r2, [r4, #20]
800105e8:	e1a03005 	mov	r3, r5
800105ec:	e0891006 	add	r1, r9, r6
800105f0:	e5940010 	ldr	r0, [r4, #16]
800105f4:	eb001c39 	bl	800176e0 <writei>
800105f8:	e2507000 	subs	r7, r0, #0
800105fc:	caffffe6 	bgt	8001059c <filewrite+0x40>
80010600:	e5940010 	ldr	r0, [r4, #16]
80010604:	eb001b7f 	bl	80017408 <iunlock>
80010608:	ebfffc27 	bl	8000f6ac <commit_trans>
8001060c:	e3570000 	cmp	r7, #0
80010610:	1a000005 	bne	8001062c <filewrite+0xd0>
80010614:	e3090048 	movw	r0, #36936	; 0x9048
80010618:	e3480001 	movt	r0, #32769	; 0x8001
8001061c:	ebffec92 	bl	8000b86c <panic>
80010620:	e3a06000 	mov	r6, #0
80010624:	e1580006 	cmp	r8, r6
80010628:	0a000000 	beq	80010630 <filewrite+0xd4>
8001062c:	e3e06000 	mvn	r6, #0
80010630:	e1a00006 	mov	r0, r6
80010634:	e8bd87f0 	pop	{r4, r5, r6, r7, r8, r9, sl, pc}
80010638:	e590000c 	ldr	r0, [r0, #12]
8001063c:	e8bd47f0 	pop	{r4, r5, r6, r7, r8, r9, sl, lr}
80010640:	ea00068d 	b	8001207c <pipewrite>
80010644:	e3090058 	movw	r0, #36952	; 0x9058
80010648:	e3480001 	movt	r0, #32769	; 0x8001
8001064c:	ebffec86 	bl	8000b86c <panic>

80010650 <USBString>:
80010650:	e92d4010 	push	{r4, lr}
80010654:	e1a04000 	mov	r4, r0
80010658:	e5801000 	str	r1, [r0]
8001065c:	e3a03000 	mov	r3, #0
80010660:	e5843004 	str	r3, [r4, #4]
80010664:	e3a0000c 	mov	r0, #12
80010668:	eb0004e1 	bl	800119f4 <malloc>
8001066c:	e5840008 	str	r0, [r4, #8]
80010670:	e8bd4010 	pop	{r4, lr}
80010674:	eaffe0d3 	b	800089c8 <String>

80010678 <USBStringCopy>:
80010678:	e5912000 	ldr	r2, [r1]
8001067c:	e3a03000 	mov	r3, #0
80010680:	e92d4070 	push	{r4, r5, r6, lr}
80010684:	e1a04001 	mov	r4, r1
80010688:	e5803004 	str	r3, [r0, #4]
8001068c:	e1a05000 	mov	r5, r0
80010690:	e5913004 	ldr	r3, [r1, #4]
80010694:	e5802000 	str	r2, [r0]
80010698:	e3530000 	cmp	r3, #0
8001069c:	0a000005 	beq	800106b8 <USBStringCopy+0x40>
800106a0:	e5d30000 	ldrb	r0, [r3]
800106a4:	eb0004d2 	bl	800119f4 <malloc>
800106a8:	e5850004 	str	r0, [r5, #4]
800106ac:	e5941004 	ldr	r1, [r4, #4]
800106b0:	e5d12000 	ldrb	r2, [r1]
800106b4:	eb0008c6 	bl	800129d4 <uspi_memcpy>
800106b8:	e3a0000c 	mov	r0, #12
800106bc:	eb0004cc 	bl	800119f4 <malloc>
800106c0:	e5850008 	str	r0, [r5, #8]
800106c4:	e1a06000 	mov	r6, r0
800106c8:	e5940008 	ldr	r0, [r4, #8]
800106cc:	ebffe0d7 	bl	80008a30 <StringGet>
800106d0:	e1a01000 	mov	r1, r0
800106d4:	e1a00006 	mov	r0, r6
800106d8:	e8bd4070 	pop	{r4, r5, r6, lr}
800106dc:	eaffe0bd 	b	800089d8 <String2>

800106e0 <_USBString>:
800106e0:	e92d4070 	push	{r4, r5, r6, lr}
800106e4:	e1a04000 	mov	r4, r0
800106e8:	e5900008 	ldr	r0, [r0, #8]
800106ec:	e3a05000 	mov	r5, #0
800106f0:	ebffe0c4 	bl	80008a08 <_String>
800106f4:	e5940008 	ldr	r0, [r4, #8]
800106f8:	eb0004c4 	bl	80011a10 <free>
800106fc:	e5940004 	ldr	r0, [r4, #4]
80010700:	e5845008 	str	r5, [r4, #8]
80010704:	e1500005 	cmp	r0, r5
80010708:	0a000001 	beq	80010714 <_USBString+0x34>
8001070c:	eb0004bf 	bl	80011a10 <free>
80010710:	e5845004 	str	r5, [r4, #4]
80010714:	e3a03000 	mov	r3, #0
80010718:	e5843000 	str	r3, [r4]
8001071c:	e8bd8070 	pop	{r4, r5, r6, pc}

80010720 <USBStringGetFromDescriptor>:
80010720:	e92d49f0 	push	{r4, r5, r6, r7, r8, fp, lr}
80010724:	e1a04000 	mov	r4, r0
80010728:	e28db018 	add	fp, sp, #24
8001072c:	e24dd014 	sub	sp, sp, #20
80010730:	e5900004 	ldr	r0, [r0, #4]
80010734:	e1a05001 	mov	r5, r1
80010738:	e1a07002 	mov	r7, r2
8001073c:	e3500000 	cmp	r0, #0
80010740:	0a000000 	beq	80010748 <USBStringGetFromDescriptor+0x28>
80010744:	eb0004b1 	bl	80011a10 <free>
80010748:	e3a00004 	mov	r0, #4
8001074c:	e3855c03 	orr	r5, r5, #768	; 0x300
80010750:	eb0004a7 	bl	800119f4 <malloc>
80010754:	e5840004 	str	r0, [r4, #4]
80010758:	e5940000 	ldr	r0, [r4]
8001075c:	ebffea3e 	bl	8000b05c <USBDeviceGetHost>
80010760:	e1a06000 	mov	r6, r0
80010764:	e5940000 	ldr	r0, [r4]
80010768:	ebffea39 	bl	8000b054 <USBDeviceGetEndpoint0>
8001076c:	e5943004 	ldr	r3, [r4, #4]
80010770:	e3a02004 	mov	r2, #4
80010774:	e58d200c 	str	r2, [sp, #12]
80010778:	e1a01000 	mov	r1, r0
8001077c:	e58d3008 	str	r3, [sp, #8]
80010780:	e1a00006 	mov	r0, r6
80010784:	e58d5000 	str	r5, [sp]
80010788:	e3a03006 	mov	r3, #6
8001078c:	e58d7004 	str	r7, [sp, #4]
80010790:	e3a02080 	mov	r2, #128	; 0x80
80010794:	eb000fa5 	bl	80014630 <DWHCIDeviceControlMessage>
80010798:	e3500000 	cmp	r0, #0
8001079c:	ba000041 	blt	800108a8 <USBStringGetFromDescriptor+0x188>
800107a0:	e5940004 	ldr	r0, [r4, #4]
800107a4:	e5d06000 	ldrb	r6, [r0]
800107a8:	e3560001 	cmp	r6, #1
800107ac:	9a00003d 	bls	800108a8 <USBStringGetFromDescriptor+0x188>
800107b0:	e3160001 	tst	r6, #1
800107b4:	1a00003b 	bne	800108a8 <USBStringGetFromDescriptor+0x188>
800107b8:	e5d03001 	ldrb	r3, [r0, #1]
800107bc:	e3530003 	cmp	r3, #3
800107c0:	1a000038 	bne	800108a8 <USBStringGetFromDescriptor+0x188>
800107c4:	e3560004 	cmp	r6, #4
800107c8:	8a000021 	bhi	80010854 <USBStringGetFromDescriptor+0x134>
800107cc:	e2466002 	sub	r6, r6, #2
800107d0:	e1a060c6 	asr	r6, r6, #1
800107d4:	e2863008 	add	r3, r6, #8
800107d8:	e3560000 	cmp	r6, #0
800107dc:	e3c33007 	bic	r3, r3, #7
800107e0:	e04dd003 	sub	sp, sp, r3
800107e4:	e28d5010 	add	r5, sp, #16
800107e8:	0a00000b 	beq	8001081c <USBStringGetFromDescriptor+0xfc>
800107ec:	e2452001 	sub	r2, r5, #1
800107f0:	e2651001 	rsb	r1, r5, #1
800107f4:	e082e006 	add	lr, r2, r6
800107f8:	e0813002 	add	r3, r1, r2
800107fc:	e0803083 	add	r3, r0, r3, lsl #1
80010800:	e1d330b2 	ldrh	r3, [r3, #2]
80010804:	e243c020 	sub	ip, r3, #32
80010808:	e35c005e 	cmp	ip, #94	; 0x5e
8001080c:	83a0305f 	movhi	r3, #95	; 0x5f
80010810:	e5e23001 	strb	r3, [r2, #1]!
80010814:	e152000e 	cmp	r2, lr
80010818:	1afffff6 	bne	800107f8 <USBStringGetFromDescriptor+0xd8>
8001081c:	e5940008 	ldr	r0, [r4, #8]
80010820:	e3a03000 	mov	r3, #0
80010824:	e7c53006 	strb	r3, [r5, r6]
80010828:	ebffe076 	bl	80008a08 <_String>
8001082c:	e5940008 	ldr	r0, [r4, #8]
80010830:	eb000476 	bl	80011a10 <free>
80010834:	e3a0000c 	mov	r0, #12
80010838:	eb00046d 	bl	800119f4 <malloc>
8001083c:	e5840008 	str	r0, [r4, #8]
80010840:	e1a01005 	mov	r1, r5
80010844:	ebffe063 	bl	800089d8 <String2>
80010848:	e3a00001 	mov	r0, #1
8001084c:	e24bd018 	sub	sp, fp, #24
80010850:	e8bd89f0 	pop	{r4, r5, r6, r7, r8, fp, pc}
80010854:	eb00046d 	bl	80011a10 <free>
80010858:	e1a00006 	mov	r0, r6
8001085c:	eb000464 	bl	800119f4 <malloc>
80010860:	e5840004 	str	r0, [r4, #4]
80010864:	e5940000 	ldr	r0, [r4]
80010868:	ebffe9fb 	bl	8000b05c <USBDeviceGetHost>
8001086c:	e1a08000 	mov	r8, r0
80010870:	e5940000 	ldr	r0, [r4]
80010874:	ebffe9f6 	bl	8000b054 <USBDeviceGetEndpoint0>
80010878:	e594c004 	ldr	ip, [r4, #4]
8001087c:	e1a01000 	mov	r1, r0
80010880:	e58d600c 	str	r6, [sp, #12]
80010884:	e1a00008 	mov	r0, r8
80010888:	e58d7004 	str	r7, [sp, #4]
8001088c:	e3a03006 	mov	r3, #6
80010890:	e58d5000 	str	r5, [sp]
80010894:	e3a02080 	mov	r2, #128	; 0x80
80010898:	e58dc008 	str	ip, [sp, #8]
8001089c:	eb000f63 	bl	80014630 <DWHCIDeviceControlMessage>
800108a0:	e1560000 	cmp	r6, r0
800108a4:	0a000002 	beq	800108b4 <USBStringGetFromDescriptor+0x194>
800108a8:	e3a00000 	mov	r0, #0
800108ac:	e24bd018 	sub	sp, fp, #24
800108b0:	e8bd89f0 	pop	{r4, r5, r6, r7, r8, fp, pc}
800108b4:	e5940004 	ldr	r0, [r4, #4]
800108b8:	e5d03000 	ldrb	r3, [r0]
800108bc:	e1530006 	cmp	r3, r6
800108c0:	1afffff8 	bne	800108a8 <USBStringGetFromDescriptor+0x188>
800108c4:	e5d02001 	ldrb	r2, [r0, #1]
800108c8:	e3520003 	cmp	r2, #3
800108cc:	1afffff5 	bne	800108a8 <USBStringGetFromDescriptor+0x188>
800108d0:	e2433002 	sub	r3, r3, #2
800108d4:	e1a060c3 	asr	r6, r3, #1
800108d8:	e2863008 	add	r3, r6, #8
800108dc:	e3c33007 	bic	r3, r3, #7
800108e0:	e04dd003 	sub	sp, sp, r3
800108e4:	e28d5010 	add	r5, sp, #16
800108e8:	eaffffbf 	b	800107ec <USBStringGetFromDescriptor+0xcc>

800108ec <USBStringGet>:
800108ec:	e5900008 	ldr	r0, [r0, #8]
800108f0:	eaffe04e 	b	80008a30 <StringGet>

800108f4 <USBStringGetLanguageID>:
800108f4:	e92d47f0 	push	{r4, r5, r6, r7, r8, r9, sl, lr}
800108f8:	e1a07000 	mov	r7, r0
800108fc:	e24dd010 	sub	sp, sp, #16
80010900:	e3a00004 	mov	r0, #4
80010904:	e3a08080 	mov	r8, #128	; 0x80
80010908:	eb000439 	bl	800119f4 <malloc>
8001090c:	e1a05000 	mov	r5, r0
80010910:	e5970000 	ldr	r0, [r7]
80010914:	ebffe9d0 	bl	8000b05c <USBDeviceGetHost>
80010918:	e1a04000 	mov	r4, r0
8001091c:	e5970000 	ldr	r0, [r7]
80010920:	ebffe9cb 	bl	8000b054 <USBDeviceGetEndpoint0>
80010924:	e58d5000 	str	r5, [sp]
80010928:	e3a03004 	mov	r3, #4
8001092c:	e58d3004 	str	r3, [sp, #4]
80010930:	e1a01000 	mov	r1, r0
80010934:	e58d8008 	str	r8, [sp, #8]
80010938:	e1a00004 	mov	r0, r4
8001093c:	e3a03000 	mov	r3, #0
80010940:	e3a02003 	mov	r2, #3
80010944:	eb000f61 	bl	800146d0 <DWHCIDeviceGetDescriptor>
80010948:	e3500000 	cmp	r0, #0
8001094c:	ba00003a 	blt	80010a3c <USBStringGetLanguageID+0x148>
80010950:	e5d56000 	ldrb	r6, [r5]
80010954:	e3560003 	cmp	r6, #3
80010958:	9a000037 	bls	80010a3c <USBStringGetLanguageID+0x148>
8001095c:	e2164001 	ands	r4, r6, #1
80010960:	1a000035 	bne	80010a3c <USBStringGetLanguageID+0x148>
80010964:	e5d59001 	ldrb	r9, [r5, #1]
80010968:	e3590003 	cmp	r9, #3
8001096c:	1a000032 	bne	80010a3c <USBStringGetLanguageID+0x148>
80010970:	e3560004 	cmp	r6, #4
80010974:	1a000008 	bne	8001099c <USBStringGetLanguageID+0xa8>
80010978:	e1d560b2 	ldrh	r6, [r5, #2]
8001097c:	e3003409 	movw	r3, #1033	; 0x409
80010980:	e1560003 	cmp	r6, r3
80010984:	0a00002c 	beq	80010a3c <USBStringGetLanguageID+0x148>
80010988:	e1a00005 	mov	r0, r5
8001098c:	eb00041f 	bl	80011a10 <free>
80010990:	e1a00006 	mov	r0, r6
80010994:	e28dd010 	add	sp, sp, #16
80010998:	e8bd87f0 	pop	{r4, r5, r6, r7, r8, r9, sl, pc}
8001099c:	e1a00005 	mov	r0, r5
800109a0:	eb00041a 	bl	80011a10 <free>
800109a4:	e1a00006 	mov	r0, r6
800109a8:	eb000411 	bl	800119f4 <malloc>
800109ac:	e1a05000 	mov	r5, r0
800109b0:	e5970000 	ldr	r0, [r7]
800109b4:	ebffe9a8 	bl	8000b05c <USBDeviceGetHost>
800109b8:	e1a0a000 	mov	sl, r0
800109bc:	e5970000 	ldr	r0, [r7]
800109c0:	ebffe9a3 	bl	8000b054 <USBDeviceGetEndpoint0>
800109c4:	e58d5000 	str	r5, [sp]
800109c8:	e1a01000 	mov	r1, r0
800109cc:	e58d8008 	str	r8, [sp, #8]
800109d0:	e1a0000a 	mov	r0, sl
800109d4:	e58d6004 	str	r6, [sp, #4]
800109d8:	e1a02009 	mov	r2, r9
800109dc:	e1a03004 	mov	r3, r4
800109e0:	eb000f3a 	bl	800146d0 <DWHCIDeviceGetDescriptor>
800109e4:	e1560000 	cmp	r6, r0
800109e8:	1a000013 	bne	80010a3c <USBStringGetLanguageID+0x148>
800109ec:	e5d53000 	ldrb	r3, [r5]
800109f0:	e1530006 	cmp	r3, r6
800109f4:	1a000010 	bne	80010a3c <USBStringGetLanguageID+0x148>
800109f8:	e5d52001 	ldrb	r2, [r5, #1]
800109fc:	e3520003 	cmp	r2, #3
80010a00:	1a00000d 	bne	80010a3c <USBStringGetLanguageID+0x148>
80010a04:	e1d560b2 	ldrh	r6, [r5, #2]
80010a08:	e3000409 	movw	r0, #1033	; 0x409
80010a0c:	e2433002 	sub	r3, r3, #2
80010a10:	e1560000 	cmp	r6, r0
80010a14:	e1a010c3 	asr	r1, r3, #1
80010a18:	0a000007 	beq	80010a3c <USBStringGetLanguageID+0x148>
80010a1c:	e1a03004 	mov	r3, r4
80010a20:	e2833001 	add	r3, r3, #1
80010a24:	e1510003 	cmp	r1, r3
80010a28:	e0852083 	add	r2, r5, r3, lsl #1
80010a2c:	9affffd5 	bls	80010988 <USBStringGetLanguageID+0x94>
80010a30:	e1d220b2 	ldrh	r2, [r2, #2]
80010a34:	e1520000 	cmp	r2, r0
80010a38:	1afffff8 	bne	80010a20 <USBStringGetLanguageID+0x12c>
80010a3c:	e1a00005 	mov	r0, r5
80010a40:	e3006409 	movw	r6, #1033	; 0x409
80010a44:	eb0003f1 	bl	80011a10 <free>
80010a48:	e1a00006 	mov	r0, r6
80010a4c:	e28dd010 	add	sp, sp, #16
80010a50:	e8bd87f0 	pop	{r4, r5, r6, r7, r8, r9, sl, pc}

80010a54 <USPiInitialize>:
80010a54:	e92d43f0 	push	{r4, r5, r6, r7, r8, r9, lr}
80010a58:	e30a48a4 	movw	r4, #43172	; 0xa8a4
80010a5c:	e3484009 	movt	r4, #32777	; 0x8009
80010a60:	e24dd014 	sub	sp, sp, #20
80010a64:	e3a0008c 	mov	r0, #140	; 0x8c
80010a68:	e3a05000 	mov	r5, #0
80010a6c:	eb0003e0 	bl	800119f4 <malloc>
80010a70:	e5840000 	str	r0, [r4]
80010a74:	eb0015ae 	bl	80016134 <DeviceNameService>
80010a78:	e5940000 	ldr	r0, [r4]
80010a7c:	e2800004 	add	r0, r0, #4
80010a80:	eb000b0b 	bl	800136b4 <DWHCIDevice>
80010a84:	e5943000 	ldr	r3, [r4]
80010a88:	e5835070 	str	r5, [r3, #112]	; 0x70
80010a8c:	e2830004 	add	r0, r3, #4
80010a90:	e5835074 	str	r5, [r3, #116]	; 0x74
80010a94:	eb00110c 	bl	80014ecc <DWHCIDeviceInitialize>
80010a98:	e2506000 	subs	r6, r0, #0
80010a9c:	0a00005f 	beq	80010c20 <USPiInitialize+0x1cc>
80010aa0:	e308993c 	movw	r9, #35132	; 0x893c
80010aa4:	eb0015e8 	bl	8001624c <DeviceNameServiceGet>
80010aa8:	e5946000 	ldr	r6, [r4]
80010aac:	e309109c 	movw	r1, #37020	; 0x909c
80010ab0:	e3481001 	movt	r1, #32769	; 0x8001
80010ab4:	e1a02005 	mov	r2, r5
80010ab8:	e3489001 	movt	r9, #32769	; 0x8001
80010abc:	eb0015cd 	bl	800161f8 <DeviceNameServiceGetDevice>
80010ac0:	e5860058 	str	r0, [r6, #88]	; 0x58
80010ac4:	eb0015e0 	bl	8001624c <DeviceNameServiceGet>
80010ac8:	e5946000 	ldr	r6, [r4]
80010acc:	e30910a4 	movw	r1, #37028	; 0x90a4
80010ad0:	e3481001 	movt	r1, #32769	; 0x8001
80010ad4:	e1a02005 	mov	r2, r5
80010ad8:	eb0015c6 	bl	800161f8 <DeviceNameServiceGetDevice>
80010adc:	e586005c 	str	r0, [r6, #92]	; 0x5c
80010ae0:	eb0015d9 	bl	8001624c <DeviceNameServiceGet>
80010ae4:	e5946000 	ldr	r6, [r4]
80010ae8:	e30910ac 	movw	r1, #37036	; 0x90ac
80010aec:	e3481001 	movt	r1, #32769	; 0x8001
80010af0:	e1a02005 	mov	r2, r5
80010af4:	eb0015bf 	bl	800161f8 <DeviceNameServiceGetDevice>
80010af8:	e5860088 	str	r0, [r6, #136]	; 0x88
80010afc:	e2856001 	add	r6, r5, #1
80010b00:	e28d0004 	add	r0, sp, #4
80010b04:	ebffdfaf 	bl	800089c8 <String>
80010b08:	e1a02006 	mov	r2, r6
80010b0c:	e1a01009 	mov	r1, r9
80010b10:	e28d0004 	add	r0, sp, #4
80010b14:	ebffe1e4 	bl	800092ac <StringFormat>
80010b18:	eb0015cb 	bl	8001624c <DeviceNameServiceGet>
80010b1c:	e1a08000 	mov	r8, r0
80010b20:	e28d0004 	add	r0, sp, #4
80010b24:	ebffdfc1 	bl	80008a30 <StringGet>
80010b28:	e5947000 	ldr	r7, [r4]
80010b2c:	e1a01000 	mov	r1, r0
80010b30:	e3a02001 	mov	r2, #1
80010b34:	e1a00008 	mov	r0, r8
80010b38:	eb0015ae 	bl	800161f8 <DeviceNameServiceGetDevice>
80010b3c:	e2853018 	add	r3, r5, #24
80010b40:	e1a05006 	mov	r5, r6
80010b44:	e7870103 	str	r0, [r7, r3, lsl #2]
80010b48:	e28d0004 	add	r0, sp, #4
80010b4c:	ebffdfad 	bl	80008a08 <_String>
80010b50:	e3560004 	cmp	r6, #4
80010b54:	1affffe8 	bne	80010afc <USPiInitialize+0xa8>
80010b58:	e30990c4 	movw	r9, #37060	; 0x90c4
80010b5c:	eb0015ba 	bl	8001624c <DeviceNameServiceGet>
80010b60:	e5945000 	ldr	r5, [r4]
80010b64:	e30910b4 	movw	r1, #37044	; 0x90b4
80010b68:	e3481001 	movt	r1, #32769	; 0x8001
80010b6c:	e3a02000 	mov	r2, #0
80010b70:	e3489001 	movt	r9, #32769	; 0x8001
80010b74:	eb00159f 	bl	800161f8 <DeviceNameServiceGetDevice>
80010b78:	e5850070 	str	r0, [r5, #112]	; 0x70
80010b7c:	eb0015b2 	bl	8001624c <DeviceNameServiceGet>
80010b80:	e5945000 	ldr	r5, [r4]
80010b84:	e30910bc 	movw	r1, #37052	; 0x90bc
80010b88:	e3481001 	movt	r1, #32769	; 0x8001
80010b8c:	e3a02000 	mov	r2, #0
80010b90:	eb001598 	bl	800161f8 <DeviceNameServiceGetDevice>
80010b94:	e5850074 	str	r0, [r5, #116]	; 0x74
80010b98:	e3a05000 	mov	r5, #0
80010b9c:	e2856001 	add	r6, r5, #1
80010ba0:	e28d0004 	add	r0, sp, #4
80010ba4:	ebffdf87 	bl	800089c8 <String>
80010ba8:	e1a02006 	mov	r2, r6
80010bac:	e1a01009 	mov	r1, r9
80010bb0:	e28d0004 	add	r0, sp, #4
80010bb4:	ebffe1bc 	bl	800092ac <StringFormat>
80010bb8:	eb0015a3 	bl	8001624c <DeviceNameServiceGet>
80010bbc:	e1a08000 	mov	r8, r0
80010bc0:	e28d0004 	add	r0, sp, #4
80010bc4:	ebffdf99 	bl	80008a30 <StringGet>
80010bc8:	e5947000 	ldr	r7, [r4]
80010bcc:	e1a01000 	mov	r1, r0
80010bd0:	e3a02000 	mov	r2, #0
80010bd4:	e1a00008 	mov	r0, r8
80010bd8:	eb001586 	bl	800161f8 <DeviceNameServiceGetDevice>
80010bdc:	e285301e 	add	r3, r5, #30
80010be0:	e1a05006 	mov	r5, r6
80010be4:	e7870103 	str	r0, [r7, r3, lsl #2]
80010be8:	e28d0004 	add	r0, sp, #4
80010bec:	ebffdf85 	bl	80008a08 <_String>
80010bf0:	e3560004 	cmp	r6, #4
80010bf4:	1affffe8 	bne	80010b9c <USPiInitialize+0x148>
80010bf8:	e30920cc 	movw	r2, #37068	; 0x90cc
80010bfc:	e3090064 	movw	r0, #36964	; 0x9064
80010c00:	e3482001 	movt	r2, #32769	; 0x8001
80010c04:	e1a01006 	mov	r1, r6
80010c08:	e3480001 	movt	r0, #32769	; 0x8001
80010c0c:	e3a06001 	mov	r6, #1
80010c10:	eb0003d1 	bl	80011b5c <LogWrite>
80010c14:	e1a00006 	mov	r0, r6
80010c18:	e28dd014 	add	sp, sp, #20
80010c1c:	e8bd83f0 	pop	{r4, r5, r6, r7, r8, r9, pc}
80010c20:	e309206c 	movw	r2, #36972	; 0x906c
80010c24:	e3090064 	movw	r0, #36964	; 0x9064
80010c28:	e3482001 	movt	r2, #32769	; 0x8001
80010c2c:	e3a01001 	mov	r1, #1
80010c30:	e3480001 	movt	r0, #32769	; 0x8001
80010c34:	eb0003c8 	bl	80011b5c <LogWrite>
80010c38:	e5940000 	ldr	r0, [r4]
80010c3c:	e2800004 	add	r0, r0, #4
80010c40:	eb000aab 	bl	800136f4 <_DWHCIDevice>
80010c44:	e5940000 	ldr	r0, [r4]
80010c48:	eb00153f 	bl	8001614c <_DeviceNameService>
80010c4c:	e5940000 	ldr	r0, [r4]
80010c50:	eb00036e 	bl	80011a10 <free>
80010c54:	e5846000 	str	r6, [r4]
80010c58:	e1a00006 	mov	r0, r6
80010c5c:	e28dd014 	add	sp, sp, #20
80010c60:	e8bd83f0 	pop	{r4, r5, r6, r7, r8, r9, pc}

80010c64 <USPiKeyboardAvailable>:
80010c64:	e30a38a4 	movw	r3, #43172	; 0xa8a4
80010c68:	e3483009 	movt	r3, #32777	; 0x8009
80010c6c:	e5933000 	ldr	r3, [r3]
80010c70:	e5930058 	ldr	r0, [r3, #88]	; 0x58
80010c74:	e2900000 	adds	r0, r0, #0
80010c78:	13a00001 	movne	r0, #1
80010c7c:	e12fff1e 	bx	lr

80010c80 <USPiKeyboardRegisterKeyPressedHandler>:
80010c80:	e30a38a4 	movw	r3, #43172	; 0xa8a4
80010c84:	e1a01000 	mov	r1, r0
80010c88:	e3483009 	movt	r3, #32777	; 0x8009
80010c8c:	e5933000 	ldr	r3, [r3]
80010c90:	e5930058 	ldr	r0, [r3, #88]	; 0x58
80010c94:	ea0014d6 	b	80015ff4 <USBKeyboardDeviceRegisterKeyPressedHandler>

80010c98 <USPiKeyboardRegisterShutdownHandler>:
80010c98:	e30a38a4 	movw	r3, #43172	; 0xa8a4
80010c9c:	e1a01000 	mov	r1, r0
80010ca0:	e3483009 	movt	r3, #32777	; 0x8009
80010ca4:	e5933000 	ldr	r3, [r3]
80010ca8:	e5930058 	ldr	r0, [r3, #88]	; 0x58
80010cac:	ea0014d4 	b	80016004 <USBKeyboardDeviceRegisterShutdownHandler>

80010cb0 <USPiKeyboardRegisterKeyStatusHandlerRaw>:
80010cb0:	e30a38a4 	movw	r3, #43172	; 0xa8a4
80010cb4:	e1a01000 	mov	r1, r0
80010cb8:	e3483009 	movt	r3, #32777	; 0x8009
80010cbc:	e5933000 	ldr	r3, [r3]
80010cc0:	e5930058 	ldr	r0, [r3, #88]	; 0x58
80010cc4:	ea0014d0 	b	8001600c <USBKeyboardDeviceRegisterKeyStatusHandlerRaw>

80010cc8 <USPiMouseAvailable>:
80010cc8:	e30a38a4 	movw	r3, #43172	; 0xa8a4
80010ccc:	e3483009 	movt	r3, #32777	; 0x8009
80010cd0:	e5933000 	ldr	r3, [r3]
80010cd4:	e593005c 	ldr	r0, [r3, #92]	; 0x5c
80010cd8:	e2900000 	adds	r0, r0, #0
80010cdc:	13a00001 	movne	r0, #1
80010ce0:	e12fff1e 	bx	lr

80010ce4 <USPiMouseRegisterStatusHandler>:
80010ce4:	e30a38a4 	movw	r3, #43172	; 0xa8a4
80010ce8:	e1a01000 	mov	r1, r0
80010cec:	e3483009 	movt	r3, #32777	; 0x8009
80010cf0:	e5933000 	ldr	r3, [r3]
80010cf4:	e593005c 	ldr	r0, [r3, #92]	; 0x5c
80010cf8:	ea0006ab 	b	800127ac <USBMouseDeviceRegisterStatusHandler>

80010cfc <USPiMassStorageDeviceAvailable>:
80010cfc:	e30a38a4 	movw	r3, #43172	; 0xa8a4
80010d00:	e3a00000 	mov	r0, #0
80010d04:	e3483009 	movt	r3, #32777	; 0x8009
80010d08:	e5933000 	ldr	r3, [r3]
80010d0c:	e2833060 	add	r3, r3, #96	; 0x60
80010d10:	e4932004 	ldr	r2, [r3], #4
80010d14:	e3520000 	cmp	r2, #0
80010d18:	012fff1e 	bxeq	lr
80010d1c:	e2800001 	add	r0, r0, #1
80010d20:	e3500004 	cmp	r0, #4
80010d24:	1afffff9 	bne	80010d10 <USPiMassStorageDeviceAvailable+0x14>
80010d28:	e12fff1e 	bx	lr

80010d2c <USPiMassStorageDeviceRead>:
80010d2c:	e92d47f0 	push	{r4, r5, r6, r7, r8, r9, sl, lr}
80010d30:	e59dc020 	ldr	ip, [sp, #32]
80010d34:	e35c0003 	cmp	ip, #3
80010d38:	8a000016 	bhi	80010d98 <USPiMassStorageDeviceRead+0x6c>
80010d3c:	e30a98a4 	movw	r9, #43172	; 0xa8a4
80010d40:	e1a07001 	mov	r7, r1
80010d44:	e3489009 	movt	r9, #32777	; 0x8009
80010d48:	e28c8018 	add	r8, ip, #24
80010d4c:	e1a06000 	mov	r6, r0
80010d50:	e5991000 	ldr	r1, [r9]
80010d54:	e7910108 	ldr	r0, [r1, r8, lsl #2]
80010d58:	e3500000 	cmp	r0, #0
80010d5c:	0a00000d 	beq	80010d98 <USPiMassStorageDeviceRead+0x6c>
80010d60:	e1a05003 	mov	r5, r3
80010d64:	e1a04002 	mov	r4, r2
80010d68:	e1a03007 	mov	r3, r7
80010d6c:	e1a02006 	mov	r2, r6
80010d70:	ebfff5ab 	bl	8000e424 <USBBulkOnlyMassStorageDeviceSeek>
80010d74:	e1510007 	cmp	r1, r7
80010d78:	01500006 	cmpeq	r0, r6
80010d7c:	1a000005 	bne	80010d98 <USPiMassStorageDeviceRead+0x6c>
80010d80:	e5993000 	ldr	r3, [r9]
80010d84:	e1a02005 	mov	r2, r5
80010d88:	e1a01004 	mov	r1, r4
80010d8c:	e7930108 	ldr	r0, [r3, r8, lsl #2]
80010d90:	e8bd47f0 	pop	{r4, r5, r6, r7, r8, r9, sl, lr}
80010d94:	eafff7e1 	b	8000ed20 <USBBulkOnlyMassStorageDeviceRead>
80010d98:	e3e00000 	mvn	r0, #0
80010d9c:	e8bd87f0 	pop	{r4, r5, r6, r7, r8, r9, sl, pc}

80010da0 <USPiMassStorageDeviceWrite>:
80010da0:	e92d47f0 	push	{r4, r5, r6, r7, r8, r9, sl, lr}
80010da4:	e59dc020 	ldr	ip, [sp, #32]
80010da8:	e35c0003 	cmp	ip, #3
80010dac:	8a000016 	bhi	80010e0c <USPiMassStorageDeviceWrite+0x6c>
80010db0:	e30a98a4 	movw	r9, #43172	; 0xa8a4
80010db4:	e1a07001 	mov	r7, r1
80010db8:	e3489009 	movt	r9, #32777	; 0x8009
80010dbc:	e28c8018 	add	r8, ip, #24
80010dc0:	e1a06000 	mov	r6, r0
80010dc4:	e5991000 	ldr	r1, [r9]
80010dc8:	e7910108 	ldr	r0, [r1, r8, lsl #2]
80010dcc:	e3500000 	cmp	r0, #0
80010dd0:	0a00000d 	beq	80010e0c <USPiMassStorageDeviceWrite+0x6c>
80010dd4:	e1a05003 	mov	r5, r3
80010dd8:	e1a04002 	mov	r4, r2
80010ddc:	e1a03007 	mov	r3, r7
80010de0:	e1a02006 	mov	r2, r6
80010de4:	ebfff58e 	bl	8000e424 <USBBulkOnlyMassStorageDeviceSeek>
80010de8:	e1510007 	cmp	r1, r7
80010dec:	01500006 	cmpeq	r0, r6
80010df0:	1a000005 	bne	80010e0c <USPiMassStorageDeviceWrite+0x6c>
80010df4:	e5993000 	ldr	r3, [r9]
80010df8:	e1a02005 	mov	r2, r5
80010dfc:	e1a01004 	mov	r1, r4
80010e00:	e7930108 	ldr	r0, [r3, r8, lsl #2]
80010e04:	e8bd47f0 	pop	{r4, r5, r6, r7, r8, r9, sl, lr}
80010e08:	eafff7de 	b	8000ed88 <USBBulkOnlyMassStorageDeviceWrite>
80010e0c:	e3e00000 	mvn	r0, #0
80010e10:	e8bd87f0 	pop	{r4, r5, r6, r7, r8, r9, sl, pc}

80010e14 <USPiMassStorageDeviceGetCapacity>:
80010e14:	e3500003 	cmp	r0, #3
80010e18:	8a000007 	bhi	80010e3c <USPiMassStorageDeviceGetCapacity+0x28>
80010e1c:	e30a38a4 	movw	r3, #43172	; 0xa8a4
80010e20:	e2800018 	add	r0, r0, #24
80010e24:	e3483009 	movt	r3, #32777	; 0x8009
80010e28:	e5933000 	ldr	r3, [r3]
80010e2c:	e7930100 	ldr	r0, [r3, r0, lsl #2]
80010e30:	e3500000 	cmp	r0, #0
80010e34:	0a000000 	beq	80010e3c <USPiMassStorageDeviceGetCapacity+0x28>
80010e38:	eafff57d 	b	8000e434 <USBBulkOnlyMassStorageDeviceGetCapacity>
80010e3c:	e3a00000 	mov	r0, #0
80010e40:	e12fff1e 	bx	lr

80010e44 <USPiEthernetAvailable>:
80010e44:	e30a38a4 	movw	r3, #43172	; 0xa8a4
80010e48:	e3483009 	movt	r3, #32777	; 0x8009
80010e4c:	e5933000 	ldr	r3, [r3]
80010e50:	e5932070 	ldr	r2, [r3, #112]	; 0x70
80010e54:	e3520000 	cmp	r2, #0
80010e58:	0a000001 	beq	80010e64 <USPiEthernetAvailable+0x20>
80010e5c:	e3a00001 	mov	r0, #1
80010e60:	e12fff1e 	bx	lr
80010e64:	e5930074 	ldr	r0, [r3, #116]	; 0x74
80010e68:	e2900000 	adds	r0, r0, #0
80010e6c:	13a00001 	movne	r0, #1
80010e70:	e12fff1e 	bx	lr

80010e74 <USPiGetMACAddress>:
80010e74:	e30a38a4 	movw	r3, #43172	; 0xa8a4
80010e78:	e3483009 	movt	r3, #32777	; 0x8009
80010e7c:	e92d4010 	push	{r4, lr}
80010e80:	e1a04000 	mov	r4, r0
80010e84:	e5933000 	ldr	r3, [r3]
80010e88:	e5930074 	ldr	r0, [r3, #116]	; 0x74
80010e8c:	e3500000 	cmp	r0, #0
80010e90:	0a000003 	beq	80010ea4 <USPiGetMACAddress+0x30>
80010e94:	eb00076e 	bl	80012c54 <LAN7800DeviceGetMACAddress>
80010e98:	e1a01004 	mov	r1, r4
80010e9c:	e8bd4010 	pop	{r4, lr}
80010ea0:	ea000404 	b	80011eb8 <MACAddressCopyTo>
80010ea4:	e5930070 	ldr	r0, [r3, #112]	; 0x70
80010ea8:	ebfff83b 	bl	8000ef9c <SMSC951xDeviceGetMACAddress>
80010eac:	e1a01004 	mov	r1, r4
80010eb0:	e8bd4010 	pop	{r4, lr}
80010eb4:	ea0003ff 	b	80011eb8 <MACAddressCopyTo>

80010eb8 <USPiSendFrame>:
80010eb8:	e30a38a4 	movw	r3, #43172	; 0xa8a4
80010ebc:	e1a0c000 	mov	ip, r0
80010ec0:	e3483009 	movt	r3, #32777	; 0x8009
80010ec4:	e92d4010 	push	{r4, lr}
80010ec8:	e5933000 	ldr	r3, [r3]
80010ecc:	e5930074 	ldr	r0, [r3, #116]	; 0x74
80010ed0:	e3500000 	cmp	r0, #0
80010ed4:	0a000005 	beq	80010ef0 <USPiSendFrame+0x38>
80010ed8:	e1a02001 	mov	r2, r1
80010edc:	e1a0100c 	mov	r1, ip
80010ee0:	eb00075d 	bl	80012c5c <LAN7800DeviceSendFrame>
80010ee4:	e2900000 	adds	r0, r0, #0
80010ee8:	13a00001 	movne	r0, #1
80010eec:	e8bd8010 	pop	{r4, pc}
80010ef0:	e5930070 	ldr	r0, [r3, #112]	; 0x70
80010ef4:	e1a02001 	mov	r2, r1
80010ef8:	e1a0100c 	mov	r1, ip
80010efc:	ebfff828 	bl	8000efa4 <SMSC951xDeviceSendFrame>
80010f00:	e2900000 	adds	r0, r0, #0
80010f04:	13a00001 	movne	r0, #1
80010f08:	e8bd8010 	pop	{r4, pc}

80010f0c <USPiReceiveFrame>:
80010f0c:	e30a38a4 	movw	r3, #43172	; 0xa8a4
80010f10:	e1a0c000 	mov	ip, r0
80010f14:	e3483009 	movt	r3, #32777	; 0x8009
80010f18:	e92d4010 	push	{r4, lr}
80010f1c:	e5933000 	ldr	r3, [r3]
80010f20:	e5930074 	ldr	r0, [r3, #116]	; 0x74
80010f24:	e3500000 	cmp	r0, #0
80010f28:	0a000005 	beq	80010f44 <USPiReceiveFrame+0x38>
80010f2c:	e1a02001 	mov	r2, r1
80010f30:	e1a0100c 	mov	r1, ip
80010f34:	eb000761 	bl	80012cc0 <LAN7800DeviceReceiveFrame>
80010f38:	e2900000 	adds	r0, r0, #0
80010f3c:	13a00001 	movne	r0, #1
80010f40:	e8bd8010 	pop	{r4, pc}
80010f44:	e5930070 	ldr	r0, [r3, #112]	; 0x70
80010f48:	e1a02001 	mov	r2, r1
80010f4c:	e1a0100c 	mov	r1, ip
80010f50:	ebfff82b 	bl	8000f004 <SMSC951xDeviceReceiveFrame>
80010f54:	e2900000 	adds	r0, r0, #0
80010f58:	13a00001 	movne	r0, #1
80010f5c:	e8bd8010 	pop	{r4, pc}

80010f60 <USPiGamePadAvailable>:
80010f60:	e30a38a4 	movw	r3, #43172	; 0xa8a4
80010f64:	e3a00000 	mov	r0, #0
80010f68:	e3483009 	movt	r3, #32777	; 0x8009
80010f6c:	e5933000 	ldr	r3, [r3]
80010f70:	e2833078 	add	r3, r3, #120	; 0x78
80010f74:	e4932004 	ldr	r2, [r3], #4
80010f78:	e3520000 	cmp	r2, #0
80010f7c:	012fff1e 	bxeq	lr
80010f80:	e2800001 	add	r0, r0, #1
80010f84:	e3500004 	cmp	r0, #4
80010f88:	1afffff9 	bne	80010f74 <USPiGamePadAvailable+0x14>
80010f8c:	e12fff1e 	bx	lr

80010f90 <USPiGamePadRegisterStatusHandler>:
80010f90:	e92d4070 	push	{r4, r5, r6, lr}
80010f94:	e30a58a4 	movw	r5, #43172	; 0xa8a4
80010f98:	e3485009 	movt	r5, #32777	; 0x8009
80010f9c:	e1a06000 	mov	r6, r0
80010fa0:	e3a04000 	mov	r4, #0
80010fa4:	e5953000 	ldr	r3, [r5]
80010fa8:	e284201e 	add	r2, r4, #30
80010fac:	e1a01006 	mov	r1, r6
80010fb0:	e2844001 	add	r4, r4, #1
80010fb4:	e7930102 	ldr	r0, [r3, r2, lsl #2]
80010fb8:	e3500000 	cmp	r0, #0
80010fbc:	0a000000 	beq	80010fc4 <USPiGamePadRegisterStatusHandler+0x34>
80010fc0:	eb001775 	bl	80016d9c <USBGamePadDeviceRegisterStatusHandler>
80010fc4:	e3540004 	cmp	r4, #4
80010fc8:	1afffff5 	bne	80010fa4 <USPiGamePadRegisterStatusHandler+0x14>
80010fcc:	e8bd8070 	pop	{r4, r5, r6, pc}

80010fd0 <USPiGamePadGetStatus>:
80010fd0:	e3500003 	cmp	r0, #3
80010fd4:	8a00000c 	bhi	8001100c <USPiGamePadGetStatus+0x3c>
80010fd8:	e92d4070 	push	{r4, r5, r6, lr}
80010fdc:	e30a58a4 	movw	r5, #43172	; 0xa8a4
80010fe0:	e3485009 	movt	r5, #32777	; 0x8009
80010fe4:	e280401e 	add	r4, r0, #30
80010fe8:	e5953000 	ldr	r3, [r5]
80010fec:	e7930104 	ldr	r0, [r3, r4, lsl #2]
80010ff0:	e3500000 	cmp	r0, #0
80010ff4:	08bd8070 	popeq	{r4, r5, r6, pc}
80010ff8:	eb001769 	bl	80016da4 <USBGamePadDeviceGetReport>
80010ffc:	e5953000 	ldr	r3, [r5]
80011000:	e7930104 	ldr	r0, [r3, r4, lsl #2]
80011004:	e280004c 	add	r0, r0, #76	; 0x4c
80011008:	e8bd8070 	pop	{r4, r5, r6, pc}
8001100c:	e3a00000 	mov	r0, #0
80011010:	e12fff1e 	bx	lr

80011014 <USPiMIDIAvailable>:
80011014:	e30a38a4 	movw	r3, #43172	; 0xa8a4
80011018:	e3483009 	movt	r3, #32777	; 0x8009
8001101c:	e5933000 	ldr	r3, [r3]
80011020:	e5930088 	ldr	r0, [r3, #136]	; 0x88
80011024:	e2900000 	adds	r0, r0, #0
80011028:	13a00001 	movne	r0, #1
8001102c:	e12fff1e 	bx	lr

80011030 <USPiMIDIRegisterPacketHandler>:
80011030:	e30a38a4 	movw	r3, #43172	; 0xa8a4
80011034:	e1a01000 	mov	r1, r0
80011038:	e3483009 	movt	r3, #32777	; 0x8009
8001103c:	e5933000 	ldr	r3, [r3]
80011040:	e5930088 	ldr	r0, [r3, #136]	; 0x88
80011044:	eaffe665 	b	8000a9e0 <USBMIDIDeviceRegisterPacketHandler>

80011048 <USPiDeviceGetInformation>:
80011048:	e2400001 	sub	r0, r0, #1
8001104c:	e92d4070 	push	{r4, r5, r6, lr}
80011050:	e3500005 	cmp	r0, #5
80011054:	979ff100 	ldrls	pc, [pc, r0, lsl #2]
80011058:	ea000005 	b	80011074 <USPiDeviceGetInformation+0x2c>
8001105c:	800110fc 	.word	0x800110fc
80011060:	80011118 	.word	0x80011118
80011064:	80011134 	.word	0x80011134
80011068:	80011154 	.word	0x80011154
8001106c:	8001117c 	.word	0x8001117c
80011070:	8001107c 	.word	0x8001107c
80011074:	e3a00000 	mov	r0, #0
80011078:	e8bd8070 	pop	{r4, r5, r6, pc}
8001107c:	e3510000 	cmp	r1, #0
80011080:	1afffffb 	bne	80011074 <USPiDeviceGetInformation+0x2c>
80011084:	e30a38a4 	movw	r3, #43172	; 0xa8a4
80011088:	e3483009 	movt	r3, #32777	; 0x8009
8001108c:	e5933000 	ldr	r3, [r3]
80011090:	e5934088 	ldr	r4, [r3, #136]	; 0x88
80011094:	e3540000 	cmp	r4, #0
80011098:	0afffff5 	beq	80011074 <USPiDeviceGetInformation+0x2c>
8001109c:	e1a00004 	mov	r0, r4
800110a0:	e1a05002 	mov	r5, r2
800110a4:	ebffe7ee 	bl	8000b064 <USBDeviceGetDeviceDescriptor>
800110a8:	e1a03000 	mov	r3, r0
800110ac:	e2840024 	add	r0, r4, #36	; 0x24
800110b0:	e5d31009 	ldrb	r1, [r3, #9]
800110b4:	e5d32008 	ldrb	r2, [r3, #8]
800110b8:	e1822401 	orr	r2, r2, r1, lsl #8
800110bc:	e1c520b0 	strh	r2, [r5]
800110c0:	e5d3100b 	ldrb	r1, [r3, #11]
800110c4:	e5d3200a 	ldrb	r2, [r3, #10]
800110c8:	e1822401 	orr	r2, r2, r1, lsl #8
800110cc:	e1c520b2 	strh	r2, [r5, #2]
800110d0:	e5d3200c 	ldrb	r2, [r3, #12]
800110d4:	e5d3300d 	ldrb	r3, [r3, #13]
800110d8:	e1823403 	orr	r3, r2, r3, lsl #8
800110dc:	e1c530b4 	strh	r3, [r5, #4]
800110e0:	ebfffe01 	bl	800108ec <USBStringGet>
800110e4:	e5850008 	str	r0, [r5, #8]
800110e8:	e2840030 	add	r0, r4, #48	; 0x30
800110ec:	ebfffdfe 	bl	800108ec <USBStringGet>
800110f0:	e585000c 	str	r0, [r5, #12]
800110f4:	e3a00001 	mov	r0, #1
800110f8:	e8bd8070 	pop	{r4, r5, r6, pc}
800110fc:	e3510000 	cmp	r1, #0
80011100:	1affffdb 	bne	80011074 <USPiDeviceGetInformation+0x2c>
80011104:	e30a38a4 	movw	r3, #43172	; 0xa8a4
80011108:	e3483009 	movt	r3, #32777	; 0x8009
8001110c:	e5933000 	ldr	r3, [r3]
80011110:	e5934058 	ldr	r4, [r3, #88]	; 0x58
80011114:	eaffffde 	b	80011094 <USPiDeviceGetInformation+0x4c>
80011118:	e3510000 	cmp	r1, #0
8001111c:	1affffd4 	bne	80011074 <USPiDeviceGetInformation+0x2c>
80011120:	e30a38a4 	movw	r3, #43172	; 0xa8a4
80011124:	e3483009 	movt	r3, #32777	; 0x8009
80011128:	e5933000 	ldr	r3, [r3]
8001112c:	e593405c 	ldr	r4, [r3, #92]	; 0x5c
80011130:	eaffffd7 	b	80011094 <USPiDeviceGetInformation+0x4c>
80011134:	e3510003 	cmp	r1, #3
80011138:	8affffcd 	bhi	80011074 <USPiDeviceGetInformation+0x2c>
8001113c:	e30a38a4 	movw	r3, #43172	; 0xa8a4
80011140:	e2811018 	add	r1, r1, #24
80011144:	e3483009 	movt	r3, #32777	; 0x8009
80011148:	e5933000 	ldr	r3, [r3]
8001114c:	e7934101 	ldr	r4, [r3, r1, lsl #2]
80011150:	eaffffcf 	b	80011094 <USPiDeviceGetInformation+0x4c>
80011154:	e3510000 	cmp	r1, #0
80011158:	1affffc5 	bne	80011074 <USPiDeviceGetInformation+0x2c>
8001115c:	e30a38a4 	movw	r3, #43172	; 0xa8a4
80011160:	e3483009 	movt	r3, #32777	; 0x8009
80011164:	e5933000 	ldr	r3, [r3]
80011168:	e5934074 	ldr	r4, [r3, #116]	; 0x74
8001116c:	e3540000 	cmp	r4, #0
80011170:	05934070 	ldreq	r4, [r3, #112]	; 0x70
80011174:	1affffc8 	bne	8001109c <USPiDeviceGetInformation+0x54>
80011178:	eaffffc5 	b	80011094 <USPiDeviceGetInformation+0x4c>
8001117c:	e3510003 	cmp	r1, #3
80011180:	8affffbb 	bhi	80011074 <USPiDeviceGetInformation+0x2c>
80011184:	e30a38a4 	movw	r3, #43172	; 0xa8a4
80011188:	e281101e 	add	r1, r1, #30
8001118c:	e3483009 	movt	r3, #32777	; 0x8009
80011190:	e5933000 	ldr	r3, [r3]
80011194:	e7934101 	ldr	r4, [r3, r1, lsl #2]
80011198:	eaffffbd 	b	80011094 <USPiDeviceGetInformation+0x4c>

8001119c <walkpgdir>:
8001119c:	e92d47f0 	push	{r4, r5, r6, r7, r8, r9, sl, lr}
800111a0:	e1a05001 	mov	r5, r1
800111a4:	e1a08a21 	lsr	r8, r1, #20
800111a8:	e7904108 	ldr	r4, [r0, r8, lsl #2]
800111ac:	e3540000 	cmp	r4, #0
800111b0:	0a000005 	beq	800111cc <walkpgdir+0x30>
800111b4:	e3c44eff 	bic	r4, r4, #4080	; 0xff0
800111b8:	e3c4400f 	bic	r4, r4, #15
800111bc:	e2846102 	add	r6, r4, #-2147483648	; 0x80000000
800111c0:	e7e75655 	ubfx	r5, r5, #12, #8
800111c4:	e0860105 	add	r0, r6, r5, lsl #2
800111c8:	e8bd87f0 	pop	{r4, r5, r6, r7, r8, r9, sl, pc}
800111cc:	e3530000 	cmp	r3, #0
800111d0:	0a00000b 	beq	80011204 <walkpgdir+0x68>
800111d4:	e1a07000 	mov	r7, r0
800111d8:	e1a09002 	mov	r9, r2
800111dc:	eb0005d8 	bl	80012944 <kalloc>
800111e0:	e2506000 	subs	r6, r0, #0
800111e4:	0a000006 	beq	80011204 <walkpgdir+0x68>
800111e8:	e1a01004 	mov	r1, r4
800111ec:	e3a02a01 	mov	r2, #4096	; 0x1000
800111f0:	ebffe475 	bl	8000a3cc <memset>
800111f4:	e2863102 	add	r3, r6, #-2147483648	; 0x80000000
800111f8:	e1839009 	orr	r9, r3, r9
800111fc:	e7879108 	str	r9, [r7, r8, lsl #2]
80011200:	eaffffee 	b	800111c0 <walkpgdir+0x24>
80011204:	e3a00000 	mov	r0, #0
80011208:	e8bd87f0 	pop	{r4, r5, r6, r7, r8, r9, sl, pc}

8001120c <mappages>:
8001120c:	e92d47f0 	push	{r4, r5, r6, r7, r8, r9, sl, lr}
80011210:	e3a0ca0f 	mov	ip, #61440	; 0xf000
80011214:	e59d7020 	ldr	r7, [sp, #32]
80011218:	e2426001 	sub	r6, r2, #1
8001121c:	e34fcfff 	movt	ip, #65535	; 0xffff
80011220:	e1a05000 	mov	r5, r0
80011224:	e0866001 	add	r6, r6, r1
80011228:	e3170002 	tst	r7, #2
8001122c:	e59da024 	ldr	sl, [sp, #36]	; 0x24
80011230:	e006600c 	and	r6, r6, ip
80011234:	e001400c 	and	r4, r1, ip
80011238:	0a000015 	beq	80011294 <mappages+0x88>
8001123c:	e1540006 	cmp	r4, r6
80011240:	8a000011 	bhi	8001128c <mappages+0x80>
80011244:	e1a02a24 	lsr	r2, r4, #20
80011248:	e7901102 	ldr	r1, [r0, r2, lsl #2]
8001124c:	e0802102 	add	r2, r0, r2, lsl #2
80011250:	e3510000 	cmp	r1, #0
80011254:	1a000024 	bne	800112ec <mappages+0xe0>
80011258:	e0438004 	sub	r8, r3, r4
8001125c:	ea000004 	b	80011274 <mappages+0x68>
80011260:	e1a02a24 	lsr	r2, r4, #20
80011264:	e7953102 	ldr	r3, [r5, r2, lsl #2]
80011268:	e0852102 	add	r2, r5, r2, lsl #2
8001126c:	e3530000 	cmp	r3, #0
80011270:	1a00001d 	bne	800112ec <mappages+0xe0>
80011274:	e0841008 	add	r1, r4, r8
80011278:	e2844601 	add	r4, r4, #1048576	; 0x100000
8001127c:	e1560004 	cmp	r6, r4
80011280:	e1811007 	orr	r1, r1, r7
80011284:	e5821000 	str	r1, [r2]
80011288:	2afffff4 	bcs	80011260 <mappages+0x54>
8001128c:	e3a00000 	mov	r0, #0
80011290:	e8bd87f0 	pop	{r4, r5, r6, r7, r8, r9, sl, pc}
80011294:	e3170001 	tst	r7, #1
80011298:	0a000016 	beq	800112f8 <mappages+0xec>
8001129c:	e0438004 	sub	r8, r3, r4
800112a0:	ea000007 	b	800112c4 <mappages+0xb8>
800112a4:	e5903000 	ldr	r3, [r0]
800112a8:	e3530000 	cmp	r3, #0
800112ac:	1a00000e 	bne	800112ec <mappages+0xe0>
800112b0:	e1540006 	cmp	r4, r6
800112b4:	e18a9009 	orr	r9, sl, r9
800112b8:	e5809000 	str	r9, [r0]
800112bc:	0afffff2 	beq	8001128c <mappages+0x80>
800112c0:	e2844a01 	add	r4, r4, #4096	; 0x1000
800112c4:	e0849008 	add	r9, r4, r8
800112c8:	e3a03001 	mov	r3, #1
800112cc:	e1a02007 	mov	r2, r7
800112d0:	e1a01004 	mov	r1, r4
800112d4:	e1a00005 	mov	r0, r5
800112d8:	ebffffaf 	bl	8001119c <walkpgdir>
800112dc:	e3500000 	cmp	r0, #0
800112e0:	1affffef 	bne	800112a4 <mappages+0x98>
800112e4:	e3e00000 	mvn	r0, #0
800112e8:	e8bd87f0 	pop	{r4, r5, r6, r7, r8, r9, sl, pc}
800112ec:	e30900f4 	movw	r0, #37108	; 0x90f4
800112f0:	e3480001 	movt	r0, #32769	; 0x8001
800112f4:	ebffe95c 	bl	8000b86c <panic>
800112f8:	e30900fc 	movw	r0, #37116	; 0x90fc
800112fc:	e3480001 	movt	r0, #32769	; 0x8001
80011300:	ebffe959 	bl	8000b86c <panic>

80011304 <deallocuvm.part.0>:
80011304:	e92d47f0 	push	{r4, r5, r6, r7, r8, r9, sl, lr}
80011308:	e3a07a0f 	mov	r7, #61440	; 0xf000
8001130c:	e34f7fff 	movt	r7, #65535	; 0xffff
80011310:	e2824eff 	add	r4, r2, #4080	; 0xff0
80011314:	e284400f 	add	r4, r4, #15
80011318:	e1a09002 	mov	r9, r2
8001131c:	e0044007 	and	r4, r4, r7
80011320:	e1540001 	cmp	r4, r1
80011324:	2a000016 	bcs	80011384 <deallocuvm.part.0+0x80>
80011328:	e1a05001 	mov	r5, r1
8001132c:	e1a06000 	mov	r6, r0
80011330:	e3a08000 	mov	r8, #0
80011334:	e1a01004 	mov	r1, r4
80011338:	e3a03000 	mov	r3, #0
8001133c:	e3a02001 	mov	r2, #1
80011340:	e1a00006 	mov	r0, r6
80011344:	ebffff94 	bl	8001119c <walkpgdir>
80011348:	e250a000 	subs	sl, r0, #0
8001134c:	028449ff 	addeq	r4, r4, #4177920	; 0x3fc000
80011350:	02844a03 	addeq	r4, r4, #12288	; 0x3000
80011354:	0a000007 	beq	80011378 <deallocuvm.part.0+0x74>
80011358:	e59a0000 	ldr	r0, [sl]
8001135c:	e3500000 	cmp	r0, #0
80011360:	0a000004 	beq	80011378 <deallocuvm.part.0+0x74>
80011364:	e0100007 	ands	r0, r0, r7
80011368:	0a000007 	beq	8001138c <deallocuvm.part.0+0x88>
8001136c:	e2800102 	add	r0, r0, #-2147483648	; 0x80000000
80011370:	eb00050f 	bl	800127b4 <kfree>
80011374:	e58a8000 	str	r8, [sl]
80011378:	e2844a01 	add	r4, r4, #4096	; 0x1000
8001137c:	e1540005 	cmp	r4, r5
80011380:	3affffeb 	bcc	80011334 <deallocuvm.part.0+0x30>
80011384:	e1a00009 	mov	r0, r9
80011388:	e8bd87f0 	pop	{r4, r5, r6, r7, r8, r9, sl, pc}
8001138c:	e3090114 	movw	r0, #37140	; 0x9114
80011390:	e3480001 	movt	r0, #32769	; 0x8001
80011394:	ebffe934 	bl	8000b86c <panic>

80011398 <setupkvm>:
80011398:	e92d4010 	push	{r4, lr}
8001139c:	eb000568 	bl	80012944 <kalloc>
800113a0:	e2504000 	subs	r4, r0, #0
800113a4:	0a000002 	beq	800113b4 <setupkvm+0x1c>
800113a8:	e3a02a01 	mov	r2, #4096	; 0x1000
800113ac:	e3a01000 	mov	r1, #0
800113b0:	ebffe405 	bl	8000a3cc <memset>
800113b4:	e1a00004 	mov	r0, r4
800113b8:	e8bd8010 	pop	{r4, pc}

800113bc <setupkvm_new>:
800113bc:	e30c3f6c 	movw	r3, #53100	; 0xcf6c
800113c0:	e3a02901 	mov	r2, #16384	; 0x4000
800113c4:	e3483009 	movt	r3, #32777	; 0x8009
800113c8:	e3a01000 	mov	r1, #0
800113cc:	e92d4070 	push	{r4, r5, r6, lr}
800113d0:	e24dd008 	sub	sp, sp, #8
800113d4:	e5936000 	ldr	r6, [r3]
800113d8:	e1a00006 	mov	r0, r6
800113dc:	ebffe3fa 	bl	8000a3cc <memset>
800113e0:	e30c3510 	movw	r3, #50448	; 0xc510
800113e4:	e3483009 	movt	r3, #32777	; 0x8009
800113e8:	e5932000 	ldr	r2, [r3]
800113ec:	e2823102 	add	r3, r2, #-2147483648	; 0x80000000
800113f0:	e353020d 	cmp	r3, #-805306368	; 0xd0000000
800113f4:	8a000016 	bhi	80011454 <setupkvm_new+0x98>
800113f8:	e30a38a8 	movw	r3, #43176	; 0xa8a8
800113fc:	e3483009 	movt	r3, #32777	; 0x8009
80011400:	e2834014 	add	r4, r3, #20
80011404:	e2835050 	add	r5, r3, #80	; 0x50
80011408:	e5832008 	str	r2, [r3, #8]
8001140c:	e5143010 	ldr	r3, [r4, #-16]
80011410:	e1a00006 	mov	r0, r6
80011414:	e9141002 	ldmdb	r4, {r1, ip}
80011418:	e0422003 	sub	r2, r2, r3
8001141c:	e88d1002 	stm	sp, {r1, ip}
80011420:	e5141014 	ldr	r1, [r4, #-20]	; 0xffffffec
80011424:	ebffff78 	bl	8001120c <mappages>
80011428:	e3500000 	cmp	r0, #0
8001142c:	ba000004 	blt	80011444 <setupkvm_new+0x88>
80011430:	e2844014 	add	r4, r4, #20
80011434:	e1540005 	cmp	r4, r5
80011438:	0a000002 	beq	80011448 <setupkvm_new+0x8c>
8001143c:	e514200c 	ldr	r2, [r4, #-12]
80011440:	eafffff1 	b	8001140c <setupkvm_new+0x50>
80011444:	e3a06000 	mov	r6, #0
80011448:	e1a00006 	mov	r0, r6
8001144c:	e28dd008 	add	sp, sp, #8
80011450:	e8bd8070 	pop	{r4, r5, r6, pc}
80011454:	e309011c 	movw	r0, #37148	; 0x911c
80011458:	e3480001 	movt	r0, #32769	; 0x8001
8001145c:	ebffe902 	bl	8000b86c <panic>

80011460 <kvmalloc>:
80011460:	e92d4010 	push	{r4, lr}
80011464:	ebffffd4 	bl	800113bc <setupkvm_new>
80011468:	e30c3f6c 	movw	r3, #53100	; 0xcf6c
8001146c:	e3483009 	movt	r3, #32777	; 0x8009
80011470:	e5830000 	str	r0, [r3]
80011474:	e8bd8010 	pop	{r4, pc}

80011478 <switchkvm>:
80011478:	e12fff1e 	bx	lr

8001147c <switchkvm_new>:
8001147c:	e92d4010 	push	{r4, lr}
80011480:	ebffdb69 	bl	8000822c <dsb_barrier>
80011484:	ebffdb6e 	bl	80008244 <flush_idcache>
80011488:	e30c3f6c 	movw	r3, #53100	; 0xcf6c
8001148c:	e3483009 	movt	r3, #32777	; 0x8009
80011490:	e5930000 	ldr	r0, [r3]
80011494:	e2800102 	add	r0, r0, #-2147483648	; 0x80000000
80011498:	ebffdb77 	bl	8000827c <set_pgtbase>
8001149c:	ebffdb62 	bl	8000822c <dsb_barrier>
800114a0:	e8bd4010 	pop	{r4, lr}
800114a4:	eaffdb69 	b	80008250 <flush_tlb>

800114a8 <switchuvm>:
800114a8:	e92d4010 	push	{r4, lr}
800114ac:	e1a04000 	mov	r4, r0
800114b0:	ebffea3e 	bl	8000bdb0 <pushcli>
800114b4:	e5941004 	ldr	r1, [r4, #4]
800114b8:	e3510000 	cmp	r1, #0
800114bc:	0a000008 	beq	800114e4 <switchuvm+0x3c>
800114c0:	e30c3f6c 	movw	r3, #53100	; 0xcf6c
800114c4:	e3a02a01 	mov	r2, #4096	; 0x1000
800114c8:	e3483009 	movt	r3, #32777	; 0x8009
800114cc:	e5930000 	ldr	r0, [r3]
800114d0:	ebffe3ea 	bl	8000a480 <memmove>
800114d4:	ebffdb5a 	bl	80008244 <flush_idcache>
800114d8:	ebffdb5c 	bl	80008250 <flush_tlb>
800114dc:	e8bd4010 	pop	{r4, lr}
800114e0:	eaffea5f 	b	8000be64 <popcli>
800114e4:	e3090138 	movw	r0, #37176	; 0x9138
800114e8:	e3480001 	movt	r0, #32769	; 0x8001
800114ec:	ebffe8de 	bl	8000b86c <panic>

800114f0 <inituvm>:
800114f0:	e3520a01 	cmp	r2, #4096	; 0x1000
800114f4:	e92d40f0 	push	{r4, r5, r6, r7, lr}
800114f8:	e24dd00c 	sub	sp, sp, #12
800114fc:	2a000016 	bcs	8001155c <inituvm+0x6c>
80011500:	e1a04002 	mov	r4, r2
80011504:	e1a06001 	mov	r6, r1
80011508:	e1a07000 	mov	r7, r0
8001150c:	eb00050c 	bl	80012944 <kalloc>
80011510:	e3a02a01 	mov	r2, #4096	; 0x1000
80011514:	e3a01000 	mov	r1, #0
80011518:	e1a05000 	mov	r5, r0
8001151c:	ebffe3aa 	bl	8000a3cc <memset>
80011520:	e3002dfe 	movw	r2, #3582	; 0xdfe
80011524:	e3a03001 	mov	r3, #1
80011528:	e58d2004 	str	r2, [sp, #4]
8001152c:	e1a00007 	mov	r0, r7
80011530:	e58d3000 	str	r3, [sp]
80011534:	e3a02a01 	mov	r2, #4096	; 0x1000
80011538:	e2853102 	add	r3, r5, #-2147483648	; 0x80000000
8001153c:	e3a01000 	mov	r1, #0
80011540:	ebffff31 	bl	8001120c <mappages>
80011544:	e1a02004 	mov	r2, r4
80011548:	e1a01006 	mov	r1, r6
8001154c:	e1a00005 	mov	r0, r5
80011550:	e28dd00c 	add	sp, sp, #12
80011554:	e8bd40f0 	pop	{r4, r5, r6, r7, lr}
80011558:	eaffe3c8 	b	8000a480 <memmove>
8001155c:	e309014c 	movw	r0, #37196	; 0x914c
80011560:	e3480001 	movt	r0, #32769	; 0x8001
80011564:	ebffe8c0 	bl	8000b86c <panic>

80011568 <loaduvm>:
80011568:	e7ebc051 	ubfx	ip, r1, #0, #12
8001156c:	e35c0000 	cmp	ip, #0
80011570:	e92d4ff8 	push	{r3, r4, r5, r6, r7, r8, r9, sl, fp, lr}
80011574:	e59d5028 	ldr	r5, [sp, #40]	; 0x28
80011578:	1a00002d 	bne	80011634 <loaduvm+0xcc>
8001157c:	e0817005 	add	r7, r1, r5
80011580:	e3570101 	cmp	r7, #1073741824	; 0x40000000
80011584:	8a000027 	bhi	80011628 <loaduvm+0xc0>
80011588:	e3550000 	cmp	r5, #0
8001158c:	0a000020 	beq	80011614 <loaduvm+0xac>
80011590:	e3a08a0f 	mov	r8, #61440	; 0xf000
80011594:	e1a09000 	mov	r9, r0
80011598:	e34f8fff 	movt	r8, #65535	; 0xffff
8001159c:	e1a0a002 	mov	sl, r2
800115a0:	e1a0b003 	mov	fp, r3
800115a4:	e1a04005 	mov	r4, r5
800115a8:	ea000003 	b	800115bc <loaduvm+0x54>
800115ac:	e2444a01 	sub	r4, r4, #4096	; 0x1000
800115b0:	e0453004 	sub	r3, r5, r4
800115b4:	e1550003 	cmp	r5, r3
800115b8:	9a000015 	bls	80011614 <loaduvm+0xac>
800115bc:	e0471004 	sub	r1, r7, r4
800115c0:	e3a03000 	mov	r3, #0
800115c4:	e3a02001 	mov	r2, #1
800115c8:	e1a00009 	mov	r0, r9
800115cc:	ebfffef2 	bl	8001119c <walkpgdir>
800115d0:	e3500000 	cmp	r0, #0
800115d4:	0a000010 	beq	8001161c <loaduvm+0xb4>
800115d8:	e5901000 	ldr	r1, [r0]
800115dc:	e3540a01 	cmp	r4, #4096	; 0x1000
800115e0:	e085200b 	add	r2, r5, fp
800115e4:	31a06004 	movcc	r6, r4
800115e8:	e0422004 	sub	r2, r2, r4
800115ec:	23a06a01 	movcs	r6, #4096	; 0x1000
800115f0:	e0011008 	and	r1, r1, r8
800115f4:	e1a0000a 	mov	r0, sl
800115f8:	e2811102 	add	r1, r1, #-2147483648	; 0x80000000
800115fc:	e1a03006 	mov	r3, r6
80011600:	eb0017fa 	bl	800175f0 <readi>
80011604:	e1500006 	cmp	r0, r6
80011608:	0affffe7 	beq	800115ac <loaduvm+0x44>
8001160c:	e3e00000 	mvn	r0, #0
80011610:	e8bd8ff8 	pop	{r3, r4, r5, r6, r7, r8, r9, sl, fp, pc}
80011614:	e3a00000 	mov	r0, #0
80011618:	e8bd8ff8 	pop	{r3, r4, r5, r6, r7, r8, r9, sl, fp, pc}
8001161c:	e30901d4 	movw	r0, #37332	; 0x91d4
80011620:	e3480001 	movt	r0, #32769	; 0x8001
80011624:	ebffe890 	bl	8000b86c <panic>
80011628:	e309018c 	movw	r0, #37260	; 0x918c
8001162c:	e3480001 	movt	r0, #32769	; 0x8001
80011630:	ebffe88d 	bl	8000b86c <panic>
80011634:	e3090168 	movw	r0, #37224	; 0x9168
80011638:	e3480001 	movt	r0, #32769	; 0x8001
8001163c:	ebffe88a 	bl	8000b86c <panic>

80011640 <allocuvm>:
80011640:	e3720107 	cmn	r2, #-1073741823	; 0xc0000001
80011644:	8a000037 	bhi	80011728 <allocuvm+0xe8>
80011648:	e1520001 	cmp	r2, r1
8001164c:	3a000030 	bcc	80011714 <allocuvm+0xd4>
80011650:	e92d47f0 	push	{r4, r5, r6, r7, r8, r9, sl, lr}
80011654:	e1a07002 	mov	r7, r2
80011658:	e2814eff 	add	r4, r1, #4080	; 0xff0
8001165c:	e3a02a0f 	mov	r2, #61440	; 0xf000
80011660:	e34f2fff 	movt	r2, #65535	; 0xffff
80011664:	e284400f 	add	r4, r4, #15
80011668:	e0044002 	and	r4, r4, r2
8001166c:	e24dd008 	sub	sp, sp, #8
80011670:	e1570004 	cmp	r7, r4
80011674:	e1a09001 	mov	r9, r1
80011678:	e1a08000 	mov	r8, r0
8001167c:	9a000026 	bls	8001171c <allocuvm+0xdc>
80011680:	e2473001 	sub	r3, r7, #1
80011684:	e2846a01 	add	r6, r4, #4096	; 0x1000
80011688:	e0433004 	sub	r3, r3, r4
8001168c:	e300adfe 	movw	sl, #3582	; 0xdfe
80011690:	e0033002 	and	r3, r3, r2
80011694:	e0836006 	add	r6, r3, r6
80011698:	ea00000b 	b	800116cc <allocuvm+0x8c>
8001169c:	ebffe34a 	bl	8000a3cc <memset>
800116a0:	e58da004 	str	sl, [sp, #4]
800116a4:	e3a03001 	mov	r3, #1
800116a8:	e58d3000 	str	r3, [sp]
800116ac:	e3a02a01 	mov	r2, #4096	; 0x1000
800116b0:	e1a01004 	mov	r1, r4
800116b4:	e2853102 	add	r3, r5, #-2147483648	; 0x80000000
800116b8:	e0844002 	add	r4, r4, r2
800116bc:	e1a00008 	mov	r0, r8
800116c0:	ebfffed1 	bl	8001120c <mappages>
800116c4:	e1540006 	cmp	r4, r6
800116c8:	0a000013 	beq	8001171c <allocuvm+0xdc>
800116cc:	eb00049c 	bl	80012944 <kalloc>
800116d0:	e2505000 	subs	r5, r0, #0
800116d4:	e3a02a01 	mov	r2, #4096	; 0x1000
800116d8:	e3a01000 	mov	r1, #0
800116dc:	1affffee 	bne	8001169c <allocuvm+0x5c>
800116e0:	e30901f4 	movw	r0, #37364	; 0x91f4
800116e4:	e3480001 	movt	r0, #32769	; 0x8001
800116e8:	ebffe87c 	bl	8000b8e0 <cprintf>
800116ec:	e1570009 	cmp	r7, r9
800116f0:	03a00000 	moveq	r0, #0
800116f4:	0a000004 	beq	8001170c <allocuvm+0xcc>
800116f8:	e1a02009 	mov	r2, r9
800116fc:	e1a01007 	mov	r1, r7
80011700:	e1a00008 	mov	r0, r8
80011704:	ebfffefe 	bl	80011304 <deallocuvm.part.0>
80011708:	e1a00005 	mov	r0, r5
8001170c:	e28dd008 	add	sp, sp, #8
80011710:	e8bd87f0 	pop	{r4, r5, r6, r7, r8, r9, sl, pc}
80011714:	e1a00001 	mov	r0, r1
80011718:	e12fff1e 	bx	lr
8001171c:	e1a00007 	mov	r0, r7
80011720:	e28dd008 	add	sp, sp, #8
80011724:	e8bd87f0 	pop	{r4, r5, r6, r7, r8, r9, sl, pc}
80011728:	e3a00000 	mov	r0, #0
8001172c:	e12fff1e 	bx	lr

80011730 <deallocuvm>:
80011730:	e1520001 	cmp	r2, r1
80011734:	2a000000 	bcs	8001173c <deallocuvm+0xc>
80011738:	eafffef1 	b	80011304 <deallocuvm.part.0>
8001173c:	e1a00001 	mov	r0, r1
80011740:	e12fff1e 	bx	lr

80011744 <freevm>:
80011744:	e92d41f0 	push	{r4, r5, r6, r7, r8, lr}
80011748:	e2507000 	subs	r7, r0, #0
8001174c:	0a000015 	beq	800117a8 <freevm+0x64>
80011750:	e2875eff 	add	r5, r7, #4080	; 0xff0
80011754:	e3a06a0f 	mov	r6, #61440	; 0xf000
80011758:	e34f6fff 	movt	r6, #65535	; 0xffff
8001175c:	e3a02000 	mov	r2, #0
80011760:	e3a01101 	mov	r1, #1073741824	; 0x40000000
80011764:	e285500c 	add	r5, r5, #12
80011768:	e2474004 	sub	r4, r7, #4
8001176c:	ebfffee4 	bl	80011304 <deallocuvm.part.0>
80011770:	ea000001 	b	8001177c <freevm+0x38>
80011774:	e1540005 	cmp	r4, r5
80011778:	0a000007 	beq	8001179c <freevm+0x58>
8001177c:	e5b40004 	ldr	r0, [r4, #4]!
80011780:	e3500000 	cmp	r0, #0
80011784:	0afffffa 	beq	80011774 <freevm+0x30>
80011788:	e0000006 	and	r0, r0, r6
8001178c:	e2800102 	add	r0, r0, #-2147483648	; 0x80000000
80011790:	eb000407 	bl	800127b4 <kfree>
80011794:	e1540005 	cmp	r4, r5
80011798:	1afffff7 	bne	8001177c <freevm+0x38>
8001179c:	e1a00007 	mov	r0, r7
800117a0:	e8bd41f0 	pop	{r4, r5, r6, r7, r8, lr}
800117a4:	ea000402 	b	800127b4 <kfree>
800117a8:	e309020c 	movw	r0, #37388	; 0x920c
800117ac:	e3480001 	movt	r0, #32769	; 0x8001
800117b0:	ebffe82d 	bl	8000b86c <panic>

800117b4 <clearpteu>:
800117b4:	e92d4010 	push	{r4, lr}
800117b8:	e3a03000 	mov	r3, #0
800117bc:	e3a02001 	mov	r2, #1
800117c0:	ebfffe75 	bl	8001119c <walkpgdir>
800117c4:	e3500000 	cmp	r0, #0
800117c8:	0a000003 	beq	800117dc <clearpteu+0x28>
800117cc:	e5903000 	ldr	r3, [r0]
800117d0:	e3c33eaa 	bic	r3, r3, #2720	; 0xaa0
800117d4:	e5803000 	str	r3, [r0]
800117d8:	e8bd8010 	pop	{r4, pc}
800117dc:	e3090220 	movw	r0, #37408	; 0x9220
800117e0:	e3480001 	movt	r0, #32769	; 0x8001
800117e4:	ebffe820 	bl	8000b86c <panic>

800117e8 <copyuvm>:
800117e8:	e92d4ff0 	push	{r4, r5, r6, r7, r8, r9, sl, fp, lr}
800117ec:	e24dd00c 	sub	sp, sp, #12
800117f0:	e1a09000 	mov	r9, r0
800117f4:	e1a08001 	mov	r8, r1
800117f8:	ebfffee6 	bl	80011398 <setupkvm>
800117fc:	e2506000 	subs	r6, r0, #0
80011800:	0a000027 	beq	800118a4 <copyuvm+0xbc>
80011804:	e3580000 	cmp	r8, #0
80011808:	0a000025 	beq	800118a4 <copyuvm+0xbc>
8001180c:	e3a07a0f 	mov	r7, #61440	; 0xf000
80011810:	e3a05000 	mov	r5, #0
80011814:	e34f7fff 	movt	r7, #65535	; 0xffff
80011818:	ea00000f 	b	8001185c <copyuvm+0x74>
8001181c:	e28b1102 	add	r1, fp, #-2147483648	; 0x80000000
80011820:	e3a02a01 	mov	r2, #4096	; 0x1000
80011824:	ebffe315 	bl	8000a480 <memmove>
80011828:	e58d4004 	str	r4, [sp, #4]
8001182c:	e3a02001 	mov	r2, #1
80011830:	e58d2000 	str	r2, [sp]
80011834:	e28a3102 	add	r3, sl, #-2147483648	; 0x80000000
80011838:	e3a02a01 	mov	r2, #4096	; 0x1000
8001183c:	e1a01005 	mov	r1, r5
80011840:	e1a00006 	mov	r0, r6
80011844:	ebfffe70 	bl	8001120c <mappages>
80011848:	e3500000 	cmp	r0, #0
8001184c:	ba000011 	blt	80011898 <copyuvm+0xb0>
80011850:	e2855a01 	add	r5, r5, #4096	; 0x1000
80011854:	e1580005 	cmp	r8, r5
80011858:	9a000011 	bls	800118a4 <copyuvm+0xbc>
8001185c:	e3a03000 	mov	r3, #0
80011860:	e3a02001 	mov	r2, #1
80011864:	e1a01005 	mov	r1, r5
80011868:	e1a00009 	mov	r0, r9
8001186c:	ebfffe4a 	bl	8001119c <walkpgdir>
80011870:	e3500000 	cmp	r0, #0
80011874:	0a00000d 	beq	800118b0 <copyuvm+0xc8>
80011878:	e5903000 	ldr	r3, [r0]
8001187c:	e3530000 	cmp	r3, #0
80011880:	0a00000d 	beq	800118bc <copyuvm+0xd4>
80011884:	e003b007 	and	fp, r3, r7
80011888:	e7eb4053 	ubfx	r4, r3, #0, #12
8001188c:	eb00042c 	bl	80012944 <kalloc>
80011890:	e250a000 	subs	sl, r0, #0
80011894:	1affffe0 	bne	8001181c <copyuvm+0x34>
80011898:	e1a00006 	mov	r0, r6
8001189c:	e3a06000 	mov	r6, #0
800118a0:	ebffffa7 	bl	80011744 <freevm>
800118a4:	e1a00006 	mov	r0, r6
800118a8:	e28dd00c 	add	sp, sp, #12
800118ac:	e8bd8ff0 	pop	{r4, r5, r6, r7, r8, r9, sl, fp, pc}
800118b0:	e309022c 	movw	r0, #37420	; 0x922c
800118b4:	e3480001 	movt	r0, #32769	; 0x8001
800118b8:	ebffe7eb 	bl	8000b86c <panic>
800118bc:	e3090248 	movw	r0, #37448	; 0x9248
800118c0:	e3480001 	movt	r0, #32769	; 0x8001
800118c4:	ebffe7e8 	bl	8000b86c <panic>

800118c8 <uva2ka>:
800118c8:	e92d4010 	push	{r4, lr}
800118cc:	e3a03000 	mov	r3, #0
800118d0:	e3a02001 	mov	r2, #1
800118d4:	ebfffe30 	bl	8001119c <walkpgdir>
800118d8:	e5900000 	ldr	r0, [r0]
800118dc:	e3500000 	cmp	r0, #0
800118e0:	08bd8010 	popeq	{r4, pc}
800118e4:	e2103eaa 	ands	r3, r0, #2720	; 0xaa0
800118e8:	13c00eff 	bicne	r0, r0, #4080	; 0xff0
800118ec:	13c0000f 	bicne	r0, r0, #15
800118f0:	12800102 	addne	r0, r0, #-2147483648	; 0x80000000
800118f4:	01a00003 	moveq	r0, r3
800118f8:	e8bd8010 	pop	{r4, pc}

800118fc <copyout>:
800118fc:	e92d47f0 	push	{r4, r5, r6, r7, r8, r9, sl, lr}
80011900:	e2536000 	subs	r6, r3, #0
80011904:	0a00001a 	beq	80011974 <copyout+0x78>
80011908:	e3a08a0f 	mov	r8, #61440	; 0xf000
8001190c:	e1a09000 	mov	r9, r0
80011910:	e34f8fff 	movt	r8, #65535	; 0xffff
80011914:	e1a0a001 	mov	sl, r1
80011918:	e1a07002 	mov	r7, r2
8001191c:	ea000006 	b	8001193c <copyout+0x40>
80011920:	e1540006 	cmp	r4, r6
80011924:	21a04006 	movcs	r4, r6
80011928:	e0877004 	add	r7, r7, r4
8001192c:	e1a02004 	mov	r2, r4
80011930:	ebffe2d2 	bl	8000a480 <memmove>
80011934:	e0566004 	subs	r6, r6, r4
80011938:	0a00000d 	beq	80011974 <copyout+0x78>
8001193c:	e00a5008 	and	r5, sl, r8
80011940:	e1a00009 	mov	r0, r9
80011944:	e045400a 	sub	r4, r5, sl
80011948:	e1a01005 	mov	r1, r5
8001194c:	e2844a01 	add	r4, r4, #4096	; 0x1000
80011950:	ebffffdc 	bl	800118c8 <uva2ka>
80011954:	e04a3005 	sub	r3, sl, r5
80011958:	e3500000 	cmp	r0, #0
8001195c:	e0800003 	add	r0, r0, r3
80011960:	e1a01007 	mov	r1, r7
80011964:	e285aa01 	add	sl, r5, #4096	; 0x1000
80011968:	1affffec 	bne	80011920 <copyout+0x24>
8001196c:	e3e00000 	mvn	r0, #0
80011970:	e8bd87f0 	pop	{r4, r5, r6, r7, r8, r9, sl, pc}
80011974:	e3a00000 	mov	r0, #0
80011978:	e8bd87f0 	pop	{r4, r5, r6, r7, r8, r9, sl, pc}

8001197c <usbgetc>:
8001197c:	e30a39b4 	movw	r3, #43444	; 0xa9b4
80011980:	e3483009 	movt	r3, #32777	; 0x8009
80011984:	e5932000 	ldr	r2, [r3]
80011988:	e5931004 	ldr	r1, [r3, #4]
8001198c:	e1520001 	cmp	r2, r1
80011990:	35d20000 	ldrbcc	r0, [r2]
80011994:	32822001 	addcc	r2, r2, #1
80011998:	35832000 	strcc	r2, [r3]
8001199c:	23e00000 	mvncs	r0, #0
800119a0:	e12fff1e 	bx	lr

800119a4 <KeyPressedHandler>:
800119a4:	e1a02000 	mov	r2, r0
800119a8:	e1a0c000 	mov	ip, r0
800119ac:	e4d23001 	ldrb	r3, [r2], #1
800119b0:	e3530000 	cmp	r3, #0
800119b4:	0a00000c 	beq	800119ec <KeyPressedHandler+0x48>
800119b8:	e3a03000 	mov	r3, #0
800119bc:	e4d21001 	ldrb	r1, [r2], #1
800119c0:	e2833001 	add	r3, r3, #1
800119c4:	e3510000 	cmp	r1, #0
800119c8:	1afffffb 	bne	800119bc <KeyPressedHandler+0x18>
800119cc:	e08c3003 	add	r3, ip, r3
800119d0:	e30a29b4 	movw	r2, #43444	; 0xa9b4
800119d4:	e301097c 	movw	r0, #6524	; 0x197c
800119d8:	e3482009 	movt	r2, #32777	; 0x8009
800119dc:	e3480001 	movt	r0, #32769	; 0x8001
800119e0:	e582c000 	str	ip, [r2]
800119e4:	e5823004 	str	r3, [r2, #4]
800119e8:	eaffe84b 	b	8000bb1c <consoleintr>
800119ec:	e1a03000 	mov	r3, r0
800119f0:	eafffff6 	b	800119d0 <KeyPressedHandler+0x2c>

800119f4 <malloc>:
800119f4:	e3500a01 	cmp	r0, #4096	; 0x1000
800119f8:	8a000000 	bhi	80011a00 <malloc+0xc>
800119fc:	ea0003d0 	b	80012944 <kalloc>
80011a00:	e3090264 	movw	r0, #37476	; 0x9264
80011a04:	e92d4010 	push	{r4, lr}
80011a08:	e3480001 	movt	r0, #32769	; 0x8001
80011a0c:	ebffe796 	bl	8000b86c <panic>

80011a10 <free>:
80011a10:	ea000367 	b	800127b4 <kfree>

80011a14 <MsDelay>:
80011a14:	e3a02a03 	mov	r2, #12288	; 0x3000
80011a18:	e3a03ffa 	mov	r3, #1000	; 0x3e8
80011a1c:	e34d2000 	movt	r2, #53248	; 0xd000
80011a20:	e592c004 	ldr	ip, [r2, #4]
80011a24:	e5921004 	ldr	r1, [r2, #4]
80011a28:	e020c093 	mla	r0, r3, r0, ip
80011a2c:	e1500001 	cmp	r0, r1
80011a30:	912fff1e 	bxls	lr
80011a34:	e320f000 	nop	{0}
80011a38:	e5923004 	ldr	r3, [r2, #4]
80011a3c:	e1500003 	cmp	r0, r3
80011a40:	8afffffb 	bhi	80011a34 <MsDelay+0x20>
80011a44:	e12fff1e 	bx	lr

80011a48 <usDelay>:
80011a48:	e3a02a03 	mov	r2, #12288	; 0x3000
80011a4c:	e34d2000 	movt	r2, #53248	; 0xd000
80011a50:	e5923004 	ldr	r3, [r2, #4]
80011a54:	e5921004 	ldr	r1, [r2, #4]
80011a58:	e0830000 	add	r0, r3, r0
80011a5c:	e1500001 	cmp	r0, r1
80011a60:	912fff1e 	bxls	lr
80011a64:	e320f000 	nop	{0}
80011a68:	e5923004 	ldr	r3, [r2, #4]
80011a6c:	e1530000 	cmp	r3, r0
80011a70:	3afffffb 	bcc	80011a64 <usDelay+0x1c>
80011a74:	e12fff1e 	bx	lr

80011a78 <StartKernelTimer>:
80011a78:	e92d40f0 	push	{r4, r5, r6, r7, lr}
80011a7c:	e24dd00c 	sub	sp, sp, #12
80011a80:	e1a05001 	mov	r5, r1
80011a84:	e1a06002 	mov	r6, r2
80011a88:	e1a07003 	mov	r7, r3
80011a8c:	e1a04000 	mov	r4, r0
80011a90:	ebffeb68 	bl	8000c838 <TimerGet>
80011a94:	e58d7000 	str	r7, [sp]
80011a98:	e1a03006 	mov	r3, r6
80011a9c:	e1a02005 	mov	r2, r5
80011aa0:	e1a01004 	mov	r1, r4
80011aa4:	ebffeb36 	bl	8000c784 <TimerStartKernelTimer>
80011aa8:	e28dd00c 	add	sp, sp, #12
80011aac:	e8bd80f0 	pop	{r4, r5, r6, r7, pc}

80011ab0 <CancelKernelTimer>:
80011ab0:	e92d4010 	push	{r4, lr}
80011ab4:	e1a04000 	mov	r4, r0
80011ab8:	ebffeb5e 	bl	8000c838 <TimerGet>
80011abc:	e1a01004 	mov	r1, r4
80011ac0:	e8bd4010 	pop	{r4, lr}
80011ac4:	eaffeb4c 	b	8000c7fc <TimerCancelKernelTimer>

80011ac8 <SetPowerStateOn>:
80011ac8:	e92d4070 	push	{r4, r5, r6, lr}
80011acc:	e1a05000 	mov	r5, r0
80011ad0:	e3090284 	movw	r0, #37508	; 0x9284
80011ad4:	e1a01005 	mov	r1, r5
80011ad8:	e3480001 	movt	r0, #32769	; 0x8001
80011adc:	ebffe77f 	bl	8000b8e0 <cprintf>
80011ae0:	e3a01a0b 	mov	r1, #45056	; 0xb000
80011ae4:	e34d1000 	movt	r1, #53248	; 0xd000
80011ae8:	e5913898 	ldr	r3, [r1, #2200]	; 0x898
80011aec:	e3530000 	cmp	r3, #0
80011af0:	bafffffc 	blt	80011ae8 <SetPowerStateOn+0x20>
80011af4:	e3a02a0b 	mov	r2, #45056	; 0xb000
80011af8:	e3a03080 	mov	r3, #128	; 0x80
80011afc:	e34d2000 	movt	r2, #53248	; 0xd000
80011b00:	e58138a0 	str	r3, [r1, #2208]	; 0x8a0
80011b04:	e5923898 	ldr	r3, [r2, #2200]	; 0x898
80011b08:	e3130101 	tst	r3, #1073741824	; 0x40000000
80011b0c:	1afffffc 	bne	80011b04 <SetPowerStateOn+0x3c>
80011b10:	e5923880 	ldr	r3, [r2, #2176]	; 0x880
80011b14:	e213400f 	ands	r4, r3, #15
80011b18:	1afffff9 	bne	80011b04 <SetPowerStateOn+0x3c>
80011b1c:	e3530080 	cmp	r3, #128	; 0x80
80011b20:	0a000005 	beq	80011b3c <SetPowerStateOn+0x74>
80011b24:	e30902bc 	movw	r0, #37564	; 0x92bc
80011b28:	e1a01005 	mov	r1, r5
80011b2c:	e3480001 	movt	r0, #32769	; 0x8001
80011b30:	ebffe76a 	bl	8000b8e0 <cprintf>
80011b34:	e1a00004 	mov	r0, r4
80011b38:	e8bd8070 	pop	{r4, r5, r6, pc}
80011b3c:	e30902a0 	movw	r0, #37536	; 0x92a0
80011b40:	e1a01005 	mov	r1, r5
80011b44:	e3480001 	movt	r0, #32769	; 0x8001
80011b48:	ebffe764 	bl	8000b8e0 <cprintf>
80011b4c:	e3a00001 	mov	r0, #1
80011b50:	e8bd8070 	pop	{r4, r5, r6, pc}

80011b54 <GetMACAddress>:
80011b54:	e3a00000 	mov	r0, #0
80011b58:	e12fff1e 	bx	lr

80011b5c <LogWrite>:
80011b5c:	e92d000c 	push	{r2, r3}
80011b60:	e92d4010 	push	{r4, lr}
80011b64:	e24dd010 	sub	sp, sp, #16
80011b68:	e28d301c 	add	r3, sp, #28
80011b6c:	e1a04000 	mov	r4, r0
80011b70:	e58d3000 	str	r3, [sp]
80011b74:	e28d0004 	add	r0, sp, #4
80011b78:	ebffdb92 	bl	800089c8 <String>
80011b7c:	e59d2000 	ldr	r2, [sp]
80011b80:	e28d0004 	add	r0, sp, #4
80011b84:	e59d1018 	ldr	r1, [sp, #24]
80011b88:	ebffdc17 	bl	80008bec <StringFormatV>
80011b8c:	e28d0004 	add	r0, sp, #4
80011b90:	ebffdba6 	bl	80008a30 <StringGet>
80011b94:	e1a02000 	mov	r2, r0
80011b98:	e30902dc 	movw	r0, #37596	; 0x92dc
80011b9c:	e3480001 	movt	r0, #32769	; 0x8001
80011ba0:	e1a01004 	mov	r1, r4
80011ba4:	ebffe74d 	bl	8000b8e0 <cprintf>
80011ba8:	e28dd010 	add	sp, sp, #16
80011bac:	e8bd4010 	pop	{r4, lr}
80011bb0:	e28dd008 	add	sp, sp, #8
80011bb4:	e12fff1e 	bx	lr

80011bb8 <usbinit>:
80011bb8:	e92d4010 	push	{r4, lr}
80011bbc:	ebffda3c 	bl	800084b4 <sti>
80011bc0:	e59f00b4 	ldr	r0, [pc, #180]	; 80011c7c <usbinit+0xc4>
80011bc4:	ebffeaca 	bl	8000c6f4 <TimerEnvInit>
80011bc8:	e59f00ac 	ldr	r0, [pc, #172]	; 80011c7c <usbinit+0xc4>
80011bcc:	ebffeb86 	bl	8000c9ec <TimerInitialize>
80011bd0:	e2504000 	subs	r4, r0, #0
80011bd4:	0a000018 	beq	80011c3c <usbinit+0x84>
80011bd8:	e3090308 	movw	r0, #37640	; 0x9308
80011bdc:	e3021710 	movw	r1, #10000	; 0x2710
80011be0:	e3480001 	movt	r0, #32769	; 0x8001
80011be4:	ebffe73d 	bl	8000b8e0 <cprintf>
80011be8:	ebfffb99 	bl	80010a54 <USPiInitialize>
80011bec:	e2504000 	subs	r4, r0, #0
80011bf0:	1a000005 	bne	80011c0c <usbinit+0x54>
80011bf4:	e309032c 	movw	r0, #37676	; 0x932c
80011bf8:	e3480001 	movt	r0, #32769	; 0x8001
80011bfc:	ebffe737 	bl	8000b8e0 <cprintf>
80011c00:	ebffda27 	bl	800084a4 <cli>
80011c04:	e1a00004 	mov	r0, r4
80011c08:	e8bd8010 	pop	{r4, pc}
80011c0c:	e3090344 	movw	r0, #37700	; 0x9344
80011c10:	e3480001 	movt	r0, #32769	; 0x8001
80011c14:	ebffe731 	bl	8000b8e0 <cprintf>
80011c18:	ebfffc11 	bl	80010c64 <USPiKeyboardAvailable>
80011c1c:	e3500000 	cmp	r0, #0
80011c20:	1a00000c 	bne	80011c58 <usbinit+0xa0>
80011c24:	e3090358 	movw	r0, #37720	; 0x9358
80011c28:	e3a04001 	mov	r4, #1
80011c2c:	e3480001 	movt	r0, #32769	; 0x8001
80011c30:	ebffe72a 	bl	8000b8e0 <cprintf>
80011c34:	e1a00004 	mov	r0, r4
80011c38:	e8bd8010 	pop	{r4, pc}
80011c3c:	e30902ec 	movw	r0, #37612	; 0x92ec
80011c40:	e3480001 	movt	r0, #32769	; 0x8001
80011c44:	ebffe725 	bl	8000b8e0 <cprintf>
80011c48:	e59f002c 	ldr	r0, [pc, #44]	; 80011c7c <usbinit+0xc4>
80011c4c:	ebffeabc 	bl	8000c744 <_Timer>
80011c50:	e1a00004 	mov	r0, r4
80011c54:	e8bd8010 	pop	{r4, pc}
80011c58:	e3090374 	movw	r0, #37748	; 0x9374
80011c5c:	e3a04001 	mov	r4, #1
80011c60:	e3480001 	movt	r0, #32769	; 0x8001
80011c64:	ebffe71d 	bl	8000b8e0 <cprintf>
80011c68:	e30109a4 	movw	r0, #6564	; 0x19a4
80011c6c:	e3480001 	movt	r0, #32769	; 0x8001
80011c70:	ebfffc02 	bl	80010c80 <USPiKeyboardRegisterKeyPressedHandler>
80011c74:	e1a00004 	mov	r0, r4
80011c78:	e8bd8010 	pop	{r4, pc}
80011c7c:	8009a9bc 	.word	0x8009a9bc

80011c80 <sys_fork>:
80011c80:	ea000e12 	b	800154d0 <fork>

80011c84 <sys_exit>:
80011c84:	e92d4010 	push	{r4, lr}
80011c88:	eb000e9b 	bl	800156fc <exit>
80011c8c:	e3a00000 	mov	r0, #0
80011c90:	e8bd8010 	pop	{r4, pc}

80011c94 <sys_wait>:
80011c94:	ea000f23 	b	80015928 <wait>

80011c98 <sys_kill>:
80011c98:	e52de004 	push	{lr}		; (str lr, [sp, #-4]!)
80011c9c:	e24dd00c 	sub	sp, sp, #12
80011ca0:	e28d1004 	add	r1, sp, #4
80011ca4:	e3a00000 	mov	r0, #0
80011ca8:	ebffecbc 	bl	8000cfa0 <argint>
80011cac:	e3500000 	cmp	r0, #0
80011cb0:	ba000003 	blt	80011cc4 <sys_kill+0x2c>
80011cb4:	e59d0004 	ldr	r0, [sp, #4]
80011cb8:	eb000f66 	bl	80015a58 <kill>
80011cbc:	e28dd00c 	add	sp, sp, #12
80011cc0:	e49df004 	pop	{pc}		; (ldr pc, [sp], #4)
80011cc4:	e3e00000 	mvn	r0, #0
80011cc8:	eafffffb 	b	80011cbc <sys_kill+0x24>

80011ccc <sys_getpid>:
80011ccc:	e30a3b14 	movw	r3, #43796	; 0xab14
80011cd0:	e3483009 	movt	r3, #32777	; 0x8009
80011cd4:	e5933018 	ldr	r3, [r3, #24]
80011cd8:	e5930010 	ldr	r0, [r3, #16]
80011cdc:	e12fff1e 	bx	lr

80011ce0 <sys_sbrk>:
80011ce0:	e92d4010 	push	{r4, lr}
80011ce4:	e24dd008 	sub	sp, sp, #8
80011ce8:	e28d1004 	add	r1, sp, #4
80011cec:	e3a00000 	mov	r0, #0
80011cf0:	ebffecaa 	bl	8000cfa0 <argint>
80011cf4:	e3500000 	cmp	r0, #0
80011cf8:	ba00000a 	blt	80011d28 <sys_sbrk+0x48>
80011cfc:	e59d0004 	ldr	r0, [sp, #4]
80011d00:	e30a3b14 	movw	r3, #43796	; 0xab14
80011d04:	e3483009 	movt	r3, #32777	; 0x8009
80011d08:	e5933018 	ldr	r3, [r3, #24]
80011d0c:	e5934000 	ldr	r4, [r3]
80011d10:	eb000dd4 	bl	80015468 <growproc>
80011d14:	e3500000 	cmp	r0, #0
80011d18:	ba000002 	blt	80011d28 <sys_sbrk+0x48>
80011d1c:	e1a00004 	mov	r0, r4
80011d20:	e28dd008 	add	sp, sp, #8
80011d24:	e8bd8010 	pop	{r4, pc}
80011d28:	e3e04000 	mvn	r4, #0
80011d2c:	eafffffa 	b	80011d1c <sys_sbrk+0x3c>

80011d30 <sys_sleep>:
80011d30:	e92d41f0 	push	{r4, r5, r6, r7, r8, lr}
80011d34:	e24dd008 	sub	sp, sp, #8
80011d38:	e28d1004 	add	r1, sp, #4
80011d3c:	e3a00000 	mov	r0, #0
80011d40:	ebffec96 	bl	8000cfa0 <argint>
80011d44:	e3500000 	cmp	r0, #0
80011d48:	ba00002a 	blt	80011df8 <sys_sleep+0xc8>
80011d4c:	e30a0d64 	movw	r0, #44388	; 0xad64
80011d50:	e30a7d9c 	movw	r7, #44444	; 0xad9c
80011d54:	e3480009 	movt	r0, #32777	; 0x8009
80011d58:	e3487009 	movt	r7, #32777	; 0x8009
80011d5c:	ebffe821 	bl	8000bde8 <acquire>
80011d60:	e59d3004 	ldr	r3, [sp, #4]
80011d64:	e5975000 	ldr	r5, [r7]
80011d68:	e3530000 	cmp	r3, #0
80011d6c:	0a000015 	beq	80011dc8 <sys_sleep+0x98>
80011d70:	e30a8b14 	movw	r8, #43796	; 0xab14
80011d74:	e3488009 	movt	r8, #32777	; 0x8009
80011d78:	e5983018 	ldr	r3, [r8, #24]
80011d7c:	e5933024 	ldr	r3, [r3, #36]	; 0x24
80011d80:	e3530000 	cmp	r3, #0
80011d84:	1a000015 	bne	80011de0 <sys_sleep+0xb0>
80011d88:	e30a4d64 	movw	r4, #44388	; 0xad64
80011d8c:	e1a06007 	mov	r6, r7
80011d90:	e3484009 	movt	r4, #32777	; 0x8009
80011d94:	ea000003 	b	80011da8 <sys_sleep+0x78>
80011d98:	e5983018 	ldr	r3, [r8, #24]
80011d9c:	e5933024 	ldr	r3, [r3, #36]	; 0x24
80011da0:	e3530000 	cmp	r3, #0
80011da4:	1a00000d 	bne	80011de0 <sys_sleep+0xb0>
80011da8:	e1a01004 	mov	r1, r4
80011dac:	e1a00006 	mov	r0, r6
80011db0:	eb000eaf 	bl	80015874 <sleep>
80011db4:	e5973000 	ldr	r3, [r7]
80011db8:	e59d2004 	ldr	r2, [sp, #4]
80011dbc:	e0433005 	sub	r3, r3, r5
80011dc0:	e1530002 	cmp	r3, r2
80011dc4:	3afffff3 	bcc	80011d98 <sys_sleep+0x68>
80011dc8:	e30a0d64 	movw	r0, #44388	; 0xad64
80011dcc:	e3480009 	movt	r0, #32777	; 0x8009
80011dd0:	ebffe83a 	bl	8000bec0 <release>
80011dd4:	e3a00000 	mov	r0, #0
80011dd8:	e28dd008 	add	sp, sp, #8
80011ddc:	e8bd81f0 	pop	{r4, r5, r6, r7, r8, pc}
80011de0:	e30a0d64 	movw	r0, #44388	; 0xad64
80011de4:	e3480009 	movt	r0, #32777	; 0x8009
80011de8:	ebffe834 	bl	8000bec0 <release>
80011dec:	e3e00000 	mvn	r0, #0
80011df0:	e28dd008 	add	sp, sp, #8
80011df4:	e8bd81f0 	pop	{r4, r5, r6, r7, r8, pc}
80011df8:	e3e00000 	mvn	r0, #0
80011dfc:	eafffff5 	b	80011dd8 <sys_sleep+0xa8>

80011e00 <sys_uptime>:
80011e00:	e92d4010 	push	{r4, lr}
80011e04:	e30a4d64 	movw	r4, #44388	; 0xad64
80011e08:	e3484009 	movt	r4, #32777	; 0x8009
80011e0c:	e1a00004 	mov	r0, r4
80011e10:	ebffe7f4 	bl	8000bde8 <acquire>
80011e14:	e30a3d9c 	movw	r3, #44444	; 0xad9c
80011e18:	e1a00004 	mov	r0, r4
80011e1c:	e3483009 	movt	r3, #32777	; 0x8009
80011e20:	e5934000 	ldr	r4, [r3]
80011e24:	ebffe825 	bl	8000bec0 <release>
80011e28:	e1a00004 	mov	r0, r4
80011e2c:	e8bd8010 	pop	{r4, pc}

80011e30 <MACAddress>:
80011e30:	e3a03000 	mov	r3, #0
80011e34:	e5803000 	str	r3, [r0]
80011e38:	e12fff1e 	bx	lr

80011e3c <MACAddress2>:
80011e3c:	e92d4010 	push	{r4, lr}
80011e40:	e3a02006 	mov	r2, #6
80011e44:	e1a04000 	mov	r4, r0
80011e48:	e2800004 	add	r0, r0, #4
80011e4c:	eb0002e0 	bl	800129d4 <uspi_memcpy>
80011e50:	e3a03001 	mov	r3, #1
80011e54:	e5843000 	str	r3, [r4]
80011e58:	e8bd8010 	pop	{r4, pc}

80011e5c <_MACAddress>:
80011e5c:	e3a03000 	mov	r3, #0
80011e60:	e5803000 	str	r3, [r0]
80011e64:	e12fff1e 	bx	lr

80011e68 <MACAddressIsEqual>:
80011e68:	e92d4010 	push	{r4, lr}
80011e6c:	e2811004 	add	r1, r1, #4
80011e70:	e3a02006 	mov	r2, #6
80011e74:	e2800004 	add	r0, r0, #4
80011e78:	eb0002de 	bl	800129f8 <uspi_memcmp>
80011e7c:	e16f0f10 	clz	r0, r0
80011e80:	e1a002a0 	lsr	r0, r0, #5
80011e84:	e8bd8010 	pop	{r4, pc}

80011e88 <MACAddressSet>:
80011e88:	eaffffeb 	b	80011e3c <MACAddress2>

80011e8c <MACAddressSetBroadcast>:
80011e8c:	e92d4010 	push	{r4, lr}
80011e90:	e3a02006 	mov	r2, #6
80011e94:	e1a04000 	mov	r4, r0
80011e98:	e3a010ff 	mov	r1, #255	; 0xff
80011e9c:	e2800004 	add	r0, r0, #4
80011ea0:	eb0002c2 	bl	800129b0 <uspi_memset>
80011ea4:	e3a03001 	mov	r3, #1
80011ea8:	e5843000 	str	r3, [r4]
80011eac:	e8bd8010 	pop	{r4, pc}

80011eb0 <MACAddressGet>:
80011eb0:	e2800004 	add	r0, r0, #4
80011eb4:	e12fff1e 	bx	lr

80011eb8 <MACAddressCopyTo>:
80011eb8:	e1a03001 	mov	r3, r1
80011ebc:	e3a02006 	mov	r2, #6
80011ec0:	e2801004 	add	r1, r0, #4
80011ec4:	e1a00003 	mov	r0, r3
80011ec8:	ea0002c1 	b	800129d4 <uspi_memcpy>

80011ecc <MACAddressIsBroadcast>:
80011ecc:	e2803004 	add	r3, r0, #4
80011ed0:	e280000a 	add	r0, r0, #10
80011ed4:	e4d32001 	ldrb	r2, [r3], #1
80011ed8:	e35200ff 	cmp	r2, #255	; 0xff
80011edc:	1a000003 	bne	80011ef0 <MACAddressIsBroadcast+0x24>
80011ee0:	e1530000 	cmp	r3, r0
80011ee4:	1afffffa 	bne	80011ed4 <MACAddressIsBroadcast+0x8>
80011ee8:	e3a00001 	mov	r0, #1
80011eec:	e12fff1e 	bx	lr
80011ef0:	e3a00000 	mov	r0, #0
80011ef4:	e12fff1e 	bx	lr

80011ef8 <MACAddressGetSize>:
80011ef8:	e3a00006 	mov	r0, #6
80011efc:	e12fff1e 	bx	lr

80011f00 <MACAddressFormat>:
80011f00:	e1a02000 	mov	r2, r0
80011f04:	e1a00001 	mov	r0, r1
80011f08:	e52de004 	push	{lr}		; (str lr, [sp, #-4]!)
80011f0c:	e24dd014 	sub	sp, sp, #20
80011f10:	e5d23009 	ldrb	r3, [r2, #9]
80011f14:	e3091388 	movw	r1, #37768	; 0x9388
80011f18:	e5d2e008 	ldrb	lr, [r2, #8]
80011f1c:	e5d2c007 	ldrb	ip, [r2, #7]
80011f20:	e58d300c 	str	r3, [sp, #12]
80011f24:	e5d23006 	ldrb	r3, [r2, #6]
80011f28:	e3481001 	movt	r1, #32769	; 0x8001
80011f2c:	e88d5008 	stm	sp, {r3, ip, lr}
80011f30:	e5d23005 	ldrb	r3, [r2, #5]
80011f34:	e5d22004 	ldrb	r2, [r2, #4]
80011f38:	ebffdcdb 	bl	800092ac <StringFormat>
80011f3c:	e28dd014 	add	sp, sp, #20
80011f40:	e49df004 	pop	{pc}		; (ldr pc, [sp], #4)

80011f44 <pipealloc>:
80011f44:	e92d41f0 	push	{r4, r5, r6, r7, r8, lr}
80011f48:	e3a04000 	mov	r4, #0
80011f4c:	e5814000 	str	r4, [r1]
80011f50:	e1a05000 	mov	r5, r0
80011f54:	e5804000 	str	r4, [r0]
80011f58:	e1a06001 	mov	r6, r1
80011f5c:	ebfff8f5 	bl	80010338 <filealloc>
80011f60:	e1500004 	cmp	r0, r4
80011f64:	e5850000 	str	r0, [r5]
80011f68:	0a000021 	beq	80011ff4 <pipealloc+0xb0>
80011f6c:	ebfff8f1 	bl	80010338 <filealloc>
80011f70:	e1500004 	cmp	r0, r4
80011f74:	e5860000 	str	r0, [r6]
80011f78:	0a000019 	beq	80011fe4 <pipealloc+0xa0>
80011f7c:	eb000270 	bl	80012944 <kalloc>
80011f80:	e2507000 	subs	r7, r0, #0
80011f84:	0a000020 	beq	8001200c <pipealloc+0xc8>
80011f88:	e3a02a01 	mov	r2, #4096	; 0x1000
80011f8c:	e1a01004 	mov	r1, r4
80011f90:	e3a08001 	mov	r8, #1
80011f94:	ebffe10c 	bl	8000a3cc <memset>
80011f98:	e5874238 	str	r4, [r7, #568]	; 0x238
80011f9c:	e30913a8 	movw	r1, #37800	; 0x93a8
80011fa0:	e5874234 	str	r4, [r7, #564]	; 0x234
80011fa4:	e1a00007 	mov	r0, r7
80011fa8:	e587823c 	str	r8, [r7, #572]	; 0x23c
80011fac:	e5878240 	str	r8, [r7, #576]	; 0x240
80011fb0:	e3481001 	movt	r1, #32769	; 0x8001
80011fb4:	ebffe76d 	bl	8000bd70 <initlock>
80011fb8:	e5952000 	ldr	r2, [r5]
80011fbc:	e3a01c01 	mov	r1, #256	; 0x100
80011fc0:	e1a00004 	mov	r0, r4
80011fc4:	e1c280b8 	strh	r8, [r2, #8]
80011fc8:	e5963000 	ldr	r3, [r6]
80011fcc:	e5828000 	str	r8, [r2]
80011fd0:	e582700c 	str	r7, [r2, #12]
80011fd4:	e5838000 	str	r8, [r3]
80011fd8:	e583700c 	str	r7, [r3, #12]
80011fdc:	e1c310b8 	strh	r1, [r3, #8]
80011fe0:	e8bd81f0 	pop	{r4, r5, r6, r7, r8, pc}
80011fe4:	e5950000 	ldr	r0, [r5]
80011fe8:	e3500000 	cmp	r0, #0
80011fec:	0a000004 	beq	80012004 <pipealloc+0xc0>
80011ff0:	ebfff8fd 	bl	800103ec <fileclose>
80011ff4:	e5960000 	ldr	r0, [r6]
80011ff8:	e3500000 	cmp	r0, #0
80011ffc:	0a000000 	beq	80012004 <pipealloc+0xc0>
80012000:	ebfff8f9 	bl	800103ec <fileclose>
80012004:	e3e00000 	mvn	r0, #0
80012008:	e8bd81f0 	pop	{r4, r5, r6, r7, r8, pc}
8001200c:	e5950000 	ldr	r0, [r5]
80012010:	e3500000 	cmp	r0, #0
80012014:	1afffff5 	bne	80011ff0 <pipealloc+0xac>
80012018:	eafffff5 	b	80011ff4 <pipealloc+0xb0>

8001201c <pipeclose>:
8001201c:	e92d4070 	push	{r4, r5, r6, lr}
80012020:	e1a05001 	mov	r5, r1
80012024:	e1a04000 	mov	r4, r0
80012028:	ebffe76e 	bl	8000bde8 <acquire>
8001202c:	e3550000 	cmp	r5, #0
80012030:	0584523c 	streq	r5, [r4, #572]	; 0x23c
80012034:	13a03000 	movne	r3, #0
80012038:	15843240 	strne	r3, [r4, #576]	; 0x240
8001203c:	12840f8d 	addne	r0, r4, #564	; 0x234
80012040:	02840f8e 	addeq	r0, r4, #568	; 0x238
80012044:	eb000e6d 	bl	80015a00 <wakeup>
80012048:	e594323c 	ldr	r3, [r4, #572]	; 0x23c
8001204c:	e1a00004 	mov	r0, r4
80012050:	e3530000 	cmp	r3, #0
80012054:	1a000002 	bne	80012064 <pipeclose+0x48>
80012058:	e5943240 	ldr	r3, [r4, #576]	; 0x240
8001205c:	e3530000 	cmp	r3, #0
80012060:	0a000001 	beq	8001206c <pipeclose+0x50>
80012064:	e8bd4070 	pop	{r4, r5, r6, lr}
80012068:	eaffe794 	b	8000bec0 <release>
8001206c:	ebffe793 	bl	8000bec0 <release>
80012070:	e1a00004 	mov	r0, r4
80012074:	e8bd4070 	pop	{r4, r5, r6, lr}
80012078:	ea0001cd 	b	800127b4 <kfree>

8001207c <pipewrite>:
8001207c:	e92d47f0 	push	{r4, r5, r6, r7, r8, r9, sl, lr}
80012080:	e1a08002 	mov	r8, r2
80012084:	e1a07001 	mov	r7, r1
80012088:	e1a04000 	mov	r4, r0
8001208c:	ebffe755 	bl	8000bde8 <acquire>
80012090:	e3580000 	cmp	r8, #0
80012094:	da000028 	ble	8001213c <pipewrite+0xc0>
80012098:	e5942238 	ldr	r2, [r4, #568]	; 0x238
8001209c:	e2477001 	sub	r7, r7, #1
800120a0:	e0879008 	add	r9, r7, r8
800120a4:	e30aab14 	movw	sl, #43796	; 0xab14
800120a8:	e348a009 	movt	sl, #32777	; 0x8009
800120ac:	e2846f8d 	add	r6, r4, #564	; 0x234
800120b0:	e2845f8e 	add	r5, r4, #568	; 0x238
800120b4:	e5943234 	ldr	r3, [r4, #564]	; 0x234
800120b8:	e2833c02 	add	r3, r3, #512	; 0x200
800120bc:	e1520003 	cmp	r2, r3
800120c0:	0a00000e 	beq	80012100 <pipewrite+0x84>
800120c4:	ea000014 	b	8001211c <pipewrite+0xa0>
800120c8:	e59a3018 	ldr	r3, [sl, #24]
800120cc:	e5933024 	ldr	r3, [r3, #36]	; 0x24
800120d0:	e3530000 	cmp	r3, #0
800120d4:	1a00000c 	bne	8001210c <pipewrite+0x90>
800120d8:	e1a00006 	mov	r0, r6
800120dc:	eb000e47 	bl	80015a00 <wakeup>
800120e0:	e1a01004 	mov	r1, r4
800120e4:	e1a00005 	mov	r0, r5
800120e8:	eb000de1 	bl	80015874 <sleep>
800120ec:	e5943234 	ldr	r3, [r4, #564]	; 0x234
800120f0:	e5942238 	ldr	r2, [r4, #568]	; 0x238
800120f4:	e2833c02 	add	r3, r3, #512	; 0x200
800120f8:	e1520003 	cmp	r2, r3
800120fc:	1a000006 	bne	8001211c <pipewrite+0xa0>
80012100:	e594323c 	ldr	r3, [r4, #572]	; 0x23c
80012104:	e3530000 	cmp	r3, #0
80012108:	1affffee 	bne	800120c8 <pipewrite+0x4c>
8001210c:	e1a00004 	mov	r0, r4
80012110:	ebffe76a 	bl	8000bec0 <release>
80012114:	e3e00000 	mvn	r0, #0
80012118:	e8bd87f0 	pop	{r4, r5, r6, r7, r8, r9, sl, pc}
8001211c:	e7e83052 	ubfx	r3, r2, #0, #9
80012120:	e2822001 	add	r2, r2, #1
80012124:	e5842238 	str	r2, [r4, #568]	; 0x238
80012128:	e5f71001 	ldrb	r1, [r7, #1]!
8001212c:	e0843003 	add	r3, r4, r3
80012130:	e1570009 	cmp	r7, r9
80012134:	e5c31034 	strb	r1, [r3, #52]	; 0x34
80012138:	1affffdd 	bne	800120b4 <pipewrite+0x38>
8001213c:	e2840f8d 	add	r0, r4, #564	; 0x234
80012140:	eb000e2e 	bl	80015a00 <wakeup>
80012144:	e1a00004 	mov	r0, r4
80012148:	ebffe75c 	bl	8000bec0 <release>
8001214c:	e1a00008 	mov	r0, r8
80012150:	e8bd87f0 	pop	{r4, r5, r6, r7, r8, r9, sl, pc}

80012154 <piperead>:
80012154:	e92d41f0 	push	{r4, r5, r6, r7, r8, lr}
80012158:	e1a04000 	mov	r4, r0
8001215c:	e1a06002 	mov	r6, r2
80012160:	e1a05001 	mov	r5, r1
80012164:	ebffe71f 	bl	8000bde8 <acquire>
80012168:	e5943234 	ldr	r3, [r4, #564]	; 0x234
8001216c:	e5942238 	ldr	r2, [r4, #568]	; 0x238
80012170:	e1530002 	cmp	r3, r2
80012174:	1a000018 	bne	800121dc <piperead+0x88>
80012178:	e5943240 	ldr	r3, [r4, #576]	; 0x240
8001217c:	e3530000 	cmp	r3, #0
80012180:	0a000030 	beq	80012248 <piperead+0xf4>
80012184:	e30a8b14 	movw	r8, #43796	; 0xab14
80012188:	e3488009 	movt	r8, #32777	; 0x8009
8001218c:	e5983018 	ldr	r3, [r8, #24]
80012190:	e5933024 	ldr	r3, [r3, #36]	; 0x24
80012194:	e3530000 	cmp	r3, #0
80012198:	02847f8d 	addeq	r7, r4, #564	; 0x234
8001219c:	0a000007 	beq	800121c0 <piperead+0x6c>
800121a0:	ea00002a 	b	80012250 <piperead+0xfc>
800121a4:	e5943240 	ldr	r3, [r4, #576]	; 0x240
800121a8:	e3530000 	cmp	r3, #0
800121ac:	0a000025 	beq	80012248 <piperead+0xf4>
800121b0:	e5983018 	ldr	r3, [r8, #24]
800121b4:	e5933024 	ldr	r3, [r3, #36]	; 0x24
800121b8:	e3530000 	cmp	r3, #0
800121bc:	1a000023 	bne	80012250 <piperead+0xfc>
800121c0:	e1a01004 	mov	r1, r4
800121c4:	e1a00007 	mov	r0, r7
800121c8:	eb000da9 	bl	80015874 <sleep>
800121cc:	e5943234 	ldr	r3, [r4, #564]	; 0x234
800121d0:	e5942238 	ldr	r2, [r4, #568]	; 0x238
800121d4:	e1530002 	cmp	r3, r2
800121d8:	0afffff1 	beq	800121a4 <piperead+0x50>
800121dc:	e3560000 	cmp	r6, #0
800121e0:	c2451001 	subgt	r1, r5, #1
800121e4:	c0817006 	addgt	r7, r1, r6
800121e8:	ca000004 	bgt	80012200 <piperead+0xac>
800121ec:	ea000015 	b	80012248 <piperead+0xf4>
800121f0:	e5943234 	ldr	r3, [r4, #564]	; 0x234
800121f4:	e5942238 	ldr	r2, [r4, #568]	; 0x238
800121f8:	e1530002 	cmp	r3, r2
800121fc:	0a00000b 	beq	80012230 <piperead+0xdc>
80012200:	e7e8c053 	ubfx	ip, r3, #0, #9
80012204:	e281e001 	add	lr, r1, #1
80012208:	e084c00c 	add	ip, r4, ip
8001220c:	e2833001 	add	r3, r3, #1
80012210:	e5843234 	str	r3, [r4, #564]	; 0x234
80012214:	e2810002 	add	r0, r1, #2
80012218:	e5dc3034 	ldrb	r3, [ip, #52]	; 0x34
8001221c:	e15e0007 	cmp	lr, r7
80012220:	e5c13001 	strb	r3, [r1, #1]
80012224:	e1a0100e 	mov	r1, lr
80012228:	e0406005 	sub	r6, r0, r5
8001222c:	1affffef 	bne	800121f0 <piperead+0x9c>
80012230:	e2840f8e 	add	r0, r4, #568	; 0x238
80012234:	eb000df1 	bl	80015a00 <wakeup>
80012238:	e1a00004 	mov	r0, r4
8001223c:	ebffe71f 	bl	8000bec0 <release>
80012240:	e1a00006 	mov	r0, r6
80012244:	e8bd81f0 	pop	{r4, r5, r6, r7, r8, pc}
80012248:	e3a06000 	mov	r6, #0
8001224c:	eafffff7 	b	80012230 <piperead+0xdc>
80012250:	e1a00004 	mov	r0, r4
80012254:	e3e06000 	mvn	r6, #0
80012258:	ebffe718 	bl	8000bec0 <release>
8001225c:	e1a00006 	mov	r0, r6
80012260:	e8bd81f0 	pop	{r4, r5, r6, r7, r8, pc}

80012264 <USBRequest>:
80012264:	e59dc000 	ldr	ip, [sp]
80012268:	e5801000 	str	r1, [r0]
8001226c:	e3a01000 	mov	r1, #0
80012270:	e1c020f8 	strd	r2, [r0, #8]
80012274:	e580c004 	str	ip, [r0, #4]
80012278:	e5801010 	str	r1, [r0, #16]
8001227c:	e5801014 	str	r1, [r0, #20]
80012280:	e5801018 	str	r1, [r0, #24]
80012284:	e580101c 	str	r1, [r0, #28]
80012288:	e5801020 	str	r1, [r0, #32]
8001228c:	e12fff1e 	bx	lr

80012290 <_USBRequest>:
80012290:	e3a03000 	mov	r3, #0
80012294:	e5803000 	str	r3, [r0]
80012298:	e5803004 	str	r3, [r0, #4]
8001229c:	e5803008 	str	r3, [r0, #8]
800122a0:	e5803018 	str	r3, [r0, #24]
800122a4:	e12fff1e 	bx	lr

800122a8 <USBRequestGetEndpoint>:
800122a8:	e5900000 	ldr	r0, [r0]
800122ac:	e12fff1e 	bx	lr

800122b0 <USBRequestSetStatus>:
800122b0:	e5801010 	str	r1, [r0, #16]
800122b4:	e12fff1e 	bx	lr

800122b8 <USBRequestSetResultLen>:
800122b8:	e5801014 	str	r1, [r0, #20]
800122bc:	e12fff1e 	bx	lr

800122c0 <USBRequestGetStatus>:
800122c0:	e5900010 	ldr	r0, [r0, #16]
800122c4:	e12fff1e 	bx	lr

800122c8 <USBRequestGetResultLength>:
800122c8:	e5900014 	ldr	r0, [r0, #20]
800122cc:	e12fff1e 	bx	lr

800122d0 <USBRequestGetSetupData>:
800122d0:	e5900004 	ldr	r0, [r0, #4]
800122d4:	e12fff1e 	bx	lr

800122d8 <USBRequestGetBuffer>:
800122d8:	e5900008 	ldr	r0, [r0, #8]
800122dc:	e12fff1e 	bx	lr

800122e0 <USBRequestGetBufLen>:
800122e0:	e590000c 	ldr	r0, [r0, #12]
800122e4:	e12fff1e 	bx	lr

800122e8 <USBRequestSetCompletionRoutine>:
800122e8:	e5801018 	str	r1, [r0, #24]
800122ec:	e1c021fc 	strd	r2, [r0, #28]
800122f0:	e12fff1e 	bx	lr

800122f4 <USBRequestCallCompletionRoutine>:
800122f4:	e52de004 	push	{lr}		; (str lr, [sp, #-4]!)
800122f8:	e590e018 	ldr	lr, [r0, #24]
800122fc:	e5902020 	ldr	r2, [r0, #32]
80012300:	e590101c 	ldr	r1, [r0, #28]
80012304:	e1a0300e 	mov	r3, lr
80012308:	e49de004 	pop	{lr}		; (ldr lr, [sp], #4)
8001230c:	e12fff13 	bx	r3

80012310 <uspi_EnterCritical>:
80012310:	e10f1000 	mrs	r1, CPSR
80012314:	f10c0080 	cpsid	i
80012318:	e30a38ec 	movw	r3, #43244	; 0xa8ec
8001231c:	e3483009 	movt	r3, #32777	; 0x8009
80012320:	e5932000 	ldr	r2, [r3]
80012324:	e3520000 	cmp	r2, #0
80012328:	e2822001 	add	r2, r2, #1
8001232c:	e5832000 	str	r2, [r3]
80012330:	030a3b0c 	movweq	r3, #43788	; 0xab0c
80012334:	03483009 	movteq	r3, #32777	; 0x8009
80012338:	02211080 	eoreq	r1, r1, #128	; 0x80
8001233c:	07e013d1 	ubfxeq	r1, r1, #7, #1
80012340:	05831000 	streq	r1, [r3]
80012344:	f57ff05f 	dmb	sy
80012348:	e12fff1e 	bx	lr

8001234c <uspi_LeaveCritical>:
8001234c:	f57ff05f 	dmb	sy
80012350:	e30a28ec 	movw	r2, #43244	; 0xa8ec
80012354:	e3482009 	movt	r2, #32777	; 0x8009
80012358:	e5923000 	ldr	r3, [r2]
8001235c:	e2433001 	sub	r3, r3, #1
80012360:	e5823000 	str	r3, [r2]
80012364:	e3530000 	cmp	r3, #0
80012368:	112fff1e 	bxne	lr
8001236c:	e30a3b0c 	movw	r3, #43788	; 0xab0c
80012370:	e3483009 	movt	r3, #32777	; 0x8009
80012374:	e5933000 	ldr	r3, [r3]
80012378:	e3530000 	cmp	r3, #0
8001237c:	012fff1e 	bxeq	lr
80012380:	f1080080 	cpsie	i
80012384:	e12fff1e 	bx	lr

80012388 <uspi_CleanAndInvalidateDataCacheRange>:
80012388:	ee070f3e 	mcr	15, 0, r0, cr7, cr14, {1}
8001238c:	e2813040 	add	r3, r1, #64	; 0x40
80012390:	e353003f 	cmp	r3, #63	; 0x3f
80012394:	912fff1e 	bxls	lr
80012398:	e3c1103f 	bic	r1, r1, #63	; 0x3f
8001239c:	e2800040 	add	r0, r0, #64	; 0x40
800123a0:	e0801001 	add	r1, r0, r1
800123a4:	ee070f3e 	mcr	15, 0, r0, cr7, cr14, {1}
800123a8:	e1510000 	cmp	r1, r0
800123ac:	e2800040 	add	r0, r0, #64	; 0x40
800123b0:	1afffffb 	bne	800123a4 <uspi_CleanAndInvalidateDataCacheRange+0x1c>
800123b4:	e12fff1e 	bx	lr

800123b8 <USBMouseDeviceStartRequest>:
800123b8:	e92d4030 	push	{r4, r5, lr}
800123bc:	e1a04000 	mov	r4, r0
800123c0:	e24dd00c 	sub	sp, sp, #12
800123c4:	e3a00024 	mov	r0, #36	; 0x24
800123c8:	e3a05000 	mov	r5, #0
800123cc:	ebfffd88 	bl	800119f4 <malloc>
800123d0:	e5840048 	str	r0, [r4, #72]	; 0x48
800123d4:	e3a03003 	mov	r3, #3
800123d8:	e594204c 	ldr	r2, [r4, #76]	; 0x4c
800123dc:	e5941040 	ldr	r1, [r4, #64]	; 0x40
800123e0:	e58d5000 	str	r5, [sp]
800123e4:	ebffff9e 	bl	80012264 <USBRequest>
800123e8:	e5940048 	ldr	r0, [r4, #72]	; 0x48
800123ec:	e3021698 	movw	r1, #9880	; 0x2698
800123f0:	e3481001 	movt	r1, #32769	; 0x8001
800123f4:	e1a03004 	mov	r3, r4
800123f8:	e1a02005 	mov	r2, r5
800123fc:	ebffffb9 	bl	800122e8 <USBRequestSetCompletionRoutine>
80012400:	e1a00004 	mov	r0, r4
80012404:	ebffe314 	bl	8000b05c <USBDeviceGetHost>
80012408:	e5941048 	ldr	r1, [r4, #72]	; 0x48
8001240c:	e28dd00c 	add	sp, sp, #12
80012410:	e8bd4030 	pop	{r4, r5, lr}
80012414:	ea000801 	b	80014420 <DWHCIDeviceSubmitAsyncRequest>

80012418 <USBMouseDeviceConfigure>:
80012418:	e92d4070 	push	{r4, r5, r6, lr}
8001241c:	e3a01002 	mov	r1, #2
80012420:	e24dd020 	sub	sp, sp, #32
80012424:	e1a04000 	mov	r4, r0
80012428:	ebffe311 	bl	8000b074 <USBDeviceGetDescriptor>
8001242c:	e3500000 	cmp	r0, #0
80012430:	0a000061 	beq	800125bc <USBMouseDeviceConfigure+0x1a4>
80012434:	e5d03004 	ldrb	r3, [r0, #4]
80012438:	e3530000 	cmp	r3, #0
8001243c:	0a00005e 	beq	800125bc <USBMouseDeviceConfigure+0x1a4>
80012440:	e3a01004 	mov	r1, #4
80012444:	e1a00004 	mov	r0, r4
80012448:	ebffe309 	bl	8000b074 <USBDeviceGetDescriptor>
8001244c:	e2503000 	subs	r3, r0, #0
80012450:	0a000021 	beq	800124dc <USBMouseDeviceConfigure+0xc4>
80012454:	e5d32004 	ldrb	r2, [r3, #4]
80012458:	e3520000 	cmp	r2, #0
8001245c:	0afffff7 	beq	80012440 <USBMouseDeviceConfigure+0x28>
80012460:	e5d32005 	ldrb	r2, [r3, #5]
80012464:	e3520003 	cmp	r2, #3
80012468:	1afffff4 	bne	80012440 <USBMouseDeviceConfigure+0x28>
8001246c:	e5d32006 	ldrb	r2, [r3, #6]
80012470:	e3520001 	cmp	r2, #1
80012474:	1afffff1 	bne	80012440 <USBMouseDeviceConfigure+0x28>
80012478:	e5d32007 	ldrb	r2, [r3, #7]
8001247c:	e3520002 	cmp	r2, #2
80012480:	1affffee 	bne	80012440 <USBMouseDeviceConfigure+0x28>
80012484:	e5d32002 	ldrb	r2, [r3, #2]
80012488:	e3a01005 	mov	r1, #5
8001248c:	e1a00004 	mov	r0, r4
80012490:	e5c4203c 	strb	r2, [r4, #60]	; 0x3c
80012494:	e5d33003 	ldrb	r3, [r3, #3]
80012498:	e5c4303d 	strb	r3, [r4, #61]	; 0x3d
8001249c:	ebffe2f4 	bl	8000b074 <USBDeviceGetDescriptor>
800124a0:	e2505000 	subs	r5, r0, #0
800124a4:	0affffe5 	beq	80012440 <USBMouseDeviceConfigure+0x28>
800124a8:	e1d530d2 	ldrsb	r3, [r5, #2]
800124ac:	e3530000 	cmp	r3, #0
800124b0:	aaffffe2 	bge	80012440 <USBMouseDeviceConfigure+0x28>
800124b4:	e5d53003 	ldrb	r3, [r5, #3]
800124b8:	e203303f 	and	r3, r3, #63	; 0x3f
800124bc:	e3530003 	cmp	r3, #3
800124c0:	1affffde 	bne	80012440 <USBMouseDeviceConfigure+0x28>
800124c4:	e3a0001c 	mov	r0, #28
800124c8:	ebfffd49 	bl	800119f4 <malloc>
800124cc:	e5840040 	str	r0, [r4, #64]	; 0x40
800124d0:	e1a02005 	mov	r2, r5
800124d4:	e1a01004 	mov	r1, r4
800124d8:	ebffeb27 	bl	8000d17c <USBEndpoint2>
800124dc:	e5945040 	ldr	r5, [r4, #64]	; 0x40
800124e0:	e3550000 	cmp	r5, #0
800124e4:	0a000056 	beq	80012644 <USBMouseDeviceConfigure+0x22c>
800124e8:	e1a00004 	mov	r0, r4
800124ec:	ebffe13d 	bl	8000a9e8 <USBDeviceConfigure>
800124f0:	e2505000 	subs	r5, r0, #0
800124f4:	0a000059 	beq	80012660 <USBMouseDeviceConfigure+0x248>
800124f8:	e5d4303d 	ldrb	r3, [r4, #61]	; 0x3d
800124fc:	e3530000 	cmp	r3, #0
80012500:	1a000035 	bne	800125dc <USBMouseDeviceConfigure+0x1c4>
80012504:	e1a00004 	mov	r0, r4
80012508:	e3a05000 	mov	r5, #0
8001250c:	ebffe2d2 	bl	8000b05c <USBDeviceGetHost>
80012510:	e1a06000 	mov	r6, r0
80012514:	e1a00004 	mov	r0, r4
80012518:	ebffe2cd 	bl	8000b054 <USBDeviceGetEndpoint0>
8001251c:	e5d4303c 	ldrb	r3, [r4, #60]	; 0x3c
80012520:	e1a01000 	mov	r1, r0
80012524:	e58d500c 	str	r5, [sp, #12]
80012528:	e1a00006 	mov	r0, r6
8001252c:	e58d3004 	str	r3, [sp, #4]
80012530:	e3a02021 	mov	r2, #33	; 0x21
80012534:	e58d5008 	str	r5, [sp, #8]
80012538:	e3a0300b 	mov	r3, #11
8001253c:	e58d5000 	str	r5, [sp]
80012540:	eb00083a 	bl	80014630 <DWHCIDeviceControlMessage>
80012544:	e1500005 	cmp	r0, r5
80012548:	ba00004b 	blt	8001267c <USBMouseDeviceConfigure+0x264>
8001254c:	e28d0014 	add	r0, sp, #20
80012550:	ebffd91c 	bl	800089c8 <String>
80012554:	e30a38f0 	movw	r3, #43248	; 0xa8f0
80012558:	e30913d4 	movw	r1, #37844	; 0x93d4
8001255c:	e3483009 	movt	r3, #32777	; 0x8009
80012560:	e28d0014 	add	r0, sp, #20
80012564:	e3481001 	movt	r1, #32769	; 0x8001
80012568:	e5932000 	ldr	r2, [r3]
8001256c:	e282c001 	add	ip, r2, #1
80012570:	e583c000 	str	ip, [r3]
80012574:	ebffdb4c 	bl	800092ac <StringFormat>
80012578:	eb000f33 	bl	8001624c <DeviceNameServiceGet>
8001257c:	e1a06000 	mov	r6, r0
80012580:	e28d0014 	add	r0, sp, #20
80012584:	ebffd929 	bl	80008a30 <StringGet>
80012588:	e1a01000 	mov	r1, r0
8001258c:	e1a03005 	mov	r3, r5
80012590:	e1a02004 	mov	r2, r4
80012594:	e1a00006 	mov	r0, r6
80012598:	eb000f01 	bl	800161a4 <DeviceNameServiceAddDevice>
8001259c:	e28d0014 	add	r0, sp, #20
800125a0:	ebffd918 	bl	80008a08 <_String>
800125a4:	e1a00004 	mov	r0, r4
800125a8:	ebffff82 	bl	800123b8 <USBMouseDeviceStartRequest>
800125ac:	e1a05000 	mov	r5, r0
800125b0:	e1a00005 	mov	r0, r5
800125b4:	e28dd020 	add	sp, sp, #32
800125b8:	e8bd8070 	pop	{r4, r5, r6, pc}
800125bc:	e30913b0 	movw	r1, #37808	; 0x93b0
800125c0:	e1a00004 	mov	r0, r4
800125c4:	e3481001 	movt	r1, #32769	; 0x8001
800125c8:	e3a05000 	mov	r5, #0
800125cc:	ebffe2aa 	bl	8000b07c <USBDeviceConfigurationError>
800125d0:	e1a00005 	mov	r0, r5
800125d4:	e28dd020 	add	sp, sp, #32
800125d8:	e8bd8070 	pop	{r4, r5, r6, pc}
800125dc:	e1a00004 	mov	r0, r4
800125e0:	e3a05000 	mov	r5, #0
800125e4:	ebffe29c 	bl	8000b05c <USBDeviceGetHost>
800125e8:	e1a06000 	mov	r6, r0
800125ec:	e1a00004 	mov	r0, r4
800125f0:	ebffe297 	bl	8000b054 <USBDeviceGetEndpoint0>
800125f4:	e5d4303c 	ldrb	r3, [r4, #60]	; 0x3c
800125f8:	e1a01000 	mov	r1, r0
800125fc:	e5d4203d 	ldrb	r2, [r4, #61]	; 0x3d
80012600:	e1a00006 	mov	r0, r6
80012604:	e58d3004 	str	r3, [sp, #4]
80012608:	e3a0300b 	mov	r3, #11
8001260c:	e58d2000 	str	r2, [sp]
80012610:	e3a02001 	mov	r2, #1
80012614:	e58d500c 	str	r5, [sp, #12]
80012618:	e58d5008 	str	r5, [sp, #8]
8001261c:	eb000803 	bl	80014630 <DWHCIDeviceControlMessage>
80012620:	e1500005 	cmp	r0, r5
80012624:	aaffffb6 	bge	80012504 <USBMouseDeviceConfigure+0xec>
80012628:	e3082728 	movw	r2, #34600	; 0x8728
8001262c:	e30903b0 	movw	r0, #37808	; 0x93b0
80012630:	e3482001 	movt	r2, #32769	; 0x8001
80012634:	e3a01001 	mov	r1, #1
80012638:	e3480001 	movt	r0, #32769	; 0x8001
8001263c:	ebfffd46 	bl	80011b5c <LogWrite>
80012640:	eaffffda 	b	800125b0 <USBMouseDeviceConfigure+0x198>
80012644:	e30913b0 	movw	r1, #37808	; 0x93b0
80012648:	e1a00004 	mov	r0, r4
8001264c:	e3481001 	movt	r1, #32769	; 0x8001
80012650:	ebffe289 	bl	8000b07c <USBDeviceConfigurationError>
80012654:	e1a00005 	mov	r0, r5
80012658:	e28dd020 	add	sp, sp, #32
8001265c:	e8bd8070 	pop	{r4, r5, r6, pc}
80012660:	e3072f60 	movw	r2, #32608	; 0x7f60
80012664:	e30903b0 	movw	r0, #37808	; 0x93b0
80012668:	e3482001 	movt	r2, #32769	; 0x8001
8001266c:	e3a01001 	mov	r1, #1
80012670:	e3480001 	movt	r0, #32769	; 0x8001
80012674:	ebfffd38 	bl	80011b5c <LogWrite>
80012678:	eaffffcc 	b	800125b0 <USBMouseDeviceConfigure+0x198>
8001267c:	e30923b8 	movw	r2, #37816	; 0x93b8
80012680:	e30903b0 	movw	r0, #37808	; 0x93b0
80012684:	e3482001 	movt	r2, #32769	; 0x8001
80012688:	e3a01001 	mov	r1, #1
8001268c:	e3480001 	movt	r0, #32769	; 0x8001
80012690:	ebfffd31 	bl	80011b5c <LogWrite>
80012694:	eaffffc5 	b	800125b0 <USBMouseDeviceConfigure+0x198>

80012698 <USBMouseDeviceCompletionRoutine>:
80012698:	e92d41f0 	push	{r4, r5, r6, r7, r8, lr}
8001269c:	e1a04002 	mov	r4, r2
800126a0:	e1a05000 	mov	r5, r0
800126a4:	ebffff05 	bl	800122c0 <USBRequestGetStatus>
800126a8:	e3500000 	cmp	r0, #0
800126ac:	1a000008 	bne	800126d4 <USBMouseDeviceCompletionRoutine+0x3c>
800126b0:	e5940048 	ldr	r0, [r4, #72]	; 0x48
800126b4:	ebfffef5 	bl	80012290 <_USBRequest>
800126b8:	e5940048 	ldr	r0, [r4, #72]	; 0x48
800126bc:	ebfffcd3 	bl	80011a10 <free>
800126c0:	e3a03000 	mov	r3, #0
800126c4:	e1a00004 	mov	r0, r4
800126c8:	e5843048 	str	r3, [r4, #72]	; 0x48
800126cc:	e8bd41f0 	pop	{r4, r5, r6, r7, r8, lr}
800126d0:	eaffff38 	b	800123b8 <USBMouseDeviceStartRequest>
800126d4:	e1a00005 	mov	r0, r5
800126d8:	ebfffefa 	bl	800122c8 <USBRequestGetResultLength>
800126dc:	e3500003 	cmp	r0, #3
800126e0:	1afffff2 	bne	800126b0 <USBMouseDeviceCompletionRoutine+0x18>
800126e4:	e5945044 	ldr	r5, [r4, #68]	; 0x44
800126e8:	e3550000 	cmp	r5, #0
800126ec:	0affffef 	beq	800126b0 <USBMouseDeviceCompletionRoutine+0x18>
800126f0:	e594304c 	ldr	r3, [r4, #76]	; 0x4c
800126f4:	e5d30001 	ldrb	r0, [r3, #1]
800126f8:	e5d36000 	ldrb	r6, [r3]
800126fc:	eb000122 	bl	80012b8c <uspi_char2int>
80012700:	e594304c 	ldr	r3, [r4, #76]	; 0x4c
80012704:	e1a07000 	mov	r7, r0
80012708:	e5d30002 	ldrb	r0, [r3, #2]
8001270c:	eb00011e 	bl	80012b8c <uspi_char2int>
80012710:	e1a02000 	mov	r2, r0
80012714:	e1a01007 	mov	r1, r7
80012718:	e1a00006 	mov	r0, r6
8001271c:	e12fff35 	blx	r5
80012720:	eaffffe2 	b	800126b0 <USBMouseDeviceCompletionRoutine+0x18>

80012724 <USBMouseDevice>:
80012724:	e92d4010 	push	{r4, lr}
80012728:	e1a04000 	mov	r4, r0
8001272c:	ebffe0e2 	bl	8000aabc <USBDeviceCopy>
80012730:	e3022418 	movw	r2, #9240	; 0x2418
80012734:	e3a03000 	mov	r3, #0
80012738:	e3482001 	movt	r2, #32769	; 0x8001
8001273c:	e3a00003 	mov	r0, #3
80012740:	e5842000 	str	r2, [r4]
80012744:	e5843040 	str	r3, [r4, #64]	; 0x40
80012748:	e5843044 	str	r3, [r4, #68]	; 0x44
8001274c:	e5843048 	str	r3, [r4, #72]	; 0x48
80012750:	e584304c 	str	r3, [r4, #76]	; 0x4c
80012754:	ebfffca6 	bl	800119f4 <malloc>
80012758:	e584004c 	str	r0, [r4, #76]	; 0x4c
8001275c:	e8bd8010 	pop	{r4, pc}

80012760 <_CUSBMouseDevice>:
80012760:	e92d4010 	push	{r4, lr}
80012764:	e1a04000 	mov	r4, r0
80012768:	e590004c 	ldr	r0, [r0, #76]	; 0x4c
8001276c:	e3500000 	cmp	r0, #0
80012770:	0a000002 	beq	80012780 <_CUSBMouseDevice+0x20>
80012774:	ebfffca5 	bl	80011a10 <free>
80012778:	e3a03000 	mov	r3, #0
8001277c:	e584304c 	str	r3, [r4, #76]	; 0x4c
80012780:	e5940040 	ldr	r0, [r4, #64]	; 0x40
80012784:	e3500000 	cmp	r0, #0
80012788:	0a000004 	beq	800127a0 <_CUSBMouseDevice+0x40>
8001278c:	ebffeac2 	bl	8000d29c <_USBEndpoint>
80012790:	e5940040 	ldr	r0, [r4, #64]	; 0x40
80012794:	ebfffc9d 	bl	80011a10 <free>
80012798:	e3a03000 	mov	r3, #0
8001279c:	e5843040 	str	r3, [r4, #64]	; 0x40
800127a0:	e1a00004 	mov	r0, r4
800127a4:	e8bd4010 	pop	{r4, lr}
800127a8:	eaffe100 	b	8000abb0 <_USBDevice>

800127ac <USBMouseDeviceRegisterStatusHandler>:
800127ac:	e5801044 	str	r1, [r0, #68]	; 0x44
800127b0:	e12fff1e 	bx	lr

800127b4 <kfree>:
800127b4:	e7eb2050 	ubfx	r2, r0, #0, #12
800127b8:	e30f3eb4 	movw	r3, #65204	; 0xfeb4
800127bc:	e3483009 	movt	r3, #32777	; 0x8009
800127c0:	e92d4070 	push	{r4, r5, r6, lr}
800127c4:	e1500003 	cmp	r0, r3
800127c8:	23520000 	cmpcs	r2, #0
800127cc:	1a00001a 	bne	8001283c <kfree+0x88>
800127d0:	e30c2510 	movw	r2, #50448	; 0xc510
800127d4:	e2803102 	add	r3, r0, #-2147483648	; 0x80000000
800127d8:	e3482009 	movt	r2, #32777	; 0x8009
800127dc:	e1a05000 	mov	r5, r0
800127e0:	e5922000 	ldr	r2, [r2]
800127e4:	e1520003 	cmp	r2, r3
800127e8:	9a000013 	bls	8001283c <kfree+0x88>
800127ec:	e30c4f70 	movw	r4, #53104	; 0xcf70
800127f0:	e3484009 	movt	r4, #32777	; 0x8009
800127f4:	e5943034 	ldr	r3, [r4, #52]	; 0x34
800127f8:	e3530000 	cmp	r3, #0
800127fc:	1a000003 	bne	80012810 <kfree+0x5c>
80012800:	e5943038 	ldr	r3, [r4, #56]	; 0x38
80012804:	e5803000 	str	r3, [r0]
80012808:	e5840038 	str	r0, [r4, #56]	; 0x38
8001280c:	e8bd8070 	pop	{r4, r5, r6, pc}
80012810:	e1a00004 	mov	r0, r4
80012814:	ebffe573 	bl	8000bde8 <acquire>
80012818:	e5943034 	ldr	r3, [r4, #52]	; 0x34
8001281c:	e5942038 	ldr	r2, [r4, #56]	; 0x38
80012820:	e3530000 	cmp	r3, #0
80012824:	e5852000 	str	r2, [r5]
80012828:	e5845038 	str	r5, [r4, #56]	; 0x38
8001282c:	08bd8070 	popeq	{r4, r5, r6, pc}
80012830:	e1a00004 	mov	r0, r4
80012834:	e8bd4070 	pop	{r4, r5, r6, lr}
80012838:	eaffe5a0 	b	8000bec0 <release>
8001283c:	e3090114 	movw	r0, #37140	; 0x9114
80012840:	e3480001 	movt	r0, #32769	; 0x8001
80012844:	ebffe408 	bl	8000b86c <panic>

80012848 <freerange>:
80012848:	e2800eff 	add	r0, r0, #4080	; 0xff0
8001284c:	e280000f 	add	r0, r0, #15
80012850:	e3c00eff 	bic	r0, r0, #4080	; 0xff0
80012854:	e3c0000f 	bic	r0, r0, #15
80012858:	e92d4070 	push	{r4, r5, r6, lr}
8001285c:	e2804a01 	add	r4, r0, #4096	; 0x1000
80012860:	e1510004 	cmp	r1, r4
80012864:	38bd8070 	popcc	{r4, r5, r6, pc}
80012868:	e1a05001 	mov	r5, r1
8001286c:	e2440a01 	sub	r0, r4, #4096	; 0x1000
80012870:	e2844a01 	add	r4, r4, #4096	; 0x1000
80012874:	ebffffce 	bl	800127b4 <kfree>
80012878:	e1540005 	cmp	r4, r5
8001287c:	9afffffa 	bls	8001286c <freerange+0x24>
80012880:	e8bd8070 	pop	{r4, r5, r6, pc}

80012884 <kinit1>:
80012884:	e92d4070 	push	{r4, r5, r6, lr}
80012888:	e1a04000 	mov	r4, r0
8001288c:	e2844eff 	add	r4, r4, #4080	; 0xff0
80012890:	e30c3510 	movw	r3, #50448	; 0xc510
80012894:	e3483009 	movt	r3, #32777	; 0x8009
80012898:	e284400f 	add	r4, r4, #15
8001289c:	e3c44eff 	bic	r4, r4, #4080	; 0xff0
800128a0:	e30c6f70 	movw	r6, #53104	; 0xcf70
800128a4:	e3486009 	movt	r6, #32777	; 0x8009
800128a8:	e1a05001 	mov	r5, r1
800128ac:	e3c4400f 	bic	r4, r4, #15
800128b0:	e30913e0 	movw	r1, #37856	; 0x93e0
800128b4:	e3481001 	movt	r1, #32769	; 0x8001
800128b8:	e3a02402 	mov	r2, #33554432	; 0x2000000
800128bc:	e5832000 	str	r2, [r3]
800128c0:	e1a00006 	mov	r0, r6
800128c4:	e2844a01 	add	r4, r4, #4096	; 0x1000
800128c8:	ebffe528 	bl	8000bd70 <initlock>
800128cc:	e1550004 	cmp	r5, r4
800128d0:	e3a03000 	mov	r3, #0
800128d4:	e5863034 	str	r3, [r6, #52]	; 0x34
800128d8:	e5863038 	str	r3, [r6, #56]	; 0x38
800128dc:	38bd8070 	popcc	{r4, r5, r6, pc}
800128e0:	e2440a01 	sub	r0, r4, #4096	; 0x1000
800128e4:	e2844a01 	add	r4, r4, #4096	; 0x1000
800128e8:	ebffffb1 	bl	800127b4 <kfree>
800128ec:	e1550004 	cmp	r5, r4
800128f0:	2afffffa 	bcs	800128e0 <kinit1+0x5c>
800128f4:	e8bd8070 	pop	{r4, r5, r6, pc}

800128f8 <kinit2>:
800128f8:	e2800eff 	add	r0, r0, #4080	; 0xff0
800128fc:	e280000f 	add	r0, r0, #15
80012900:	e3c00eff 	bic	r0, r0, #4080	; 0xff0
80012904:	e3c0000f 	bic	r0, r0, #15
80012908:	e92d4070 	push	{r4, r5, r6, lr}
8001290c:	e2804a01 	add	r4, r0, #4096	; 0x1000
80012910:	e1510004 	cmp	r1, r4
80012914:	3a000005 	bcc	80012930 <kinit2+0x38>
80012918:	e1a05001 	mov	r5, r1
8001291c:	e2440a01 	sub	r0, r4, #4096	; 0x1000
80012920:	e2844a01 	add	r4, r4, #4096	; 0x1000
80012924:	ebffffa2 	bl	800127b4 <kfree>
80012928:	e1550004 	cmp	r5, r4
8001292c:	2afffffa 	bcs	8001291c <kinit2+0x24>
80012930:	e30c3f70 	movw	r3, #53104	; 0xcf70
80012934:	e3a02001 	mov	r2, #1
80012938:	e3483009 	movt	r3, #32777	; 0x8009
8001293c:	e5832034 	str	r2, [r3, #52]	; 0x34
80012940:	e8bd8070 	pop	{r4, r5, r6, pc}

80012944 <kalloc>:
80012944:	e92d4070 	push	{r4, r5, r6, lr}
80012948:	e30c4f70 	movw	r4, #53104	; 0xcf70
8001294c:	e3484009 	movt	r4, #32777	; 0x8009
80012950:	e5943034 	ldr	r3, [r4, #52]	; 0x34
80012954:	e3530000 	cmp	r3, #0
80012958:	1a000005 	bne	80012974 <kalloc+0x30>
8001295c:	e5945038 	ldr	r5, [r4, #56]	; 0x38
80012960:	e3550000 	cmp	r5, #0
80012964:	15953000 	ldrne	r3, [r5]
80012968:	15843038 	strne	r3, [r4, #56]	; 0x38
8001296c:	e1a00005 	mov	r0, r5
80012970:	e8bd8070 	pop	{r4, r5, r6, pc}
80012974:	e1a00004 	mov	r0, r4
80012978:	ebffe51a 	bl	8000bde8 <acquire>
8001297c:	e5945038 	ldr	r5, [r4, #56]	; 0x38
80012980:	e3550000 	cmp	r5, #0
80012984:	15952000 	ldrne	r2, [r5]
80012988:	05943034 	ldreq	r3, [r4, #52]	; 0x34
8001298c:	15943034 	ldrne	r3, [r4, #52]	; 0x34
80012990:	15842038 	strne	r2, [r4, #56]	; 0x38
80012994:	e3530000 	cmp	r3, #0
80012998:	0afffff3 	beq	8001296c <kalloc+0x28>
8001299c:	e30c0f70 	movw	r0, #53104	; 0xcf70
800129a0:	e3480009 	movt	r0, #32777	; 0x8009
800129a4:	ebffe545 	bl	8000bec0 <release>
800129a8:	e1a00005 	mov	r0, r5
800129ac:	e8bd8070 	pop	{r4, r5, r6, pc}

800129b0 <uspi_memset>:
800129b0:	e3520000 	cmp	r2, #0
800129b4:	012fff1e 	bxeq	lr
800129b8:	e0802002 	add	r2, r0, r2
800129bc:	e6ef1071 	uxtb	r1, r1
800129c0:	e1a03000 	mov	r3, r0
800129c4:	e4c31001 	strb	r1, [r3], #1
800129c8:	e1530002 	cmp	r3, r2
800129cc:	1afffffc 	bne	800129c4 <uspi_memset+0x14>
800129d0:	e12fff1e 	bx	lr

800129d4 <uspi_memcpy>:
800129d4:	e3520000 	cmp	r2, #0
800129d8:	012fff1e 	bxeq	lr
800129dc:	e0812002 	add	r2, r1, r2
800129e0:	e2403001 	sub	r3, r0, #1
800129e4:	e4d1c001 	ldrb	ip, [r1], #1
800129e8:	e1510002 	cmp	r1, r2
800129ec:	e5e3c001 	strb	ip, [r3, #1]!
800129f0:	1afffffb 	bne	800129e4 <uspi_memcpy+0x10>
800129f4:	e12fff1e 	bx	lr

800129f8 <uspi_memcmp>:
800129f8:	e3520000 	cmp	r2, #0
800129fc:	e242c001 	sub	ip, r2, #1
80012a00:	0a00000d 	beq	80012a3c <uspi_memcmp+0x44>
80012a04:	e5d02000 	ldrb	r2, [r0]
80012a08:	e5d13000 	ldrb	r3, [r1]
80012a0c:	e1520003 	cmp	r2, r3
80012a10:	8a00000b 	bhi	80012a44 <uspi_memcmp+0x4c>
80012a14:	3a00000c 	bcc	80012a4c <uspi_memcmp+0x54>
80012a18:	e081c00c 	add	ip, r1, ip
80012a1c:	ea000004 	b	80012a34 <uspi_memcmp+0x3c>
80012a20:	e5f02001 	ldrb	r2, [r0, #1]!
80012a24:	e5f13001 	ldrb	r3, [r1, #1]!
80012a28:	e1520003 	cmp	r2, r3
80012a2c:	8a000004 	bhi	80012a44 <uspi_memcmp+0x4c>
80012a30:	3a000005 	bcc	80012a4c <uspi_memcmp+0x54>
80012a34:	e151000c 	cmp	r1, ip
80012a38:	1afffff8 	bne	80012a20 <uspi_memcmp+0x28>
80012a3c:	e3a00000 	mov	r0, #0
80012a40:	e12fff1e 	bx	lr
80012a44:	e3a00001 	mov	r0, #1
80012a48:	e12fff1e 	bx	lr
80012a4c:	e3e00000 	mvn	r0, #0
80012a50:	e12fff1e 	bx	lr

80012a54 <uspi_strlen>:
80012a54:	e4d03001 	ldrb	r3, [r0], #1
80012a58:	e3530000 	cmp	r3, #0
80012a5c:	0a000004 	beq	80012a74 <uspi_strlen+0x20>
80012a60:	e3a03000 	mov	r3, #0
80012a64:	e4d02001 	ldrb	r2, [r0], #1
80012a68:	e2833001 	add	r3, r3, #1
80012a6c:	e3520000 	cmp	r2, #0
80012a70:	1afffffb 	bne	80012a64 <uspi_strlen+0x10>
80012a74:	e1a00003 	mov	r0, r3
80012a78:	e12fff1e 	bx	lr

80012a7c <uspi_strcmp>:
80012a7c:	e5d02000 	ldrb	r2, [r0]
80012a80:	e5d13000 	ldrb	r3, [r1]
80012a84:	e3520000 	cmp	r2, #0
80012a88:	1a000007 	bne	80012aac <uspi_strcmp+0x30>
80012a8c:	ea00000a 	b	80012abc <uspi_strcmp+0x40>
80012a90:	e1520003 	cmp	r2, r3
80012a94:	8a000006 	bhi	80012ab4 <uspi_strcmp+0x38>
80012a98:	3a00000b 	bcc	80012acc <uspi_strcmp+0x50>
80012a9c:	e5f02001 	ldrb	r2, [r0, #1]!
80012aa0:	e5f13001 	ldrb	r3, [r1, #1]!
80012aa4:	e3520000 	cmp	r2, #0
80012aa8:	0a000003 	beq	80012abc <uspi_strcmp+0x40>
80012aac:	e3530000 	cmp	r3, #0
80012ab0:	1afffff6 	bne	80012a90 <uspi_strcmp+0x14>
80012ab4:	e3a00001 	mov	r0, #1
80012ab8:	e12fff1e 	bx	lr
80012abc:	e2933000 	adds	r3, r3, #0
80012ac0:	13a03001 	movne	r3, #1
80012ac4:	e2630000 	rsb	r0, r3, #0
80012ac8:	e12fff1e 	bx	lr
80012acc:	e3e00000 	mvn	r0, #0
80012ad0:	e12fff1e 	bx	lr

80012ad4 <uspi_strcpy>:
80012ad4:	e5d13000 	ldrb	r3, [r1]
80012ad8:	e1a02000 	mov	r2, r0
80012adc:	e3530000 	cmp	r3, #0
80012ae0:	0a000003 	beq	80012af4 <uspi_strcpy+0x20>
80012ae4:	e4c23001 	strb	r3, [r2], #1
80012ae8:	e5f13001 	ldrb	r3, [r1, #1]!
80012aec:	e3530000 	cmp	r3, #0
80012af0:	1afffffb 	bne	80012ae4 <uspi_strcpy+0x10>
80012af4:	e3a03000 	mov	r3, #0
80012af8:	e5c23000 	strb	r3, [r2]
80012afc:	e12fff1e 	bx	lr

80012b00 <uspi_strncpy>:
80012b00:	e3520000 	cmp	r2, #0
80012b04:	012fff1e 	bxeq	lr
80012b08:	e5d1c000 	ldrb	ip, [r1]
80012b0c:	e35c0000 	cmp	ip, #0
80012b10:	0a00000a 	beq	80012b40 <uspi_strncpy+0x40>
80012b14:	e0802002 	add	r2, r0, r2
80012b18:	e1a03000 	mov	r3, r0
80012b1c:	e4c3c001 	strb	ip, [r3], #1
80012b20:	e1530002 	cmp	r3, r2
80012b24:	012fff1e 	bxeq	lr
80012b28:	e5f1c001 	ldrb	ip, [r1, #1]!
80012b2c:	e35c0000 	cmp	ip, #0
80012b30:	1afffff9 	bne	80012b1c <uspi_strncpy+0x1c>
80012b34:	e3a02000 	mov	r2, #0
80012b38:	e5c32000 	strb	r2, [r3]
80012b3c:	e12fff1e 	bx	lr
80012b40:	e1a03000 	mov	r3, r0
80012b44:	eafffffa 	b	80012b34 <uspi_strncpy+0x34>

80012b48 <uspi_strcat>:
80012b48:	e5d03000 	ldrb	r3, [r0]
80012b4c:	e3530000 	cmp	r3, #0
80012b50:	e1a03000 	mov	r3, r0
80012b54:	0a000002 	beq	80012b64 <uspi_strcat+0x1c>
80012b58:	e5f32001 	ldrb	r2, [r3, #1]!
80012b5c:	e3520000 	cmp	r2, #0
80012b60:	1afffffc 	bne	80012b58 <uspi_strcat+0x10>
80012b64:	e5d12000 	ldrb	r2, [r1]
80012b68:	e3520000 	cmp	r2, #0
80012b6c:	0a000003 	beq	80012b80 <uspi_strcat+0x38>
80012b70:	e4c32001 	strb	r2, [r3], #1
80012b74:	e5f12001 	ldrb	r2, [r1, #1]!
80012b78:	e3520000 	cmp	r2, #0
80012b7c:	1afffffb 	bne	80012b70 <uspi_strcat+0x28>
80012b80:	e3a02000 	mov	r2, #0
80012b84:	e5c32000 	strb	r2, [r3]
80012b88:	e12fff1e 	bx	lr

80012b8c <uspi_char2int>:
80012b8c:	e350007f 	cmp	r0, #127	; 0x7f
80012b90:	c1e00c00 	mvngt	r0, r0, lsl #24
80012b94:	c1e00c20 	mvngt	r0, r0, lsr #24
80012b98:	e12fff1e 	bx	lr

80012b9c <uspi_le2be16>:
80012b9c:	e6bf0fb0 	rev16	r0, r0
80012ba0:	e6ff0070 	uxth	r0, r0
80012ba4:	e12fff1e 	bx	lr

80012ba8 <uspi_le2be32>:
80012ba8:	e6bf0f30 	rev	r0, r0
80012bac:	e12fff1e 	bx	lr

80012bb0 <LAN7800Device>:
80012bb0:	e92d4010 	push	{r4, lr}
80012bb4:	e1a04000 	mov	r4, r0
80012bb8:	ebffdfbf 	bl	8000aabc <USBDeviceCopy>
80012bbc:	e30321f8 	movw	r2, #12792	; 0x31f8
80012bc0:	e3a03000 	mov	r3, #0
80012bc4:	e3482001 	movt	r2, #32769	; 0x8001
80012bc8:	e3a00d19 	mov	r0, #1600	; 0x640
80012bcc:	e5842000 	str	r2, [r4]
80012bd0:	e584303c 	str	r3, [r4, #60]	; 0x3c
80012bd4:	e5843040 	str	r3, [r4, #64]	; 0x40
80012bd8:	e5843050 	str	r3, [r4, #80]	; 0x50
80012bdc:	ebfffb84 	bl	800119f4 <malloc>
80012be0:	e5840050 	str	r0, [r4, #80]	; 0x50
80012be4:	e8bd8010 	pop	{r4, pc}

80012be8 <_LAN7800Device>:
80012be8:	e92d4010 	push	{r4, lr}
80012bec:	e1a04000 	mov	r4, r0
80012bf0:	e5900050 	ldr	r0, [r0, #80]	; 0x50
80012bf4:	e3500000 	cmp	r0, #0
80012bf8:	0a000002 	beq	80012c08 <_LAN7800Device+0x20>
80012bfc:	ebfffb83 	bl	80011a10 <free>
80012c00:	e3a03000 	mov	r3, #0
80012c04:	e5843050 	str	r3, [r4, #80]	; 0x50
80012c08:	e5940040 	ldr	r0, [r4, #64]	; 0x40
80012c0c:	e3500000 	cmp	r0, #0
80012c10:	0a000004 	beq	80012c28 <_LAN7800Device+0x40>
80012c14:	ebffe9a0 	bl	8000d29c <_USBEndpoint>
80012c18:	e5940040 	ldr	r0, [r4, #64]	; 0x40
80012c1c:	ebfffb7b 	bl	80011a10 <free>
80012c20:	e3a03000 	mov	r3, #0
80012c24:	e5843040 	str	r3, [r4, #64]	; 0x40
80012c28:	e594003c 	ldr	r0, [r4, #60]	; 0x3c
80012c2c:	e3500000 	cmp	r0, #0
80012c30:	0a000004 	beq	80012c48 <_LAN7800Device+0x60>
80012c34:	ebffe998 	bl	8000d29c <_USBEndpoint>
80012c38:	e594003c 	ldr	r0, [r4, #60]	; 0x3c
80012c3c:	ebfffb73 	bl	80011a10 <free>
80012c40:	e3a03000 	mov	r3, #0
80012c44:	e584303c 	str	r3, [r4, #60]	; 0x3c
80012c48:	e1a00004 	mov	r0, r4
80012c4c:	e8bd4010 	pop	{r4, lr}
80012c50:	eaffdfd6 	b	8000abb0 <_USBDevice>

80012c54 <LAN7800DeviceGetMACAddress>:
80012c54:	e2800044 	add	r0, r0, #68	; 0x44
80012c58:	e12fff1e 	bx	lr

80012c5c <LAN7800DeviceSendFrame>:
80012c5c:	e300c638 	movw	ip, #1592	; 0x638
80012c60:	e152000c 	cmp	r2, ip
80012c64:	9a000001 	bls	80012c70 <LAN7800DeviceSendFrame+0x14>
80012c68:	e3a00000 	mov	r0, #0
80012c6c:	e12fff1e 	bx	lr
80012c70:	e92d4070 	push	{r4, r5, r6, lr}
80012c74:	e1a04000 	mov	r4, r0
80012c78:	e5900050 	ldr	r0, [r0, #80]	; 0x50
80012c7c:	e1a05002 	mov	r5, r2
80012c80:	e2800008 	add	r0, r0, #8
80012c84:	ebffff52 	bl	800129d4 <uspi_memcpy>
80012c88:	e5943050 	ldr	r3, [r4, #80]	; 0x50
80012c8c:	e3852501 	orr	r2, r5, #4194304	; 0x400000
80012c90:	e1a00004 	mov	r0, r4
80012c94:	e5832000 	str	r2, [r3]
80012c98:	e3a02000 	mov	r2, #0
80012c9c:	e5832004 	str	r2, [r3, #4]
80012ca0:	ebffe0ed 	bl	8000b05c <USBDeviceGetHost>
80012ca4:	e5942050 	ldr	r2, [r4, #80]	; 0x50
80012ca8:	e2853008 	add	r3, r5, #8
80012cac:	e5941040 	ldr	r1, [r4, #64]	; 0x40
80012cb0:	eb0006b9 	bl	8001479c <DWHCIDeviceTransfer>
80012cb4:	e1e00000 	mvn	r0, r0
80012cb8:	e1a00fa0 	lsr	r0, r0, #31
80012cbc:	e8bd8070 	pop	{r4, r5, r6, pc}

80012cc0 <LAN7800DeviceReceiveFrame>:
80012cc0:	e92d40f0 	push	{r4, r5, r6, r7, lr}
80012cc4:	e24dd034 	sub	sp, sp, #52	; 0x34
80012cc8:	e1a05001 	mov	r5, r1
80012ccc:	e3a04000 	mov	r4, #0
80012cd0:	e590103c 	ldr	r1, [r0, #60]	; 0x3c
80012cd4:	e3a03d19 	mov	r3, #1600	; 0x640
80012cd8:	e58d4000 	str	r4, [sp]
80012cdc:	e1a06000 	mov	r6, r0
80012ce0:	e1a07002 	mov	r7, r2
80012ce4:	e28d000c 	add	r0, sp, #12
80012ce8:	e1a02005 	mov	r2, r5
80012cec:	ebfffd5c 	bl	80012264 <USBRequest>
80012cf0:	e1a00006 	mov	r0, r6
80012cf4:	ebffe0d8 	bl	8000b05c <USBDeviceGetHost>
80012cf8:	e28d100c 	add	r1, sp, #12
80012cfc:	eb0005fc 	bl	800144f4 <DWHCIDeviceSubmitBlockingRequest>
80012d00:	e1500004 	cmp	r0, r4
80012d04:	0a000014 	beq	80012d5c <LAN7800DeviceReceiveFrame+0x9c>
80012d08:	e28d000c 	add	r0, sp, #12
80012d0c:	ebfffd6d 	bl	800122c8 <USBRequestGetResultLength>
80012d10:	e3500009 	cmp	r0, #9
80012d14:	9a000010 	bls	80012d5c <LAN7800DeviceReceiveFrame+0x9c>
80012d18:	e5953000 	ldr	r3, [r5]
80012d1c:	e3130501 	tst	r3, #4194304	; 0x400000
80012d20:	1a000012 	bne	80012d70 <LAN7800DeviceReceiveFrame+0xb0>
80012d24:	e7ed3053 	ubfx	r3, r3, #0, #14
80012d28:	e3530004 	cmp	r3, #4
80012d2c:	9a00000a 	bls	80012d5c <LAN7800DeviceReceiveFrame+0x9c>
80012d30:	e2434004 	sub	r4, r3, #4
80012d34:	e285100a 	add	r1, r5, #10
80012d38:	e1a02004 	mov	r2, r4
80012d3c:	e1a00005 	mov	r0, r5
80012d40:	ebffff23 	bl	800129d4 <uspi_memcpy>
80012d44:	e5874000 	str	r4, [r7]
80012d48:	e28d000c 	add	r0, sp, #12
80012d4c:	ebfffd4f 	bl	80012290 <_USBRequest>
80012d50:	e3a00001 	mov	r0, #1
80012d54:	e28dd034 	add	sp, sp, #52	; 0x34
80012d58:	e8bd80f0 	pop	{r4, r5, r6, r7, pc}
80012d5c:	e28d000c 	add	r0, sp, #12
80012d60:	ebfffd4a 	bl	80012290 <_USBRequest>
80012d64:	e3a00000 	mov	r0, #0
80012d68:	e28dd034 	add	sp, sp, #52	; 0x34
80012d6c:	e8bd80f0 	pop	{r4, r5, r6, r7, pc}
80012d70:	e30829d8 	movw	r2, #35288	; 0x89d8
80012d74:	e30903e8 	movw	r0, #37864	; 0x93e8
80012d78:	e3482001 	movt	r2, #32769	; 0x8001
80012d7c:	e3a01002 	mov	r1, #2
80012d80:	e3480001 	movt	r0, #32769	; 0x8001
80012d84:	ebfffb74 	bl	80011b5c <LogWrite>
80012d88:	e28d000c 	add	r0, sp, #12
80012d8c:	ebfffd3f 	bl	80012290 <_USBRequest>
80012d90:	e1a00004 	mov	r0, r4
80012d94:	e28dd034 	add	sp, sp, #52	; 0x34
80012d98:	e8bd80f0 	pop	{r4, r5, r6, r7, pc}

80012d9c <LAN7800DeviceWriteReg>:
80012d9c:	e92d4070 	push	{r4, r5, r6, lr}
80012da0:	e24dd018 	sub	sp, sp, #24
80012da4:	e1a05001 	mov	r5, r1
80012da8:	e1a04000 	mov	r4, r0
80012dac:	e58d2014 	str	r2, [sp, #20]
80012db0:	ebffe0a9 	bl	8000b05c <USBDeviceGetHost>
80012db4:	e1a06000 	mov	r6, r0
80012db8:	e1a00004 	mov	r0, r4
80012dbc:	e3a04000 	mov	r4, #0
80012dc0:	ebffe0a3 	bl	8000b054 <USBDeviceGetEndpoint0>
80012dc4:	e58d4000 	str	r4, [sp]
80012dc8:	e6ff3075 	uxth	r3, r5
80012dcc:	e58d3004 	str	r3, [sp, #4]
80012dd0:	e3a03004 	mov	r3, #4
80012dd4:	e58d300c 	str	r3, [sp, #12]
80012dd8:	e28d3014 	add	r3, sp, #20
80012ddc:	e58d3008 	str	r3, [sp, #8]
80012de0:	e1a01000 	mov	r1, r0
80012de4:	e3a030a0 	mov	r3, #160	; 0xa0
80012de8:	e1a00006 	mov	r0, r6
80012dec:	e3a02040 	mov	r2, #64	; 0x40
80012df0:	eb00060e 	bl	80014630 <DWHCIDeviceControlMessage>
80012df4:	e1500004 	cmp	r0, r4
80012df8:	a3a00001 	movge	r0, #1
80012dfc:	ba000001 	blt	80012e08 <LAN7800DeviceWriteReg+0x6c>
80012e00:	e28dd018 	add	sp, sp, #24
80012e04:	e8bd8070 	pop	{r4, r5, r6, pc}
80012e08:	e30923f0 	movw	r2, #37872	; 0x93f0
80012e0c:	e30903e8 	movw	r0, #37864	; 0x93e8
80012e10:	e3482001 	movt	r2, #32769	; 0x8001
80012e14:	e1a03005 	mov	r3, r5
80012e18:	e3480001 	movt	r0, #32769	; 0x8001
80012e1c:	e3a01002 	mov	r1, #2
80012e20:	ebfffb4d 	bl	80011b5c <LogWrite>
80012e24:	e1a00004 	mov	r0, r4
80012e28:	e28dd018 	add	sp, sp, #24
80012e2c:	e8bd8070 	pop	{r4, r5, r6, pc}

80012e30 <LAN7800DeviceInitMACAddress>:
80012e30:	e92d40f0 	push	{r4, r5, r6, r7, lr}
80012e34:	e24dd01c 	sub	sp, sp, #28
80012e38:	e1a04000 	mov	r4, r0
80012e3c:	e28d0004 	add	r0, sp, #4
80012e40:	ebfffb43 	bl	80011b54 <GetMACAddress>
80012e44:	e3500000 	cmp	r0, #0
80012e48:	1a000002 	bne	80012e58 <LAN7800DeviceInitMACAddress+0x28>
80012e4c:	e3a00000 	mov	r0, #0
80012e50:	e28dd01c 	add	sp, sp, #28
80012e54:	e8bd80f0 	pop	{r4, r5, r6, r7, pc}
80012e58:	e2846044 	add	r6, r4, #68	; 0x44
80012e5c:	e28d1004 	add	r1, sp, #4
80012e60:	e1a00006 	mov	r0, r6
80012e64:	ebfffc07 	bl	80011e88 <MACAddressSet>
80012e68:	e59d5004 	ldr	r5, [sp, #4]
80012e6c:	e3a01f47 	mov	r1, #284	; 0x11c
80012e70:	e1dd70b8 	ldrh	r7, [sp, #8]
80012e74:	e1a00004 	mov	r0, r4
80012e78:	e1a02005 	mov	r2, r5
80012e7c:	ebffffc6 	bl	80012d9c <LAN7800DeviceWriteReg>
80012e80:	e3500000 	cmp	r0, #0
80012e84:	0afffff0 	beq	80012e4c <LAN7800DeviceInitMACAddress+0x1c>
80012e88:	e1a02007 	mov	r2, r7
80012e8c:	e3a01f46 	mov	r1, #280	; 0x118
80012e90:	e1a00004 	mov	r0, r4
80012e94:	ebffffc0 	bl	80012d9c <LAN7800DeviceWriteReg>
80012e98:	e3500000 	cmp	r0, #0
80012e9c:	0affffea 	beq	80012e4c <LAN7800DeviceInitMACAddress+0x1c>
80012ea0:	e1a02005 	mov	r2, r5
80012ea4:	e3001404 	movw	r1, #1028	; 0x404
80012ea8:	e1a00004 	mov	r0, r4
80012eac:	ebffffba 	bl	80012d9c <LAN7800DeviceWriteReg>
80012eb0:	e3500000 	cmp	r0, #0
80012eb4:	0affffe4 	beq	80012e4c <LAN7800DeviceInitMACAddress+0x1c>
80012eb8:	e3872102 	orr	r2, r7, #-2147483648	; 0x80000000
80012ebc:	e1a00004 	mov	r0, r4
80012ec0:	e3a01b01 	mov	r1, #1024	; 0x400
80012ec4:	ebffffb4 	bl	80012d9c <LAN7800DeviceWriteReg>
80012ec8:	e3500000 	cmp	r0, #0
80012ecc:	0affffde 	beq	80012e4c <LAN7800DeviceInitMACAddress+0x1c>
80012ed0:	e28d000c 	add	r0, sp, #12
80012ed4:	ebffd6bb 	bl	800089c8 <String>
80012ed8:	e28d100c 	add	r1, sp, #12
80012edc:	e1a00006 	mov	r0, r6
80012ee0:	ebfffc06 	bl	80011f00 <MACAddressFormat>
80012ee4:	e28d000c 	add	r0, sp, #12
80012ee8:	ebffd6d0 	bl	80008a30 <StringGet>
80012eec:	e1a03000 	mov	r3, r0
80012ef0:	e30829f0 	movw	r2, #35312	; 0x89f0
80012ef4:	e3482001 	movt	r2, #32769	; 0x8001
80012ef8:	e30903e8 	movw	r0, #37864	; 0x93e8
80012efc:	e3480001 	movt	r0, #32769	; 0x8001
80012f00:	e3a01004 	mov	r1, #4
80012f04:	ebfffb14 	bl	80011b5c <LogWrite>
80012f08:	e28d000c 	add	r0, sp, #12
80012f0c:	ebffd6bd 	bl	80008a08 <_String>
80012f10:	e3a00001 	mov	r0, #1
80012f14:	eaffffcd 	b	80012e50 <LAN7800DeviceInitMACAddress+0x20>

80012f18 <LAN7800DeviceReadReg>:
80012f18:	e92d40f0 	push	{r4, r5, r6, r7, lr}
80012f1c:	e24dd014 	sub	sp, sp, #20
80012f20:	e1a04002 	mov	r4, r2
80012f24:	e1a05001 	mov	r5, r1
80012f28:	e1a07000 	mov	r7, r0
80012f2c:	ebffe04a 	bl	8000b05c <USBDeviceGetHost>
80012f30:	e1a06000 	mov	r6, r0
80012f34:	e1a00007 	mov	r0, r7
80012f38:	ebffe045 	bl	8000b054 <USBDeviceGetEndpoint0>
80012f3c:	e58d4008 	str	r4, [sp, #8]
80012f40:	e6ff3075 	uxth	r3, r5
80012f44:	e58d3004 	str	r3, [sp, #4]
80012f48:	e3a04000 	mov	r4, #0
80012f4c:	e58d4000 	str	r4, [sp]
80012f50:	e3a03004 	mov	r3, #4
80012f54:	e58d300c 	str	r3, [sp, #12]
80012f58:	e1a01000 	mov	r1, r0
80012f5c:	e3a030a1 	mov	r3, #161	; 0xa1
80012f60:	e1a00006 	mov	r0, r6
80012f64:	e3a020c0 	mov	r2, #192	; 0xc0
80012f68:	eb0005b0 	bl	80014630 <DWHCIDeviceControlMessage>
80012f6c:	e3500004 	cmp	r0, #4
80012f70:	03a00001 	moveq	r0, #1
80012f74:	1a000001 	bne	80012f80 <LAN7800DeviceReadReg+0x68>
80012f78:	e28dd014 	add	sp, sp, #20
80012f7c:	e8bd80f0 	pop	{r4, r5, r6, r7, pc}
80012f80:	e309240c 	movw	r2, #37900	; 0x940c
80012f84:	e30903e8 	movw	r0, #37864	; 0x93e8
80012f88:	e3482001 	movt	r2, #32769	; 0x8001
80012f8c:	e1a03005 	mov	r3, r5
80012f90:	e3480001 	movt	r0, #32769	; 0x8001
80012f94:	e3a01002 	mov	r1, #2
80012f98:	ebfffaef 	bl	80011b5c <LogWrite>
80012f9c:	e1a00004 	mov	r0, r4
80012fa0:	e28dd014 	add	sp, sp, #20
80012fa4:	e8bd80f0 	pop	{r4, r5, r6, r7, pc}

80012fa8 <LAN7800DeviceWaitReg>:
80012fa8:	e92d41f0 	push	{r4, r5, r6, r7, r8, lr}
80012fac:	e1a06000 	mov	r6, r0
80012fb0:	e24dd008 	sub	sp, sp, #8
80012fb4:	e3a00001 	mov	r0, #1
80012fb8:	e1a05001 	mov	r5, r1
80012fbc:	e1a08002 	mov	r8, r2
80012fc0:	e1a07003 	mov	r7, r3
80012fc4:	e30043e7 	movw	r4, #999	; 0x3e7
80012fc8:	ebfffa91 	bl	80011a14 <MsDelay>
80012fcc:	ea000006 	b	80012fec <LAN7800DeviceWaitReg+0x44>
80012fd0:	e59d3004 	ldr	r3, [sp, #4]
80012fd4:	e0033008 	and	r3, r3, r8
80012fd8:	e1530007 	cmp	r3, r7
80012fdc:	0a00000a 	beq	8001300c <LAN7800DeviceWaitReg+0x64>
80012fe0:	ebfffa8b 	bl	80011a14 <MsDelay>
80012fe4:	e2544001 	subs	r4, r4, #1
80012fe8:	0a000006 	beq	80013008 <LAN7800DeviceWaitReg+0x60>
80012fec:	e28d2004 	add	r2, sp, #4
80012ff0:	e1a01005 	mov	r1, r5
80012ff4:	e1a00006 	mov	r0, r6
80012ff8:	ebffffc6 	bl	80012f18 <LAN7800DeviceReadReg>
80012ffc:	e3500000 	cmp	r0, #0
80013000:	e3a00001 	mov	r0, #1
80013004:	1afffff1 	bne	80012fd0 <LAN7800DeviceWaitReg+0x28>
80013008:	e3a00000 	mov	r0, #0
8001300c:	e28dd008 	add	sp, sp, #8
80013010:	e8bd81f0 	pop	{r4, r5, r6, r7, r8, pc}

80013014 <LAN7800DevicePHYWrite>:
80013014:	e92d4070 	push	{r4, r5, r6, lr}
80013018:	e3a03000 	mov	r3, #0
8001301c:	e1a04001 	mov	r4, r1
80013020:	e1a06002 	mov	r6, r2
80013024:	e3a01e12 	mov	r1, #288	; 0x120
80013028:	e3a02001 	mov	r2, #1
8001302c:	e1a05000 	mov	r5, r0
80013030:	ebffffdc 	bl	80012fa8 <LAN7800DeviceWaitReg>
80013034:	e3500000 	cmp	r0, #0
80013038:	1a000001 	bne	80013044 <LAN7800DevicePHYWrite+0x30>
8001303c:	e3a00000 	mov	r0, #0
80013040:	e8bd8070 	pop	{r4, r5, r6, pc}
80013044:	e1a02006 	mov	r2, r6
80013048:	e3a01f49 	mov	r1, #292	; 0x124
8001304c:	e1a00005 	mov	r0, r5
80013050:	ebffff51 	bl	80012d9c <LAN7800DeviceWriteReg>
80013054:	e3500000 	cmp	r0, #0
80013058:	0afffff7 	beq	8001303c <LAN7800DevicePHYWrite+0x28>
8001305c:	e1a02304 	lsl	r2, r4, #6
80013060:	e3a01e12 	mov	r1, #288	; 0x120
80013064:	e2022d1f 	and	r2, r2, #1984	; 0x7c0
80013068:	e1a00005 	mov	r0, r5
8001306c:	e3822b02 	orr	r2, r2, #2048	; 0x800
80013070:	e3822003 	orr	r2, r2, #3
80013074:	ebffff48 	bl	80012d9c <LAN7800DeviceWriteReg>
80013078:	e3500000 	cmp	r0, #0
8001307c:	0affffee 	beq	8001303c <LAN7800DevicePHYWrite+0x28>
80013080:	e1a00005 	mov	r0, r5
80013084:	e3a03000 	mov	r3, #0
80013088:	e3a02001 	mov	r2, #1
8001308c:	e3a01e12 	mov	r1, #288	; 0x120
80013090:	e8bd4070 	pop	{r4, r5, r6, lr}
80013094:	eaffffc3 	b	80012fa8 <LAN7800DeviceWaitReg>

80013098 <LAN7800DevicePHYRead>:
80013098:	e92d4070 	push	{r4, r5, r6, lr}
8001309c:	e3a03000 	mov	r3, #0
800130a0:	e24dd008 	sub	sp, sp, #8
800130a4:	e1a04001 	mov	r4, r1
800130a8:	e1a06002 	mov	r6, r2
800130ac:	e3a01e12 	mov	r1, #288	; 0x120
800130b0:	e3a02001 	mov	r2, #1
800130b4:	e1a05000 	mov	r5, r0
800130b8:	ebffffba 	bl	80012fa8 <LAN7800DeviceWaitReg>
800130bc:	e3500000 	cmp	r0, #0
800130c0:	1a000001 	bne	800130cc <LAN7800DevicePHYRead+0x34>
800130c4:	e28dd008 	add	sp, sp, #8
800130c8:	e8bd8070 	pop	{r4, r5, r6, pc}
800130cc:	e1a02304 	lsl	r2, r4, #6
800130d0:	e3a01e12 	mov	r1, #288	; 0x120
800130d4:	e2022d1f 	and	r2, r2, #1984	; 0x7c0
800130d8:	e1a00005 	mov	r0, r5
800130dc:	e3822b02 	orr	r2, r2, #2048	; 0x800
800130e0:	e3822001 	orr	r2, r2, #1
800130e4:	ebffff2c 	bl	80012d9c <LAN7800DeviceWriteReg>
800130e8:	e3500000 	cmp	r0, #0
800130ec:	0a000006 	beq	8001310c <LAN7800DevicePHYRead+0x74>
800130f0:	e3a03000 	mov	r3, #0
800130f4:	e3a02001 	mov	r2, #1
800130f8:	e3a01e12 	mov	r1, #288	; 0x120
800130fc:	e1a00005 	mov	r0, r5
80013100:	ebffffa8 	bl	80012fa8 <LAN7800DeviceWaitReg>
80013104:	e3500000 	cmp	r0, #0
80013108:	1a000002 	bne	80013118 <LAN7800DevicePHYRead+0x80>
8001310c:	e3a00000 	mov	r0, #0
80013110:	e28dd008 	add	sp, sp, #8
80013114:	e8bd8070 	pop	{r4, r5, r6, pc}
80013118:	e1a00005 	mov	r0, r5
8001311c:	e28d2004 	add	r2, sp, #4
80013120:	e3a01f49 	mov	r1, #292	; 0x124
80013124:	ebffff7b 	bl	80012f18 <LAN7800DeviceReadReg>
80013128:	e3500000 	cmp	r0, #0
8001312c:	0afffff6 	beq	8001310c <LAN7800DevicePHYRead+0x74>
80013130:	e59d3004 	ldr	r3, [sp, #4]
80013134:	e3a00001 	mov	r0, #1
80013138:	e1c630b0 	strh	r3, [r6]
8001313c:	eaffffe0 	b	800130c4 <LAN7800DevicePHYRead+0x2c>

80013140 <LAN7800DeviceIsLinkUp>:
80013140:	e52de004 	push	{lr}		; (str lr, [sp, #-4]!)
80013144:	e24dd00c 	sub	sp, sp, #12
80013148:	e28d2006 	add	r2, sp, #6
8001314c:	e3a01001 	mov	r1, #1
80013150:	ebffffd0 	bl	80013098 <LAN7800DevicePHYRead>
80013154:	e3500000 	cmp	r0, #0
80013158:	11dd00b6 	ldrhne	r0, [sp, #6]
8001315c:	17e00150 	ubfxne	r0, r0, #2, #1
80013160:	e28dd00c 	add	sp, sp, #12
80013164:	e49df004 	pop	{pc}		; (ldr pc, [sp], #4)

80013168 <LAN7800DeviceInitPHY>:
80013168:	e92d4010 	push	{r4, lr}
8001316c:	e24dd008 	sub	sp, sp, #8
80013170:	e28d2006 	add	r2, sp, #6
80013174:	e3a0101d 	mov	r1, #29
80013178:	e1a04000 	mov	r4, r0
8001317c:	ebffffc5 	bl	80013098 <LAN7800DevicePHYRead>
80013180:	e3500000 	cmp	r0, #0
80013184:	0a000006 	beq	800131a4 <LAN7800DeviceInitPHY+0x3c>
80013188:	e1dd20b6 	ldrh	r2, [sp, #6]
8001318c:	e1a00004 	mov	r0, r4
80013190:	e3a0101d 	mov	r1, #29
80013194:	e3c220ff 	bic	r2, r2, #255	; 0xff
80013198:	e3822061 	orr	r2, r2, #97	; 0x61
8001319c:	e1cd20b6 	strh	r2, [sp, #6]
800131a0:	ebffff9b 	bl	80013014 <LAN7800DevicePHYWrite>
800131a4:	e28dd008 	add	sp, sp, #8
800131a8:	e8bd8010 	pop	{r4, pc}

800131ac <LAN7800DeviceReadWriteReg>:
800131ac:	e92d40f0 	push	{r4, r5, r6, r7, lr}
800131b0:	e24dd00c 	sub	sp, sp, #12
800131b4:	e1a05002 	mov	r5, r2
800131b8:	e28d2004 	add	r2, sp, #4
800131bc:	e1a04003 	mov	r4, r3
800131c0:	e1a06000 	mov	r6, r0
800131c4:	e1a07001 	mov	r7, r1
800131c8:	ebffff52 	bl	80012f18 <LAN7800DeviceReadReg>
800131cc:	e3500000 	cmp	r0, #0
800131d0:	0a000006 	beq	800131f0 <LAN7800DeviceReadWriteReg+0x44>
800131d4:	e59d2004 	ldr	r2, [sp, #4]
800131d8:	e1a01007 	mov	r1, r7
800131dc:	e1a00006 	mov	r0, r6
800131e0:	e0022004 	and	r2, r2, r4
800131e4:	e1822005 	orr	r2, r2, r5
800131e8:	e58d2004 	str	r2, [sp, #4]
800131ec:	ebfffeea 	bl	80012d9c <LAN7800DeviceWriteReg>
800131f0:	e28dd00c 	add	sp, sp, #12
800131f4:	e8bd80f0 	pop	{r4, r5, r6, r7, pc}

800131f8 <LAN7800DeviceConfigure>:
800131f8:	e92d4070 	push	{r4, r5, r6, lr}
800131fc:	e3a01002 	mov	r1, #2
80013200:	e24dd010 	sub	sp, sp, #16
80013204:	e1a04000 	mov	r4, r0
80013208:	ebffdf99 	bl	8000b074 <USBDeviceGetDescriptor>
8001320c:	e3500000 	cmp	r0, #0
80013210:	0a000002 	beq	80013220 <LAN7800DeviceConfigure+0x28>
80013214:	e5d03004 	ldrb	r3, [r0, #4]
80013218:	e3530001 	cmp	r3, #1
8001321c:	0a000007 	beq	80013240 <LAN7800DeviceConfigure+0x48>
80013220:	e30913e8 	movw	r1, #37864	; 0x93e8
80013224:	e1a00004 	mov	r0, r4
80013228:	e3481001 	movt	r1, #32769	; 0x8001
8001322c:	e3a06000 	mov	r6, #0
80013230:	ebffdf91 	bl	8000b07c <USBDeviceConfigurationError>
80013234:	e1a00006 	mov	r0, r6
80013238:	e28dd010 	add	sp, sp, #16
8001323c:	e8bd8070 	pop	{r4, r5, r6, pc}
80013240:	e3a01004 	mov	r1, #4
80013244:	e1a00004 	mov	r0, r4
80013248:	ebffdf89 	bl	8000b074 <USBDeviceGetDescriptor>
8001324c:	e3500000 	cmp	r0, #0
80013250:	0afffff2 	beq	80013220 <LAN7800DeviceConfigure+0x28>
80013254:	e5d03002 	ldrb	r3, [r0, #2]
80013258:	e3530000 	cmp	r3, #0
8001325c:	1affffef 	bne	80013220 <LAN7800DeviceConfigure+0x28>
80013260:	e5d03003 	ldrb	r3, [r0, #3]
80013264:	e3530000 	cmp	r3, #0
80013268:	1affffec 	bne	80013220 <LAN7800DeviceConfigure+0x28>
8001326c:	e5d03004 	ldrb	r3, [r0, #4]
80013270:	e3530003 	cmp	r3, #3
80013274:	0a000004 	beq	8001328c <LAN7800DeviceConfigure+0x94>
80013278:	eaffffe8 	b	80013220 <LAN7800DeviceConfigure+0x28>
8001327c:	e5d53003 	ldrb	r3, [r5, #3]
80013280:	e203303f 	and	r3, r3, #63	; 0x3f
80013284:	e3530002 	cmp	r3, #2
80013288:	0a00001f 	beq	8001330c <LAN7800DeviceConfigure+0x114>
8001328c:	e3a01005 	mov	r1, #5
80013290:	e1a00004 	mov	r0, r4
80013294:	ebffdf76 	bl	8000b074 <USBDeviceGetDescriptor>
80013298:	e2505000 	subs	r5, r0, #0
8001329c:	1afffff6 	bne	8001327c <LAN7800DeviceConfigure+0x84>
800132a0:	e594303c 	ldr	r3, [r4, #60]	; 0x3c
800132a4:	e3530000 	cmp	r3, #0
800132a8:	0affffdc 	beq	80013220 <LAN7800DeviceConfigure+0x28>
800132ac:	e5943040 	ldr	r3, [r4, #64]	; 0x40
800132b0:	e3530000 	cmp	r3, #0
800132b4:	0affffd9 	beq	80013220 <LAN7800DeviceConfigure+0x28>
800132b8:	e1a00004 	mov	r0, r4
800132bc:	ebffddc9 	bl	8000a9e8 <USBDeviceConfigure>
800132c0:	e2506000 	subs	r6, r0, #0
800132c4:	0a000026 	beq	80013364 <LAN7800DeviceConfigure+0x16c>
800132c8:	e1a0200d 	mov	r2, sp
800132cc:	e1a01005 	mov	r1, r5
800132d0:	e1a00004 	mov	r0, r4
800132d4:	ebffff0f 	bl	80012f18 <LAN7800DeviceReadReg>
800132d8:	e1dd30b2 	ldrh	r3, [sp, #2]
800132dc:	e3500000 	cmp	r0, #0
800132e0:	0a000001 	beq	800132ec <LAN7800DeviceConfigure+0xf4>
800132e4:	e3530b1e 	cmp	r3, #30720	; 0x7800
800132e8:	0a000024 	beq	80013380 <LAN7800DeviceConfigure+0x188>
800132ec:	e3092428 	movw	r2, #37928	; 0x9428
800132f0:	e30903e8 	movw	r0, #37864	; 0x93e8
800132f4:	e3482001 	movt	r2, #32769	; 0x8001
800132f8:	e3a01001 	mov	r1, #1
800132fc:	e3480001 	movt	r0, #32769	; 0x8001
80013300:	e3a06000 	mov	r6, #0
80013304:	ebfffa14 	bl	80011b5c <LogWrite>
80013308:	eaffffc9 	b	80013234 <LAN7800DeviceConfigure+0x3c>
8001330c:	e1d530d2 	ldrsb	r3, [r5, #2]
80013310:	e3a0001c 	mov	r0, #28
80013314:	e3530000 	cmp	r3, #0
80013318:	ba000008 	blt	80013340 <LAN7800DeviceConfigure+0x148>
8001331c:	e5943040 	ldr	r3, [r4, #64]	; 0x40
80013320:	e3530000 	cmp	r3, #0
80013324:	1affffbd 	bne	80013220 <LAN7800DeviceConfigure+0x28>
80013328:	ebfff9b1 	bl	800119f4 <malloc>
8001332c:	e5840040 	str	r0, [r4, #64]	; 0x40
80013330:	e1a02005 	mov	r2, r5
80013334:	e1a01004 	mov	r1, r4
80013338:	ebffe78f 	bl	8000d17c <USBEndpoint2>
8001333c:	eaffffd2 	b	8001328c <LAN7800DeviceConfigure+0x94>
80013340:	e594303c 	ldr	r3, [r4, #60]	; 0x3c
80013344:	e3530000 	cmp	r3, #0
80013348:	1affffb4 	bne	80013220 <LAN7800DeviceConfigure+0x28>
8001334c:	ebfff9a8 	bl	800119f4 <malloc>
80013350:	e584003c 	str	r0, [r4, #60]	; 0x3c
80013354:	e1a02005 	mov	r2, r5
80013358:	e1a01004 	mov	r1, r4
8001335c:	ebffe786 	bl	8000d17c <USBEndpoint2>
80013360:	eaffffc9 	b	8001328c <LAN7800DeviceConfigure+0x94>
80013364:	e3072f60 	movw	r2, #32608	; 0x7f60
80013368:	e30903e8 	movw	r0, #37864	; 0x93e8
8001336c:	e3482001 	movt	r2, #32769	; 0x8001
80013370:	e3a01001 	mov	r1, #1
80013374:	e3480001 	movt	r0, #32769	; 0x8001
80013378:	ebfff9f7 	bl	80011b5c <LogWrite>
8001337c:	eaffffac 	b	80013234 <LAN7800DeviceConfigure+0x3c>
80013380:	e3e03000 	mvn	r3, #0
80013384:	e3a02002 	mov	r2, #2
80013388:	e3a01010 	mov	r1, #16
8001338c:	e1a00004 	mov	r0, r4
80013390:	ebffff85 	bl	800131ac <LAN7800DeviceReadWriteReg>
80013394:	e3500000 	cmp	r0, #0
80013398:	0a00009e 	beq	80013618 <LAN7800DeviceConfigure+0x420>
8001339c:	e1a03005 	mov	r3, r5
800133a0:	e3a02002 	mov	r2, #2
800133a4:	e3a01010 	mov	r1, #16
800133a8:	e1a00004 	mov	r0, r4
800133ac:	ebfffefd 	bl	80012fa8 <LAN7800DeviceWaitReg>
800133b0:	e3500000 	cmp	r0, #0
800133b4:	0a000097 	beq	80013618 <LAN7800DeviceConfigure+0x420>
800133b8:	e1a00004 	mov	r0, r4
800133bc:	ebfffe9b 	bl	80012e30 <LAN7800DeviceInitMACAddress>
800133c0:	e2506000 	subs	r6, r0, #0
800133c4:	0a00009d 	beq	80013640 <LAN7800DeviceConfigure+0x448>
800133c8:	e3a02018 	mov	r2, #24
800133cc:	e3a01090 	mov	r1, #144	; 0x90
800133d0:	e1a00004 	mov	r0, r4
800133d4:	ebfffe70 	bl	80012d9c <LAN7800DeviceWriteReg>
800133d8:	e3500000 	cmp	r0, #0
800133dc:	0a000095 	beq	80013638 <LAN7800DeviceConfigure+0x440>
800133e0:	e3a02b02 	mov	r2, #2048	; 0x800
800133e4:	e3a01094 	mov	r1, #148	; 0x94
800133e8:	e1a00004 	mov	r0, r4
800133ec:	ebfffe6a 	bl	80012d9c <LAN7800DeviceWriteReg>
800133f0:	e3500000 	cmp	r0, #0
800133f4:	0a00008f 	beq	80013638 <LAN7800DeviceConfigure+0x440>
800133f8:	e3e03010 	mvn	r3, #16
800133fc:	e3a02603 	mov	r2, #3145728	; 0x300000
80013400:	e3a01010 	mov	r1, #16
80013404:	e1a00004 	mov	r0, r4
80013408:	ebffff67 	bl	800131ac <LAN7800DeviceReadWriteReg>
8001340c:	e3500000 	cmp	r0, #0
80013410:	0a000088 	beq	80013638 <LAN7800DeviceConfigure+0x440>
80013414:	e3e03040 	mvn	r3, #64	; 0x40
80013418:	e3a02020 	mov	r2, #32
8001341c:	e3a01080 	mov	r1, #128	; 0x80
80013420:	e1a00004 	mov	r0, r4
80013424:	ebffff60 	bl	800131ac <LAN7800DeviceReadWriteReg>
80013428:	e3500000 	cmp	r0, #0
8001342c:	0a000081 	beq	80013638 <LAN7800DeviceConfigure+0x440>
80013430:	e3a02017 	mov	r2, #23
80013434:	e3a010c8 	mov	r1, #200	; 0xc8
80013438:	e1a00004 	mov	r0, r4
8001343c:	ebfffe56 	bl	80012d9c <LAN7800DeviceWriteReg>
80013440:	e3500000 	cmp	r0, #0
80013444:	0a00007b 	beq	80013638 <LAN7800DeviceConfigure+0x440>
80013448:	e3a02017 	mov	r2, #23
8001344c:	e3a010cc 	mov	r1, #204	; 0xcc
80013450:	e1a00004 	mov	r0, r4
80013454:	ebfffe50 	bl	80012d9c <LAN7800DeviceWriteReg>
80013458:	e3500000 	cmp	r0, #0
8001345c:	0a000075 	beq	80013638 <LAN7800DeviceConfigure+0x440>
80013460:	e3a02000 	mov	r2, #0
80013464:	e3a01098 	mov	r1, #152	; 0x98
80013468:	e1a00004 	mov	r0, r4
8001346c:	ebfffe4a 	bl	80012d9c <LAN7800DeviceWriteReg>
80013470:	e3500000 	cmp	r0, #0
80013474:	0a00006f 	beq	80013638 <LAN7800DeviceConfigure+0x440>
80013478:	e3e02000 	mvn	r2, #0
8001347c:	e3a0100c 	mov	r1, #12
80013480:	e1a00004 	mov	r0, r4
80013484:	ebfffe44 	bl	80012d9c <LAN7800DeviceWriteReg>
80013488:	e3500000 	cmp	r0, #0
8001348c:	0a000069 	beq	80013638 <LAN7800DeviceConfigure+0x440>
80013490:	e3a02000 	mov	r2, #0
80013494:	e3a01f43 	mov	r1, #268	; 0x10c
80013498:	e1a00004 	mov	r0, r4
8001349c:	ebfffe3e 	bl	80012d9c <LAN7800DeviceWriteReg>
800134a0:	e3500000 	cmp	r0, #0
800134a4:	0a000063 	beq	80013638 <LAN7800DeviceConfigure+0x440>
800134a8:	e3a02000 	mov	r2, #0
800134ac:	e3a010d0 	mov	r1, #208	; 0xd0
800134b0:	e1a00004 	mov	r0, r4
800134b4:	ebfffe38 	bl	80012d9c <LAN7800DeviceWriteReg>
800134b8:	e3500000 	cmp	r0, #0
800134bc:	0a00005d 	beq	80013638 <LAN7800DeviceConfigure+0x440>
800134c0:	e3e03000 	mvn	r3, #0
800134c4:	e3002402 	movw	r2, #1026	; 0x402
800134c8:	e3a010b0 	mov	r1, #176	; 0xb0
800134cc:	e1a00004 	mov	r0, r4
800134d0:	ebffff35 	bl	800131ac <LAN7800DeviceReadWriteReg>
800134d4:	e3500000 	cmp	r0, #0
800134d8:	0a000056 	beq	80013638 <LAN7800DeviceConfigure+0x440>
800134dc:	e3e03000 	mvn	r3, #0
800134e0:	e3a02010 	mov	r2, #16
800134e4:	e3a01014 	mov	r1, #20
800134e8:	e1a00004 	mov	r0, r4
800134ec:	ebffff2e 	bl	800131ac <LAN7800DeviceReadWriteReg>
800134f0:	e3500000 	cmp	r0, #0
800134f4:	0a00005f 	beq	80013678 <LAN7800DeviceConfigure+0x480>
800134f8:	e3a03080 	mov	r3, #128	; 0x80
800134fc:	e3a02090 	mov	r2, #144	; 0x90
80013500:	e3a01014 	mov	r1, #20
80013504:	e1a00004 	mov	r0, r4
80013508:	ebfffea6 	bl	80012fa8 <LAN7800DeviceWaitReg>
8001350c:	e3500000 	cmp	r0, #0
80013510:	0a000058 	beq	80013678 <LAN7800DeviceConfigure+0x480>
80013514:	e3e03000 	mvn	r3, #0
80013518:	e3a02b06 	mov	r2, #6144	; 0x1800
8001351c:	e3a01c01 	mov	r1, #256	; 0x100
80013520:	e1a00004 	mov	r0, r4
80013524:	ebffff20 	bl	800131ac <LAN7800DeviceReadWriteReg>
80013528:	e3500000 	cmp	r0, #0
8001352c:	0a000041 	beq	80013638 <LAN7800DeviceConfigure+0x440>
80013530:	e3e03000 	mvn	r3, #0
80013534:	e3a02001 	mov	r2, #1
80013538:	e3a01f42 	mov	r1, #264	; 0x108
8001353c:	e1a00004 	mov	r0, r4
80013540:	ebffff19 	bl	800131ac <LAN7800DeviceReadWriteReg>
80013544:	e3500000 	cmp	r0, #0
80013548:	0a00003a 	beq	80013638 <LAN7800DeviceConfigure+0x440>
8001354c:	e3e03000 	mvn	r3, #0
80013550:	e3a02102 	mov	r2, #-2147483648	; 0x80000000
80013554:	e3a010c4 	mov	r1, #196	; 0xc4
80013558:	e1a00004 	mov	r0, r4
8001355c:	ebffff12 	bl	800131ac <LAN7800DeviceReadWriteReg>
80013560:	e3500000 	cmp	r0, #0
80013564:	0a000033 	beq	80013638 <LAN7800DeviceConfigure+0x440>
80013568:	e30f3fff 	movw	r3, #65535	; 0xffff
8001356c:	e3a02001 	mov	r2, #1
80013570:	e34c3000 	movt	r3, #49152	; 0xc000
80013574:	e3a01f41 	mov	r1, #260	; 0x104
80013578:	e34025ee 	movt	r2, #1518	; 0x5ee
8001357c:	e1a00004 	mov	r0, r4
80013580:	ebffff09 	bl	800131ac <LAN7800DeviceReadWriteReg>
80013584:	e3500000 	cmp	r0, #0
80013588:	0a00002a 	beq	80013638 <LAN7800DeviceConfigure+0x440>
8001358c:	e3e03000 	mvn	r3, #0
80013590:	e3a02102 	mov	r2, #-2147483648	; 0x80000000
80013594:	e3a010c0 	mov	r1, #192	; 0xc0
80013598:	e1a00004 	mov	r0, r4
8001359c:	ebffff02 	bl	800131ac <LAN7800DeviceReadWriteReg>
800135a0:	e3500000 	cmp	r0, #0
800135a4:	0a000023 	beq	80013638 <LAN7800DeviceConfigure+0x440>
800135a8:	e1a00004 	mov	r0, r4
800135ac:	ebfffeed 	bl	80013168 <LAN7800DeviceInitPHY>
800135b0:	e2506000 	subs	r6, r0, #0
800135b4:	0a000028 	beq	8001365c <LAN7800DeviceConfigure+0x464>
800135b8:	e28d0004 	add	r0, sp, #4
800135bc:	e3a06001 	mov	r6, #1
800135c0:	ebffd500 	bl	800089c8 <String>
800135c4:	e30a38f4 	movw	r3, #43252	; 0xa8f4
800135c8:	e3081a48 	movw	r1, #35400	; 0x8a48
800135cc:	e3483009 	movt	r3, #32777	; 0x8009
800135d0:	e28d0004 	add	r0, sp, #4
800135d4:	e3481001 	movt	r1, #32769	; 0x8001
800135d8:	e5932000 	ldr	r2, [r3]
800135dc:	e082c006 	add	ip, r2, r6
800135e0:	e583c000 	str	ip, [r3]
800135e4:	ebffd730 	bl	800092ac <StringFormat>
800135e8:	eb000b17 	bl	8001624c <DeviceNameServiceGet>
800135ec:	e1a05000 	mov	r5, r0
800135f0:	e28d0004 	add	r0, sp, #4
800135f4:	ebffd50d 	bl	80008a30 <StringGet>
800135f8:	e1a01000 	mov	r1, r0
800135fc:	e1a02004 	mov	r2, r4
80013600:	e1a00005 	mov	r0, r5
80013604:	e3a03000 	mov	r3, #0
80013608:	eb000ae5 	bl	800161a4 <DeviceNameServiceAddDevice>
8001360c:	e28d0004 	add	r0, sp, #4
80013610:	ebffd4fc 	bl	80008a08 <_String>
80013614:	eaffff06 	b	80013234 <LAN7800DeviceConfigure+0x3c>
80013618:	e3092440 	movw	r2, #37952	; 0x9440
8001361c:	e30903e8 	movw	r0, #37864	; 0x93e8
80013620:	e3482001 	movt	r2, #32769	; 0x8001
80013624:	e3a01001 	mov	r1, #1
80013628:	e3480001 	movt	r0, #32769	; 0x8001
8001362c:	e3a06000 	mov	r6, #0
80013630:	ebfff949 	bl	80011b5c <LogWrite>
80013634:	eafffefe 	b	80013234 <LAN7800DeviceConfigure+0x3c>
80013638:	e3a06000 	mov	r6, #0
8001363c:	eafffefc 	b	80013234 <LAN7800DeviceConfigure+0x3c>
80013640:	e3092450 	movw	r2, #37968	; 0x9450
80013644:	e30903e8 	movw	r0, #37864	; 0x93e8
80013648:	e3482001 	movt	r2, #32769	; 0x8001
8001364c:	e3a01001 	mov	r1, #1
80013650:	e3480001 	movt	r0, #32769	; 0x8001
80013654:	ebfff940 	bl	80011b5c <LogWrite>
80013658:	eafffef5 	b	80013234 <LAN7800DeviceConfigure+0x3c>
8001365c:	e309247c 	movw	r2, #38012	; 0x947c
80013660:	e30903e8 	movw	r0, #37864	; 0x93e8
80013664:	e3482001 	movt	r2, #32769	; 0x8001
80013668:	e3a01001 	mov	r1, #1
8001366c:	e3480001 	movt	r0, #32769	; 0x8001
80013670:	ebfff939 	bl	80011b5c <LogWrite>
80013674:	eafffeee 	b	80013234 <LAN7800DeviceConfigure+0x3c>
80013678:	e3092468 	movw	r2, #37992	; 0x9468
8001367c:	e30903e8 	movw	r0, #37864	; 0x93e8
80013680:	e3482001 	movt	r2, #32769	; 0x8001
80013684:	e3a01001 	mov	r1, #1
80013688:	e3480001 	movt	r0, #32769	; 0x8001
8001368c:	e3a06000 	mov	r6, #0
80013690:	ebfff931 	bl	80011b5c <LogWrite>
80013694:	eafffee6 	b	80013234 <LAN7800DeviceConfigure+0x3c>

80013698 <read32>:
80013698:	e5900000 	ldr	r0, [r0]
8001369c:	e12fff1e 	bx	lr

800136a0 <write32>:
800136a0:	e5801000 	str	r1, [r0]
800136a4:	e12fff1e 	bx	lr

800136a8 <DWHCIDeviceCompletionRoutine>:
800136a8:	e3a03000 	mov	r3, #0
800136ac:	e5823048 	str	r3, [r2, #72]	; 0x48
800136b0:	e12fff1e 	bx	lr

800136b4 <DWHCIDevice>:
800136b4:	e92d4070 	push	{r4, r5, r6, lr}
800136b8:	e1a04000 	mov	r4, r0
800136bc:	e3a05000 	mov	r5, #0
800136c0:	e1a01000 	mov	r1, r0
800136c4:	e5805004 	str	r5, [r0, #4]
800136c8:	e280004c 	add	r0, r0, #76	; 0x4c
800136cc:	e500504c 	str	r5, [r0, #-76]	; 0xffffffb4
800136d0:	e5845048 	str	r5, [r4, #72]	; 0x48
800136d4:	eb00112f 	bl	80017b98 <DWHCIRootPort>
800136d8:	e1a01005 	mov	r1, r5
800136dc:	e2843004 	add	r3, r4, #4
800136e0:	e2842044 	add	r2, r4, #68	; 0x44
800136e4:	e5a31004 	str	r1, [r3, #4]!
800136e8:	e1530002 	cmp	r3, r2
800136ec:	1afffffc 	bne	800136e4 <DWHCIDevice+0x30>
800136f0:	e8bd8070 	pop	{r4, r5, r6, pc}

800136f4 <_DWHCIDevice>:
800136f4:	e280004c 	add	r0, r0, #76	; 0x4c
800136f8:	ea001129 	b	80017ba4 <_DWHCIRootPort>

800136fc <DWHCIDeviceEnableGlobalInterrupts>:
800136fc:	e52de004 	push	{lr}		; (str lr, [sp, #-4]!)
80013700:	e3a01008 	mov	r1, #8
80013704:	e34d1098 	movt	r1, #53400	; 0xd098
80013708:	e24dd014 	sub	sp, sp, #20
8001370c:	e28d0004 	add	r0, sp, #4
80013710:	eb000696 	bl	80015170 <DWHCIRegister>
80013714:	e28d0004 	add	r0, sp, #4
80013718:	eb00069f 	bl	8001519c <DWHCIRegisterRead>
8001371c:	e3a01001 	mov	r1, #1
80013720:	e28d0004 	add	r0, sp, #4
80013724:	eb0006b6 	bl	80015204 <DWHCIRegisterOr>
80013728:	e28d0004 	add	r0, sp, #4
8001372c:	eb0006a1 	bl	800151b8 <DWHCIRegisterWrite>
80013730:	e28d0004 	add	r0, sp, #4
80013734:	eb000695 	bl	80015190 <_DWHCIRegister>
80013738:	e28dd014 	add	sp, sp, #20
8001373c:	e49df004 	pop	{pc}		; (ldr pc, [sp], #4)

80013740 <DWHCIDeviceEnableCommonInterrupts>:
80013740:	e52de004 	push	{lr}		; (str lr, [sp, #-4]!)
80013744:	e3a01014 	mov	r1, #20
80013748:	e34d1098 	movt	r1, #53400	; 0xd098
8001374c:	e24dd014 	sub	sp, sp, #20
80013750:	e28d0004 	add	r0, sp, #4
80013754:	eb000685 	bl	80015170 <DWHCIRegister>
80013758:	e28d0004 	add	r0, sp, #4
8001375c:	eb0006bb 	bl	80015250 <DWHCIRegisterSetAll>
80013760:	e28d0004 	add	r0, sp, #4
80013764:	eb000693 	bl	800151b8 <DWHCIRegisterWrite>
80013768:	e28d0004 	add	r0, sp, #4
8001376c:	eb000687 	bl	80015190 <_DWHCIRegister>
80013770:	e28dd014 	add	sp, sp, #20
80013774:	e49df004 	pop	{pc}		; (ldr pc, [sp], #4)

80013778 <DWHCIDeviceEnableHostInterrupts>:
80013778:	e92d4010 	push	{r4, lr}
8001377c:	e3a01018 	mov	r1, #24
80013780:	e34d1098 	movt	r1, #53400	; 0xd098
80013784:	e24dd010 	sub	sp, sp, #16
80013788:	e3a02000 	mov	r2, #0
8001378c:	e1a04000 	mov	r4, r0
80013790:	e28d0004 	add	r0, sp, #4
80013794:	eb000679 	bl	80015180 <DWHCIRegister2>
80013798:	e28d0004 	add	r0, sp, #4
8001379c:	eb000685 	bl	800151b8 <DWHCIRegisterWrite>
800137a0:	e1a00004 	mov	r0, r4
800137a4:	ebffffe5 	bl	80013740 <DWHCIDeviceEnableCommonInterrupts>
800137a8:	e28d0004 	add	r0, sp, #4
800137ac:	eb00067a 	bl	8001519c <DWHCIRegisterRead>
800137b0:	e3a01402 	mov	r1, #33554432	; 0x2000000
800137b4:	e28d0004 	add	r0, sp, #4
800137b8:	eb000691 	bl	80015204 <DWHCIRegisterOr>
800137bc:	e28d0004 	add	r0, sp, #4
800137c0:	eb00067c 	bl	800151b8 <DWHCIRegisterWrite>
800137c4:	e28d0004 	add	r0, sp, #4
800137c8:	eb000670 	bl	80015190 <_DWHCIRegister>
800137cc:	e28dd010 	add	sp, sp, #16
800137d0:	e8bd8010 	pop	{r4, pc}

800137d4 <DWHCIDeviceEnableChannelInterrupt>:
800137d4:	e92d4010 	push	{r4, lr}
800137d8:	e1a04001 	mov	r4, r1
800137dc:	e24dd010 	sub	sp, sp, #16
800137e0:	e3001418 	movw	r1, #1048	; 0x418
800137e4:	e34d1098 	movt	r1, #53400	; 0xd098
800137e8:	e28d0004 	add	r0, sp, #4
800137ec:	eb00065f 	bl	80015170 <DWHCIRegister>
800137f0:	ebfffac6 	bl	80012310 <uspi_EnterCritical>
800137f4:	e28d0004 	add	r0, sp, #4
800137f8:	eb000667 	bl	8001519c <DWHCIRegisterRead>
800137fc:	e3a01001 	mov	r1, #1
80013800:	e28d0004 	add	r0, sp, #4
80013804:	e1a01411 	lsl	r1, r1, r4
80013808:	eb00067d 	bl	80015204 <DWHCIRegisterOr>
8001380c:	e28d0004 	add	r0, sp, #4
80013810:	eb000668 	bl	800151b8 <DWHCIRegisterWrite>
80013814:	ebfffacc 	bl	8001234c <uspi_LeaveCritical>
80013818:	e28d0004 	add	r0, sp, #4
8001381c:	eb00065b 	bl	80015190 <_DWHCIRegister>
80013820:	e28dd010 	add	sp, sp, #16
80013824:	e8bd8010 	pop	{r4, pc}

80013828 <DWHCIDeviceDisableChannelInterrupt>:
80013828:	e92d4010 	push	{r4, lr}
8001382c:	e1a04001 	mov	r4, r1
80013830:	e24dd010 	sub	sp, sp, #16
80013834:	e3001418 	movw	r1, #1048	; 0x418
80013838:	e34d1098 	movt	r1, #53400	; 0xd098
8001383c:	e28d0004 	add	r0, sp, #4
80013840:	eb00064a 	bl	80015170 <DWHCIRegister>
80013844:	ebfffab1 	bl	80012310 <uspi_EnterCritical>
80013848:	e28d0004 	add	r0, sp, #4
8001384c:	eb000652 	bl	8001519c <DWHCIRegisterRead>
80013850:	e3a01001 	mov	r1, #1
80013854:	e28d0004 	add	r0, sp, #4
80013858:	e1e01411 	mvn	r1, r1, lsl r4
8001385c:	eb000664 	bl	800151f4 <DWHCIRegisterAnd>
80013860:	e28d0004 	add	r0, sp, #4
80013864:	eb000653 	bl	800151b8 <DWHCIRegisterWrite>
80013868:	ebfffab7 	bl	8001234c <uspi_LeaveCritical>
8001386c:	e28d0004 	add	r0, sp, #4
80013870:	eb000646 	bl	80015190 <_DWHCIRegister>
80013874:	e28dd010 	add	sp, sp, #16
80013878:	e8bd8010 	pop	{r4, pc}

8001387c <DWHCIDeviceStartChannel>:
8001387c:	e92d4070 	push	{r4, r5, r6, lr}
80013880:	e1a00001 	mov	r0, r1
80013884:	e24dd048 	sub	sp, sp, #72	; 0x48
80013888:	e1a04001 	mov	r4, r1
8001388c:	ebfff197 	bl	8000fef0 <DWHCITransferStageDataGetChannelNumber>
80013890:	e1a05000 	mov	r5, r0
80013894:	e3a01001 	mov	r1, #1
80013898:	e1a00004 	mov	r0, r4
8001389c:	e1a05285 	lsl	r5, r5, #5
800138a0:	ebfff18c 	bl	8000fed8 <DWHCITransferStageDataSetSubState>
800138a4:	e3001508 	movw	r1, #1288	; 0x508
800138a8:	e1a0000d 	mov	r0, sp
800138ac:	e34d1098 	movt	r1, #53400	; 0xd098
800138b0:	e0851001 	add	r1, r5, r1
800138b4:	eb00062d 	bl	80015170 <DWHCIRegister>
800138b8:	e1a0000d 	mov	r0, sp
800138bc:	eb000663 	bl	80015250 <DWHCIRegisterSetAll>
800138c0:	e1a0000d 	mov	r0, sp
800138c4:	eb00063b 	bl	800151b8 <DWHCIRegisterWrite>
800138c8:	e3a01e51 	mov	r1, #1296	; 0x510
800138cc:	e3a02000 	mov	r2, #0
800138d0:	e34d1098 	movt	r1, #53400	; 0xd098
800138d4:	e28d000c 	add	r0, sp, #12
800138d8:	e0851001 	add	r1, r5, r1
800138dc:	eb000627 	bl	80015180 <DWHCIRegister2>
800138e0:	e1a00004 	mov	r0, r4
800138e4:	ebfff1b0 	bl	8000ffac <DWHCITransferStageDataGetBytesToTransfer>
800138e8:	e7f21050 	ubfx	r1, r0, #0, #19
800138ec:	e28d000c 	add	r0, sp, #12
800138f0:	eb000643 	bl	80015204 <DWHCIRegisterOr>
800138f4:	e1a00004 	mov	r0, r4
800138f8:	ebfff1ad 	bl	8000ffb4 <DWHCITransferStageDataGetPacketsToTransfer>
800138fc:	e3a01000 	mov	r1, #0
80013900:	e3411ff8 	movt	r1, #8184	; 0x1ff8
80013904:	e0011980 	and	r1, r1, r0, lsl #19
80013908:	e28d000c 	add	r0, sp, #12
8001390c:	eb00063c 	bl	80015204 <DWHCIRegisterOr>
80013910:	e1a00004 	mov	r0, r4
80013914:	ebfff192 	bl	8000ff64 <DWHCITransferStageDataGetPID>
80013918:	e1a01e80 	lsl	r1, r0, #29
8001391c:	e28d000c 	add	r0, sp, #12
80013920:	eb000637 	bl	80015204 <DWHCIRegisterOr>
80013924:	e28d000c 	add	r0, sp, #12
80013928:	eb000622 	bl	800151b8 <DWHCIRegisterWrite>
8001392c:	e1a00004 	mov	r0, r4
80013930:	ebfff19b 	bl	8000ffa4 <DWHCITransferStageDataGetDMAAddress>
80013934:	e3001514 	movw	r1, #1300	; 0x514
80013938:	e3802103 	orr	r2, r0, #-1073741824	; 0xc0000000
8001393c:	e34d1098 	movt	r1, #53400	; 0xd098
80013940:	e28d0018 	add	r0, sp, #24
80013944:	e0851001 	add	r1, r5, r1
80013948:	eb00060c 	bl	80015180 <DWHCIRegister2>
8001394c:	e28d0018 	add	r0, sp, #24
80013950:	eb000618 	bl	800151b8 <DWHCIRegisterWrite>
80013954:	e1a00004 	mov	r0, r4
80013958:	ebfff191 	bl	8000ffa4 <DWHCITransferStageDataGetDMAAddress>
8001395c:	e1a06000 	mov	r6, r0
80013960:	e1a00004 	mov	r0, r4
80013964:	ebfff190 	bl	8000ffac <DWHCITransferStageDataGetBytesToTransfer>
80013968:	e1a01000 	mov	r1, r0
8001396c:	e1a00006 	mov	r0, r6
80013970:	ebfffa84 	bl	80012388 <uspi_CleanAndInvalidateDataCacheRange>
80013974:	f57ff05f 	dmb	sy
80013978:	e3001504 	movw	r1, #1284	; 0x504
8001397c:	e28d0024 	add	r0, sp, #36	; 0x24
80013980:	e34d1098 	movt	r1, #53400	; 0xd098
80013984:	e3a02000 	mov	r2, #0
80013988:	e0851001 	add	r1, r5, r1
8001398c:	eb0005fb 	bl	80015180 <DWHCIRegister2>
80013990:	e1a00004 	mov	r0, r4
80013994:	ebfff188 	bl	8000ffbc <DWHCITransferStageDataIsSplit>
80013998:	e3500000 	cmp	r0, #0
8001399c:	1a00007c 	bne	80013b94 <DWHCIDeviceStartChannel+0x318>
800139a0:	e28d0024 	add	r0, sp, #36	; 0x24
800139a4:	eb000603 	bl	800151b8 <DWHCIRegisterWrite>
800139a8:	e3a01c05 	mov	r1, #1280	; 0x500
800139ac:	e28d0030 	add	r0, sp, #48	; 0x30
800139b0:	e34d1098 	movt	r1, #53400	; 0xd098
800139b4:	e0851001 	add	r1, r5, r1
800139b8:	eb0005ec 	bl	80015170 <DWHCIRegister>
800139bc:	e28d0030 	add	r0, sp, #48	; 0x30
800139c0:	eb0005f5 	bl	8001519c <DWHCIRegisterRead>
800139c4:	e3a01b3e 	mov	r1, #63488	; 0xf800
800139c8:	e28d0030 	add	r0, sp, #48	; 0x30
800139cc:	e34f1fff 	movt	r1, #65535	; 0xffff
800139d0:	eb000607 	bl	800151f4 <DWHCIRegisterAnd>
800139d4:	e1a00004 	mov	r0, r4
800139d8:	ebfff15d 	bl	8000ff54 <DWHCITransferStageDataGetMaxPacketSize>
800139dc:	e7ea1050 	ubfx	r1, r0, #0, #11
800139e0:	e28d0030 	add	r0, sp, #48	; 0x30
800139e4:	eb000606 	bl	80015204 <DWHCIRegisterOr>
800139e8:	e28d0030 	add	r0, sp, #48	; 0x30
800139ec:	e3e01603 	mvn	r1, #3145728	; 0x300000
800139f0:	eb0005ff 	bl	800151f4 <DWHCIRegisterAnd>
800139f4:	e28d0030 	add	r0, sp, #48	; 0x30
800139f8:	e3a01601 	mov	r1, #1048576	; 0x100000
800139fc:	eb000600 	bl	80015204 <DWHCIRegisterOr>
80013a00:	e1a00004 	mov	r0, r4
80013a04:	ebfff162 	bl	8000ff94 <DWHCITransferStageDataIsDirectionIn>
80013a08:	e3500000 	cmp	r0, #0
80013a0c:	0a000055 	beq	80013b68 <DWHCIDeviceStartChannel+0x2ec>
80013a10:	e3a01902 	mov	r1, #32768	; 0x8000
80013a14:	e28d0030 	add	r0, sp, #48	; 0x30
80013a18:	eb0005f9 	bl	80015204 <DWHCIRegisterOr>
80013a1c:	e1a00004 	mov	r0, r4
80013a20:	ebfff14d 	bl	8000ff5c <DWHCITransferStageDataGetSpeed>
80013a24:	e3500000 	cmp	r0, #0
80013a28:	1a000055 	bne	80013b84 <DWHCIDeviceStartChannel+0x308>
80013a2c:	e3a01802 	mov	r1, #131072	; 0x20000
80013a30:	e28d0030 	add	r0, sp, #48	; 0x30
80013a34:	eb0005f2 	bl	80015204 <DWHCIRegisterOr>
80013a38:	e3e0157f 	mvn	r1, #532676608	; 0x1fc00000
80013a3c:	e28d0030 	add	r0, sp, #48	; 0x30
80013a40:	eb0005eb 	bl	800151f4 <DWHCIRegisterAnd>
80013a44:	e1a00004 	mov	r0, r4
80013a48:	ebfff132 	bl	8000ff18 <DWHCITransferStageDataGetDeviceAddress>
80013a4c:	e1a01b00 	lsl	r1, r0, #22
80013a50:	e28d0030 	add	r0, sp, #48	; 0x30
80013a54:	eb0005ea 	bl	80015204 <DWHCIRegisterOr>
80013a58:	e3e01703 	mvn	r1, #786432	; 0xc0000
80013a5c:	e28d0030 	add	r0, sp, #48	; 0x30
80013a60:	eb0005e3 	bl	800151f4 <DWHCIRegisterAnd>
80013a64:	e1a00004 	mov	r0, r4
80013a68:	ebfff12c 	bl	8000ff20 <DWHCITransferStageDataGetEndpointType>
80013a6c:	e1a01900 	lsl	r1, r0, #18
80013a70:	e28d0030 	add	r0, sp, #48	; 0x30
80013a74:	eb0005e2 	bl	80015204 <DWHCIRegisterOr>
80013a78:	e3e01b1e 	mvn	r1, #30720	; 0x7800
80013a7c:	e28d0030 	add	r0, sp, #48	; 0x30
80013a80:	eb0005db 	bl	800151f4 <DWHCIRegisterAnd>
80013a84:	e1a00004 	mov	r0, r4
80013a88:	ebfff12f 	bl	8000ff4c <DWHCITransferStageDataGetEndpointNumber>
80013a8c:	e1a01580 	lsl	r1, r0, #11
80013a90:	e28d0030 	add	r0, sp, #48	; 0x30
80013a94:	eb0005da 	bl	80015204 <DWHCIRegisterOr>
80013a98:	e1a00004 	mov	r0, r4
80013a9c:	ebfff16a 	bl	8001004c <DWHCITransferStageDataGetFrameScheduler>
80013aa0:	e2506000 	subs	r6, r0, #0
80013aa4:	0a000009 	beq	80013ad0 <DWHCIDeviceStartChannel+0x254>
80013aa8:	e5963010 	ldr	r3, [r6, #16]
80013aac:	e12fff33 	blx	r3
80013ab0:	e5963014 	ldr	r3, [r6, #20]
80013ab4:	e1a00006 	mov	r0, r6
80013ab8:	e12fff33 	blx	r3
80013abc:	e3500000 	cmp	r0, #0
80013ac0:	0a000024 	beq	80013b58 <DWHCIDeviceStartChannel+0x2dc>
80013ac4:	e3a01202 	mov	r1, #536870912	; 0x20000000
80013ac8:	e28d0030 	add	r0, sp, #48	; 0x30
80013acc:	eb0005cc 	bl	80015204 <DWHCIRegisterOr>
80013ad0:	e300150c 	movw	r1, #1292	; 0x50c
80013ad4:	e28d003c 	add	r0, sp, #60	; 0x3c
80013ad8:	e34d1098 	movt	r1, #53400	; 0xd098
80013adc:	e0851001 	add	r1, r5, r1
80013ae0:	eb0005a2 	bl	80015170 <DWHCIRegister>
80013ae4:	e1a00004 	mov	r0, r4
80013ae8:	ebfff13d 	bl	8000ffe4 <DWHCITransferStageDataGetStatusMask>
80013aec:	e1a01000 	mov	r1, r0
80013af0:	e28d003c 	add	r0, sp, #60	; 0x3c
80013af4:	eb0005b5 	bl	800151d0 <DWHCIRegisterSet>
80013af8:	e28d003c 	add	r0, sp, #60	; 0x3c
80013afc:	eb0005ad 	bl	800151b8 <DWHCIRegisterWrite>
80013b00:	e28d0030 	add	r0, sp, #48	; 0x30
80013b04:	e3a01102 	mov	r1, #-2147483648	; 0x80000000
80013b08:	eb0005bd 	bl	80015204 <DWHCIRegisterOr>
80013b0c:	e3e01101 	mvn	r1, #1073741824	; 0x40000000
80013b10:	e28d0030 	add	r0, sp, #48	; 0x30
80013b14:	eb0005b6 	bl	800151f4 <DWHCIRegisterAnd>
80013b18:	e28d0030 	add	r0, sp, #48	; 0x30
80013b1c:	eb0005a5 	bl	800151b8 <DWHCIRegisterWrite>
80013b20:	e28d003c 	add	r0, sp, #60	; 0x3c
80013b24:	eb000599 	bl	80015190 <_DWHCIRegister>
80013b28:	e28d0030 	add	r0, sp, #48	; 0x30
80013b2c:	eb000597 	bl	80015190 <_DWHCIRegister>
80013b30:	e28d0024 	add	r0, sp, #36	; 0x24
80013b34:	eb000595 	bl	80015190 <_DWHCIRegister>
80013b38:	e28d0018 	add	r0, sp, #24
80013b3c:	eb000593 	bl	80015190 <_DWHCIRegister>
80013b40:	e28d000c 	add	r0, sp, #12
80013b44:	eb000591 	bl	80015190 <_DWHCIRegister>
80013b48:	e1a0000d 	mov	r0, sp
80013b4c:	eb00058f 	bl	80015190 <_DWHCIRegister>
80013b50:	e28dd048 	add	sp, sp, #72	; 0x48
80013b54:	e8bd8070 	pop	{r4, r5, r6, pc}
80013b58:	e3e01202 	mvn	r1, #536870912	; 0x20000000
80013b5c:	e28d0030 	add	r0, sp, #48	; 0x30
80013b60:	eb0005a3 	bl	800151f4 <DWHCIRegisterAnd>
80013b64:	eaffffd9 	b	80013ad0 <DWHCIDeviceStartChannel+0x254>
80013b68:	e3e01902 	mvn	r1, #32768	; 0x8000
80013b6c:	e28d0030 	add	r0, sp, #48	; 0x30
80013b70:	eb00059f 	bl	800151f4 <DWHCIRegisterAnd>
80013b74:	e1a00004 	mov	r0, r4
80013b78:	ebfff0f7 	bl	8000ff5c <DWHCITransferStageDataGetSpeed>
80013b7c:	e3500000 	cmp	r0, #0
80013b80:	0affffa9 	beq	80013a2c <DWHCIDeviceStartChannel+0x1b0>
80013b84:	e3e01802 	mvn	r1, #131072	; 0x20000
80013b88:	e28d0030 	add	r0, sp, #48	; 0x30
80013b8c:	eb000598 	bl	800151f4 <DWHCIRegisterAnd>
80013b90:	eaffffa8 	b	80013a38 <DWHCIDeviceStartChannel+0x1bc>
80013b94:	e1a00004 	mov	r0, r4
80013b98:	ebfff10d 	bl	8000ffd4 <DWHCITransferStageDataGetHubPortAddress>
80013b9c:	e1a01000 	mov	r1, r0
80013ba0:	e28d0024 	add	r0, sp, #36	; 0x24
80013ba4:	eb000596 	bl	80015204 <DWHCIRegisterOr>
80013ba8:	e1a00004 	mov	r0, r4
80013bac:	ebfff106 	bl	8000ffcc <DWHCITransferStageDataGetHubAddress>
80013bb0:	e1a01380 	lsl	r1, r0, #7
80013bb4:	e28d0024 	add	r0, sp, #36	; 0x24
80013bb8:	eb000591 	bl	80015204 <DWHCIRegisterOr>
80013bbc:	e1a00004 	mov	r0, r4
80013bc0:	ebfff105 	bl	8000ffdc <DWHCITransferStageDataGetSplitPosition>
80013bc4:	e1a01700 	lsl	r1, r0, #14
80013bc8:	e28d0024 	add	r0, sp, #36	; 0x24
80013bcc:	eb00058c 	bl	80015204 <DWHCIRegisterOr>
80013bd0:	e1a00004 	mov	r0, r4
80013bd4:	ebfff0fa 	bl	8000ffc4 <DWHCITransferStageDataIsSplitComplete>
80013bd8:	e3500000 	cmp	r0, #0
80013bdc:	1a000003 	bne	80013bf0 <DWHCIDeviceStartChannel+0x374>
80013be0:	e3a01102 	mov	r1, #-2147483648	; 0x80000000
80013be4:	e28d0024 	add	r0, sp, #36	; 0x24
80013be8:	eb000585 	bl	80015204 <DWHCIRegisterOr>
80013bec:	eaffff6b 	b	800139a0 <DWHCIDeviceStartChannel+0x124>
80013bf0:	e3a01801 	mov	r1, #65536	; 0x10000
80013bf4:	e28d0024 	add	r0, sp, #36	; 0x24
80013bf8:	eb000581 	bl	80015204 <DWHCIRegisterOr>
80013bfc:	eafffff7 	b	80013be0 <DWHCIDeviceStartChannel+0x364>

80013c00 <DWHCIDeviceStartTransaction>:
80013c00:	e92d4070 	push	{r4, r5, r6, lr}
80013c04:	e1a06000 	mov	r6, r0
80013c08:	e24dd018 	sub	sp, sp, #24
80013c0c:	e1a00001 	mov	r0, r1
80013c10:	e30c4028 	movw	r4, #49192	; 0xc028
80013c14:	e1a05001 	mov	r5, r1
80013c18:	e3404684 	movt	r4, #1668	; 0x684
80013c1c:	ebfff0b3 	bl	8000fef0 <DWHCITransferStageDataGetChannelNumber>
80013c20:	e0804004 	add	r4, r0, r4
80013c24:	e1a0000d 	mov	r0, sp
80013c28:	e1a04284 	lsl	r4, r4, #5
80013c2c:	e1a01004 	mov	r1, r4
80013c30:	eb00054e 	bl	80015170 <DWHCIRegister>
80013c34:	e1a0000d 	mov	r0, sp
80013c38:	eb000557 	bl	8001519c <DWHCIRegisterRead>
80013c3c:	e1a0000d 	mov	r0, sp
80013c40:	e3a01102 	mov	r1, #-2147483648	; 0x80000000
80013c44:	eb000565 	bl	800151e0 <DWHCIRegisterIsSet>
80013c48:	e3500000 	cmp	r0, #0
80013c4c:	0a000018 	beq	80013cb4 <DWHCIDeviceStartTransaction+0xb4>
80013c50:	e1a00005 	mov	r0, r5
80013c54:	e3a01000 	mov	r1, #0
80013c58:	ebfff09e 	bl	8000fed8 <DWHCITransferStageDataSetSubState>
80013c5c:	e1a0000d 	mov	r0, sp
80013c60:	e3e01102 	mvn	r1, #-2147483648	; 0x80000000
80013c64:	eb000562 	bl	800151f4 <DWHCIRegisterAnd>
80013c68:	e3a01101 	mov	r1, #1073741824	; 0x40000000
80013c6c:	e1a0000d 	mov	r0, sp
80013c70:	eb000563 	bl	80015204 <DWHCIRegisterOr>
80013c74:	e1a0000d 	mov	r0, sp
80013c78:	eb00054e 	bl	800151b8 <DWHCIRegisterWrite>
80013c7c:	e284100c 	add	r1, r4, #12
80013c80:	e28d000c 	add	r0, sp, #12
80013c84:	eb000539 	bl	80015170 <DWHCIRegister>
80013c88:	e3a01002 	mov	r1, #2
80013c8c:	e28d000c 	add	r0, sp, #12
80013c90:	eb00054e 	bl	800151d0 <DWHCIRegisterSet>
80013c94:	e28d000c 	add	r0, sp, #12
80013c98:	eb000546 	bl	800151b8 <DWHCIRegisterWrite>
80013c9c:	e28d000c 	add	r0, sp, #12
80013ca0:	eb00053a 	bl	80015190 <_DWHCIRegister>
80013ca4:	e1a0000d 	mov	r0, sp
80013ca8:	eb000538 	bl	80015190 <_DWHCIRegister>
80013cac:	e28dd018 	add	sp, sp, #24
80013cb0:	e8bd8070 	pop	{r4, r5, r6, pc}
80013cb4:	e1a01005 	mov	r1, r5
80013cb8:	e1a00006 	mov	r0, r6
80013cbc:	ebfffeee 	bl	8001387c <DWHCIDeviceStartChannel>
80013cc0:	e1a0000d 	mov	r0, sp
80013cc4:	eb000531 	bl	80015190 <_DWHCIRegister>
80013cc8:	e28dd018 	add	sp, sp, #24
80013ccc:	e8bd8070 	pop	{r4, r5, r6, pc}

80013cd0 <DWHCIDeviceTimerHandler>:
80013cd0:	e92d4070 	push	{r4, r5, r6, lr}
80013cd4:	e1a04001 	mov	r4, r1
80013cd8:	e1a05002 	mov	r5, r2
80013cdc:	f57ff05f 	dmb	sy
80013ce0:	e1a00001 	mov	r0, r1
80013ce4:	ebfff0b4 	bl	8000ffbc <DWHCITransferStageDataIsSplit>
80013ce8:	e2501000 	subs	r1, r0, #0
80013cec:	0a00000e 	beq	80013d2c <DWHCIDeviceTimerHandler+0x5c>
80013cf0:	e3a01001 	mov	r1, #1
80013cf4:	e1a00004 	mov	r0, r4
80013cf8:	ebfff072 	bl	8000fec8 <DWHCITransferStageDataSetState>
80013cfc:	e3a01000 	mov	r1, #0
80013d00:	e1a00004 	mov	r0, r4
80013d04:	ebfff06d 	bl	8000fec0 <DWHCITransferStageDataSetSplitComplete>
80013d08:	e1a00004 	mov	r0, r4
80013d0c:	ebfff0ce 	bl	8001004c <DWHCITransferStageDataGetFrameScheduler>
80013d10:	e5903004 	ldr	r3, [r0, #4]
80013d14:	e12fff33 	blx	r3
80013d18:	e1a01004 	mov	r1, r4
80013d1c:	e1a00005 	mov	r0, r5
80013d20:	ebffffb6 	bl	80013c00 <DWHCIDeviceStartTransaction>
80013d24:	f57ff05f 	dmb	sy
80013d28:	e8bd8070 	pop	{r4, r5, r6, pc}
80013d2c:	e1a00004 	mov	r0, r4
80013d30:	ebfff064 	bl	8000fec8 <DWHCITransferStageDataSetState>
80013d34:	eafffff7 	b	80013d18 <DWHCIDeviceTimerHandler+0x48>

80013d38 <DWHCIDeviceChannelInterruptHandler>:
80013d38:	e92d4ff0 	push	{r4, r5, r6, r7, r8, r9, sl, fp, lr}
80013d3c:	e1a05000 	mov	r5, r0
80013d40:	e0808101 	add	r8, r0, r1, lsl #2
80013d44:	e24dd01c 	sub	sp, sp, #28
80013d48:	e1a06001 	mov	r6, r1
80013d4c:	e5984008 	ldr	r4, [r8, #8]
80013d50:	e1a00004 	mov	r0, r4
80013d54:	ebfff0bc 	bl	8001004c <DWHCITransferStageDataGetFrameScheduler>
80013d58:	e1a09000 	mov	r9, r0
80013d5c:	e1a00004 	mov	r0, r4
80013d60:	ebfff0b7 	bl	80010044 <DWHCITransferStageDataGetURB>
80013d64:	e1a0a000 	mov	sl, r0
80013d68:	e1a00004 	mov	r0, r4
80013d6c:	ebfff05b 	bl	8000fee0 <DWHCITransferStageDataGetSubState>
80013d70:	e2507000 	subs	r7, r0, #0
80013d74:	0a00005d 	beq	80013ef0 <DWHCIDeviceChannelInterruptHandler+0x1b8>
80013d78:	e3570001 	cmp	r7, #1
80013d7c:	1a00002a 	bne	80013e2c <DWHCIDeviceChannelInterruptHandler+0xf4>
80013d80:	e1a00004 	mov	r0, r4
80013d84:	ebfff086 	bl	8000ffa4 <DWHCITransferStageDataGetDMAAddress>
80013d88:	e1a0b000 	mov	fp, r0
80013d8c:	e1a00004 	mov	r0, r4
80013d90:	ebfff085 	bl	8000ffac <DWHCITransferStageDataGetBytesToTransfer>
80013d94:	e1a01000 	mov	r1, r0
80013d98:	e1a0000b 	mov	r0, fp
80013d9c:	ebfff979 	bl	80012388 <uspi_CleanAndInvalidateDataCacheRange>
80013da0:	f57ff05f 	dmb	sy
80013da4:	e3a01e51 	mov	r1, #1296	; 0x510
80013da8:	e1a0000d 	mov	r0, sp
80013dac:	e1a0b286 	lsl	fp, r6, #5
80013db0:	e34d1098 	movt	r1, #53400	; 0xd098
80013db4:	e08b1001 	add	r1, fp, r1
80013db8:	eb0004ec 	bl	80015170 <DWHCIRegister>
80013dbc:	e1a0000d 	mov	r0, sp
80013dc0:	eb0004f5 	bl	8001519c <DWHCIRegisterRead>
80013dc4:	e3001508 	movw	r1, #1288	; 0x508
80013dc8:	e28d000c 	add	r0, sp, #12
80013dcc:	e34d1098 	movt	r1, #53400	; 0xd098
80013dd0:	e08b1001 	add	r1, fp, r1
80013dd4:	eb0004e5 	bl	80015170 <DWHCIRegister>
80013dd8:	e28d000c 	add	r0, sp, #12
80013ddc:	eb0004ee 	bl	8001519c <DWHCIRegisterRead>
80013de0:	e3500002 	cmp	r0, #2
80013de4:	0a000078 	beq	80013fcc <DWHCIDeviceChannelInterruptHandler+0x294>
80013de8:	e28d000c 	add	r0, sp, #12
80013dec:	eb0004ea 	bl	8001519c <DWHCIRegisterRead>
80013df0:	e1a0b000 	mov	fp, r0
80013df4:	e1a0000d 	mov	r0, sp
80013df8:	eb0004f2 	bl	800151c8 <DWHCIRegisterGet>
80013dfc:	e1a07000 	mov	r7, r0
80013e00:	e1a0000d 	mov	r0, sp
80013e04:	eb0004ef 	bl	800151c8 <DWHCIRegisterGet>
80013e08:	e7f23050 	ubfx	r3, r0, #0, #19
80013e0c:	e1a0100b 	mov	r1, fp
80013e10:	e7e929d7 	ubfx	r2, r7, #19, #10
80013e14:	e1a00004 	mov	r0, r4
80013e18:	ebffeff1 	bl	8000fde4 <DWHCITransferStageDataTransactionComplete>
80013e1c:	e28d000c 	add	r0, sp, #12
80013e20:	eb0004da 	bl	80015190 <_DWHCIRegister>
80013e24:	e1a0000d 	mov	r0, sp
80013e28:	eb0004d8 	bl	80015190 <_DWHCIRegister>
80013e2c:	e1a00004 	mov	r0, r4
80013e30:	ebfff026 	bl	8000fed0 <DWHCITransferStageDataGetState>
80013e34:	e3500001 	cmp	r0, #1
80013e38:	e1a07000 	mov	r7, r0
80013e3c:	0a000052 	beq	80013f8c <DWHCIDeviceChannelInterruptHandler+0x254>
80013e40:	e3500000 	cmp	r0, #0
80013e44:	0a00002e 	beq	80013f04 <DWHCIDeviceChannelInterruptHandler+0x1cc>
80013e48:	e3500002 	cmp	r0, #2
80013e4c:	1a000025 	bne	80013ee8 <DWHCIDeviceChannelInterruptHandler+0x1b0>
80013e50:	e1a00004 	mov	r0, r4
80013e54:	ebfff06f 	bl	80010018 <DWHCITransferStageDataGetTransactionStatus>
80013e58:	e300378c 	movw	r3, #1932	; 0x78c
80013e5c:	e1a01000 	mov	r1, r0
80013e60:	e1100003 	tst	r0, r3
80013e64:	1a00009f 	bne	800140e8 <DWHCIDeviceChannelInterruptHandler+0x3b0>
80013e68:	e599300c 	ldr	r3, [r9, #12]
80013e6c:	e1a00009 	mov	r0, r9
80013e70:	e12fff33 	blx	r3
80013e74:	e5993008 	ldr	r3, [r9, #8]
80013e78:	e1a00009 	mov	r0, r9
80013e7c:	e12fff33 	blx	r3
80013e80:	e3500000 	cmp	r0, #0
80013e84:	1a000014 	bne	80013edc <DWHCIDeviceChannelInterruptHandler+0x1a4>
80013e88:	e1a00004 	mov	r0, r4
80013e8c:	ebfff063 	bl	80010020 <DWHCITransferStageDataIsStageComplete>
80013e90:	e3500000 	cmp	r0, #0
80013e94:	1a000056 	bne	80013ff4 <DWHCIDeviceChannelInterruptHandler+0x2bc>
80013e98:	e1a00004 	mov	r0, r4
80013e9c:	ebfff011 	bl	8000fee8 <DWHCITransferStageDataBeginSplitCycle>
80013ea0:	e2507000 	subs	r7, r0, #0
80013ea4:	0a000073 	beq	80014078 <DWHCIDeviceChannelInterruptHandler+0x340>
80013ea8:	e1a00004 	mov	r0, r4
80013eac:	ebfff011 	bl	8000fef8 <DWHCITransferStageDataIsPeriodic>
80013eb0:	e2506000 	subs	r6, r0, #0
80013eb4:	1a00005d 	bne	80014030 <DWHCIDeviceChannelInterruptHandler+0x2f8>
80013eb8:	e3a01001 	mov	r1, #1
80013ebc:	e1a00004 	mov	r0, r4
80013ec0:	ebfff000 	bl	8000fec8 <DWHCITransferStageDataSetState>
80013ec4:	e1a00004 	mov	r0, r4
80013ec8:	e1a01006 	mov	r1, r6
80013ecc:	ebffeffb 	bl	8000fec0 <DWHCITransferStageDataSetSplitComplete>
80013ed0:	e5993004 	ldr	r3, [r9, #4]
80013ed4:	e1a00009 	mov	r0, r9
80013ed8:	e12fff33 	blx	r3
80013edc:	e1a01004 	mov	r1, r4
80013ee0:	e1a00005 	mov	r0, r5
80013ee4:	ebffff45 	bl	80013c00 <DWHCIDeviceStartTransaction>
80013ee8:	e28dd01c 	add	sp, sp, #28
80013eec:	e8bd8ff0 	pop	{r4, r5, r6, r7, r8, r9, sl, fp, pc}
80013ef0:	e1a01004 	mov	r1, r4
80013ef4:	e1a00005 	mov	r0, r5
80013ef8:	ebfffe5f 	bl	8001387c <DWHCIDeviceStartChannel>
80013efc:	e28dd01c 	add	sp, sp, #28
80013f00:	e8bd8ff0 	pop	{r4, r5, r6, r7, r8, r9, sl, fp, pc}
80013f04:	e1a00004 	mov	r0, r4
80013f08:	ebfff042 	bl	80010018 <DWHCITransferStageDataGetTransactionStatus>
80013f0c:	e300278c 	movw	r2, #1932	; 0x78c
80013f10:	e1a03000 	mov	r3, r0
80013f14:	e1100002 	tst	r0, r2
80013f18:	1a000068 	bne	800140c0 <DWHCIDeviceChannelInterruptHandler+0x388>
80013f1c:	e3100050 	tst	r0, #80	; 0x50
80013f20:	1a00003e 	bne	80014020 <DWHCIDeviceChannelInterruptHandler+0x2e8>
80013f24:	e1a00004 	mov	r0, r4
80013f28:	ebfff01b 	bl	8000ff9c <DWHCITransferStageDataIsStatusStage>
80013f2c:	e3500000 	cmp	r0, #0
80013f30:	0a000090 	beq	80014178 <DWHCIDeviceChannelInterruptHandler+0x440>
80013f34:	e3a01001 	mov	r1, #1
80013f38:	e1a0000a 	mov	r0, sl
80013f3c:	ebfff8db 	bl	800122b0 <USBRequestSetStatus>
80013f40:	e1a01006 	mov	r1, r6
80013f44:	e1a00005 	mov	r0, r5
80013f48:	ebfffe36 	bl	80013828 <DWHCIDeviceDisableChannelInterrupt>
80013f4c:	e1a00004 	mov	r0, r4
80013f50:	ebffef8c 	bl	8000fd88 <_DWHCITransferStageData>
80013f54:	e1a00004 	mov	r0, r4
80013f58:	ebfff6ac 	bl	80011a10 <free>
80013f5c:	e3a03000 	mov	r3, #0
80013f60:	e5883008 	str	r3, [r8, #8]
80013f64:	ebfff8e9 	bl	80012310 <uspi_EnterCritical>
80013f68:	e5953004 	ldr	r3, [r5, #4]
80013f6c:	e3a02001 	mov	r2, #1
80013f70:	e1c36612 	bic	r6, r3, r2, lsl r6
80013f74:	e5856004 	str	r6, [r5, #4]
80013f78:	ebfff8f3 	bl	8001234c <uspi_LeaveCritical>
80013f7c:	e1a0000a 	mov	r0, sl
80013f80:	ebfff8db 	bl	800122f4 <USBRequestCallCompletionRoutine>
80013f84:	e28dd01c 	add	sp, sp, #28
80013f88:	e8bd8ff0 	pop	{r4, r5, r6, r7, r8, r9, sl, fp, pc}
80013f8c:	e1a00004 	mov	r0, r4
80013f90:	ebfff020 	bl	80010018 <DWHCITransferStageDataGetTransactionStatus>
80013f94:	e30037dc 	movw	r3, #2012	; 0x7dc
80013f98:	e1a01000 	mov	r1, r0
80013f9c:	e1100003 	tst	r0, r3
80013fa0:	1a000059 	bne	8001410c <DWHCIDeviceChannelInterruptHandler+0x3d4>
80013fa4:	e599300c 	ldr	r3, [r9, #12]
80013fa8:	e1a00009 	mov	r0, r9
80013fac:	e12fff33 	blx	r3
80013fb0:	e1a00004 	mov	r0, r4
80013fb4:	e3a01002 	mov	r1, #2
80013fb8:	ebffefc2 	bl	8000fec8 <DWHCITransferStageDataSetState>
80013fbc:	e1a01007 	mov	r1, r7
80013fc0:	e1a00004 	mov	r0, r4
80013fc4:	ebffefbd 	bl	8000fec0 <DWHCITransferStageDataSetSplitComplete>
80013fc8:	eaffffa9 	b	80013e74 <DWHCIDeviceChannelInterruptHandler+0x13c>
80013fcc:	e30924a0 	movw	r2, #38048	; 0x94a0
80013fd0:	e309048c 	movw	r0, #38028	; 0x948c
80013fd4:	e3482001 	movt	r2, #32769	; 0x8001
80013fd8:	e1a01007 	mov	r1, r7
80013fdc:	e3480001 	movt	r0, #32769	; 0x8001
80013fe0:	ebfff6dd 	bl	80011b5c <LogWrite>
80013fe4:	e1a01004 	mov	r1, r4
80013fe8:	e1a00005 	mov	r0, r5
80013fec:	ebffff03 	bl	80013c00 <DWHCIDeviceStartTransaction>
80013ff0:	eaffffbc 	b	80013ee8 <DWHCIDeviceChannelInterruptHandler+0x1b0>
80013ff4:	e1a01006 	mov	r1, r6
80013ff8:	e1a00005 	mov	r0, r5
80013ffc:	ebfffe09 	bl	80013828 <DWHCIDeviceDisableChannelInterrupt>
80014000:	e1a00004 	mov	r0, r4
80014004:	ebffefe4 	bl	8000ff9c <DWHCITransferStageDataIsStatusStage>
80014008:	e3500000 	cmp	r0, #0
8001400c:	0a000025 	beq	800140a8 <DWHCIDeviceChannelInterruptHandler+0x370>
80014010:	e3a01001 	mov	r1, #1
80014014:	e1a0000a 	mov	r0, sl
80014018:	ebfff8a4 	bl	800122b0 <USBRequestSetStatus>
8001401c:	eaffffca 	b	80013f4c <DWHCIDeviceChannelInterruptHandler+0x214>
80014020:	e1a00004 	mov	r0, r4
80014024:	ebffefb3 	bl	8000fef8 <DWHCITransferStageDataIsPeriodic>
80014028:	e3500000 	cmp	r0, #0
8001402c:	0affffbc 	beq	80013f24 <DWHCIDeviceChannelInterruptHandler+0x1ec>
80014030:	e3a01003 	mov	r1, #3
80014034:	e1a00004 	mov	r0, r4
80014038:	ebffefa2 	bl	8000fec8 <DWHCITransferStageDataSetState>
8001403c:	e1a0000a 	mov	r0, sl
80014040:	ebfff898 	bl	800122a8 <USBRequestGetEndpoint>
80014044:	ebffe4a3 	bl	8000d2d8 <USBEndpointGetInterval>
80014048:	e3a03064 	mov	r3, #100	; 0x64
8001404c:	e3042dd3 	movw	r2, #19923	; 0x4dd3
80014050:	e0000093 	mul	r0, r3, r0
80014054:	e3412062 	movt	r2, #4194	; 0x1062
80014058:	e3031cd0 	movw	r1, #15568	; 0x3cd0
8001405c:	e0803092 	umull	r3, r0, r2, r0
80014060:	e3481001 	movt	r1, #32769	; 0x8001
80014064:	e1a03005 	mov	r3, r5
80014068:	e1a00320 	lsr	r0, r0, #6
8001406c:	e1a02004 	mov	r2, r4
80014070:	ebfff680 	bl	80011a78 <StartKernelTimer>
80014074:	eaffff9b 	b	80013ee8 <DWHCIDeviceChannelInterruptHandler+0x1b0>
80014078:	e1a01007 	mov	r1, r7
8001407c:	e1a0000a 	mov	r0, sl
80014080:	ebfff88a 	bl	800122b0 <USBRequestSetStatus>
80014084:	e1a01006 	mov	r1, r6
80014088:	e1a00005 	mov	r0, r5
8001408c:	ebfffde5 	bl	80013828 <DWHCIDeviceDisableChannelInterrupt>
80014090:	e1a00004 	mov	r0, r4
80014094:	ebffef3b 	bl	8000fd88 <_DWHCITransferStageData>
80014098:	e1a00004 	mov	r0, r4
8001409c:	ebfff65b 	bl	80011a10 <free>
800140a0:	e5887008 	str	r7, [r8, #8]
800140a4:	eaffffae 	b	80013f64 <DWHCIDeviceChannelInterruptHandler+0x22c>
800140a8:	e1a00004 	mov	r0, r4
800140ac:	ebffefdf 	bl	80010030 <DWHCITransferStageDataGetResultLen>
800140b0:	e1a01000 	mov	r1, r0
800140b4:	e1a0000a 	mov	r0, sl
800140b8:	ebfff87e 	bl	800122b8 <USBRequestSetResultLen>
800140bc:	eaffffd3 	b	80014010 <DWHCIDeviceChannelInterruptHandler+0x2d8>
800140c0:	e30924b8 	movw	r2, #38072	; 0x94b8
800140c4:	e309048c 	movw	r0, #38028	; 0x948c
800140c8:	e3482001 	movt	r2, #32769	; 0x8001
800140cc:	e3a01001 	mov	r1, #1
800140d0:	e3480001 	movt	r0, #32769	; 0x8001
800140d4:	ebfff6a0 	bl	80011b5c <LogWrite>
800140d8:	e1a01007 	mov	r1, r7
800140dc:	e1a0000a 	mov	r0, sl
800140e0:	ebfff872 	bl	800122b0 <USBRequestSetStatus>
800140e4:	eaffff95 	b	80013f40 <DWHCIDeviceChannelInterruptHandler+0x208>
800140e8:	e30924b8 	movw	r2, #38072	; 0x94b8
800140ec:	e309048c 	movw	r0, #38028	; 0x948c
800140f0:	e3482001 	movt	r2, #32769	; 0x8001
800140f4:	e1a03001 	mov	r3, r1
800140f8:	e3480001 	movt	r0, #32769	; 0x8001
800140fc:	e3a01001 	mov	r1, #1
80014100:	ebfff695 	bl	80011b5c <LogWrite>
80014104:	e3a01000 	mov	r1, #0
80014108:	eaffff8a 	b	80013f38 <DWHCIDeviceChannelInterruptHandler+0x200>
8001410c:	e30924b8 	movw	r2, #38072	; 0x94b8
80014110:	e309048c 	movw	r0, #38028	; 0x948c
80014114:	e3482001 	movt	r2, #32769	; 0x8001
80014118:	e1a03001 	mov	r3, r1
8001411c:	e3480001 	movt	r0, #32769	; 0x8001
80014120:	e1a01007 	mov	r1, r7
80014124:	ebfff68c 	bl	80011b5c <LogWrite>
80014128:	e1a0000a 	mov	r0, sl
8001412c:	e3a01000 	mov	r1, #0
80014130:	ebfff85e 	bl	800122b0 <USBRequestSetStatus>
80014134:	e1a01006 	mov	r1, r6
80014138:	e1a00005 	mov	r0, r5
8001413c:	ebfffdb9 	bl	80013828 <DWHCIDeviceDisableChannelInterrupt>
80014140:	e1a00004 	mov	r0, r4
80014144:	ebffef0f 	bl	8000fd88 <_DWHCITransferStageData>
80014148:	e1a00004 	mov	r0, r4
8001414c:	ebfff62f 	bl	80011a10 <free>
80014150:	e3a03000 	mov	r3, #0
80014154:	e5883008 	str	r3, [r8, #8]
80014158:	ebfff86c 	bl	80012310 <uspi_EnterCritical>
8001415c:	e5953004 	ldr	r3, [r5, #4]
80014160:	e1c36617 	bic	r6, r3, r7, lsl r6
80014164:	e5856004 	str	r6, [r5, #4]
80014168:	ebfff877 	bl	8001234c <uspi_LeaveCritical>
8001416c:	e1a0000a 	mov	r0, sl
80014170:	ebfff85f 	bl	800122f4 <USBRequestCallCompletionRoutine>
80014174:	eaffff5b 	b	80013ee8 <DWHCIDeviceChannelInterruptHandler+0x1b0>
80014178:	e1a00004 	mov	r0, r4
8001417c:	ebffefab 	bl	80010030 <DWHCITransferStageDataGetResultLen>
80014180:	e1a01000 	mov	r1, r0
80014184:	e1a0000a 	mov	r0, sl
80014188:	ebfff84a 	bl	800122b8 <USBRequestSetResultLen>
8001418c:	eaffff68 	b	80013f34 <DWHCIDeviceChannelInterruptHandler+0x1fc>

80014190 <DWHCIDeviceInterruptHandler>:
80014190:	e92d40f0 	push	{r4, r5, r6, r7, lr}
80014194:	e1a06000 	mov	r6, r0
80014198:	e24dd02c 	sub	sp, sp, #44	; 0x2c
8001419c:	f57ff05f 	dmb	sy
800141a0:	e3a01014 	mov	r1, #20
800141a4:	e28d0004 	add	r0, sp, #4
800141a8:	e34d1098 	movt	r1, #53400	; 0xd098
800141ac:	eb0003ef 	bl	80015170 <DWHCIRegister>
800141b0:	e28d0004 	add	r0, sp, #4
800141b4:	eb0003f8 	bl	8001519c <DWHCIRegisterRead>
800141b8:	e28d0004 	add	r0, sp, #4
800141bc:	eb000401 	bl	800151c8 <DWHCIRegisterGet>
800141c0:	e3100402 	tst	r0, #33554432	; 0x2000000
800141c4:	1a000006 	bne	800141e4 <DWHCIDeviceInterruptHandler+0x54>
800141c8:	e28d0004 	add	r0, sp, #4
800141cc:	eb0003f9 	bl	800151b8 <DWHCIRegisterWrite>
800141d0:	f57ff05f 	dmb	sy
800141d4:	e28d0004 	add	r0, sp, #4
800141d8:	eb0003ec 	bl	80015190 <_DWHCIRegister>
800141dc:	e28dd02c 	add	sp, sp, #44	; 0x2c
800141e0:	e8bd80f0 	pop	{r4, r5, r6, r7, pc}
800141e4:	e3001414 	movw	r1, #1044	; 0x414
800141e8:	e28d0010 	add	r0, sp, #16
800141ec:	e34d1098 	movt	r1, #53400	; 0xd098
800141f0:	eb0003de 	bl	80015170 <DWHCIRegister>
800141f4:	e28d0010 	add	r0, sp, #16
800141f8:	eb0003e7 	bl	8001519c <DWHCIRegisterRead>
800141fc:	e28d0010 	add	r0, sp, #16
80014200:	eb0003ec 	bl	800151b8 <DWHCIRegisterWrite>
80014204:	e5963000 	ldr	r3, [r6]
80014208:	e3530000 	cmp	r3, #0
8001420c:	0a00001c 	beq	80014284 <DWHCIDeviceInterruptHandler+0xf4>
80014210:	e300750c 	movw	r7, #1292	; 0x50c
80014214:	e3a04000 	mov	r4, #0
80014218:	e34d7098 	movt	r7, #53400	; 0xd098
8001421c:	e3a05001 	mov	r5, #1
80014220:	ea000003 	b	80014234 <DWHCIDeviceInterruptHandler+0xa4>
80014224:	e5963000 	ldr	r3, [r6]
80014228:	e2844001 	add	r4, r4, #1
8001422c:	e1530004 	cmp	r3, r4
80014230:	9a000013 	bls	80014284 <DWHCIDeviceInterruptHandler+0xf4>
80014234:	e28d0010 	add	r0, sp, #16
80014238:	eb0003e2 	bl	800151c8 <DWHCIRegisterGet>
8001423c:	e1100005 	tst	r0, r5
80014240:	e1a05085 	lsl	r5, r5, #1
80014244:	0afffff6 	beq	80014224 <DWHCIDeviceInterruptHandler+0x94>
80014248:	e3a02000 	mov	r2, #0
8001424c:	e28d001c 	add	r0, sp, #28
80014250:	e0871284 	add	r1, r7, r4, lsl #5
80014254:	eb0003c9 	bl	80015180 <DWHCIRegister2>
80014258:	e28d001c 	add	r0, sp, #28
8001425c:	eb0003d5 	bl	800151b8 <DWHCIRegisterWrite>
80014260:	e1a01004 	mov	r1, r4
80014264:	e1a00006 	mov	r0, r6
80014268:	e2844001 	add	r4, r4, #1
8001426c:	ebfffeb1 	bl	80013d38 <DWHCIDeviceChannelInterruptHandler>
80014270:	e28d001c 	add	r0, sp, #28
80014274:	eb0003c5 	bl	80015190 <_DWHCIRegister>
80014278:	e5963000 	ldr	r3, [r6]
8001427c:	e1530004 	cmp	r3, r4
80014280:	8affffeb 	bhi	80014234 <DWHCIDeviceInterruptHandler+0xa4>
80014284:	e28d0010 	add	r0, sp, #16
80014288:	eb0003c0 	bl	80015190 <_DWHCIRegister>
8001428c:	eaffffcd 	b	800141c8 <DWHCIDeviceInterruptHandler+0x38>

80014290 <DWHCIDeviceAllocateChannel>:
80014290:	e92d4070 	push	{r4, r5, r6, lr}
80014294:	e1a05000 	mov	r5, r0
80014298:	ebfff81c 	bl	80012310 <uspi_EnterCritical>
8001429c:	e5951000 	ldr	r1, [r5]
800142a0:	e3510000 	cmp	r1, #0
800142a4:	0a00000b 	beq	800142d8 <DWHCIDeviceAllocateChannel+0x48>
800142a8:	e5953004 	ldr	r3, [r5, #4]
800142ac:	e2133001 	ands	r3, r3, #1
800142b0:	0a00000c 	beq	800142e8 <DWHCIDeviceAllocateChannel+0x58>
800142b4:	e3a04000 	mov	r4, #0
800142b8:	ea000002 	b	800142c8 <DWHCIDeviceAllocateChannel+0x38>
800142bc:	e5952004 	ldr	r2, [r5, #4]
800142c0:	e1120003 	tst	r2, r3
800142c4:	0a000009 	beq	800142f0 <DWHCIDeviceAllocateChannel+0x60>
800142c8:	e1a03083 	lsl	r3, r3, #1
800142cc:	e2844001 	add	r4, r4, #1
800142d0:	e1540001 	cmp	r4, r1
800142d4:	1afffff8 	bne	800142bc <DWHCIDeviceAllocateChannel+0x2c>
800142d8:	e3a04010 	mov	r4, #16
800142dc:	ebfff81a 	bl	8001234c <uspi_LeaveCritical>
800142e0:	e1a00004 	mov	r0, r4
800142e4:	e8bd8070 	pop	{r4, r5, r6, pc}
800142e8:	e1a04003 	mov	r4, r3
800142ec:	e3a03001 	mov	r3, #1
800142f0:	e5952004 	ldr	r2, [r5, #4]
800142f4:	e1823003 	orr	r3, r2, r3
800142f8:	e5853004 	str	r3, [r5, #4]
800142fc:	ebfff812 	bl	8001234c <uspi_LeaveCritical>
80014300:	e1a00004 	mov	r0, r4
80014304:	e8bd8070 	pop	{r4, r5, r6, pc}

80014308 <DWHCIDeviceTransferStageAsync>:
80014308:	e92d47f0 	push	{r4, r5, r6, r7, r8, r9, sl, lr}
8001430c:	e1a04000 	mov	r4, r0
80014310:	e24dd008 	sub	sp, sp, #8
80014314:	e1a07001 	mov	r7, r1
80014318:	e1a08003 	mov	r8, r3
8001431c:	e1a09002 	mov	r9, r2
80014320:	ebffffda 	bl	80014290 <DWHCIDeviceAllocateChannel>
80014324:	e5943000 	ldr	r3, [r4]
80014328:	e1530000 	cmp	r3, r0
8001432c:	93a07000 	movls	r7, #0
80014330:	8a000002 	bhi	80014340 <DWHCIDeviceTransferStageAsync+0x38>
80014334:	e1a00007 	mov	r0, r7
80014338:	e28dd008 	add	sp, sp, #8
8001433c:	e8bd87f0 	pop	{r4, r5, r6, r7, r8, r9, sl, pc}
80014340:	e1a05000 	mov	r5, r0
80014344:	e3a00054 	mov	r0, #84	; 0x54
80014348:	ebfff5a9 	bl	800119f4 <malloc>
8001434c:	e084a105 	add	sl, r4, r5, lsl #2
80014350:	e1a06000 	mov	r6, r0
80014354:	e58d8000 	str	r8, [sp]
80014358:	e1a03009 	mov	r3, r9
8001435c:	e1a02007 	mov	r2, r7
80014360:	e1a01005 	mov	r1, r5
80014364:	ebffee13 	bl	8000fbb8 <DWHCITransferStageData>
80014368:	e58a6008 	str	r6, [sl, #8]
8001436c:	e1a01005 	mov	r1, r5
80014370:	e1a00004 	mov	r0, r4
80014374:	ebfffd16 	bl	800137d4 <DWHCIDeviceEnableChannelInterrupt>
80014378:	e1a00006 	mov	r0, r6
8001437c:	ebffef0e 	bl	8000ffbc <DWHCITransferStageDataIsSplit>
80014380:	e2501000 	subs	r1, r0, #0
80014384:	e1a00006 	mov	r0, r6
80014388:	1a000007 	bne	800143ac <DWHCIDeviceTransferStageAsync+0xa4>
8001438c:	ebffeecd 	bl	8000fec8 <DWHCITransferStageDataSetState>
80014390:	e1a00004 	mov	r0, r4
80014394:	e1a01006 	mov	r1, r6
80014398:	e3a07001 	mov	r7, #1
8001439c:	ebfffe17 	bl	80013c00 <DWHCIDeviceStartTransaction>
800143a0:	e1a00007 	mov	r0, r7
800143a4:	e28dd008 	add	sp, sp, #8
800143a8:	e8bd87f0 	pop	{r4, r5, r6, r7, r8, r9, sl, pc}
800143ac:	ebffeecd 	bl	8000fee8 <DWHCITransferStageDataBeginSplitCycle>
800143b0:	e2507000 	subs	r7, r0, #0
800143b4:	0a00000a 	beq	800143e4 <DWHCIDeviceTransferStageAsync+0xdc>
800143b8:	e1a00006 	mov	r0, r6
800143bc:	e3a01001 	mov	r1, #1
800143c0:	ebffeec0 	bl	8000fec8 <DWHCITransferStageDataSetState>
800143c4:	e3a01000 	mov	r1, #0
800143c8:	e1a00006 	mov	r0, r6
800143cc:	ebffeebb 	bl	8000fec0 <DWHCITransferStageDataSetSplitComplete>
800143d0:	e1a00006 	mov	r0, r6
800143d4:	ebffef1c 	bl	8001004c <DWHCITransferStageDataGetFrameScheduler>
800143d8:	e5903004 	ldr	r3, [r0, #4]
800143dc:	e12fff33 	blx	r3
800143e0:	eaffffea 	b	80014390 <DWHCIDeviceTransferStageAsync+0x88>
800143e4:	e1a01005 	mov	r1, r5
800143e8:	e1a00004 	mov	r0, r4
800143ec:	ebfffd0d 	bl	80013828 <DWHCIDeviceDisableChannelInterrupt>
800143f0:	e1a00006 	mov	r0, r6
800143f4:	ebffee63 	bl	8000fd88 <_DWHCITransferStageData>
800143f8:	e1a00006 	mov	r0, r6
800143fc:	ebfff583 	bl	80011a10 <free>
80014400:	e58a7008 	str	r7, [sl, #8]
80014404:	ebfff7c1 	bl	80012310 <uspi_EnterCritical>
80014408:	e5943004 	ldr	r3, [r4, #4]
8001440c:	e3a02001 	mov	r2, #1
80014410:	e1c35512 	bic	r5, r3, r2, lsl r5
80014414:	e5845004 	str	r5, [r4, #4]
80014418:	ebfff7cb 	bl	8001234c <uspi_LeaveCritical>
8001441c:	eaffffc4 	b	80014334 <DWHCIDeviceTransferStageAsync+0x2c>

80014420 <DWHCIDeviceSubmitAsyncRequest>:
80014420:	e92d4070 	push	{r4, r5, r6, lr}
80014424:	e1a05000 	mov	r5, r0
80014428:	e1a04001 	mov	r4, r1
8001442c:	f57ff05f 	dmb	sy
80014430:	e3a01000 	mov	r1, #0
80014434:	e1a00004 	mov	r0, r4
80014438:	ebfff79c 	bl	800122b0 <USBRequestSetStatus>
8001443c:	e1a00004 	mov	r0, r4
80014440:	ebfff798 	bl	800122a8 <USBRequestGetEndpoint>
80014444:	ebffe39d 	bl	8000d2c0 <USBEndpointIsDirectionIn>
80014448:	e1a02000 	mov	r2, r0
8001444c:	e1a01004 	mov	r1, r4
80014450:	e1a00005 	mov	r0, r5
80014454:	e3a03000 	mov	r3, #0
80014458:	ebffffaa 	bl	80014308 <DWHCIDeviceTransferStageAsync>
8001445c:	f57ff05f 	dmb	sy
80014460:	e8bd8070 	pop	{r4, r5, r6, pc}

80014464 <DWHCIDeviceTransferStage>:
80014464:	e92d41f0 	push	{r4, r5, r6, r7, r8, lr}
80014468:	e1a04000 	mov	r4, r0
8001446c:	e1a05001 	mov	r5, r1
80014470:	e30316a8 	movw	r1, #13992	; 0x36a8
80014474:	e3481001 	movt	r1, #32769	; 0x8001
80014478:	e1a06002 	mov	r6, r2
8001447c:	e1a07003 	mov	r7, r3
80014480:	e1a00005 	mov	r0, r5
80014484:	e1a03004 	mov	r3, r4
80014488:	e3a02000 	mov	r2, #0
8001448c:	ebfff795 	bl	800122e8 <USBRequestSetCompletionRoutine>
80014490:	e3a02001 	mov	r2, #1
80014494:	e1a03007 	mov	r3, r7
80014498:	e5842048 	str	r2, [r4, #72]	; 0x48
8001449c:	e1a01005 	mov	r1, r5
800144a0:	e1a02006 	mov	r2, r6
800144a4:	e1a00004 	mov	r0, r4
800144a8:	ebffff96 	bl	80014308 <DWHCIDeviceTransferStageAsync>
800144ac:	e2503000 	subs	r3, r0, #0
800144b0:	0a00000d 	beq	800144ec <DWHCIDeviceTransferStage+0x88>
800144b4:	e30a6bf8 	movw	r6, #44024	; 0xabf8
800144b8:	e3486009 	movt	r6, #32777	; 0x8009
800144bc:	e5962000 	ldr	r2, [r6]
800144c0:	ea000001 	b	800144cc <DWHCIDeviceTransferStage+0x68>
800144c4:	e3520001 	cmp	r2, #1
800144c8:	0a000005 	beq	800144e4 <DWHCIDeviceTransferStage+0x80>
800144cc:	e5943048 	ldr	r3, [r4, #72]	; 0x48
800144d0:	e3530000 	cmp	r3, #0
800144d4:	1afffffa 	bne	800144c4 <DWHCIDeviceTransferStage+0x60>
800144d8:	e1a00005 	mov	r0, r5
800144dc:	e8bd41f0 	pop	{r4, r5, r6, r7, r8, lr}
800144e0:	eafff776 	b	800122c0 <USBRequestGetStatus>
800144e4:	eb0004d4 	bl	8001583c <yield>
800144e8:	eafffff3 	b	800144bc <DWHCIDeviceTransferStage+0x58>
800144ec:	e5843048 	str	r3, [r4, #72]	; 0x48
800144f0:	e8bd81f0 	pop	{r4, r5, r6, r7, r8, pc}

800144f4 <DWHCIDeviceSubmitBlockingRequest>:
800144f4:	e92d4070 	push	{r4, r5, r6, lr}
800144f8:	e1a05000 	mov	r5, r0
800144fc:	e1a04001 	mov	r4, r1
80014500:	f57ff05f 	dmb	sy
80014504:	e3a01000 	mov	r1, #0
80014508:	e1a00004 	mov	r0, r4
8001450c:	ebfff767 	bl	800122b0 <USBRequestSetStatus>
80014510:	e1a00004 	mov	r0, r4
80014514:	ebfff763 	bl	800122a8 <USBRequestGetEndpoint>
80014518:	ebffe366 	bl	8000d2b8 <USBEndpointGetType>
8001451c:	e2506000 	subs	r6, r0, #0
80014520:	e1a00004 	mov	r0, r4
80014524:	1a00002d 	bne	800145e0 <DWHCIDeviceSubmitBlockingRequest+0xec>
80014528:	ebfff768 	bl	800122d0 <USBRequestGetSetupData>
8001452c:	e1d030d0 	ldrsb	r3, [r0]
80014530:	e3530000 	cmp	r3, #0
80014534:	ba000013 	blt	80014588 <DWHCIDeviceSubmitBlockingRequest+0x94>
80014538:	e1a00004 	mov	r0, r4
8001453c:	ebfff767 	bl	800122e0 <USBRequestGetBufLen>
80014540:	e2503000 	subs	r3, r0, #0
80014544:	0a000007 	beq	80014568 <DWHCIDeviceSubmitBlockingRequest+0x74>
80014548:	e1a03006 	mov	r3, r6
8001454c:	e1a02006 	mov	r2, r6
80014550:	e1a01004 	mov	r1, r4
80014554:	e1a00005 	mov	r0, r5
80014558:	ebffffc1 	bl	80014464 <DWHCIDeviceTransferStage>
8001455c:	e3500000 	cmp	r0, #0
80014560:	0a000006 	beq	80014580 <DWHCIDeviceSubmitBlockingRequest+0x8c>
80014564:	e1a03006 	mov	r3, r6
80014568:	e1a02003 	mov	r2, r3
8001456c:	e1a01004 	mov	r1, r4
80014570:	e1a00005 	mov	r0, r5
80014574:	ebffffba 	bl	80014464 <DWHCIDeviceTransferStage>
80014578:	e3500000 	cmp	r0, #0
8001457c:	1a000023 	bne	80014610 <DWHCIDeviceSubmitBlockingRequest+0x11c>
80014580:	e3a00000 	mov	r0, #0
80014584:	e8bd8070 	pop	{r4, r5, r6, pc}
80014588:	e1a03006 	mov	r3, r6
8001458c:	e1a02006 	mov	r2, r6
80014590:	e1a01004 	mov	r1, r4
80014594:	e1a00005 	mov	r0, r5
80014598:	ebffffb1 	bl	80014464 <DWHCIDeviceTransferStage>
8001459c:	e3500000 	cmp	r0, #0
800145a0:	0afffff6 	beq	80014580 <DWHCIDeviceSubmitBlockingRequest+0x8c>
800145a4:	e1a03006 	mov	r3, r6
800145a8:	e3a02001 	mov	r2, #1
800145ac:	e1a01004 	mov	r1, r4
800145b0:	e1a00005 	mov	r0, r5
800145b4:	ebffffaa 	bl	80014464 <DWHCIDeviceTransferStage>
800145b8:	e3500000 	cmp	r0, #0
800145bc:	0affffef 	beq	80014580 <DWHCIDeviceSubmitBlockingRequest+0x8c>
800145c0:	e1a02006 	mov	r2, r6
800145c4:	e1a01004 	mov	r1, r4
800145c8:	e1a00005 	mov	r0, r5
800145cc:	e3a03001 	mov	r3, #1
800145d0:	ebffffa3 	bl	80014464 <DWHCIDeviceTransferStage>
800145d4:	e3500000 	cmp	r0, #0
800145d8:	1a000009 	bne	80014604 <DWHCIDeviceSubmitBlockingRequest+0x110>
800145dc:	eaffffe7 	b	80014580 <DWHCIDeviceSubmitBlockingRequest+0x8c>
800145e0:	ebfff730 	bl	800122a8 <USBRequestGetEndpoint>
800145e4:	ebffe335 	bl	8000d2c0 <USBEndpointIsDirectionIn>
800145e8:	e1a02000 	mov	r2, r0
800145ec:	e1a01004 	mov	r1, r4
800145f0:	e1a00005 	mov	r0, r5
800145f4:	e3a03000 	mov	r3, #0
800145f8:	ebffff99 	bl	80014464 <DWHCIDeviceTransferStage>
800145fc:	e3500000 	cmp	r0, #0
80014600:	0affffde 	beq	80014580 <DWHCIDeviceSubmitBlockingRequest+0x8c>
80014604:	f57ff05f 	dmb	sy
80014608:	e3a00001 	mov	r0, #1
8001460c:	e8bd8070 	pop	{r4, r5, r6, pc}
80014610:	e3a03001 	mov	r3, #1
80014614:	e1a01004 	mov	r1, r4
80014618:	e1a00005 	mov	r0, r5
8001461c:	e1a02003 	mov	r2, r3
80014620:	ebffff8f 	bl	80014464 <DWHCIDeviceTransferStage>
80014624:	e3500000 	cmp	r0, #0
80014628:	1afffff5 	bne	80014604 <DWHCIDeviceSubmitBlockingRequest+0x110>
8001462c:	eaffffd3 	b	80014580 <DWHCIDeviceSubmitBlockingRequest+0x8c>

80014630 <DWHCIDeviceControlMessage>:
80014630:	e92d4ff0 	push	{r4, r5, r6, r7, r8, r9, sl, fp, lr}
80014634:	e24dd034 	sub	sp, sp, #52	; 0x34
80014638:	e1a06000 	mov	r6, r0
8001463c:	e3a00008 	mov	r0, #8
80014640:	e1dd56b4 	ldrh	r5, [sp, #100]	; 0x64
80014644:	e1a0b002 	mov	fp, r2
80014648:	e1dd85b8 	ldrh	r8, [sp, #88]	; 0x58
8001464c:	e1a09003 	mov	r9, r3
80014650:	e1dd75bc 	ldrh	r7, [sp, #92]	; 0x5c
80014654:	e1a0a001 	mov	sl, r1
80014658:	ebfff4e5 	bl	800119f4 <malloc>
8001465c:	e5c0b000 	strb	fp, [r0]
80014660:	e1a04000 	mov	r4, r0
80014664:	e5c09001 	strb	r9, [r0, #1]
80014668:	e1a0100a 	mov	r1, sl
8001466c:	e1c080b2 	strh	r8, [r0, #2]
80014670:	e1a03005 	mov	r3, r5
80014674:	e1c070b4 	strh	r7, [r0, #4]
80014678:	e28d000c 	add	r0, sp, #12
8001467c:	e59d2060 	ldr	r2, [sp, #96]	; 0x60
80014680:	e1c450b6 	strh	r5, [r4, #6]
80014684:	e58d4000 	str	r4, [sp]
80014688:	ebfff6f5 	bl	80012264 <USBRequest>
8001468c:	e28d100c 	add	r1, sp, #12
80014690:	e1a00006 	mov	r0, r6
80014694:	ebffff96 	bl	800144f4 <DWHCIDeviceSubmitBlockingRequest>
80014698:	e3500000 	cmp	r0, #0
8001469c:	0a000009 	beq	800146c8 <DWHCIDeviceControlMessage+0x98>
800146a0:	e28d000c 	add	r0, sp, #12
800146a4:	ebfff707 	bl	800122c8 <USBRequestGetResultLength>
800146a8:	e1a05000 	mov	r5, r0
800146ac:	e1a00004 	mov	r0, r4
800146b0:	ebfff4d6 	bl	80011a10 <free>
800146b4:	e28d000c 	add	r0, sp, #12
800146b8:	ebfff6f4 	bl	80012290 <_USBRequest>
800146bc:	e1a00005 	mov	r0, r5
800146c0:	e28dd034 	add	sp, sp, #52	; 0x34
800146c4:	e8bd8ff0 	pop	{r4, r5, r6, r7, r8, r9, sl, fp, pc}
800146c8:	e3e05000 	mvn	r5, #0
800146cc:	eafffff6 	b	800146ac <DWHCIDeviceControlMessage+0x7c>

800146d0 <DWHCIDeviceGetDescriptor>:
800146d0:	e52de004 	push	{lr}		; (str lr, [sp, #-4]!)
800146d4:	e24dd014 	sub	sp, sp, #20
800146d8:	e1832402 	orr	r2, r3, r2, lsl #8
800146dc:	e3a0c000 	mov	ip, #0
800146e0:	e59de018 	ldr	lr, [sp, #24]
800146e4:	e3a03006 	mov	r3, #6
800146e8:	e58d2000 	str	r2, [sp]
800146ec:	e1dd21bc 	ldrh	r2, [sp, #28]
800146f0:	e58de008 	str	lr, [sp, #8]
800146f4:	e58d200c 	str	r2, [sp, #12]
800146f8:	e58dc004 	str	ip, [sp, #4]
800146fc:	e5dd2020 	ldrb	r2, [sp, #32]
80014700:	ebffffca 	bl	80014630 <DWHCIDeviceControlMessage>
80014704:	e28dd014 	add	sp, sp, #20
80014708:	e49df004 	pop	{pc}		; (ldr pc, [sp], #4)

8001470c <DWHCIDeviceSetAddress>:
8001470c:	e92d4010 	push	{r4, lr}
80014710:	e24dd010 	sub	sp, sp, #16
80014714:	e3a04000 	mov	r4, #0
80014718:	e3a03005 	mov	r3, #5
8001471c:	e58d2000 	str	r2, [sp]
80014720:	e1a02004 	mov	r2, r4
80014724:	e58d400c 	str	r4, [sp, #12]
80014728:	e58d4008 	str	r4, [sp, #8]
8001472c:	e58d4004 	str	r4, [sp, #4]
80014730:	ebffffbe 	bl	80014630 <DWHCIDeviceControlMessage>
80014734:	e1500004 	cmp	r0, r4
80014738:	b1a00004 	movlt	r0, r4
8001473c:	ba000002 	blt	8001474c <DWHCIDeviceSetAddress+0x40>
80014740:	e3a00032 	mov	r0, #50	; 0x32
80014744:	ebfff4b2 	bl	80011a14 <MsDelay>
80014748:	e3a00001 	mov	r0, #1
8001474c:	e28dd010 	add	sp, sp, #16
80014750:	e8bd8010 	pop	{r4, pc}

80014754 <DWHCIDeviceSetConfiguration>:
80014754:	e92d4010 	push	{r4, lr}
80014758:	e24dd010 	sub	sp, sp, #16
8001475c:	e3a04000 	mov	r4, #0
80014760:	e3a03009 	mov	r3, #9
80014764:	e58d2000 	str	r2, [sp]
80014768:	e1a02004 	mov	r2, r4
8001476c:	e58d400c 	str	r4, [sp, #12]
80014770:	e58d4008 	str	r4, [sp, #8]
80014774:	e58d4004 	str	r4, [sp, #4]
80014778:	ebffffac 	bl	80014630 <DWHCIDeviceControlMessage>
8001477c:	e1500004 	cmp	r0, r4
80014780:	b1a00004 	movlt	r0, r4
80014784:	ba000002 	blt	80014794 <DWHCIDeviceSetConfiguration+0x40>
80014788:	e3a00032 	mov	r0, #50	; 0x32
8001478c:	ebfff4a0 	bl	80011a14 <MsDelay>
80014790:	e3a00001 	mov	r0, #1
80014794:	e28dd010 	add	sp, sp, #16
80014798:	e8bd8010 	pop	{r4, pc}

8001479c <DWHCIDeviceTransfer>:
8001479c:	e92d4010 	push	{r4, lr}
800147a0:	e24dd030 	sub	sp, sp, #48	; 0x30
800147a4:	e3a0c000 	mov	ip, #0
800147a8:	e1a04000 	mov	r4, r0
800147ac:	e58dc000 	str	ip, [sp]
800147b0:	e28d000c 	add	r0, sp, #12
800147b4:	ebfff6aa 	bl	80012264 <USBRequest>
800147b8:	e28d100c 	add	r1, sp, #12
800147bc:	e1a00004 	mov	r0, r4
800147c0:	ebffff4b 	bl	800144f4 <DWHCIDeviceSubmitBlockingRequest>
800147c4:	e3500000 	cmp	r0, #0
800147c8:	0a000007 	beq	800147ec <DWHCIDeviceTransfer+0x50>
800147cc:	e28d000c 	add	r0, sp, #12
800147d0:	ebfff6bc 	bl	800122c8 <USBRequestGetResultLength>
800147d4:	e1a04000 	mov	r4, r0
800147d8:	e28d000c 	add	r0, sp, #12
800147dc:	ebfff6ab 	bl	80012290 <_USBRequest>
800147e0:	e1a00004 	mov	r0, r4
800147e4:	e28dd030 	add	sp, sp, #48	; 0x30
800147e8:	e8bd8010 	pop	{r4, pc}
800147ec:	e3e04000 	mvn	r4, #0
800147f0:	eafffff8 	b	800147d8 <DWHCIDeviceTransfer+0x3c>

800147f4 <DWHCIDeviceFreeChannel>:
800147f4:	e92d4070 	push	{r4, r5, r6, lr}
800147f8:	e1a04000 	mov	r4, r0
800147fc:	e1a05001 	mov	r5, r1
80014800:	ebfff6c2 	bl	80012310 <uspi_EnterCritical>
80014804:	e5943004 	ldr	r3, [r4, #4]
80014808:	e3a01001 	mov	r1, #1
8001480c:	e1c33511 	bic	r3, r3, r1, lsl r5
80014810:	e5843004 	str	r3, [r4, #4]
80014814:	e8bd4070 	pop	{r4, r5, r6, lr}
80014818:	eafff6cb 	b	8001234c <uspi_LeaveCritical>

8001481c <DWHCIDeviceWaitForBit>:
8001481c:	e92d41f0 	push	{r4, r5, r6, r7, r8, lr}
80014820:	e1a07001 	mov	r7, r1
80014824:	e59d4018 	ldr	r4, [sp, #24]
80014828:	e1a06002 	mov	r6, r2
8001482c:	e1a05003 	mov	r5, r3
80014830:	e1a00007 	mov	r0, r7
80014834:	eb000258 	bl	8001519c <DWHCIRegisterRead>
80014838:	e1100006 	tst	r0, r6
8001483c:	e16f3f15 	clz	r3, r5
80014840:	11a032a3 	lsrne	r3, r3, #5
80014844:	1a000001 	bne	80014850 <DWHCIDeviceWaitForBit+0x34>
80014848:	e2953000 	adds	r3, r5, #0
8001484c:	13a03001 	movne	r3, #1
80014850:	e3530000 	cmp	r3, #0
80014854:	e3a00001 	mov	r0, #1
80014858:	08bd81f0 	popeq	{r4, r5, r6, r7, r8, pc}
8001485c:	ebfff46c 	bl	80011a14 <MsDelay>
80014860:	e2544001 	subs	r4, r4, #1
80014864:	1afffff1 	bne	80014830 <DWHCIDeviceWaitForBit+0x14>
80014868:	e1a00004 	mov	r0, r4
8001486c:	e8bd81f0 	pop	{r4, r5, r6, r7, r8, pc}

80014870 <DWHCIDeviceEnableRootPort>:
80014870:	e92d4030 	push	{r4, r5, lr}
80014874:	e3a01d11 	mov	r1, #1088	; 0x440
80014878:	e34d1098 	movt	r1, #53400	; 0xd098
8001487c:	e24dd01c 	sub	sp, sp, #28
80014880:	e1a04000 	mov	r4, r0
80014884:	e28d000c 	add	r0, sp, #12
80014888:	e3a05014 	mov	r5, #20
8001488c:	eb000237 	bl	80015170 <DWHCIRegister>
80014890:	e58d5000 	str	r5, [sp]
80014894:	e3a03001 	mov	r3, #1
80014898:	e1a00004 	mov	r0, r4
8001489c:	e28d100c 	add	r1, sp, #12
800148a0:	e1a02003 	mov	r2, r3
800148a4:	ebffffdc 	bl	8001481c <DWHCIDeviceWaitForBit>
800148a8:	e2504000 	subs	r4, r0, #0
800148ac:	0a00001a 	beq	8001491c <DWHCIDeviceEnableRootPort+0xac>
800148b0:	e3a00064 	mov	r0, #100	; 0x64
800148b4:	e3a04001 	mov	r4, #1
800148b8:	ebfff455 	bl	80011a14 <MsDelay>
800148bc:	e28d000c 	add	r0, sp, #12
800148c0:	eb000235 	bl	8001519c <DWHCIRegisterRead>
800148c4:	e3e0102e 	mvn	r1, #46	; 0x2e
800148c8:	e28d000c 	add	r0, sp, #12
800148cc:	eb000248 	bl	800151f4 <DWHCIRegisterAnd>
800148d0:	e3a01c01 	mov	r1, #256	; 0x100
800148d4:	e28d000c 	add	r0, sp, #12
800148d8:	eb000249 	bl	80015204 <DWHCIRegisterOr>
800148dc:	e28d000c 	add	r0, sp, #12
800148e0:	eb000234 	bl	800151b8 <DWHCIRegisterWrite>
800148e4:	e3a00032 	mov	r0, #50	; 0x32
800148e8:	ebfff449 	bl	80011a14 <MsDelay>
800148ec:	e28d000c 	add	r0, sp, #12
800148f0:	eb000229 	bl	8001519c <DWHCIRegisterRead>
800148f4:	e3e0102e 	mvn	r1, #46	; 0x2e
800148f8:	e28d000c 	add	r0, sp, #12
800148fc:	eb00023c 	bl	800151f4 <DWHCIRegisterAnd>
80014900:	e3e01c01 	mvn	r1, #256	; 0x100
80014904:	e28d000c 	add	r0, sp, #12
80014908:	eb000239 	bl	800151f4 <DWHCIRegisterAnd>
8001490c:	e28d000c 	add	r0, sp, #12
80014910:	eb000228 	bl	800151b8 <DWHCIRegisterWrite>
80014914:	e1a00005 	mov	r0, r5
80014918:	ebfff43d 	bl	80011a14 <MsDelay>
8001491c:	e28d000c 	add	r0, sp, #12
80014920:	eb00021a 	bl	80015190 <_DWHCIRegister>
80014924:	e1a00004 	mov	r0, r4
80014928:	e28dd01c 	add	sp, sp, #28
8001492c:	e8bd8030 	pop	{r4, r5, pc}

80014930 <DWHCIDeviceReset>:
80014930:	e92d4030 	push	{r4, r5, lr}
80014934:	e3a01010 	mov	r1, #16
80014938:	e34d1098 	movt	r1, #53400	; 0xd098
8001493c:	e24dd01c 	sub	sp, sp, #28
80014940:	e1a04000 	mov	r4, r0
80014944:	e3a02000 	mov	r2, #0
80014948:	e28d000c 	add	r0, sp, #12
8001494c:	e3a05064 	mov	r5, #100	; 0x64
80014950:	eb00020a 	bl	80015180 <DWHCIRegister2>
80014954:	e58d5000 	str	r5, [sp]
80014958:	e28d100c 	add	r1, sp, #12
8001495c:	e1a00004 	mov	r0, r4
80014960:	e3a03001 	mov	r3, #1
80014964:	e3a02102 	mov	r2, #-2147483648	; 0x80000000
80014968:	ebffffab 	bl	8001481c <DWHCIDeviceWaitForBit>
8001496c:	e3500000 	cmp	r0, #0
80014970:	0a000014 	beq	800149c8 <DWHCIDeviceReset+0x98>
80014974:	e3a01001 	mov	r1, #1
80014978:	e28d000c 	add	r0, sp, #12
8001497c:	eb000220 	bl	80015204 <DWHCIRegisterOr>
80014980:	e28d000c 	add	r0, sp, #12
80014984:	eb00020b 	bl	800151b8 <DWHCIRegisterWrite>
80014988:	e3a0300a 	mov	r3, #10
8001498c:	e1a00004 	mov	r0, r4
80014990:	e58d3000 	str	r3, [sp]
80014994:	e3a02001 	mov	r2, #1
80014998:	e3a03000 	mov	r3, #0
8001499c:	e28d100c 	add	r1, sp, #12
800149a0:	ebffff9d 	bl	8001481c <DWHCIDeviceWaitForBit>
800149a4:	e3500000 	cmp	r0, #0
800149a8:	0a000006 	beq	800149c8 <DWHCIDeviceReset+0x98>
800149ac:	e1a00005 	mov	r0, r5
800149b0:	ebfff417 	bl	80011a14 <MsDelay>
800149b4:	e28d000c 	add	r0, sp, #12
800149b8:	eb0001f4 	bl	80015190 <_DWHCIRegister>
800149bc:	e3a00001 	mov	r0, #1
800149c0:	e28dd01c 	add	sp, sp, #28
800149c4:	e8bd8030 	pop	{r4, r5, pc}
800149c8:	e28d000c 	add	r0, sp, #12
800149cc:	eb0001ef 	bl	80015190 <_DWHCIRegister>
800149d0:	e3a00000 	mov	r0, #0
800149d4:	e28dd01c 	add	sp, sp, #28
800149d8:	e8bd8030 	pop	{r4, r5, pc}

800149dc <DWHCIDeviceInitCore>:
800149dc:	e92d4030 	push	{r4, r5, lr}
800149e0:	e3a0100c 	mov	r1, #12
800149e4:	e34d1098 	movt	r1, #53400	; 0xd098
800149e8:	e24dd02c 	sub	sp, sp, #44	; 0x2c
800149ec:	e1a04000 	mov	r4, r0
800149f0:	e28d0004 	add	r0, sp, #4
800149f4:	eb0001dd 	bl	80015170 <DWHCIRegister>
800149f8:	e28d0004 	add	r0, sp, #4
800149fc:	eb0001e6 	bl	8001519c <DWHCIRegisterRead>
80014a00:	e28d0004 	add	r0, sp, #4
80014a04:	e3e01601 	mvn	r1, #1048576	; 0x100000
80014a08:	eb0001f9 	bl	800151f4 <DWHCIRegisterAnd>
80014a0c:	e3e01501 	mvn	r1, #4194304	; 0x400000
80014a10:	e28d0004 	add	r0, sp, #4
80014a14:	eb0001f6 	bl	800151f4 <DWHCIRegisterAnd>
80014a18:	e28d0004 	add	r0, sp, #4
80014a1c:	eb0001e5 	bl	800151b8 <DWHCIRegisterWrite>
80014a20:	e1a00004 	mov	r0, r4
80014a24:	ebffffc1 	bl	80014930 <DWHCIDeviceReset>
80014a28:	e2505000 	subs	r5, r0, #0
80014a2c:	0a000056 	beq	80014b8c <DWHCIDeviceInitCore+0x1b0>
80014a30:	e28d0004 	add	r0, sp, #4
80014a34:	eb0001d8 	bl	8001519c <DWHCIRegisterRead>
80014a38:	e3e01010 	mvn	r1, #16
80014a3c:	e28d0004 	add	r0, sp, #4
80014a40:	eb0001eb 	bl	800151f4 <DWHCIRegisterAnd>
80014a44:	e3e01008 	mvn	r1, #8
80014a48:	e28d0004 	add	r0, sp, #4
80014a4c:	eb0001e8 	bl	800151f4 <DWHCIRegisterAnd>
80014a50:	e28d0004 	add	r0, sp, #4
80014a54:	eb0001d7 	bl	800151b8 <DWHCIRegisterWrite>
80014a58:	e3a01048 	mov	r1, #72	; 0x48
80014a5c:	e28d0010 	add	r0, sp, #16
80014a60:	e34d1098 	movt	r1, #53400	; 0xd098
80014a64:	eb0001c1 	bl	80015170 <DWHCIRegister>
80014a68:	e28d0010 	add	r0, sp, #16
80014a6c:	eb0001ca 	bl	8001519c <DWHCIRegisterRead>
80014a70:	e28d0004 	add	r0, sp, #4
80014a74:	eb0001c8 	bl	8001519c <DWHCIRegisterRead>
80014a78:	e28d0010 	add	r0, sp, #16
80014a7c:	eb0001d1 	bl	800151c8 <DWHCIRegisterGet>
80014a80:	e7e10350 	ubfx	r0, r0, #6, #2
80014a84:	e3500002 	cmp	r0, #2
80014a88:	0a000033 	beq	80014b5c <DWHCIDeviceInitCore+0x180>
80014a8c:	e3e01802 	mvn	r1, #131072	; 0x20000
80014a90:	e28d0004 	add	r0, sp, #4
80014a94:	eb0001d6 	bl	800151f4 <DWHCIRegisterAnd>
80014a98:	e3e01702 	mvn	r1, #524288	; 0x80000
80014a9c:	e28d0004 	add	r0, sp, #4
80014aa0:	eb0001d3 	bl	800151f4 <DWHCIRegisterAnd>
80014aa4:	e28d0004 	add	r0, sp, #4
80014aa8:	e3a05001 	mov	r5, #1
80014aac:	eb0001c1 	bl	800151b8 <DWHCIRegisterWrite>
80014ab0:	e28d0010 	add	r0, sp, #16
80014ab4:	eb0001c3 	bl	800151c8 <DWHCIRegisterGet>
80014ab8:	e7e30750 	ubfx	r0, r0, #14, #4
80014abc:	e3a01008 	mov	r1, #8
80014ac0:	e0800005 	add	r0, r0, r5
80014ac4:	e34d1098 	movt	r1, #53400	; 0xd098
80014ac8:	e5840000 	str	r0, [r4]
80014acc:	e28d001c 	add	r0, sp, #28
80014ad0:	eb0001a6 	bl	80015170 <DWHCIRegister>
80014ad4:	e28d001c 	add	r0, sp, #28
80014ad8:	eb0001af 	bl	8001519c <DWHCIRegisterRead>
80014adc:	e28d001c 	add	r0, sp, #28
80014ae0:	e3a01020 	mov	r1, #32
80014ae4:	eb0001c6 	bl	80015204 <DWHCIRegisterOr>
80014ae8:	e28d001c 	add	r0, sp, #28
80014aec:	e3a01010 	mov	r1, #16
80014af0:	eb0001c3 	bl	80015204 <DWHCIRegisterOr>
80014af4:	e3e01006 	mvn	r1, #6
80014af8:	e28d001c 	add	r0, sp, #28
80014afc:	eb0001bc 	bl	800151f4 <DWHCIRegisterAnd>
80014b00:	e28d001c 	add	r0, sp, #28
80014b04:	eb0001ab 	bl	800151b8 <DWHCIRegisterWrite>
80014b08:	e28d0004 	add	r0, sp, #4
80014b0c:	eb0001a2 	bl	8001519c <DWHCIRegisterRead>
80014b10:	e28d0004 	add	r0, sp, #4
80014b14:	e3e01c02 	mvn	r1, #512	; 0x200
80014b18:	eb0001b5 	bl	800151f4 <DWHCIRegisterAnd>
80014b1c:	e3e01c01 	mvn	r1, #256	; 0x100
80014b20:	e28d0004 	add	r0, sp, #4
80014b24:	eb0001b2 	bl	800151f4 <DWHCIRegisterAnd>
80014b28:	e28d0004 	add	r0, sp, #4
80014b2c:	eb0001a1 	bl	800151b8 <DWHCIRegisterWrite>
80014b30:	e1a00004 	mov	r0, r4
80014b34:	ebfffb01 	bl	80013740 <DWHCIDeviceEnableCommonInterrupts>
80014b38:	e28d001c 	add	r0, sp, #28
80014b3c:	eb000193 	bl	80015190 <_DWHCIRegister>
80014b40:	e28d0010 	add	r0, sp, #16
80014b44:	eb000191 	bl	80015190 <_DWHCIRegister>
80014b48:	e28d0004 	add	r0, sp, #4
80014b4c:	eb00018f 	bl	80015190 <_DWHCIRegister>
80014b50:	e1a00005 	mov	r0, r5
80014b54:	e28dd02c 	add	sp, sp, #44	; 0x2c
80014b58:	e8bd8030 	pop	{r4, r5, pc}
80014b5c:	e28d0010 	add	r0, sp, #16
80014b60:	eb000198 	bl	800151c8 <DWHCIRegisterGet>
80014b64:	e7e10450 	ubfx	r0, r0, #8, #2
80014b68:	e3500001 	cmp	r0, #1
80014b6c:	1affffc6 	bne	80014a8c <DWHCIDeviceInitCore+0xb0>
80014b70:	e28d0004 	add	r0, sp, #4
80014b74:	e3a01802 	mov	r1, #131072	; 0x20000
80014b78:	eb0001a1 	bl	80015204 <DWHCIRegisterOr>
80014b7c:	e3a01702 	mov	r1, #524288	; 0x80000
80014b80:	e28d0004 	add	r0, sp, #4
80014b84:	eb00019e 	bl	80015204 <DWHCIRegisterOr>
80014b88:	eaffffc5 	b	80014aa4 <DWHCIDeviceInitCore+0xc8>
80014b8c:	e30924dc 	movw	r2, #38108	; 0x94dc
80014b90:	e309048c 	movw	r0, #38028	; 0x948c
80014b94:	e3482001 	movt	r2, #32769	; 0x8001
80014b98:	e3a01001 	mov	r1, #1
80014b9c:	e3480001 	movt	r0, #32769	; 0x8001
80014ba0:	ebfff3ed 	bl	80011b5c <LogWrite>
80014ba4:	e1a00005 	mov	r0, r5
80014ba8:	e28dd02c 	add	sp, sp, #44	; 0x2c
80014bac:	e8bd8030 	pop	{r4, r5, pc}

80014bb0 <DWHCIDeviceFlushTxFIFO>:
80014bb0:	e92d4030 	push	{r4, r5, lr}
80014bb4:	e1a05001 	mov	r5, r1
80014bb8:	e24dd01c 	sub	sp, sp, #28
80014bbc:	e3a01010 	mov	r1, #16
80014bc0:	e34d1098 	movt	r1, #53400	; 0xd098
80014bc4:	e3a02000 	mov	r2, #0
80014bc8:	e1a04000 	mov	r4, r0
80014bcc:	e28d000c 	add	r0, sp, #12
80014bd0:	eb00016a 	bl	80015180 <DWHCIRegister2>
80014bd4:	e28d000c 	add	r0, sp, #12
80014bd8:	e3a01020 	mov	r1, #32
80014bdc:	eb000188 	bl	80015204 <DWHCIRegisterOr>
80014be0:	e28d000c 	add	r0, sp, #12
80014be4:	e3e01d1f 	mvn	r1, #1984	; 0x7c0
80014be8:	eb000181 	bl	800151f4 <DWHCIRegisterAnd>
80014bec:	e1a01305 	lsl	r1, r5, #6
80014bf0:	e28d000c 	add	r0, sp, #12
80014bf4:	eb000182 	bl	80015204 <DWHCIRegisterOr>
80014bf8:	e28d000c 	add	r0, sp, #12
80014bfc:	eb00016d 	bl	800151b8 <DWHCIRegisterWrite>
80014c00:	e3a0300a 	mov	r3, #10
80014c04:	e1a00004 	mov	r0, r4
80014c08:	e58d3000 	str	r3, [sp]
80014c0c:	e28d100c 	add	r1, sp, #12
80014c10:	e3a03000 	mov	r3, #0
80014c14:	e3a02020 	mov	r2, #32
80014c18:	ebfffeff 	bl	8001481c <DWHCIDeviceWaitForBit>
80014c1c:	e3500000 	cmp	r0, #0
80014c20:	1a000003 	bne	80014c34 <DWHCIDeviceFlushTxFIFO+0x84>
80014c24:	e28d000c 	add	r0, sp, #12
80014c28:	eb000158 	bl	80015190 <_DWHCIRegister>
80014c2c:	e28dd01c 	add	sp, sp, #28
80014c30:	e8bd8030 	pop	{r4, r5, pc}
80014c34:	e3a00001 	mov	r0, #1
80014c38:	ebfff382 	bl	80011a48 <usDelay>
80014c3c:	e28d000c 	add	r0, sp, #12
80014c40:	eb000152 	bl	80015190 <_DWHCIRegister>
80014c44:	e28dd01c 	add	sp, sp, #28
80014c48:	e8bd8030 	pop	{r4, r5, pc}

80014c4c <DWHCIDeviceFlushRxFIFO>:
80014c4c:	e92d4010 	push	{r4, lr}
80014c50:	e3a01010 	mov	r1, #16
80014c54:	e34d1098 	movt	r1, #53400	; 0xd098
80014c58:	e24dd018 	sub	sp, sp, #24
80014c5c:	e3a02000 	mov	r2, #0
80014c60:	e1a04000 	mov	r4, r0
80014c64:	e28d000c 	add	r0, sp, #12
80014c68:	eb000144 	bl	80015180 <DWHCIRegister2>
80014c6c:	e3a01010 	mov	r1, #16
80014c70:	e28d000c 	add	r0, sp, #12
80014c74:	eb000162 	bl	80015204 <DWHCIRegisterOr>
80014c78:	e28d000c 	add	r0, sp, #12
80014c7c:	eb00014d 	bl	800151b8 <DWHCIRegisterWrite>
80014c80:	e3a0300a 	mov	r3, #10
80014c84:	e1a00004 	mov	r0, r4
80014c88:	e58d3000 	str	r3, [sp]
80014c8c:	e28d100c 	add	r1, sp, #12
80014c90:	e3a03000 	mov	r3, #0
80014c94:	e3a02010 	mov	r2, #16
80014c98:	ebfffedf 	bl	8001481c <DWHCIDeviceWaitForBit>
80014c9c:	e3500000 	cmp	r0, #0
80014ca0:	1a000003 	bne	80014cb4 <DWHCIDeviceFlushRxFIFO+0x68>
80014ca4:	e28d000c 	add	r0, sp, #12
80014ca8:	eb000138 	bl	80015190 <_DWHCIRegister>
80014cac:	e28dd018 	add	sp, sp, #24
80014cb0:	e8bd8010 	pop	{r4, pc}
80014cb4:	e3a00001 	mov	r0, #1
80014cb8:	ebfff362 	bl	80011a48 <usDelay>
80014cbc:	e28d000c 	add	r0, sp, #12
80014cc0:	eb000132 	bl	80015190 <_DWHCIRegister>
80014cc4:	e28dd018 	add	sp, sp, #24
80014cc8:	e8bd8010 	pop	{r4, pc}

80014ccc <DWHCIDeviceInitHost>:
80014ccc:	e92d4030 	push	{r4, r5, lr}
80014cd0:	e3a01c0e 	mov	r1, #3584	; 0xe00
80014cd4:	e34d1098 	movt	r1, #53400	; 0xd098
80014cd8:	e24dd064 	sub	sp, sp, #100	; 0x64
80014cdc:	e3a02000 	mov	r2, #0
80014ce0:	e1a04000 	mov	r4, r0
80014ce4:	e1a0000d 	mov	r0, sp
80014ce8:	eb000124 	bl	80015180 <DWHCIRegister2>
80014cec:	e1a0000d 	mov	r0, sp
80014cf0:	eb000130 	bl	800151b8 <DWHCIRegisterWrite>
80014cf4:	e3a01b01 	mov	r1, #1024	; 0x400
80014cf8:	e28d000c 	add	r0, sp, #12
80014cfc:	e34d1098 	movt	r1, #53400	; 0xd098
80014d00:	eb00011a 	bl	80015170 <DWHCIRegister>
80014d04:	e28d000c 	add	r0, sp, #12
80014d08:	eb000123 	bl	8001519c <DWHCIRegisterRead>
80014d0c:	e28d000c 	add	r0, sp, #12
80014d10:	e3e01003 	mvn	r1, #3
80014d14:	eb000136 	bl	800151f4 <DWHCIRegisterAnd>
80014d18:	e3a01048 	mov	r1, #72	; 0x48
80014d1c:	e28d0018 	add	r0, sp, #24
80014d20:	e34d1098 	movt	r1, #53400	; 0xd098
80014d24:	eb000111 	bl	80015170 <DWHCIRegister>
80014d28:	e3a0100c 	mov	r1, #12
80014d2c:	e28d0024 	add	r0, sp, #36	; 0x24
80014d30:	e34d1098 	movt	r1, #53400	; 0xd098
80014d34:	eb00010d 	bl	80015170 <DWHCIRegister>
80014d38:	e28d0018 	add	r0, sp, #24
80014d3c:	eb000116 	bl	8001519c <DWHCIRegisterRead>
80014d40:	e7e10350 	ubfx	r0, r0, #6, #2
80014d44:	e3500002 	cmp	r0, #2
80014d48:	0a00004c 	beq	80014e80 <DWHCIDeviceInitHost+0x1b4>
80014d4c:	e3a01000 	mov	r1, #0
80014d50:	e28d000c 	add	r0, sp, #12
80014d54:	eb00012a 	bl	80015204 <DWHCIRegisterOr>
80014d58:	e28d000c 	add	r0, sp, #12
80014d5c:	eb000115 	bl	800151b8 <DWHCIRegisterWrite>
80014d60:	e3a01024 	mov	r1, #36	; 0x24
80014d64:	e3a02b01 	mov	r2, #1024	; 0x400
80014d68:	e34d1098 	movt	r1, #53400	; 0xd098
80014d6c:	e28d0030 	add	r0, sp, #48	; 0x30
80014d70:	eb000102 	bl	80015180 <DWHCIRegister2>
80014d74:	e28d0030 	add	r0, sp, #48	; 0x30
80014d78:	eb00010e 	bl	800151b8 <DWHCIRegisterWrite>
80014d7c:	e3a01028 	mov	r1, #40	; 0x28
80014d80:	e3a02000 	mov	r2, #0
80014d84:	e34d1098 	movt	r1, #53400	; 0xd098
80014d88:	e28d003c 	add	r0, sp, #60	; 0x3c
80014d8c:	eb0000fb 	bl	80015180 <DWHCIRegister2>
80014d90:	e28d003c 	add	r0, sp, #60	; 0x3c
80014d94:	e3a01b01 	mov	r1, #1024	; 0x400
80014d98:	eb000119 	bl	80015204 <DWHCIRegisterOr>
80014d9c:	e3a01301 	mov	r1, #67108864	; 0x4000000
80014da0:	e28d003c 	add	r0, sp, #60	; 0x3c
80014da4:	eb000116 	bl	80015204 <DWHCIRegisterOr>
80014da8:	e28d003c 	add	r0, sp, #60	; 0x3c
80014dac:	eb000101 	bl	800151b8 <DWHCIRegisterWrite>
80014db0:	e3a01c01 	mov	r1, #256	; 0x100
80014db4:	e3a02000 	mov	r2, #0
80014db8:	e34d1098 	movt	r1, #53400	; 0xd098
80014dbc:	e28d0048 	add	r0, sp, #72	; 0x48
80014dc0:	eb0000ee 	bl	80015180 <DWHCIRegister2>
80014dc4:	e28d0048 	add	r0, sp, #72	; 0x48
80014dc8:	e3a01b02 	mov	r1, #2048	; 0x800
80014dcc:	eb00010c 	bl	80015204 <DWHCIRegisterOr>
80014dd0:	e3a01301 	mov	r1, #67108864	; 0x4000000
80014dd4:	e28d0048 	add	r0, sp, #72	; 0x48
80014dd8:	eb000109 	bl	80015204 <DWHCIRegisterOr>
80014ddc:	e28d0048 	add	r0, sp, #72	; 0x48
80014de0:	eb0000f4 	bl	800151b8 <DWHCIRegisterWrite>
80014de4:	e3a01010 	mov	r1, #16
80014de8:	e1a00004 	mov	r0, r4
80014dec:	ebffff6f 	bl	80014bb0 <DWHCIDeviceFlushTxFIFO>
80014df0:	e1a00004 	mov	r0, r4
80014df4:	ebffff94 	bl	80014c4c <DWHCIDeviceFlushRxFIFO>
80014df8:	e3a01d11 	mov	r1, #1088	; 0x440
80014dfc:	e28d0054 	add	r0, sp, #84	; 0x54
80014e00:	e34d1098 	movt	r1, #53400	; 0xd098
80014e04:	eb0000d9 	bl	80015170 <DWHCIRegister>
80014e08:	e28d0054 	add	r0, sp, #84	; 0x54
80014e0c:	eb0000e2 	bl	8001519c <DWHCIRegisterRead>
80014e10:	e28d0054 	add	r0, sp, #84	; 0x54
80014e14:	e3e0102e 	mvn	r1, #46	; 0x2e
80014e18:	eb0000f5 	bl	800151f4 <DWHCIRegisterAnd>
80014e1c:	e28d0054 	add	r0, sp, #84	; 0x54
80014e20:	eb0000e8 	bl	800151c8 <DWHCIRegisterGet>
80014e24:	e3100a01 	tst	r0, #4096	; 0x1000
80014e28:	0a000021 	beq	80014eb4 <DWHCIDeviceInitHost+0x1e8>
80014e2c:	e1a00004 	mov	r0, r4
80014e30:	ebfffa50 	bl	80013778 <DWHCIDeviceEnableHostInterrupts>
80014e34:	e28d0054 	add	r0, sp, #84	; 0x54
80014e38:	eb0000d4 	bl	80015190 <_DWHCIRegister>
80014e3c:	e28d0048 	add	r0, sp, #72	; 0x48
80014e40:	eb0000d2 	bl	80015190 <_DWHCIRegister>
80014e44:	e28d003c 	add	r0, sp, #60	; 0x3c
80014e48:	eb0000d0 	bl	80015190 <_DWHCIRegister>
80014e4c:	e28d0030 	add	r0, sp, #48	; 0x30
80014e50:	eb0000ce 	bl	80015190 <_DWHCIRegister>
80014e54:	e28d0024 	add	r0, sp, #36	; 0x24
80014e58:	eb0000cc 	bl	80015190 <_DWHCIRegister>
80014e5c:	e28d0018 	add	r0, sp, #24
80014e60:	eb0000ca 	bl	80015190 <_DWHCIRegister>
80014e64:	e28d000c 	add	r0, sp, #12
80014e68:	eb0000c8 	bl	80015190 <_DWHCIRegister>
80014e6c:	e1a0000d 	mov	r0, sp
80014e70:	eb0000c6 	bl	80015190 <_DWHCIRegister>
80014e74:	e3a00001 	mov	r0, #1
80014e78:	e28dd064 	add	sp, sp, #100	; 0x64
80014e7c:	e8bd8030 	pop	{r4, r5, pc}
80014e80:	e28d0018 	add	r0, sp, #24
80014e84:	eb0000cf 	bl	800151c8 <DWHCIRegisterGet>
80014e88:	e7e15450 	ubfx	r5, r0, #8, #2
80014e8c:	e3550001 	cmp	r5, #1
80014e90:	1affffad 	bne	80014d4c <DWHCIDeviceInitHost+0x80>
80014e94:	e28d0024 	add	r0, sp, #36	; 0x24
80014e98:	eb0000bf 	bl	8001519c <DWHCIRegisterRead>
80014e9c:	e3100802 	tst	r0, #131072	; 0x20000
80014ea0:	0affffa9 	beq	80014d4c <DWHCIDeviceInitHost+0x80>
80014ea4:	e1a01005 	mov	r1, r5
80014ea8:	e28d000c 	add	r0, sp, #12
80014eac:	eb0000d4 	bl	80015204 <DWHCIRegisterOr>
80014eb0:	eaffffa8 	b	80014d58 <DWHCIDeviceInitHost+0x8c>
80014eb4:	e28d0054 	add	r0, sp, #84	; 0x54
80014eb8:	e3a01a01 	mov	r1, #4096	; 0x1000
80014ebc:	eb0000d0 	bl	80015204 <DWHCIRegisterOr>
80014ec0:	e28d0054 	add	r0, sp, #84	; 0x54
80014ec4:	eb0000bb 	bl	800151b8 <DWHCIRegisterWrite>
80014ec8:	eaffffd7 	b	80014e2c <DWHCIDeviceInitHost+0x160>

80014ecc <DWHCIDeviceInitialize>:
80014ecc:	e92d4030 	push	{r4, r5, lr}
80014ed0:	e1a05000 	mov	r5, r0
80014ed4:	e24dd01c 	sub	sp, sp, #28
80014ed8:	f57ff05f 	dmb	sy
80014edc:	e3a01040 	mov	r1, #64	; 0x40
80014ee0:	e1a0000d 	mov	r0, sp
80014ee4:	e34d1098 	movt	r1, #53400	; 0xd098
80014ee8:	eb0000a0 	bl	80015170 <DWHCIRegister>
80014eec:	e1a0000d 	mov	r0, sp
80014ef0:	eb0000a9 	bl	8001519c <DWHCIRegisterRead>
80014ef4:	e302380a 	movw	r3, #10250	; 0x280a
80014ef8:	e3443f54 	movt	r3, #20308	; 0x4f54
80014efc:	e1500003 	cmp	r0, r3
80014f00:	0a00000e 	beq	80014f40 <DWHCIDeviceInitialize+0x74>
80014f04:	e1a0000d 	mov	r0, sp
80014f08:	e3a04000 	mov	r4, #0
80014f0c:	eb0000ad 	bl	800151c8 <DWHCIRegisterGet>
80014f10:	e1a03000 	mov	r3, r0
80014f14:	e30924ec 	movw	r2, #38124	; 0x94ec
80014f18:	e3482001 	movt	r2, #32769	; 0x8001
80014f1c:	e309048c 	movw	r0, #38028	; 0x948c
80014f20:	e3480001 	movt	r0, #32769	; 0x8001
80014f24:	e3a01001 	mov	r1, #1
80014f28:	ebfff30b 	bl	80011b5c <LogWrite>
80014f2c:	e1a0000d 	mov	r0, sp
80014f30:	eb000096 	bl	80015190 <_DWHCIRegister>
80014f34:	e1a00004 	mov	r0, r4
80014f38:	e28dd01c 	add	sp, sp, #28
80014f3c:	e8bd8030 	pop	{r4, r5, pc}
80014f40:	e3a00003 	mov	r0, #3
80014f44:	ebfff2df 	bl	80011ac8 <SetPowerStateOn>
80014f48:	e2504000 	subs	r4, r0, #0
80014f4c:	0a000038 	beq	80015034 <DWHCIDeviceInitialize+0x168>
80014f50:	e3a01008 	mov	r1, #8
80014f54:	e28d000c 	add	r0, sp, #12
80014f58:	e34d1098 	movt	r1, #53400	; 0xd098
80014f5c:	eb000083 	bl	80015170 <DWHCIRegister>
80014f60:	e28d000c 	add	r0, sp, #12
80014f64:	eb00008c 	bl	8001519c <DWHCIRegisterRead>
80014f68:	e3e01001 	mvn	r1, #1
80014f6c:	e28d000c 	add	r0, sp, #12
80014f70:	eb00009f 	bl	800151f4 <DWHCIRegisterAnd>
80014f74:	e28d000c 	add	r0, sp, #12
80014f78:	eb00008e 	bl	800151b8 <DWHCIRegisterWrite>
80014f7c:	e3041190 	movw	r1, #16784	; 0x4190
80014f80:	e1a02005 	mov	r2, r5
80014f84:	e3481001 	movt	r1, #32769	; 0x8001
80014f88:	e3a00009 	mov	r0, #9
80014f8c:	ebffdd28 	bl	8000c434 <ConnectInterrupt>
80014f90:	e1a00005 	mov	r0, r5
80014f94:	ebfffe90 	bl	800149dc <DWHCIDeviceInitCore>
80014f98:	e2504000 	subs	r4, r0, #0
80014f9c:	0a00002f 	beq	80015060 <DWHCIDeviceInitialize+0x194>
80014fa0:	e1a00005 	mov	r0, r5
80014fa4:	ebfff9d4 	bl	800136fc <DWHCIDeviceEnableGlobalInterrupts>
80014fa8:	e1a00005 	mov	r0, r5
80014fac:	ebffff46 	bl	80014ccc <DWHCIDeviceInitHost>
80014fb0:	e2504000 	subs	r4, r0, #0
80014fb4:	0a000011 	beq	80015000 <DWHCIDeviceInitialize+0x134>
80014fb8:	e1a00005 	mov	r0, r5
80014fbc:	ebfffe2b 	bl	80014870 <DWHCIDeviceEnableRootPort>
80014fc0:	e3500000 	cmp	r0, #0
80014fc4:	03092544 	movweq	r2, #38212	; 0x9544
80014fc8:	0309048c 	movweq	r0, #38028	; 0x948c
80014fcc:	03482001 	movteq	r2, #32769	; 0x8001
80014fd0:	0a00002b 	beq	80015084 <DWHCIDeviceInitialize+0x1b8>
80014fd4:	e285004c 	add	r0, r5, #76	; 0x4c
80014fd8:	eb000afe 	bl	80017bd8 <DWHCIRootPortInitialize>
80014fdc:	e3500000 	cmp	r0, #0
80014fe0:	0a000024 	beq	80015078 <DWHCIDeviceInitialize+0x1ac>
80014fe4:	f57ff05f 	dmb	sy
80014fe8:	e28d000c 	add	r0, sp, #12
80014fec:	e3a04001 	mov	r4, #1
80014ff0:	eb000066 	bl	80015190 <_DWHCIRegister>
80014ff4:	e1a0000d 	mov	r0, sp
80014ff8:	eb000064 	bl	80015190 <_DWHCIRegister>
80014ffc:	eaffffcc 	b	80014f34 <DWHCIDeviceInitialize+0x68>
80015000:	e309252c 	movw	r2, #38188	; 0x952c
80015004:	e309048c 	movw	r0, #38028	; 0x948c
80015008:	e3482001 	movt	r2, #32769	; 0x8001
8001500c:	e3a01001 	mov	r1, #1
80015010:	e3480001 	movt	r0, #32769	; 0x8001
80015014:	ebfff2d0 	bl	80011b5c <LogWrite>
80015018:	e28d000c 	add	r0, sp, #12
8001501c:	eb00005b 	bl	80015190 <_DWHCIRegister>
80015020:	e1a0000d 	mov	r0, sp
80015024:	eb000059 	bl	80015190 <_DWHCIRegister>
80015028:	e1a00004 	mov	r0, r4
8001502c:	e28dd01c 	add	sp, sp, #28
80015030:	e8bd8030 	pop	{r4, r5, pc}
80015034:	e3092504 	movw	r2, #38148	; 0x9504
80015038:	e309048c 	movw	r0, #38028	; 0x948c
8001503c:	e3482001 	movt	r2, #32769	; 0x8001
80015040:	e3a01001 	mov	r1, #1
80015044:	e3480001 	movt	r0, #32769	; 0x8001
80015048:	ebfff2c3 	bl	80011b5c <LogWrite>
8001504c:	e1a0000d 	mov	r0, sp
80015050:	eb00004e 	bl	80015190 <_DWHCIRegister>
80015054:	e1a00004 	mov	r0, r4
80015058:	e28dd01c 	add	sp, sp, #28
8001505c:	e8bd8030 	pop	{r4, r5, pc}
80015060:	e3092514 	movw	r2, #38164	; 0x9514
80015064:	e309048c 	movw	r0, #38028	; 0x948c
80015068:	e3482001 	movt	r2, #32769	; 0x8001
8001506c:	e3a01001 	mov	r1, #1
80015070:	e3480001 	movt	r0, #32769	; 0x8001
80015074:	eaffffe6 	b	80015014 <DWHCIDeviceInitialize+0x148>
80015078:	e3092568 	movw	r2, #38248	; 0x9568
8001507c:	e309048c 	movw	r0, #38028	; 0x948c
80015080:	e3482001 	movt	r2, #32769	; 0x8001
80015084:	e3480001 	movt	r0, #32769	; 0x8001
80015088:	e3a01002 	mov	r1, #2
8001508c:	e3a04001 	mov	r4, #1
80015090:	eaffffdf 	b	80015014 <DWHCIDeviceInitialize+0x148>

80015094 <DWHCIDeviceGetPortSpeed>:
80015094:	e92d4010 	push	{r4, lr}
80015098:	e3a01d11 	mov	r1, #1088	; 0x440
8001509c:	e34d1098 	movt	r1, #53400	; 0xd098
800150a0:	e24dd010 	sub	sp, sp, #16
800150a4:	e28d0004 	add	r0, sp, #4
800150a8:	eb000030 	bl	80015170 <DWHCIRegister>
800150ac:	e28d0004 	add	r0, sp, #4
800150b0:	eb000039 	bl	8001519c <DWHCIRegisterRead>
800150b4:	e7e148d0 	ubfx	r4, r0, #17, #2
800150b8:	e28d0004 	add	r0, sp, #4
800150bc:	e3540003 	cmp	r4, #3
800150c0:	1309348c 	movwne	r3, #38028	; 0x948c
800150c4:	13483001 	movtne	r3, #32769	; 0x8001
800150c8:	10834104 	addne	r4, r3, r4, lsl #2
800150cc:	15944008 	ldrne	r4, [r4, #8]
800150d0:	eb00002e 	bl	80015190 <_DWHCIRegister>
800150d4:	e1a00004 	mov	r0, r4
800150d8:	e28dd010 	add	sp, sp, #16
800150dc:	e8bd8010 	pop	{r4, pc}

800150e0 <DWHCIDeviceOvercurrentDetected>:
800150e0:	e92d4010 	push	{r4, lr}
800150e4:	e3a01d11 	mov	r1, #1088	; 0x440
800150e8:	e34d1098 	movt	r1, #53400	; 0xd098
800150ec:	e24dd010 	sub	sp, sp, #16
800150f0:	e28d0004 	add	r0, sp, #4
800150f4:	eb00001d 	bl	80015170 <DWHCIRegister>
800150f8:	e28d0004 	add	r0, sp, #4
800150fc:	eb000026 	bl	8001519c <DWHCIRegisterRead>
80015100:	e2104010 	ands	r4, r0, #16
80015104:	e28d0004 	add	r0, sp, #4
80015108:	1a000003 	bne	8001511c <DWHCIDeviceOvercurrentDetected+0x3c>
8001510c:	eb00001f 	bl	80015190 <_DWHCIRegister>
80015110:	e1a00004 	mov	r0, r4
80015114:	e28dd010 	add	sp, sp, #16
80015118:	e8bd8010 	pop	{r4, pc}
8001511c:	eb00001b 	bl	80015190 <_DWHCIRegister>
80015120:	e3a00001 	mov	r0, #1
80015124:	e28dd010 	add	sp, sp, #16
80015128:	e8bd8010 	pop	{r4, pc}

8001512c <DWHCIDeviceDisableRootPort>:
8001512c:	e52de004 	push	{lr}		; (str lr, [sp, #-4]!)
80015130:	e3a01d11 	mov	r1, #1088	; 0x440
80015134:	e34d1098 	movt	r1, #53400	; 0xd098
80015138:	e24dd014 	sub	sp, sp, #20
8001513c:	e28d0004 	add	r0, sp, #4
80015140:	eb00000a 	bl	80015170 <DWHCIRegister>
80015144:	e28d0004 	add	r0, sp, #4
80015148:	eb000013 	bl	8001519c <DWHCIRegisterRead>
8001514c:	e3e01a01 	mvn	r1, #4096	; 0x1000
80015150:	e28d0004 	add	r0, sp, #4
80015154:	eb000026 	bl	800151f4 <DWHCIRegisterAnd>
80015158:	e28d0004 	add	r0, sp, #4
8001515c:	eb000015 	bl	800151b8 <DWHCIRegisterWrite>
80015160:	e28d0004 	add	r0, sp, #4
80015164:	eb000009 	bl	80015190 <_DWHCIRegister>
80015168:	e28dd014 	add	sp, sp, #20
8001516c:	e49df004 	pop	{pc}		; (ldr pc, [sp], #4)

80015170 <DWHCIRegister>:
80015170:	e5801004 	str	r1, [r0, #4]
80015174:	e3a03000 	mov	r3, #0
80015178:	e5803000 	str	r3, [r0]
8001517c:	e12fff1e 	bx	lr

80015180 <DWHCIRegister2>:
80015180:	e3a03001 	mov	r3, #1
80015184:	e9800006 	stmib	r0, {r1, r2}
80015188:	e5803000 	str	r3, [r0]
8001518c:	e12fff1e 	bx	lr

80015190 <_DWHCIRegister>:
80015190:	e3a03000 	mov	r3, #0
80015194:	e5803000 	str	r3, [r0]
80015198:	e12fff1e 	bx	lr

8001519c <DWHCIRegisterRead>:
8001519c:	e5901004 	ldr	r1, [r0, #4]
800151a0:	e1a03000 	mov	r3, r0
800151a4:	e3a02001 	mov	r2, #1
800151a8:	e5910000 	ldr	r0, [r1]
800151ac:	e5832000 	str	r2, [r3]
800151b0:	e5830008 	str	r0, [r3, #8]
800151b4:	e12fff1e 	bx	lr

800151b8 <DWHCIRegisterWrite>:
800151b8:	e5902008 	ldr	r2, [r0, #8]
800151bc:	e5903004 	ldr	r3, [r0, #4]
800151c0:	e5832000 	str	r2, [r3]
800151c4:	e12fff1e 	bx	lr

800151c8 <DWHCIRegisterGet>:
800151c8:	e5900008 	ldr	r0, [r0, #8]
800151cc:	e12fff1e 	bx	lr

800151d0 <DWHCIRegisterSet>:
800151d0:	e5801008 	str	r1, [r0, #8]
800151d4:	e3a03001 	mov	r3, #1
800151d8:	e5803000 	str	r3, [r0]
800151dc:	e12fff1e 	bx	lr

800151e0 <DWHCIRegisterIsSet>:
800151e0:	e5903008 	ldr	r3, [r0, #8]
800151e4:	e1110003 	tst	r1, r3
800151e8:	13a00001 	movne	r0, #1
800151ec:	03a00000 	moveq	r0, #0
800151f0:	e12fff1e 	bx	lr

800151f4 <DWHCIRegisterAnd>:
800151f4:	e5903008 	ldr	r3, [r0, #8]
800151f8:	e0011003 	and	r1, r1, r3
800151fc:	e5801008 	str	r1, [r0, #8]
80015200:	e12fff1e 	bx	lr

80015204 <DWHCIRegisterOr>:
80015204:	e5903008 	ldr	r3, [r0, #8]
80015208:	e1831001 	orr	r1, r3, r1
8001520c:	e5801008 	str	r1, [r0, #8]
80015210:	e12fff1e 	bx	lr

80015214 <DWHCIRegisterClearBit>:
80015214:	e5903008 	ldr	r3, [r0, #8]
80015218:	e3a02001 	mov	r2, #1
8001521c:	e1c31112 	bic	r1, r3, r2, lsl r1
80015220:	e5801008 	str	r1, [r0, #8]
80015224:	e12fff1e 	bx	lr

80015228 <DWHCIRegisterSetBit>:
80015228:	e5903008 	ldr	r3, [r0, #8]
8001522c:	e3a02001 	mov	r2, #1
80015230:	e1831112 	orr	r1, r3, r2, lsl r1
80015234:	e5801008 	str	r1, [r0, #8]
80015238:	e12fff1e 	bx	lr

8001523c <DWHCIRegisterClearAll>:
8001523c:	e3a03000 	mov	r3, #0
80015240:	e5803008 	str	r3, [r0, #8]
80015244:	e3a03001 	mov	r3, #1
80015248:	e5803000 	str	r3, [r0]
8001524c:	e12fff1e 	bx	lr

80015250 <DWHCIRegisterSetAll>:
80015250:	e3e03000 	mvn	r3, #0
80015254:	e5803008 	str	r3, [r0, #8]
80015258:	e3a03001 	mov	r3, #1
8001525c:	e5803000 	str	r3, [r0]
80015260:	e12fff1e 	bx	lr

80015264 <allocproc>:
80015264:	e92d4070 	push	{r4, r5, r6, lr}
80015268:	e30c0fac 	movw	r0, #53164	; 0xcfac
8001526c:	e59f40dc 	ldr	r4, [pc, #220]	; 80015350 <allocproc+0xec>
80015270:	e3480009 	movt	r0, #32777	; 0x8009
80015274:	ebffdadb 	bl	8000bde8 <acquire>
80015278:	e2843c1f 	add	r3, r4, #7936	; 0x1f00
8001527c:	ea000002 	b	8001528c <allocproc+0x28>
80015280:	e284407c 	add	r4, r4, #124	; 0x7c
80015284:	e1540003 	cmp	r4, r3
80015288:	0a000026 	beq	80015328 <allocproc+0xc4>
8001528c:	e594500c 	ldr	r5, [r4, #12]
80015290:	e3550000 	cmp	r5, #0
80015294:	1afffff9 	bne	80015280 <allocproc+0x1c>
80015298:	e30a38f8 	movw	r3, #43256	; 0xa8f8
8001529c:	e3a02001 	mov	r2, #1
800152a0:	e3483009 	movt	r3, #32777	; 0x8009
800152a4:	e30c0fac 	movw	r0, #53164	; 0xcfac
800152a8:	e584200c 	str	r2, [r4, #12]
800152ac:	e5932000 	ldr	r2, [r3]
800152b0:	e3480009 	movt	r0, #32777	; 0x8009
800152b4:	e5842010 	str	r2, [r4, #16]
800152b8:	e2822001 	add	r2, r2, #1
800152bc:	e5832000 	str	r2, [r3]
800152c0:	ebffdafe 	bl	8000bec0 <release>
800152c4:	ebfff59e 	bl	80012944 <kalloc>
800152c8:	e5840008 	str	r0, [r4, #8]
800152cc:	e3500000 	cmp	r0, #0
800152d0:	0a00001a 	beq	80015340 <allocproc+0xdc>
800152d4:	e1a01005 	mov	r1, r5
800152d8:	e3a02a01 	mov	r2, #4096	; 0x1000
800152dc:	ebffd43a 	bl	8000a3cc <memset>
800152e0:	e5940008 	ldr	r0, [r4, #8]
800152e4:	e1a01005 	mov	r1, r5
800152e8:	e3a0202c 	mov	r2, #44	; 0x2c
800152ec:	e2803efa 	add	r3, r0, #4000	; 0xfa0
800152f0:	e2800d3e 	add	r0, r0, #3968	; 0xf80
800152f4:	e584001c 	str	r0, [r4, #28]
800152f8:	e283300c 	add	r3, r3, #12
800152fc:	e5843018 	str	r3, [r4, #24]
80015300:	ebffd431 	bl	8000a3cc <memset>
80015304:	e594101c 	ldr	r1, [r4, #28]
80015308:	e3052354 	movw	r2, #21332	; 0x5354
8001530c:	e3482001 	movt	r2, #32769	; 0x8001
80015310:	e3083338 	movw	r3, #33592	; 0x8338
80015314:	e3483000 	movt	r3, #32768	; 0x8000
80015318:	e1a00004 	mov	r0, r4
8001531c:	e5812028 	str	r2, [r1, #40]	; 0x28
80015320:	e5813024 	str	r3, [r1, #36]	; 0x24
80015324:	e8bd8070 	pop	{r4, r5, r6, pc}
80015328:	e30c0fac 	movw	r0, #53164	; 0xcfac
8001532c:	e3a04000 	mov	r4, #0
80015330:	e3480009 	movt	r0, #32777	; 0x8009
80015334:	ebffdae1 	bl	8000bec0 <release>
80015338:	e1a00004 	mov	r0, r4
8001533c:	e8bd8070 	pop	{r4, r5, r6, pc}
80015340:	e584000c 	str	r0, [r4, #12]
80015344:	e1a04000 	mov	r4, r0
80015348:	e1a00004 	mov	r0, r4
8001534c:	e8bd8070 	pop	{r4, r5, r6, pc}
80015350:	8009cfe0 	.word	0x8009cfe0

80015354 <forkret>:
80015354:	e30c0fac 	movw	r0, #53164	; 0xcfac
80015358:	e92d4010 	push	{r4, lr}
8001535c:	e3480009 	movt	r0, #32777	; 0x8009
80015360:	ebffdad6 	bl	8000bec0 <release>
80015364:	e30a38f8 	movw	r3, #43256	; 0xa8f8
80015368:	e3483009 	movt	r3, #32777	; 0x8009
8001536c:	e5932004 	ldr	r2, [r3, #4]
80015370:	e3520000 	cmp	r2, #0
80015374:	08bd8010 	popeq	{r4, pc}
80015378:	e3a02000 	mov	r2, #0
8001537c:	e8bd4010 	pop	{r4, lr}
80015380:	e5832004 	str	r2, [r3, #4]
80015384:	eaffe888 	b	8000f5ac <initlog>

80015388 <pinit>:
80015388:	e92d4010 	push	{r4, lr}
8001538c:	e30c4fac 	movw	r4, #53164	; 0xcfac
80015390:	e3484009 	movt	r4, #32777	; 0x8009
80015394:	e3a01000 	mov	r1, #0
80015398:	e1a00004 	mov	r0, r4
8001539c:	e3012f34 	movw	r2, #7988	; 0x1f34
800153a0:	ebffd409 	bl	8000a3cc <memset>
800153a4:	e3091584 	movw	r1, #38276	; 0x9584
800153a8:	e1a00004 	mov	r0, r4
800153ac:	e3481001 	movt	r1, #32769	; 0x8001
800153b0:	e8bd4010 	pop	{r4, lr}
800153b4:	eaffda6d 	b	8000bd70 <initlock>

800153b8 <userinit>:
800153b8:	e92d4070 	push	{r4, r5, r6, lr}
800153bc:	e30a2850 	movw	r2, #43088	; 0xa850
800153c0:	e3482001 	movt	r2, #32769	; 0x8001
800153c4:	e30a6800 	movw	r6, #43008	; 0xa800
800153c8:	e3486001 	movt	r6, #32769	; 0x8001
800153cc:	e0425006 	sub	r5, r2, r6
800153d0:	ebffffa3 	bl	80015264 <allocproc>
800153d4:	e30a3b10 	movw	r3, #43792	; 0xab10
800153d8:	e1a04000 	mov	r4, r0
800153dc:	e3483009 	movt	r3, #32777	; 0x8009
800153e0:	e5830000 	str	r0, [r3]
800153e4:	ebffefeb 	bl	80011398 <setupkvm>
800153e8:	e5840004 	str	r0, [r4, #4]
800153ec:	e3500000 	cmp	r0, #0
800153f0:	0a000019 	beq	8001545c <userinit+0xa4>
800153f4:	e1a02005 	mov	r2, r5
800153f8:	e1a01006 	mov	r1, r6
800153fc:	e3a05a01 	mov	r5, #4096	; 0x1000
80015400:	ebfff03a 	bl	800114f0 <inituvm>
80015404:	e5845000 	str	r5, [r4]
80015408:	e3a02054 	mov	r2, #84	; 0x54
8001540c:	e5940018 	ldr	r0, [r4, #24]
80015410:	e3a01000 	mov	r1, #0
80015414:	ebffd3ec 	bl	8000a3cc <memset>
80015418:	e5943018 	ldr	r3, [r4, #24]
8001541c:	e3a01000 	mov	r1, #0
80015420:	e3a02010 	mov	r2, #16
80015424:	e284006c 	add	r0, r4, #108	; 0x6c
80015428:	e5831050 	str	r1, [r3, #80]	; 0x50
8001542c:	e30915a8 	movw	r1, #38312	; 0x95a8
80015430:	e5835000 	str	r5, [r3]
80015434:	e583204c 	str	r2, [r3, #76]	; 0x4c
80015438:	e3481001 	movt	r1, #32769	; 0x8001
8001543c:	ebffd458 	bl	8000a5a4 <safestrcpy>
80015440:	e3080fe8 	movw	r0, #36840	; 0x8fe8
80015444:	e3480001 	movt	r0, #32769	; 0x8001
80015448:	eb0009c8 	bl	80017b70 <namei>
8001544c:	e5840068 	str	r0, [r4, #104]	; 0x68
80015450:	e3a03003 	mov	r3, #3
80015454:	e584300c 	str	r3, [r4, #12]
80015458:	e8bd8070 	pop	{r4, r5, r6, pc}
8001545c:	e309058c 	movw	r0, #38284	; 0x958c
80015460:	e3480001 	movt	r0, #32769	; 0x8001
80015464:	ebffd900 	bl	8000b86c <panic>

80015468 <growproc>:
80015468:	e92d4010 	push	{r4, lr}
8001546c:	e30a4b14 	movw	r4, #43796	; 0xab14
80015470:	e3484009 	movt	r4, #32777	; 0x8009
80015474:	e2502000 	subs	r2, r0, #0
80015478:	e5940018 	ldr	r0, [r4, #24]
8001547c:	e5901000 	ldr	r1, [r0]
80015480:	ca000004 	bgt	80015498 <growproc+0x30>
80015484:	1a00000a 	bne	800154b4 <growproc+0x4c>
80015488:	e5801000 	str	r1, [r0]
8001548c:	ebfff005 	bl	800114a8 <switchuvm>
80015490:	e3a00000 	mov	r0, #0
80015494:	e8bd8010 	pop	{r4, pc}
80015498:	e0822001 	add	r2, r2, r1
8001549c:	e5900004 	ldr	r0, [r0, #4]
800154a0:	ebfff066 	bl	80011640 <allocuvm>
800154a4:	e2501000 	subs	r1, r0, #0
800154a8:	0a000006 	beq	800154c8 <growproc+0x60>
800154ac:	e5940018 	ldr	r0, [r4, #24]
800154b0:	eafffff4 	b	80015488 <growproc+0x20>
800154b4:	e0822001 	add	r2, r2, r1
800154b8:	e5900004 	ldr	r0, [r0, #4]
800154bc:	ebfff09b 	bl	80011730 <deallocuvm>
800154c0:	e2501000 	subs	r1, r0, #0
800154c4:	1afffff8 	bne	800154ac <growproc+0x44>
800154c8:	e3e00000 	mvn	r0, #0
800154cc:	e8bd8010 	pop	{r4, pc}

800154d0 <fork>:
800154d0:	e92d41f0 	push	{r4, r5, r6, r7, r8, lr}
800154d4:	ebffff62 	bl	80015264 <allocproc>
800154d8:	e2507000 	subs	r7, r0, #0
800154dc:	0a00002c 	beq	80015594 <fork+0xc4>
800154e0:	e30a6b14 	movw	r6, #43796	; 0xab14
800154e4:	e3486009 	movt	r6, #32777	; 0x8009
800154e8:	e5963018 	ldr	r3, [r6, #24]
800154ec:	e5931000 	ldr	r1, [r3]
800154f0:	e5930004 	ldr	r0, [r3, #4]
800154f4:	ebfff0bb 	bl	800117e8 <copyuvm>
800154f8:	e5870004 	str	r0, [r7, #4]
800154fc:	e3500000 	cmp	r0, #0
80015500:	e1a04000 	mov	r4, r0
80015504:	0a000024 	beq	8001559c <fork+0xcc>
80015508:	e5965018 	ldr	r5, [r6, #24]
8001550c:	e3a02054 	mov	r2, #84	; 0x54
80015510:	e5973018 	ldr	r3, [r7, #24]
80015514:	e2878028 	add	r8, r7, #40	; 0x28
80015518:	e5950000 	ldr	r0, [r5]
8001551c:	e3a04000 	mov	r4, #0
80015520:	e5951018 	ldr	r1, [r5, #24]
80015524:	e5870000 	str	r0, [r7]
80015528:	e1a00003 	mov	r0, r3
8001552c:	e5875014 	str	r5, [r7, #20]
80015530:	ebffd3e9 	bl	8000a4dc <memcpy>
80015534:	e5804004 	str	r4, [r0, #4]
80015538:	e284300a 	add	r3, r4, #10
8001553c:	e7953103 	ldr	r3, [r5, r3, lsl #2]
80015540:	e2530000 	subs	r0, r3, #0
80015544:	0a000002 	beq	80015554 <fork+0x84>
80015548:	ebffeb95 	bl	800103a4 <filedup>
8001554c:	e5965018 	ldr	r5, [r6, #24]
80015550:	e7880104 	str	r0, [r8, r4, lsl #2]
80015554:	e2844001 	add	r4, r4, #1
80015558:	e3540010 	cmp	r4, #16
8001555c:	1afffff5 	bne	80015538 <fork+0x68>
80015560:	e5950068 	ldr	r0, [r5, #104]	; 0x68
80015564:	eb000758 	bl	800172cc <idup>
80015568:	e5961018 	ldr	r1, [r6, #24]
8001556c:	e3a03003 	mov	r3, #3
80015570:	e5870068 	str	r0, [r7, #104]	; 0x68
80015574:	e1a02004 	mov	r2, r4
80015578:	e587300c 	str	r3, [r7, #12]
8001557c:	e281106c 	add	r1, r1, #108	; 0x6c
80015580:	e5975010 	ldr	r5, [r7, #16]
80015584:	e287006c 	add	r0, r7, #108	; 0x6c
80015588:	ebffd405 	bl	8000a5a4 <safestrcpy>
8001558c:	e1a00005 	mov	r0, r5
80015590:	e8bd81f0 	pop	{r4, r5, r6, r7, r8, pc}
80015594:	e3e05000 	mvn	r5, #0
80015598:	eafffffb 	b	8001558c <fork+0xbc>
8001559c:	e5970008 	ldr	r0, [r7, #8]
800155a0:	e3e05000 	mvn	r5, #0
800155a4:	ebfff482 	bl	800127b4 <kfree>
800155a8:	e5874008 	str	r4, [r7, #8]
800155ac:	e587400c 	str	r4, [r7, #12]
800155b0:	eafffff5 	b	8001558c <fork+0xbc>

800155b4 <scheduler>:
800155b4:	e30aa8f8 	movw	sl, #43256	; 0xa8f8
800155b8:	e30a5b14 	movw	r5, #43796	; 0xab14
800155bc:	e348a009 	movt	sl, #32777	; 0x8009
800155c0:	e30c9fac 	movw	r9, #53164	; 0xcfac
800155c4:	e3485009 	movt	r5, #32777	; 0x8009
800155c8:	e3a08000 	mov	r8, #0
800155cc:	e59a3008 	ldr	r3, [sl, #8]
800155d0:	e92d4890 	push	{r4, r7, fp, lr}
800155d4:	e3530000 	cmp	r3, #0
800155d8:	e59fb07c 	ldr	fp, [pc, #124]	; 8001565c <scheduler+0xa8>
800155dc:	e3489009 	movt	r9, #32777	; 0x8009
800155e0:	158a8008 	strne	r8, [sl, #8]
800155e4:	0a00001a 	beq	80015654 <scheduler+0xa0>
800155e8:	e59f4070 	ldr	r4, [pc, #112]	; 80015660 <scheduler+0xac>
800155ec:	e1a00009 	mov	r0, r9
800155f0:	e59f706c 	ldr	r7, [pc, #108]	; 80015664 <scheduler+0xb0>
800155f4:	e3a06004 	mov	r6, #4
800155f8:	ebffd9fa 	bl	8000bde8 <acquire>
800155fc:	e594300c 	ldr	r3, [r4, #12]
80015600:	e3530003 	cmp	r3, #3
80015604:	1a000009 	bne	80015630 <scheduler+0x7c>
80015608:	e5854018 	str	r4, [r5, #24]
8001560c:	e1a00004 	mov	r0, r4
80015610:	ebffefa4 	bl	800114a8 <switchuvm>
80015614:	e5953018 	ldr	r3, [r5, #24]
80015618:	e1a00007 	mov	r0, r7
8001561c:	e584600c 	str	r6, [r4, #12]
80015620:	e593101c 	ldr	r1, [r3, #28]
80015624:	ebffcba6 	bl	800084c4 <swtch>
80015628:	ebffef92 	bl	80011478 <switchkvm>
8001562c:	e5858018 	str	r8, [r5, #24]
80015630:	e284407c 	add	r4, r4, #124	; 0x7c
80015634:	e154000b 	cmp	r4, fp
80015638:	1affffef 	bne	800155fc <scheduler+0x48>
8001563c:	e1a00009 	mov	r0, r9
80015640:	ebffda1e 	bl	8000bec0 <release>
80015644:	e59a3008 	ldr	r3, [sl, #8]
80015648:	e3530000 	cmp	r3, #0
8001564c:	158a8008 	strne	r8, [sl, #8]
80015650:	1affffe4 	bne	800155e8 <scheduler+0x34>
80015654:	ebffcb96 	bl	800084b4 <sti>
80015658:	eaffffe2 	b	800155e8 <scheduler+0x34>
8001565c:	8009eee0 	.word	0x8009eee0
80015660:	8009cfe0 	.word	0x8009cfe0
80015664:	8009ab18 	.word	0x8009ab18

80015668 <sched>:
80015668:	e30c0fac 	movw	r0, #53164	; 0xcfac
8001566c:	e92d4070 	push	{r4, r5, r6, lr}
80015670:	e3480009 	movt	r0, #32777	; 0x8009
80015674:	ebffd9c3 	bl	8000bd88 <holding>
80015678:	e3500000 	cmp	r0, #0
8001567c:	0a000012 	beq	800156cc <sched+0x64>
80015680:	e30a4b14 	movw	r4, #43796	; 0xab14
80015684:	e3484009 	movt	r4, #32777	; 0x8009
80015688:	e594300c 	ldr	r3, [r4, #12]
8001568c:	e3530001 	cmp	r3, #1
80015690:	1a000016 	bne	800156f0 <sched+0x88>
80015694:	e5943018 	ldr	r3, [r4, #24]
80015698:	e593300c 	ldr	r3, [r3, #12]
8001569c:	e3530004 	cmp	r3, #4
800156a0:	0a00000f 	beq	800156e4 <sched+0x7c>
800156a4:	ebffcb7c 	bl	8000849c <readcpsr>
800156a8:	e3100080 	tst	r0, #128	; 0x80
800156ac:	0a000009 	beq	800156d8 <sched+0x70>
800156b0:	e5940018 	ldr	r0, [r4, #24]
800156b4:	e5945010 	ldr	r5, [r4, #16]
800156b8:	e5941004 	ldr	r1, [r4, #4]
800156bc:	e280001c 	add	r0, r0, #28
800156c0:	ebffcb7f 	bl	800084c4 <swtch>
800156c4:	e5845010 	str	r5, [r4, #16]
800156c8:	e8bd8070 	pop	{r4, r5, r6, pc}
800156cc:	e30905b4 	movw	r0, #38324	; 0x95b4
800156d0:	e3480001 	movt	r0, #32769	; 0x8001
800156d4:	ebffd864 	bl	8000b86c <panic>
800156d8:	e30905e4 	movw	r0, #38372	; 0x95e4
800156dc:	e3480001 	movt	r0, #32769	; 0x8001
800156e0:	ebffd861 	bl	8000b86c <panic>
800156e4:	e30905d4 	movw	r0, #38356	; 0x95d4
800156e8:	e3480001 	movt	r0, #32769	; 0x8001
800156ec:	ebffd85e 	bl	8000b86c <panic>
800156f0:	e30905c8 	movw	r0, #38344	; 0x95c8
800156f4:	e3480001 	movt	r0, #32769	; 0x8001
800156f8:	ebffd85b 	bl	8000b86c <panic>

800156fc <exit>:
800156fc:	e92d41f0 	push	{r4, r5, r6, r7, r8, lr}
80015700:	e30a7b14 	movw	r7, #43796	; 0xab14
80015704:	e3487009 	movt	r7, #32777	; 0x8009
80015708:	e30a6b10 	movw	r6, #43792	; 0xab10
8001570c:	e3486009 	movt	r6, #32777	; 0x8009
80015710:	e5973018 	ldr	r3, [r7, #24]
80015714:	e5962000 	ldr	r2, [r6]
80015718:	e1530002 	cmp	r3, r2
8001571c:	13a04000 	movne	r4, #0
80015720:	11a08004 	movne	r8, r4
80015724:	0a000040 	beq	8001582c <exit+0x130>
80015728:	e284500a 	add	r5, r4, #10
8001572c:	e7930105 	ldr	r0, [r3, r5, lsl #2]
80015730:	e3500000 	cmp	r0, #0
80015734:	0a000002 	beq	80015744 <exit+0x48>
80015738:	ebffeb2b 	bl	800103ec <fileclose>
8001573c:	e5973018 	ldr	r3, [r7, #24]
80015740:	e7838105 	str	r8, [r3, r5, lsl #2]
80015744:	e2844001 	add	r4, r4, #1
80015748:	e3540010 	cmp	r4, #16
8001574c:	1afffff5 	bne	80015728 <exit+0x2c>
80015750:	e5930068 	ldr	r0, [r3, #104]	; 0x68
80015754:	eb000743 	bl	80017468 <iput>
80015758:	e5973018 	ldr	r3, [r7, #24]
8001575c:	e3a02000 	mov	r2, #0
80015760:	e30c0fac 	movw	r0, #53164	; 0xcfac
80015764:	e5832068 	str	r2, [r3, #104]	; 0x68
80015768:	e3480009 	movt	r0, #32777	; 0x8009
8001576c:	ebffd99d 	bl	8000bde8 <acquire>
80015770:	e597e018 	ldr	lr, [r7, #24]
80015774:	e3a0c003 	mov	ip, #3
80015778:	e59f30b8 	ldr	r3, [pc, #184]	; 80015838 <exit+0x13c>
8001577c:	e59e0014 	ldr	r0, [lr, #20]
80015780:	e2831c1f 	add	r1, r3, #7936	; 0x1f00
80015784:	e593200c 	ldr	r2, [r3, #12]
80015788:	e3520002 	cmp	r2, #2
8001578c:	1a000002 	bne	8001579c <exit+0xa0>
80015790:	e5932020 	ldr	r2, [r3, #32]
80015794:	e1500002 	cmp	r0, r2
80015798:	0583c00c 	streq	ip, [r3, #12]
8001579c:	e283307c 	add	r3, r3, #124	; 0x7c
800157a0:	e1530001 	cmp	r3, r1
800157a4:	1afffff6 	bne	80015784 <exit+0x88>
800157a8:	e596c000 	ldr	ip, [r6]
800157ac:	e3a04003 	mov	r4, #3
800157b0:	e59f0080 	ldr	r0, [pc, #128]	; 80015838 <exit+0x13c>
800157b4:	ea000002 	b	800157c4 <exit+0xc8>
800157b8:	e280007c 	add	r0, r0, #124	; 0x7c
800157bc:	e1500001 	cmp	r0, r1
800157c0:	0a000013 	beq	80015814 <exit+0x118>
800157c4:	e5903014 	ldr	r3, [r0, #20]
800157c8:	e15e0003 	cmp	lr, r3
800157cc:	1afffff9 	bne	800157b8 <exit+0xbc>
800157d0:	e590300c 	ldr	r3, [r0, #12]
800157d4:	e580c014 	str	ip, [r0, #20]
800157d8:	e3530005 	cmp	r3, #5
800157dc:	1afffff5 	bne	800157b8 <exit+0xbc>
800157e0:	e59f3050 	ldr	r3, [pc, #80]	; 80015838 <exit+0x13c>
800157e4:	e593200c 	ldr	r2, [r3, #12]
800157e8:	e3520002 	cmp	r2, #2
800157ec:	1a000002 	bne	800157fc <exit+0x100>
800157f0:	e5932020 	ldr	r2, [r3, #32]
800157f4:	e15c0002 	cmp	ip, r2
800157f8:	0583400c 	streq	r4, [r3, #12]
800157fc:	e283307c 	add	r3, r3, #124	; 0x7c
80015800:	e1530001 	cmp	r3, r1
80015804:	1afffff6 	bne	800157e4 <exit+0xe8>
80015808:	e280007c 	add	r0, r0, #124	; 0x7c
8001580c:	e1500001 	cmp	r0, r1
80015810:	1affffeb 	bne	800157c4 <exit+0xc8>
80015814:	e3a03005 	mov	r3, #5
80015818:	e58e300c 	str	r3, [lr, #12]
8001581c:	ebffff91 	bl	80015668 <sched>
80015820:	e3090608 	movw	r0, #38408	; 0x9608
80015824:	e3480001 	movt	r0, #32769	; 0x8001
80015828:	ebffd80f 	bl	8000b86c <panic>
8001582c:	e30905f8 	movw	r0, #38392	; 0x95f8
80015830:	e3480001 	movt	r0, #32769	; 0x8001
80015834:	ebffd80c 	bl	8000b86c <panic>
80015838:	8009cfe0 	.word	0x8009cfe0

8001583c <yield>:
8001583c:	e92d4010 	push	{r4, lr}
80015840:	e30c4fac 	movw	r4, #53164	; 0xcfac
80015844:	e3484009 	movt	r4, #32777	; 0x8009
80015848:	e1a00004 	mov	r0, r4
8001584c:	ebffd965 	bl	8000bde8 <acquire>
80015850:	e30a3b14 	movw	r3, #43796	; 0xab14
80015854:	e3a02003 	mov	r2, #3
80015858:	e3483009 	movt	r3, #32777	; 0x8009
8001585c:	e5933018 	ldr	r3, [r3, #24]
80015860:	e583200c 	str	r2, [r3, #12]
80015864:	ebffff7f 	bl	80015668 <sched>
80015868:	e1a00004 	mov	r0, r4
8001586c:	e8bd4010 	pop	{r4, lr}
80015870:	eaffd992 	b	8000bec0 <release>

80015874 <sleep>:
80015874:	e92d41f0 	push	{r4, r5, r6, r7, r8, lr}
80015878:	e30a4b14 	movw	r4, #43796	; 0xab14
8001587c:	e3484009 	movt	r4, #32777	; 0x8009
80015880:	e5943018 	ldr	r3, [r4, #24]
80015884:	e3530000 	cmp	r3, #0
80015888:	0a000023 	beq	8001591c <sleep+0xa8>
8001588c:	e3510000 	cmp	r1, #0
80015890:	e1a06001 	mov	r6, r1
80015894:	0a00001d 	beq	80015910 <sleep+0x9c>
80015898:	e30c5fac 	movw	r5, #53164	; 0xcfac
8001589c:	e1a07000 	mov	r7, r0
800158a0:	e3485009 	movt	r5, #32777	; 0x8009
800158a4:	e1510005 	cmp	r1, r5
800158a8:	0a000010 	beq	800158f0 <sleep+0x7c>
800158ac:	e1a00005 	mov	r0, r5
800158b0:	ebffd94c 	bl	8000bde8 <acquire>
800158b4:	e1a00006 	mov	r0, r6
800158b8:	ebffd980 	bl	8000bec0 <release>
800158bc:	e5943018 	ldr	r3, [r4, #24]
800158c0:	e3a02002 	mov	r2, #2
800158c4:	e5837020 	str	r7, [r3, #32]
800158c8:	e583200c 	str	r2, [r3, #12]
800158cc:	ebffff65 	bl	80015668 <sched>
800158d0:	e5943018 	ldr	r3, [r4, #24]
800158d4:	e3a02000 	mov	r2, #0
800158d8:	e1a00005 	mov	r0, r5
800158dc:	e5832020 	str	r2, [r3, #32]
800158e0:	ebffd976 	bl	8000bec0 <release>
800158e4:	e1a00006 	mov	r0, r6
800158e8:	e8bd41f0 	pop	{r4, r5, r6, r7, r8, lr}
800158ec:	eaffd93d 	b	8000bde8 <acquire>
800158f0:	e5830020 	str	r0, [r3, #32]
800158f4:	e3a02002 	mov	r2, #2
800158f8:	e583200c 	str	r2, [r3, #12]
800158fc:	ebffff59 	bl	80015668 <sched>
80015900:	e5943018 	ldr	r3, [r4, #24]
80015904:	e3a02000 	mov	r2, #0
80015908:	e5832020 	str	r2, [r3, #32]
8001590c:	e8bd81f0 	pop	{r4, r5, r6, r7, r8, pc}
80015910:	e309061c 	movw	r0, #38428	; 0x961c
80015914:	e3480001 	movt	r0, #32769	; 0x8001
80015918:	ebffd7d3 	bl	8000b86c <panic>
8001591c:	e3090614 	movw	r0, #38420	; 0x9614
80015920:	e3480001 	movt	r0, #32769	; 0x8001
80015924:	ebffd7d0 	bl	8000b86c <panic>

80015928 <wait>:
80015928:	e30c0fac 	movw	r0, #53164	; 0xcfac
8001592c:	e92d4070 	push	{r4, r5, r6, lr}
80015930:	e30a6b14 	movw	r6, #43796	; 0xab14
80015934:	e3480009 	movt	r0, #32777	; 0x8009
80015938:	e59f50b8 	ldr	r5, [pc, #184]	; 800159f8 <wait+0xd0>
8001593c:	e3486009 	movt	r6, #32777	; 0x8009
80015940:	ebffd928 	bl	8000bde8 <acquire>
80015944:	e5960018 	ldr	r0, [r6, #24]
80015948:	e3a02000 	mov	r2, #0
8001594c:	e59f40a8 	ldr	r4, [pc, #168]	; 800159fc <wait+0xd4>
80015950:	ea000002 	b	80015960 <wait+0x38>
80015954:	e284407c 	add	r4, r4, #124	; 0x7c
80015958:	e1540005 	cmp	r4, r5
8001595c:	0a000017 	beq	800159c0 <wait+0x98>
80015960:	e5943014 	ldr	r3, [r4, #20]
80015964:	e1530000 	cmp	r3, r0
80015968:	1afffff9 	bne	80015954 <wait+0x2c>
8001596c:	e594300c 	ldr	r3, [r4, #12]
80015970:	e3a02001 	mov	r2, #1
80015974:	e3530005 	cmp	r3, #5
80015978:	1afffff5 	bne	80015954 <wait+0x2c>
8001597c:	e5940008 	ldr	r0, [r4, #8]
80015980:	e3a05000 	mov	r5, #0
80015984:	e5946010 	ldr	r6, [r4, #16]
80015988:	ebfff389 	bl	800127b4 <kfree>
8001598c:	e5940004 	ldr	r0, [r4, #4]
80015990:	e5845008 	str	r5, [r4, #8]
80015994:	ebffef6a 	bl	80011744 <freevm>
80015998:	e584500c 	str	r5, [r4, #12]
8001599c:	e30c0fac 	movw	r0, #53164	; 0xcfac
800159a0:	e3480009 	movt	r0, #32777	; 0x8009
800159a4:	e5845010 	str	r5, [r4, #16]
800159a8:	e5845014 	str	r5, [r4, #20]
800159ac:	e5c4506c 	strb	r5, [r4, #108]	; 0x6c
800159b0:	e5845024 	str	r5, [r4, #36]	; 0x24
800159b4:	ebffd941 	bl	8000bec0 <release>
800159b8:	e1a00006 	mov	r0, r6
800159bc:	e8bd8070 	pop	{r4, r5, r6, pc}
800159c0:	e3520000 	cmp	r2, #0
800159c4:	0a000006 	beq	800159e4 <wait+0xbc>
800159c8:	e5903024 	ldr	r3, [r0, #36]	; 0x24
800159cc:	e3530000 	cmp	r3, #0
800159d0:	1a000003 	bne	800159e4 <wait+0xbc>
800159d4:	e30c1fac 	movw	r1, #53164	; 0xcfac
800159d8:	e3481009 	movt	r1, #32777	; 0x8009
800159dc:	ebffffa4 	bl	80015874 <sleep>
800159e0:	eaffffd7 	b	80015944 <wait+0x1c>
800159e4:	e30c0fac 	movw	r0, #53164	; 0xcfac
800159e8:	e3e06000 	mvn	r6, #0
800159ec:	e3480009 	movt	r0, #32777	; 0x8009
800159f0:	ebffd932 	bl	8000bec0 <release>
800159f4:	eaffffef 	b	800159b8 <wait+0x90>
800159f8:	8009eee0 	.word	0x8009eee0
800159fc:	8009cfe0 	.word	0x8009cfe0

80015a00 <wakeup>:
80015a00:	e92d4010 	push	{r4, lr}
80015a04:	e1a04000 	mov	r4, r0
80015a08:	e30c0fac 	movw	r0, #53164	; 0xcfac
80015a0c:	e3480009 	movt	r0, #32777	; 0x8009
80015a10:	ebffd8f4 	bl	8000bde8 <acquire>
80015a14:	e59f3038 	ldr	r3, [pc, #56]	; 80015a54 <wakeup+0x54>
80015a18:	e3a00003 	mov	r0, #3
80015a1c:	e2831c1f 	add	r1, r3, #7936	; 0x1f00
80015a20:	e593200c 	ldr	r2, [r3, #12]
80015a24:	e3520002 	cmp	r2, #2
80015a28:	1a000002 	bne	80015a38 <wakeup+0x38>
80015a2c:	e5932020 	ldr	r2, [r3, #32]
80015a30:	e1540002 	cmp	r4, r2
80015a34:	0583000c 	streq	r0, [r3, #12]
80015a38:	e283307c 	add	r3, r3, #124	; 0x7c
80015a3c:	e1530001 	cmp	r3, r1
80015a40:	1afffff6 	bne	80015a20 <wakeup+0x20>
80015a44:	e30c0fac 	movw	r0, #53164	; 0xcfac
80015a48:	e3480009 	movt	r0, #32777	; 0x8009
80015a4c:	e8bd4010 	pop	{r4, lr}
80015a50:	eaffd91a 	b	8000bec0 <release>
80015a54:	8009cfe0 	.word	0x8009cfe0

80015a58 <kill>:
80015a58:	e92d4010 	push	{r4, lr}
80015a5c:	e1a04000 	mov	r4, r0
80015a60:	e30c0fac 	movw	r0, #53164	; 0xcfac
80015a64:	e3480009 	movt	r0, #32777	; 0x8009
80015a68:	ebffd8de 	bl	8000bde8 <acquire>
80015a6c:	e59f305c 	ldr	r3, [pc, #92]	; 80015ad0 <kill+0x78>
80015a70:	e2831c1f 	add	r1, r3, #7936	; 0x1f00
80015a74:	ea000002 	b	80015a84 <kill+0x2c>
80015a78:	e283307c 	add	r3, r3, #124	; 0x7c
80015a7c:	e1530001 	cmp	r3, r1
80015a80:	0a00000d 	beq	80015abc <kill+0x64>
80015a84:	e5932010 	ldr	r2, [r3, #16]
80015a88:	e1520004 	cmp	r2, r4
80015a8c:	1afffff9 	bne	80015a78 <kill+0x20>
80015a90:	e593200c 	ldr	r2, [r3, #12]
80015a94:	e3a01001 	mov	r1, #1
80015a98:	e5831024 	str	r1, [r3, #36]	; 0x24
80015a9c:	e30c0fac 	movw	r0, #53164	; 0xcfac
80015aa0:	e3480009 	movt	r0, #32777	; 0x8009
80015aa4:	e3520002 	cmp	r2, #2
80015aa8:	03a02003 	moveq	r2, #3
80015aac:	0583200c 	streq	r2, [r3, #12]
80015ab0:	ebffd902 	bl	8000bec0 <release>
80015ab4:	e3a00000 	mov	r0, #0
80015ab8:	e8bd8010 	pop	{r4, pc}
80015abc:	e30c0fac 	movw	r0, #53164	; 0xcfac
80015ac0:	e3480009 	movt	r0, #32777	; 0x8009
80015ac4:	ebffd8fd 	bl	8000bec0 <release>
80015ac8:	e3e00000 	mvn	r0, #0
80015acc:	e8bd8010 	pop	{r4, pc}
80015ad0:	8009cfe0 	.word	0x8009cfe0

80015ad4 <procdump>:
80015ad4:	e12fff1e 	bx	lr

80015ad8 <USBKeyboardDeviceStartRequest>:
80015ad8:	e92d4030 	push	{r4, r5, lr}
80015adc:	e1a04000 	mov	r4, r0
80015ae0:	e24dd00c 	sub	sp, sp, #12
80015ae4:	e3a00024 	mov	r0, #36	; 0x24
80015ae8:	e3a05000 	mov	r5, #0
80015aec:	ebffefc0 	bl	800119f4 <malloc>
80015af0:	e5840054 	str	r0, [r4, #84]	; 0x54
80015af4:	e3a03008 	mov	r3, #8
80015af8:	e5942058 	ldr	r2, [r4, #88]	; 0x58
80015afc:	e5941040 	ldr	r1, [r4, #64]	; 0x40
80015b00:	e58d5000 	str	r5, [sp]
80015b04:	ebfff1d6 	bl	80012264 <USBRequest>
80015b08:	e5940054 	ldr	r0, [r4, #84]	; 0x54
80015b0c:	e3051db8 	movw	r1, #23992	; 0x5db8
80015b10:	e3481001 	movt	r1, #32769	; 0x8001
80015b14:	e1a03004 	mov	r3, r4
80015b18:	e1a02005 	mov	r2, r5
80015b1c:	ebfff1f1 	bl	800122e8 <USBRequestSetCompletionRoutine>
80015b20:	e1a00004 	mov	r0, r4
80015b24:	ebffd54c 	bl	8000b05c <USBDeviceGetHost>
80015b28:	e5941054 	ldr	r1, [r4, #84]	; 0x54
80015b2c:	e28dd00c 	add	sp, sp, #12
80015b30:	e8bd4030 	pop	{r4, r5, lr}
80015b34:	eafffa39 	b	80014420 <DWHCIDeviceSubmitAsyncRequest>

80015b38 <USBKeyboardDeviceConfigure>:
80015b38:	e92d4070 	push	{r4, r5, r6, lr}
80015b3c:	e3a01002 	mov	r1, #2
80015b40:	e24dd020 	sub	sp, sp, #32
80015b44:	e1a04000 	mov	r4, r0
80015b48:	ebffd549 	bl	8000b074 <USBDeviceGetDescriptor>
80015b4c:	e3500000 	cmp	r0, #0
80015b50:	0a000061 	beq	80015cdc <USBKeyboardDeviceConfigure+0x1a4>
80015b54:	e5d03004 	ldrb	r3, [r0, #4]
80015b58:	e3530000 	cmp	r3, #0
80015b5c:	0a00005e 	beq	80015cdc <USBKeyboardDeviceConfigure+0x1a4>
80015b60:	e3a01004 	mov	r1, #4
80015b64:	e1a00004 	mov	r0, r4
80015b68:	ebffd541 	bl	8000b074 <USBDeviceGetDescriptor>
80015b6c:	e2503000 	subs	r3, r0, #0
80015b70:	0a000021 	beq	80015bfc <USBKeyboardDeviceConfigure+0xc4>
80015b74:	e5d32004 	ldrb	r2, [r3, #4]
80015b78:	e3520000 	cmp	r2, #0
80015b7c:	0afffff7 	beq	80015b60 <USBKeyboardDeviceConfigure+0x28>
80015b80:	e5d32005 	ldrb	r2, [r3, #5]
80015b84:	e3520003 	cmp	r2, #3
80015b88:	1afffff4 	bne	80015b60 <USBKeyboardDeviceConfigure+0x28>
80015b8c:	e5d32006 	ldrb	r2, [r3, #6]
80015b90:	e3520001 	cmp	r2, #1
80015b94:	1afffff1 	bne	80015b60 <USBKeyboardDeviceConfigure+0x28>
80015b98:	e5d32007 	ldrb	r2, [r3, #7]
80015b9c:	e3520001 	cmp	r2, #1
80015ba0:	1affffee 	bne	80015b60 <USBKeyboardDeviceConfigure+0x28>
80015ba4:	e5d32002 	ldrb	r2, [r3, #2]
80015ba8:	e3a01005 	mov	r1, #5
80015bac:	e1a00004 	mov	r0, r4
80015bb0:	e5c4203c 	strb	r2, [r4, #60]	; 0x3c
80015bb4:	e5d33003 	ldrb	r3, [r3, #3]
80015bb8:	e5c4303d 	strb	r3, [r4, #61]	; 0x3d
80015bbc:	ebffd52c 	bl	8000b074 <USBDeviceGetDescriptor>
80015bc0:	e2505000 	subs	r5, r0, #0
80015bc4:	0affffe5 	beq	80015b60 <USBKeyboardDeviceConfigure+0x28>
80015bc8:	e1d530d2 	ldrsb	r3, [r5, #2]
80015bcc:	e3530000 	cmp	r3, #0
80015bd0:	aaffffe2 	bge	80015b60 <USBKeyboardDeviceConfigure+0x28>
80015bd4:	e5d53003 	ldrb	r3, [r5, #3]
80015bd8:	e203303f 	and	r3, r3, #63	; 0x3f
80015bdc:	e3530003 	cmp	r3, #3
80015be0:	1affffde 	bne	80015b60 <USBKeyboardDeviceConfigure+0x28>
80015be4:	e3a0001c 	mov	r0, #28
80015be8:	ebffef81 	bl	800119f4 <malloc>
80015bec:	e5840040 	str	r0, [r4, #64]	; 0x40
80015bf0:	e1a02005 	mov	r2, r5
80015bf4:	e1a01004 	mov	r1, r4
80015bf8:	ebffdd5f 	bl	8000d17c <USBEndpoint2>
80015bfc:	e5945040 	ldr	r5, [r4, #64]	; 0x40
80015c00:	e3550000 	cmp	r5, #0
80015c04:	0a000056 	beq	80015d64 <USBKeyboardDeviceConfigure+0x22c>
80015c08:	e1a00004 	mov	r0, r4
80015c0c:	ebffd375 	bl	8000a9e8 <USBDeviceConfigure>
80015c10:	e2505000 	subs	r5, r0, #0
80015c14:	0a000059 	beq	80015d80 <USBKeyboardDeviceConfigure+0x248>
80015c18:	e5d4303d 	ldrb	r3, [r4, #61]	; 0x3d
80015c1c:	e3530000 	cmp	r3, #0
80015c20:	1a000035 	bne	80015cfc <USBKeyboardDeviceConfigure+0x1c4>
80015c24:	e1a00004 	mov	r0, r4
80015c28:	e3a05000 	mov	r5, #0
80015c2c:	ebffd50a 	bl	8000b05c <USBDeviceGetHost>
80015c30:	e1a06000 	mov	r6, r0
80015c34:	e1a00004 	mov	r0, r4
80015c38:	ebffd505 	bl	8000b054 <USBDeviceGetEndpoint0>
80015c3c:	e5d4303c 	ldrb	r3, [r4, #60]	; 0x3c
80015c40:	e1a01000 	mov	r1, r0
80015c44:	e58d500c 	str	r5, [sp, #12]
80015c48:	e1a00006 	mov	r0, r6
80015c4c:	e58d3004 	str	r3, [sp, #4]
80015c50:	e3a02021 	mov	r2, #33	; 0x21
80015c54:	e58d5008 	str	r5, [sp, #8]
80015c58:	e3a0300b 	mov	r3, #11
80015c5c:	e58d5000 	str	r5, [sp]
80015c60:	ebfffa72 	bl	80014630 <DWHCIDeviceControlMessage>
80015c64:	e1500005 	cmp	r0, r5
80015c68:	ba00004b 	blt	80015d9c <USBKeyboardDeviceConfigure+0x264>
80015c6c:	e28d0014 	add	r0, sp, #20
80015c70:	ebffcb54 	bl	800089c8 <String>
80015c74:	e30a3904 	movw	r3, #43268	; 0xa904
80015c78:	e3091638 	movw	r1, #38456	; 0x9638
80015c7c:	e3483009 	movt	r3, #32777	; 0x8009
80015c80:	e28d0014 	add	r0, sp, #20
80015c84:	e3481001 	movt	r1, #32769	; 0x8001
80015c88:	e5932000 	ldr	r2, [r3]
80015c8c:	e282c001 	add	ip, r2, #1
80015c90:	e583c000 	str	ip, [r3]
80015c94:	ebffcd84 	bl	800092ac <StringFormat>
80015c98:	eb00016b 	bl	8001624c <DeviceNameServiceGet>
80015c9c:	e1a06000 	mov	r6, r0
80015ca0:	e28d0014 	add	r0, sp, #20
80015ca4:	ebffcb61 	bl	80008a30 <StringGet>
80015ca8:	e1a01000 	mov	r1, r0
80015cac:	e1a03005 	mov	r3, r5
80015cb0:	e1a02004 	mov	r2, r4
80015cb4:	e1a00006 	mov	r0, r6
80015cb8:	eb000139 	bl	800161a4 <DeviceNameServiceAddDevice>
80015cbc:	e28d0014 	add	r0, sp, #20
80015cc0:	ebffcb50 	bl	80008a08 <_String>
80015cc4:	e1a00004 	mov	r0, r4
80015cc8:	ebffff82 	bl	80015ad8 <USBKeyboardDeviceStartRequest>
80015ccc:	e1a05000 	mov	r5, r0
80015cd0:	e1a00005 	mov	r0, r5
80015cd4:	e28dd020 	add	sp, sp, #32
80015cd8:	e8bd8070 	pop	{r4, r5, r6, pc}
80015cdc:	e3091630 	movw	r1, #38448	; 0x9630
80015ce0:	e1a00004 	mov	r0, r4
80015ce4:	e3481001 	movt	r1, #32769	; 0x8001
80015ce8:	e3a05000 	mov	r5, #0
80015cec:	ebffd4e2 	bl	8000b07c <USBDeviceConfigurationError>
80015cf0:	e1a00005 	mov	r0, r5
80015cf4:	e28dd020 	add	sp, sp, #32
80015cf8:	e8bd8070 	pop	{r4, r5, r6, pc}
80015cfc:	e1a00004 	mov	r0, r4
80015d00:	e3a05000 	mov	r5, #0
80015d04:	ebffd4d4 	bl	8000b05c <USBDeviceGetHost>
80015d08:	e1a06000 	mov	r6, r0
80015d0c:	e1a00004 	mov	r0, r4
80015d10:	ebffd4cf 	bl	8000b054 <USBDeviceGetEndpoint0>
80015d14:	e5d4303c 	ldrb	r3, [r4, #60]	; 0x3c
80015d18:	e1a01000 	mov	r1, r0
80015d1c:	e5d4203d 	ldrb	r2, [r4, #61]	; 0x3d
80015d20:	e1a00006 	mov	r0, r6
80015d24:	e58d3004 	str	r3, [sp, #4]
80015d28:	e3a0300b 	mov	r3, #11
80015d2c:	e58d2000 	str	r2, [sp]
80015d30:	e3a02001 	mov	r2, #1
80015d34:	e58d500c 	str	r5, [sp, #12]
80015d38:	e58d5008 	str	r5, [sp, #8]
80015d3c:	ebfffa3b 	bl	80014630 <DWHCIDeviceControlMessage>
80015d40:	e1500005 	cmp	r0, r5
80015d44:	aaffffb6 	bge	80015c24 <USBKeyboardDeviceConfigure+0xec>
80015d48:	e3082728 	movw	r2, #34600	; 0x8728
80015d4c:	e3090630 	movw	r0, #38448	; 0x9630
80015d50:	e3482001 	movt	r2, #32769	; 0x8001
80015d54:	e3a01001 	mov	r1, #1
80015d58:	e3480001 	movt	r0, #32769	; 0x8001
80015d5c:	ebffef7e 	bl	80011b5c <LogWrite>
80015d60:	eaffffda 	b	80015cd0 <USBKeyboardDeviceConfigure+0x198>
80015d64:	e3091630 	movw	r1, #38448	; 0x9630
80015d68:	e1a00004 	mov	r0, r4
80015d6c:	e3481001 	movt	r1, #32769	; 0x8001
80015d70:	ebffd4c1 	bl	8000b07c <USBDeviceConfigurationError>
80015d74:	e1a00005 	mov	r0, r5
80015d78:	e28dd020 	add	sp, sp, #32
80015d7c:	e8bd8070 	pop	{r4, r5, r6, pc}
80015d80:	e3072f60 	movw	r2, #32608	; 0x7f60
80015d84:	e3090630 	movw	r0, #38448	; 0x9630
80015d88:	e3482001 	movt	r2, #32769	; 0x8001
80015d8c:	e3a01001 	mov	r1, #1
80015d90:	e3480001 	movt	r0, #32769	; 0x8001
80015d94:	ebffef70 	bl	80011b5c <LogWrite>
80015d98:	eaffffcc 	b	80015cd0 <USBKeyboardDeviceConfigure+0x198>
80015d9c:	e30923b8 	movw	r2, #37816	; 0x93b8
80015da0:	e3090630 	movw	r0, #38448	; 0x9630
80015da4:	e3482001 	movt	r2, #32769	; 0x8001
80015da8:	e3a01001 	mov	r1, #1
80015dac:	e3480001 	movt	r0, #32769	; 0x8001
80015db0:	ebffef69 	bl	80011b5c <LogWrite>
80015db4:	eaffffc5 	b	80015cd0 <USBKeyboardDeviceConfigure+0x198>

80015db8 <USBKeyboardDeviceCompletionRoutine>:
80015db8:	e92d4070 	push	{r4, r5, r6, lr}
80015dbc:	e24dd008 	sub	sp, sp, #8
80015dc0:	e1a04002 	mov	r4, r2
80015dc4:	e1a05000 	mov	r5, r0
80015dc8:	ebfff13c 	bl	800122c0 <USBRequestGetStatus>
80015dcc:	e3500000 	cmp	r0, #0
80015dd0:	1a000009 	bne	80015dfc <USBKeyboardDeviceCompletionRoutine+0x44>
80015dd4:	e5940054 	ldr	r0, [r4, #84]	; 0x54
80015dd8:	ebfff12c 	bl	80012290 <_USBRequest>
80015ddc:	e5940054 	ldr	r0, [r4, #84]	; 0x54
80015de0:	ebffef0a 	bl	80011a10 <free>
80015de4:	e3a03000 	mov	r3, #0
80015de8:	e1a00004 	mov	r0, r4
80015dec:	e5843054 	str	r3, [r4, #84]	; 0x54
80015df0:	ebffff38 	bl	80015ad8 <USBKeyboardDeviceStartRequest>
80015df4:	e28dd008 	add	sp, sp, #8
80015df8:	e8bd8070 	pop	{r4, r5, r6, pc}
80015dfc:	e1a00005 	mov	r0, r5
80015e00:	ebfff130 	bl	800122c8 <USBRequestGetResultLength>
80015e04:	e3500008 	cmp	r0, #8
80015e08:	1afffff1 	bne	80015dd4 <USBKeyboardDeviceCompletionRoutine+0x1c>
80015e0c:	e5943050 	ldr	r3, [r4, #80]	; 0x50
80015e10:	e5941058 	ldr	r1, [r4, #88]	; 0x58
80015e14:	e3530000 	cmp	r3, #0
80015e18:	0a000002 	beq	80015e28 <USBKeyboardDeviceCompletionRoutine+0x70>
80015e1c:	e4d10002 	ldrb	r0, [r1], #2
80015e20:	e12fff33 	blx	r3
80015e24:	eaffffea 	b	80015dd4 <USBKeyboardDeviceCompletionRoutine+0x1c>
80015e28:	e2813008 	add	r3, r1, #8
80015e2c:	e2810002 	add	r0, r1, #2
80015e30:	e5732001 	ldrb	r2, [r3, #-1]!
80015e34:	e3520000 	cmp	r2, #0
80015e38:	1a00000b 	bne	80015e6c <USBKeyboardDeviceCompletionRoutine+0xb4>
80015e3c:	e1500003 	cmp	r0, r3
80015e40:	1afffffa 	bne	80015e30 <USBKeyboardDeviceCompletionRoutine+0x78>
80015e44:	e5d4305c 	ldrb	r3, [r4, #92]	; 0x5c
80015e48:	e3530000 	cmp	r3, #0
80015e4c:	15c4205c 	strbne	r2, [r4, #92]	; 0x5c
80015e50:	e5940060 	ldr	r0, [r4, #96]	; 0x60
80015e54:	e3500000 	cmp	r0, #0
80015e58:	0affffdd 	beq	80015dd4 <USBKeyboardDeviceCompletionRoutine+0x1c>
80015e5c:	ebffef13 	bl	80011ab0 <CancelKernelTimer>
80015e60:	e3a03000 	mov	r3, #0
80015e64:	e5843060 	str	r3, [r4, #96]	; 0x60
80015e68:	eaffffd9 	b	80015dd4 <USBKeyboardDeviceCompletionRoutine+0x1c>
80015e6c:	e5d4305c 	ldrb	r3, [r4, #92]	; 0x5c
80015e70:	e1530002 	cmp	r3, r2
80015e74:	0afffff5 	beq	80015e50 <USBKeyboardDeviceCompletionRoutine+0x98>
80015e78:	e5c4205c 	strb	r2, [r4, #92]	; 0x5c
80015e7c:	e2846064 	add	r6, r4, #100	; 0x64
80015e80:	e5d15000 	ldrb	r5, [r1]
80015e84:	e1a00006 	mov	r0, r6
80015e88:	e1a01002 	mov	r1, r2
80015e8c:	e1a02005 	mov	r2, r5
80015e90:	ebffe89b 	bl	80010104 <KeyMapTranslate>
80015e94:	e2403e13 	sub	r3, r0, #304	; 0x130
80015e98:	e2433003 	sub	r3, r3, #3
80015e9c:	e353000f 	cmp	r3, #15
80015ea0:	979ff103 	ldrls	pc, [pc, r3, lsl #2]
80015ea4:	ea00001b 	b	80015f18 <USBKeyboardDeviceCompletionRoutine+0x160>
80015ea8:	80015dd4 	.word	0x80015dd4
80015eac:	80015dd4 	.word	0x80015dd4
80015eb0:	80015dd4 	.word	0x80015dd4
80015eb4:	80015efc 	.word	0x80015efc
80015eb8:	80015efc 	.word	0x80015efc
80015ebc:	80015efc 	.word	0x80015efc
80015ec0:	80015efc 	.word	0x80015efc
80015ec4:	80015efc 	.word	0x80015efc
80015ec8:	80015efc 	.word	0x80015efc
80015ecc:	80015efc 	.word	0x80015efc
80015ed0:	80015efc 	.word	0x80015efc
80015ed4:	80015efc 	.word	0x80015efc
80015ed8:	80015efc 	.word	0x80015efc
80015edc:	80015efc 	.word	0x80015efc
80015ee0:	80015efc 	.word	0x80015efc
80015ee4:	80015ee8 	.word	0x80015ee8
80015ee8:	e594304c 	ldr	r3, [r4, #76]	; 0x4c
80015eec:	e3530000 	cmp	r3, #0
80015ef0:	0affffb7 	beq	80015dd4 <USBKeyboardDeviceCompletionRoutine+0x1c>
80015ef4:	e12fff33 	blx	r3
80015ef8:	eaffffb5 	b	80015dd4 <USBKeyboardDeviceCompletionRoutine+0x1c>
80015efc:	e5943048 	ldr	r3, [r4, #72]	; 0x48
80015f00:	e3530000 	cmp	r3, #0
80015f04:	0affffb2 	beq	80015dd4 <USBKeyboardDeviceCompletionRoutine+0x1c>
80015f08:	e2400f4d 	sub	r0, r0, #308	; 0x134
80015f0c:	e2400002 	sub	r0, r0, #2
80015f10:	e12fff33 	blx	r3
80015f14:	eaffffae 	b	80015dd4 <USBKeyboardDeviceCompletionRoutine+0x1c>
80015f18:	e1a01000 	mov	r1, r0
80015f1c:	e1a02005 	mov	r2, r5
80015f20:	e1a00006 	mov	r0, r6
80015f24:	e28d3004 	add	r3, sp, #4
80015f28:	ebffe8bc 	bl	80010220 <KeyMapGetString>
80015f2c:	e3500000 	cmp	r0, #0
80015f30:	0affffa7 	beq	80015dd4 <USBKeyboardDeviceCompletionRoutine+0x1c>
80015f34:	e5943044 	ldr	r3, [r4, #68]	; 0x44
80015f38:	e3530000 	cmp	r3, #0
80015f3c:	0affffa4 	beq	80015dd4 <USBKeyboardDeviceCompletionRoutine+0x1c>
80015f40:	e12fff33 	blx	r3
80015f44:	eaffffa2 	b	80015dd4 <USBKeyboardDeviceCompletionRoutine+0x1c>

80015f48 <USBKeyboardDevice>:
80015f48:	e92d4010 	push	{r4, lr}
80015f4c:	e1a04000 	mov	r4, r0
80015f50:	ebffd2d9 	bl	8000aabc <USBDeviceCopy>
80015f54:	e3052b38 	movw	r2, #23352	; 0x5b38
80015f58:	e3a03000 	mov	r3, #0
80015f5c:	e3482001 	movt	r2, #32769	; 0x8001
80015f60:	e2840064 	add	r0, r4, #100	; 0x64
80015f64:	e5842000 	str	r2, [r4]
80015f68:	e5843040 	str	r3, [r4, #64]	; 0x40
80015f6c:	e5843044 	str	r3, [r4, #68]	; 0x44
80015f70:	e5843048 	str	r3, [r4, #72]	; 0x48
80015f74:	e584304c 	str	r3, [r4, #76]	; 0x4c
80015f78:	e5843050 	str	r3, [r4, #80]	; 0x50
80015f7c:	e5843054 	str	r3, [r4, #84]	; 0x54
80015f80:	e5843058 	str	r3, [r4, #88]	; 0x58
80015f84:	e5c4305c 	strb	r3, [r4, #92]	; 0x5c
80015f88:	e5843060 	str	r3, [r4, #96]	; 0x60
80015f8c:	ebffe830 	bl	80010054 <KeyMap>
80015f90:	e3a00008 	mov	r0, #8
80015f94:	ebffee96 	bl	800119f4 <malloc>
80015f98:	e5840058 	str	r0, [r4, #88]	; 0x58
80015f9c:	e8bd8010 	pop	{r4, pc}

80015fa0 <_CUSBKeyboardDevice>:
80015fa0:	e92d4010 	push	{r4, lr}
80015fa4:	e1a04000 	mov	r4, r0
80015fa8:	e5900058 	ldr	r0, [r0, #88]	; 0x58
80015fac:	e3500000 	cmp	r0, #0
80015fb0:	0a000002 	beq	80015fc0 <_CUSBKeyboardDevice+0x20>
80015fb4:	ebffee95 	bl	80011a10 <free>
80015fb8:	e3a03000 	mov	r3, #0
80015fbc:	e5843058 	str	r3, [r4, #88]	; 0x58
80015fc0:	e5940040 	ldr	r0, [r4, #64]	; 0x40
80015fc4:	e3500000 	cmp	r0, #0
80015fc8:	0a000004 	beq	80015fe0 <_CUSBKeyboardDevice+0x40>
80015fcc:	ebffdcb2 	bl	8000d29c <_USBEndpoint>
80015fd0:	e5940040 	ldr	r0, [r4, #64]	; 0x40
80015fd4:	ebffee8d 	bl	80011a10 <free>
80015fd8:	e3a03000 	mov	r3, #0
80015fdc:	e5843040 	str	r3, [r4, #64]	; 0x40
80015fe0:	e2840064 	add	r0, r4, #100	; 0x64
80015fe4:	ebffe823 	bl	80010078 <_KeyMap>
80015fe8:	e1a00004 	mov	r0, r4
80015fec:	e8bd4010 	pop	{r4, lr}
80015ff0:	eaffd2ee 	b	8000abb0 <_USBDevice>

80015ff4 <USBKeyboardDeviceRegisterKeyPressedHandler>:
80015ff4:	e5801044 	str	r1, [r0, #68]	; 0x44
80015ff8:	e12fff1e 	bx	lr

80015ffc <USBKeyboardDeviceRegisterSelectConsoleHandler>:
80015ffc:	e5801048 	str	r1, [r0, #72]	; 0x48
80016000:	e12fff1e 	bx	lr

80016004 <USBKeyboardDeviceRegisterShutdownHandler>:
80016004:	e580104c 	str	r1, [r0, #76]	; 0x4c
80016008:	e12fff1e 	bx	lr

8001600c <USBKeyboardDeviceRegisterKeyStatusHandlerRaw>:
8001600c:	e5801050 	str	r1, [r0, #80]	; 0x50
80016010:	e12fff1e 	bx	lr

80016014 <enabletimer3irq>:
80016014:	e3a03cb2 	mov	r3, #45568	; 0xb200
80016018:	e34d3000 	movt	r3, #53248	; 0xd000
8001601c:	e5932010 	ldr	r2, [r3, #16]
80016020:	e3822008 	orr	r2, r2, #8
80016024:	e5832010 	str	r2, [r3, #16]
80016028:	e12fff1e 	bx	lr

8001602c <timer3init>:
8001602c:	e3a02cb2 	mov	r2, #45568	; 0xb200
80016030:	e3033004 	movw	r3, #12292	; 0x3004
80016034:	e34d2000 	movt	r2, #53248	; 0xd000
80016038:	e34d3000 	movt	r3, #53248	; 0xd000
8001603c:	e5921010 	ldr	r1, [r2, #16]
80016040:	e3811008 	orr	r1, r1, #8
80016044:	e5821010 	str	r1, [r2, #16]
80016048:	e5933000 	ldr	r3, [r3]
8001604c:	e3032018 	movw	r2, #12312	; 0x3018
80016050:	e2833cc3 	add	r3, r3, #49920	; 0xc300
80016054:	e34d2000 	movt	r2, #53248	; 0xd000
80016058:	e2833050 	add	r3, r3, #80	; 0x50
8001605c:	e5823000 	str	r3, [r2]
80016060:	e30a3d9c 	movw	r3, #44444	; 0xad9c
80016064:	e3a02000 	mov	r2, #0
80016068:	e3483009 	movt	r3, #32777	; 0x8009
8001606c:	e5832000 	str	r2, [r3]
80016070:	e12fff1e 	bx	lr

80016074 <timer3intr>:
80016074:	e3a03a03 	mov	r3, #12288	; 0x3000
80016078:	e3a02008 	mov	r2, #8
8001607c:	e92d4010 	push	{r4, lr}
80016080:	e34d3000 	movt	r3, #53248	; 0xd000
80016084:	e5832000 	str	r2, [r3]
80016088:	e30a3d9c 	movw	r3, #44444	; 0xad9c
8001608c:	e3483009 	movt	r3, #32777	; 0x8009
80016090:	e1a00003 	mov	r0, r3
80016094:	e5932000 	ldr	r2, [r3]
80016098:	e2822001 	add	r2, r2, #1
8001609c:	e5832000 	str	r2, [r3]
800160a0:	ebfffe56 	bl	80015a00 <wakeup>
800160a4:	e3033004 	movw	r3, #12292	; 0x3004
800160a8:	e34d3000 	movt	r3, #53248	; 0xd000
800160ac:	e5933000 	ldr	r3, [r3]
800160b0:	e3032018 	movw	r2, #12312	; 0x3018
800160b4:	e2833cc3 	add	r3, r3, #49920	; 0xc300
800160b8:	e34d2000 	movt	r2, #53248	; 0xd000
800160bc:	e2833050 	add	r3, r3, #80	; 0x50
800160c0:	e5823000 	str	r3, [r2]
800160c4:	e8bd8010 	pop	{r4, pc}

800160c8 <delay>:
800160c8:	e92d4070 	push	{r4, r5, r6, lr}
800160cc:	e2506000 	subs	r6, r0, #0
800160d0:	08bd8070 	popeq	{r4, r5, r6, pc}
800160d4:	ebffc86a 	bl	80008284 <getsystemtime>
800160d8:	e0904006 	adds	r4, r0, r6
800160dc:	e2a15000 	adc	r5, r1, #0
800160e0:	ebffc867 	bl	80008284 <getsystemtime>
800160e4:	e1510005 	cmp	r1, r5
800160e8:	01500004 	cmpeq	r0, r4
800160ec:	1afffffb 	bne	800160e0 <delay+0x18>
800160f0:	e8bd8070 	pop	{r4, r5, r6, pc}

800160f4 <led_on>:
800160f4:	e92d4010 	push	{r4, lr}
800160f8:	e3a01001 	mov	r1, #1
800160fc:	e3a00012 	mov	r0, #18
80016100:	ebffe60d 	bl	8000f93c <setgpiofunc>
80016104:	e3a01001 	mov	r1, #1
80016108:	e3a00012 	mov	r0, #18
8001610c:	e8bd4010 	pop	{r4, lr}
80016110:	eaffe5f6 	b	8000f8f0 <setgpioval>

80016114 <led_off>:
80016114:	e92d4010 	push	{r4, lr}
80016118:	e3a01001 	mov	r1, #1
8001611c:	e3a00012 	mov	r0, #18
80016120:	ebffe605 	bl	8000f93c <setgpiofunc>
80016124:	e3a01000 	mov	r1, #0
80016128:	e3a00012 	mov	r0, #18
8001612c:	e8bd4010 	pop	{r4, lr}
80016130:	eaffe5ee 	b	8000f8f0 <setgpioval>

80016134 <DeviceNameService>:
80016134:	e30a3908 	movw	r3, #43272	; 0xa908
80016138:	e3a02000 	mov	r2, #0
8001613c:	e3483009 	movt	r3, #32777	; 0x8009
80016140:	e5802000 	str	r2, [r0]
80016144:	e5830000 	str	r0, [r3]
80016148:	e12fff1e 	bx	lr

8001614c <_DeviceNameService>:
8001614c:	e92d4070 	push	{r4, r5, r6, lr}
80016150:	e5904000 	ldr	r4, [r0]
80016154:	e3540000 	cmp	r4, #0
80016158:	0a00000c 	beq	80016190 <_DeviceNameService+0x44>
8001615c:	e1a05000 	mov	r5, r0
80016160:	e3a06000 	mov	r6, #0
80016164:	e5940004 	ldr	r0, [r4, #4]
80016168:	e5944000 	ldr	r4, [r4]
8001616c:	ebffee27 	bl	80011a10 <free>
80016170:	e5953000 	ldr	r3, [r5]
80016174:	e5836004 	str	r6, [r3, #4]
80016178:	e1a00003 	mov	r0, r3
8001617c:	e5836008 	str	r6, [r3, #8]
80016180:	ebffee22 	bl	80011a10 <free>
80016184:	e5854000 	str	r4, [r5]
80016188:	e3540000 	cmp	r4, #0
8001618c:	1afffff4 	bne	80016164 <_DeviceNameService+0x18>
80016190:	e30a3908 	movw	r3, #43272	; 0xa908
80016194:	e3a02000 	mov	r2, #0
80016198:	e3483009 	movt	r3, #32777	; 0x8009
8001619c:	e5832000 	str	r2, [r3]
800161a0:	e8bd8070 	pop	{r4, r5, r6, pc}

800161a4 <DeviceNameServiceAddDevice>:
800161a4:	e92d41f0 	push	{r4, r5, r6, r7, r8, lr}
800161a8:	e1a05000 	mov	r5, r0
800161ac:	e3a00010 	mov	r0, #16
800161b0:	e1a06001 	mov	r6, r1
800161b4:	e1a08002 	mov	r8, r2
800161b8:	e1a07003 	mov	r7, r3
800161bc:	ebffee0c 	bl	800119f4 <malloc>
800161c0:	e1a04000 	mov	r4, r0
800161c4:	e1a00006 	mov	r0, r6
800161c8:	ebfff221 	bl	80012a54 <uspi_strlen>
800161cc:	e2800001 	add	r0, r0, #1
800161d0:	ebffee07 	bl	800119f4 <malloc>
800161d4:	e5840004 	str	r0, [r4, #4]
800161d8:	e1a01006 	mov	r1, r6
800161dc:	ebfff23c 	bl	80012ad4 <uspi_strcpy>
800161e0:	e5951000 	ldr	r1, [r5]
800161e4:	e5848008 	str	r8, [r4, #8]
800161e8:	e584700c 	str	r7, [r4, #12]
800161ec:	e5841000 	str	r1, [r4]
800161f0:	e5854000 	str	r4, [r5]
800161f4:	e8bd81f0 	pop	{r4, r5, r6, r7, r8, pc}

800161f8 <DeviceNameServiceGetDevice>:
800161f8:	e92d4070 	push	{r4, r5, r6, lr}
800161fc:	e5904000 	ldr	r4, [r0]
80016200:	e3540000 	cmp	r4, #0
80016204:	0a00000c 	beq	8001623c <DeviceNameServiceGetDevice+0x44>
80016208:	e1a05001 	mov	r5, r1
8001620c:	e1a06002 	mov	r6, r2
80016210:	e5941004 	ldr	r1, [r4, #4]
80016214:	e1a00005 	mov	r0, r5
80016218:	ebfff217 	bl	80012a7c <uspi_strcmp>
8001621c:	e3500000 	cmp	r0, #0
80016220:	1a000002 	bne	80016230 <DeviceNameServiceGetDevice+0x38>
80016224:	e594300c 	ldr	r3, [r4, #12]
80016228:	e1530006 	cmp	r3, r6
8001622c:	0a000004 	beq	80016244 <DeviceNameServiceGetDevice+0x4c>
80016230:	e5944000 	ldr	r4, [r4]
80016234:	e3540000 	cmp	r4, #0
80016238:	1afffff4 	bne	80016210 <DeviceNameServiceGetDevice+0x18>
8001623c:	e3a00000 	mov	r0, #0
80016240:	e8bd8070 	pop	{r4, r5, r6, pc}
80016244:	e5940008 	ldr	r0, [r4, #8]
80016248:	e8bd8070 	pop	{r4, r5, r6, pc}

8001624c <DeviceNameServiceGet>:
8001624c:	e30a3908 	movw	r3, #43272	; 0xa908
80016250:	e3483009 	movt	r3, #32777	; 0x8009
80016254:	e5930000 	ldr	r0, [r3]
80016258:	e12fff1e 	bx	lr

8001625c <BitGetUnsigned>:
8001625c:	e92d4ff0 	push	{r4, r5, r6, r7, r8, r9, sl, fp, lr}
80016260:	e24dd00c 	sub	sp, sp, #12
80016264:	e081e002 	add	lr, r1, r2
80016268:	e1a051a1 	lsr	r5, r1, #3
8001626c:	e28e7007 	add	r7, lr, #7
80016270:	e1a071a7 	lsr	r7, r7, #3
80016274:	e1550007 	cmp	r5, r7
80016278:	2a000030 	bcs	80016340 <BitGetUnsigned+0xe4>
8001627c:	e0807007 	add	r7, r0, r7
80016280:	e2011007 	and	r1, r1, #7
80016284:	e0814002 	add	r4, r1, r2
80016288:	e3a03001 	mov	r3, #1
8001628c:	e080c005 	add	ip, r0, r5
80016290:	e24ee001 	sub	lr, lr, #1
80016294:	e1a04413 	lsl	r4, r3, r4
80016298:	e3a06000 	mov	r6, #0
8001629c:	e1a03113 	lsl	r3, r3, r1
800162a0:	e6ef4074 	uxtb	r4, r4
800162a4:	e1e08000 	mvn	r8, r0
800162a8:	e6ef3073 	uxtb	r3, r3
800162ac:	e044a003 	sub	sl, r4, r3
800162b0:	e2444001 	sub	r4, r4, #1
800162b4:	e2633000 	rsb	r3, r3, #0
800162b8:	e6ef0074 	uxtb	r0, r4
800162bc:	e58d0004 	str	r0, [sp, #4]
800162c0:	e6efa07a 	uxtb	sl, sl
800162c4:	e1a0e1ae 	lsr	lr, lr, #3
800162c8:	e6ef9073 	uxtb	r9, r3
800162cc:	e261b008 	rsb	fp, r1, #8
800162d0:	e1a00006 	mov	r0, r6
800162d4:	ea000008 	b	800162fc <BitGetUnsigned+0xa0>
800162d8:	e15e0004 	cmp	lr, r4
800162dc:	12866008 	addne	r6, r6, #8
800162e0:	059d4004 	ldreq	r4, [sp, #4]
800162e4:	10424006 	subne	r4, r2, r6
800162e8:	00033004 	andeq	r3, r3, r4
800162ec:	01800003 	orreq	r0, r0, r3
800162f0:	11800413 	orrne	r0, r0, r3, lsl r4
800162f4:	e157000c 	cmp	r7, ip
800162f8:	0a00000e 	beq	80016338 <BitGetUnsigned+0xdc>
800162fc:	e4dc3001 	ldrb	r3, [ip], #1
80016300:	e15e0005 	cmp	lr, r5
80016304:	000a0003 	andeq	r0, sl, r3
80016308:	e088400c 	add	r4, r8, ip
8001630c:	01a00150 	asreq	r0, r0, r1
80016310:	0afffff7 	beq	800162f4 <BitGetUnsigned+0x98>
80016314:	e1540005 	cmp	r4, r5
80016318:	1affffee 	bne	800162d8 <BitGetUnsigned+0x7c>
8001631c:	e0090003 	and	r0, r9, r3
80016320:	e086600b 	add	r6, r6, fp
80016324:	e1a00150 	asr	r0, r0, r1
80016328:	e0423006 	sub	r3, r2, r6
8001632c:	e157000c 	cmp	r7, ip
80016330:	e1a00310 	lsl	r0, r0, r3
80016334:	1afffff0 	bne	800162fc <BitGetUnsigned+0xa0>
80016338:	e28dd00c 	add	sp, sp, #12
8001633c:	e8bd8ff0 	pop	{r4, r5, r6, r7, r8, r9, sl, fp, pc}
80016340:	e3a00000 	mov	r0, #0
80016344:	e28dd00c 	add	sp, sp, #12
80016348:	e8bd8ff0 	pop	{r4, r5, r6, r7, r8, r9, sl, fp, pc}

8001634c <USBGamePadDeviceDecodeReport>:
8001634c:	e92d4ff0 	push	{r4, r5, r6, r7, r8, r9, sl, fp, lr}
80016350:	e24dd04c 	sub	sp, sp, #76	; 0x4c
80016354:	e1d0acb0 	ldrh	sl, [r0, #192]	; 0xc0
80016358:	e59020cc 	ldr	r2, [r0, #204]	; 0xcc
8001635c:	e58d0014 	str	r0, [sp, #20]
80016360:	e35a0000 	cmp	sl, #0
80016364:	e58d2004 	str	r2, [sp, #4]
80016368:	e59070c4 	ldr	r7, [r0, #196]	; 0xc4
8001636c:	0a000106 	beq	8001678c <USBGamePadDeviceDecodeReport+0x440>
80016370:	e30342eb 	movw	r4, #13035	; 0x32eb
80016374:	e3a05000 	mov	r5, #0
80016378:	e34f48a4 	movt	r4, #63652	; 0xf8a4
8001637c:	e1a0b005 	mov	fp, r5
80016380:	e58d4010 	str	r4, [sp, #16]
80016384:	e1a06004 	mov	r6, r4
80016388:	e58d4000 	str	r4, [sp]
8001638c:	e1a08005 	mov	r8, r5
80016390:	e58d501c 	str	r5, [sp, #28]
80016394:	e1a09005 	mov	r9, r5
80016398:	e58d5018 	str	r5, [sp, #24]
8001639c:	e58d5008 	str	r5, [sp, #8]
800163a0:	ea000013 	b	800163f4 <USBGamePadDeviceDecodeReport+0xa8>
800163a4:	e5970001 	ldr	r0, [r7, #1]
800163a8:	e24aa005 	sub	sl, sl, #5
800163ac:	e6ffa07a 	uxth	sl, sl
800163b0:	e2877005 	add	r7, r7, #5
800163b4:	e20330fc 	and	r3, r3, #252	; 0xfc
800163b8:	e3530084 	cmp	r3, #132	; 0x84
800163bc:	0a00001c 	beq	80016434 <USBGamePadDeviceDecodeReport+0xe8>
800163c0:	e3530034 	cmp	r3, #52	; 0x34
800163c4:	0a000055 	beq	80016520 <USBGamePadDeviceDecodeReport+0x1d4>
800163c8:	8a000036 	bhi	800164a8 <USBGamePadDeviceDecodeReport+0x15c>
800163cc:	e3530008 	cmp	r3, #8
800163d0:	0a000054 	beq	80016528 <USBGamePadDeviceDecodeReport+0x1dc>
800163d4:	9a00002d 	bls	80016490 <USBGamePadDeviceDecodeReport+0x144>
800163d8:	e3530014 	cmp	r3, #20
800163dc:	058d0000 	streq	r0, [sp]
800163e0:	0a000001 	beq	800163ec <USBGamePadDeviceDecodeReport+0xa0>
800163e4:	e3530024 	cmp	r3, #36	; 0x24
800163e8:	01a06000 	moveq	r6, r0
800163ec:	e35a0000 	cmp	sl, #0
800163f0:	0a00001c 	beq	80016468 <USBGamePadDeviceDecodeReport+0x11c>
800163f4:	e5d73000 	ldrb	r3, [r7]
800163f8:	e2032003 	and	r2, r3, #3
800163fc:	e3520001 	cmp	r2, #1
80016400:	0a000041 	beq	8001650c <USBGamePadDeviceDecodeReport+0x1c0>
80016404:	e6af0072 	sxtb	r0, r2
80016408:	e3500000 	cmp	r0, #0
8001640c:	0a00003a 	beq	800164fc <USBGamePadDeviceDecodeReport+0x1b0>
80016410:	e3520002 	cmp	r2, #2
80016414:	1affffe2 	bne	800163a4 <USBGamePadDeviceDecodeReport+0x58>
80016418:	e1d700b1 	ldrh	r0, [r7, #1]
8001641c:	e20330fc 	and	r3, r3, #252	; 0xfc
80016420:	e3530084 	cmp	r3, #132	; 0x84
80016424:	e24aa003 	sub	sl, sl, #3
80016428:	e6ffa07a 	uxth	sl, sl
8001642c:	e2877003 	add	r7, r7, #3
80016430:	1affffe2 	bne	800163c0 <USBGamePadDeviceDecodeReport+0x74>
80016434:	e35b0000 	cmp	fp, #0
80016438:	1a00000a 	bne	80016468 <USBGamePadDeviceDecodeReport+0x11c>
8001643c:	e1a0100b 	mov	r1, fp
80016440:	e3a02008 	mov	r2, #8
80016444:	e1a0b000 	mov	fp, r0
80016448:	e59d0004 	ldr	r0, [sp, #4]
8001644c:	ebffff82 	bl	8001625c <BitGetUnsigned>
80016450:	e3500000 	cmp	r0, #0
80016454:	115b0000 	cmpne	fp, r0
80016458:	1a00000a 	bne	80016488 <USBGamePadDeviceDecodeReport+0x13c>
8001645c:	e35a0000 	cmp	sl, #0
80016460:	e3a09008 	mov	r9, #8
80016464:	1affffe2 	bne	800163f4 <USBGamePadDeviceDecodeReport+0xa8>
80016468:	e2893007 	add	r3, r9, #7
8001646c:	e7efa1d3 	ubfx	sl, r3, #3, #16
80016470:	e59d3014 	ldr	r3, [sp, #20]
80016474:	e59d2018 	ldr	r2, [sp, #24]
80016478:	e1c3adb0 	strh	sl, [r3, #208]	; 0xd0
8001647c:	e583204c 	str	r2, [r3, #76]	; 0x4c
80016480:	e59d201c 	ldr	r2, [sp, #28]
80016484:	e5832098 	str	r2, [r3, #152]	; 0x98
80016488:	e28dd04c 	add	sp, sp, #76	; 0x4c
8001648c:	e8bd8ff0 	pop	{r4, r5, r6, r7, r8, r9, sl, fp, pc}
80016490:	e3530004 	cmp	r3, #4
80016494:	1affffd4 	bne	800163ec <USBGamePadDeviceDecodeReport+0xa0>
80016498:	e3550001 	cmp	r5, #1
8001649c:	03500009 	cmpeq	r0, #9
800164a0:	03a05002 	moveq	r5, #2
800164a4:	eaffffd0 	b	800163ec <USBGamePadDeviceDecodeReport+0xa0>
800164a8:	e3530074 	cmp	r3, #116	; 0x74
800164ac:	058d0008 	streq	r0, [sp, #8]
800164b0:	0affffcd 	beq	800163ec <USBGamePadDeviceDecodeReport+0xa0>
800164b4:	9a00000a 	bls	800164e4 <USBGamePadDeviceDecodeReport+0x198>
800164b8:	e3530080 	cmp	r3, #128	; 0x80
800164bc:	1a00000b 	bne	800164f0 <USBGamePadDeviceDecodeReport+0x1a4>
800164c0:	e59d3008 	ldr	r3, [sp, #8]
800164c4:	e2000003 	and	r0, r0, #3
800164c8:	e3500002 	cmp	r0, #2
800164cc:	e0030893 	mul	r3, r3, r8
800164d0:	e58d300c 	str	r3, [sp, #12]
800164d4:	0a000020 	beq	8001655c <USBGamePadDeviceDecodeReport+0x210>
800164d8:	e59d300c 	ldr	r3, [sp, #12]
800164dc:	e0899003 	add	r9, r9, r3
800164e0:	eaffffc1 	b	800163ec <USBGamePadDeviceDecodeReport+0xa0>
800164e4:	e3530044 	cmp	r3, #68	; 0x44
800164e8:	01a04000 	moveq	r4, r0
800164ec:	eaffffbe 	b	800163ec <USBGamePadDeviceDecodeReport+0xa0>
800164f0:	e3530094 	cmp	r3, #148	; 0x94
800164f4:	01a08000 	moveq	r8, r0
800164f8:	eaffffbb 	b	800163ec <USBGamePadDeviceDecodeReport+0xa0>
800164fc:	e24aa001 	sub	sl, sl, #1
80016500:	e2877001 	add	r7, r7, #1
80016504:	e6ffa07a 	uxth	sl, sl
80016508:	eaffffa9 	b	800163b4 <USBGamePadDeviceDecodeReport+0x68>
8001650c:	e5d70001 	ldrb	r0, [r7, #1]
80016510:	e24aa002 	sub	sl, sl, #2
80016514:	e6ffa07a 	uxth	sl, sl
80016518:	e2877002 	add	r7, r7, #2
8001651c:	eaffffa4 	b	800163b4 <USBGamePadDeviceDecodeReport+0x68>
80016520:	e58d0010 	str	r0, [sp, #16]
80016524:	eaffffb0 	b	800163ec <USBGamePadDeviceDecodeReport+0xa0>
80016528:	e3500036 	cmp	r0, #54	; 0x36
8001652c:	ca000005 	bgt	80016548 <USBGamePadDeviceDecodeReport+0x1fc>
80016530:	e3500030 	cmp	r0, #48	; 0x30
80016534:	aa000017 	bge	80016598 <USBGamePadDeviceDecodeReport+0x24c>
80016538:	e2400004 	sub	r0, r0, #4
8001653c:	e3500001 	cmp	r0, #1
80016540:	93a05001 	movls	r5, #1
80016544:	eaffffa8 	b	800163ec <USBGamePadDeviceDecodeReport+0xa0>
80016548:	e3500039 	cmp	r0, #57	; 0x39
8001654c:	1affffa6 	bne	800163ec <USBGamePadDeviceDecodeReport+0xa0>
80016550:	e3550001 	cmp	r5, #1
80016554:	03a05004 	moveq	r5, #4
80016558:	eaffffa3 	b	800163ec <USBGamePadDeviceDecodeReport+0xa0>
8001655c:	e3550003 	cmp	r5, #3
80016560:	0a00000f 	beq	800165a4 <USBGamePadDeviceDecodeReport+0x258>
80016564:	e3550004 	cmp	r5, #4
80016568:	0a00005b 	beq	800166dc <USBGamePadDeviceDecodeReport+0x390>
8001656c:	e3550002 	cmp	r5, #2
80016570:	1affffd8 	bne	800164d8 <USBGamePadDeviceDecodeReport+0x18c>
80016574:	e59d5014 	ldr	r5, [sp, #20]
80016578:	e1a01009 	mov	r1, r9
8001657c:	e59d200c 	ldr	r2, [sp, #12]
80016580:	e58580b4 	str	r8, [r5, #180]	; 0xb4
80016584:	e59d0004 	ldr	r0, [sp, #4]
80016588:	ebffff33 	bl	8001625c <BitGetUnsigned>
8001658c:	e58500b8 	str	r0, [r5, #184]	; 0xb8
80016590:	e3a05001 	mov	r5, #1
80016594:	eaffffcf 	b	800164d8 <USBGamePadDeviceDecodeReport+0x18c>
80016598:	e3550001 	cmp	r5, #1
8001659c:	03a05003 	moveq	r5, #3
800165a0:	eaffff91 	b	800163ec <USBGamePadDeviceDecodeReport+0xa0>
800165a4:	e3580000 	cmp	r8, #0
800165a8:	0a00007a 	beq	80016798 <USBGamePadDeviceDecodeReport+0x44c>
800165ac:	e59dc018 	ldr	ip, [sp, #24]
800165b0:	e303e2eb 	movw	lr, #13035	; 0x32eb
800165b4:	e59d0008 	ldr	r0, [sp, #8]
800165b8:	e34fe8a4 	movt	lr, #63652	; 0xf8a4
800165bc:	e28c3001 	add	r3, ip, #1
800165c0:	e58d302c 	str	r3, [sp, #44]	; 0x2c
800165c4:	e2401001 	sub	r1, r0, #1
800165c8:	e59d5010 	ldr	r5, [sp, #16]
800165cc:	e3a03001 	mov	r3, #1
800165d0:	e58d9028 	str	r9, [sp, #40]	; 0x28
800165d4:	e1a01113 	lsl	r1, r3, r1
800165d8:	e58d1020 	str	r1, [sp, #32]
800165dc:	e59d1000 	ldr	r1, [sp]
800165e0:	e1a02013 	lsl	r2, r3, r0
800165e4:	e3a03000 	mov	r3, #0
800165e8:	e151000e 	cmp	r1, lr
800165ec:	e2622000 	rsb	r2, r2, #0
800165f0:	e58d2024 	str	r2, [sp, #36]	; 0x24
800165f4:	e1a02001 	mov	r2, r1
800165f8:	e58d4030 	str	r4, [sp, #48]	; 0x30
800165fc:	01a02005 	moveq	r2, r5
80016600:	e156000e 	cmp	r6, lr
80016604:	e59de014 	ldr	lr, [sp, #20]
80016608:	11a01006 	movne	r1, r6
8001660c:	e58db034 	str	fp, [sp, #52]	; 0x34
80016610:	01a01004 	moveq	r1, r4
80016614:	e58d1018 	str	r1, [sp, #24]
80016618:	e3a0100c 	mov	r1, #12
8001661c:	e58d7038 	str	r7, [sp, #56]	; 0x38
80016620:	e1a04003 	mov	r4, r3
80016624:	e58da03c 	str	sl, [sp, #60]	; 0x3c
80016628:	e1a07002 	mov	r7, r2
8001662c:	e58d9040 	str	r9, [sp, #64]	; 0x40
80016630:	e1a0a000 	mov	sl, r0
80016634:	e58d6044 	str	r6, [sp, #68]	; 0x44
80016638:	e025ec91 	mla	r5, r1, ip, lr
8001663c:	e59d9004 	ldr	r9, [sp, #4]
80016640:	e59d6028 	ldr	r6, [sp, #40]	; 0x28
80016644:	e59db02c 	ldr	fp, [sp, #44]	; 0x2c
80016648:	ea00000c 	b	80016680 <USBGamePadDeviceDecodeReport+0x334>
8001664c:	ebffff02 	bl	8001625c <BitGetUnsigned>
80016650:	e08b1004 	add	r1, fp, r4
80016654:	e2844001 	add	r4, r4, #1
80016658:	e1580004 	cmp	r8, r4
8001665c:	e285500c 	add	r5, r5, #12
80016660:	e5850044 	str	r0, [r5, #68]	; 0x44
80016664:	93a02000 	movls	r2, #0
80016668:	e086600a 	add	r6, r6, sl
8001666c:	83a02001 	movhi	r2, #1
80016670:	e3540005 	cmp	r4, #5
80016674:	c3a02000 	movgt	r2, #0
80016678:	e3520000 	cmp	r2, #0
8001667c:	0a00000d 	beq	800166b8 <USBGamePadDeviceDecodeReport+0x36c>
80016680:	e59d3018 	ldr	r3, [sp, #24]
80016684:	e3570000 	cmp	r7, #0
80016688:	e5857054 	str	r7, [r5, #84]	; 0x54
8001668c:	e1a0200a 	mov	r2, sl
80016690:	e5853058 	str	r3, [r5, #88]	; 0x58
80016694:	e1a01006 	mov	r1, r6
80016698:	e1a00009 	mov	r0, r9
8001669c:	aaffffea 	bge	8001664c <USBGamePadDeviceDecodeReport+0x300>
800166a0:	ebfffeed 	bl	8001625c <BitGetUnsigned>
800166a4:	e59d3020 	ldr	r3, [sp, #32]
800166a8:	e1100003 	tst	r0, r3
800166ac:	159d3024 	ldrne	r3, [sp, #36]	; 0x24
800166b0:	11800003 	orrne	r0, r0, r3
800166b4:	eaffffe5 	b	80016650 <USBGamePadDeviceDecodeReport+0x304>
800166b8:	e59d4030 	ldr	r4, [sp, #48]	; 0x30
800166bc:	e3a05001 	mov	r5, #1
800166c0:	e58d1018 	str	r1, [sp, #24]
800166c4:	e59db034 	ldr	fp, [sp, #52]	; 0x34
800166c8:	e59d7038 	ldr	r7, [sp, #56]	; 0x38
800166cc:	e59da03c 	ldr	sl, [sp, #60]	; 0x3c
800166d0:	e59d9040 	ldr	r9, [sp, #64]	; 0x40
800166d4:	e59d6044 	ldr	r6, [sp, #68]	; 0x44
800166d8:	eaffff7e 	b	800164d8 <USBGamePadDeviceDecodeReport+0x18c>
800166dc:	e3580000 	cmp	r8, #0
800166e0:	0a00002c 	beq	80016798 <USBGamePadDeviceDecodeReport+0x44c>
800166e4:	e59d201c 	ldr	r2, [sp, #28]
800166e8:	e1a01009 	mov	r1, r9
800166ec:	e59d3014 	ldr	r3, [sp, #20]
800166f0:	e3a05000 	mov	r5, #0
800166f4:	e58d401c 	str	r4, [sp, #28]
800166f8:	e1a04001 	mov	r4, r1
800166fc:	e0833102 	add	r3, r3, r2, lsl #2
80016700:	e2822001 	add	r2, r2, #1
80016704:	e58d7024 	str	r7, [sp, #36]	; 0x24
80016708:	e2833098 	add	r3, r3, #152	; 0x98
8001670c:	e58da028 	str	sl, [sp, #40]	; 0x28
80016710:	e1a0a002 	mov	sl, r2
80016714:	e58d902c 	str	r9, [sp, #44]	; 0x2c
80016718:	e58d6030 	str	r6, [sp, #48]	; 0x30
8001671c:	e1a06003 	mov	r6, r3
80016720:	e59d9004 	ldr	r9, [sp, #4]
80016724:	e59d7008 	ldr	r7, [sp, #8]
80016728:	e58db020 	str	fp, [sp, #32]
8001672c:	e08ab005 	add	fp, sl, r5
80016730:	e1a02007 	mov	r2, r7
80016734:	e2855001 	add	r5, r5, #1
80016738:	e1a01004 	mov	r1, r4
8001673c:	e0844007 	add	r4, r4, r7
80016740:	e1a00009 	mov	r0, r9
80016744:	ebfffec4 	bl	8001625c <BitGetUnsigned>
80016748:	e1550008 	cmp	r5, r8
8001674c:	e5a60004 	str	r0, [r6, #4]!
80016750:	23a02000 	movcs	r2, #0
80016754:	33a02001 	movcc	r2, #1
80016758:	e3550005 	cmp	r5, #5
8001675c:	c3a02000 	movgt	r2, #0
80016760:	e3520000 	cmp	r2, #0
80016764:	1afffff0 	bne	8001672c <USBGamePadDeviceDecodeReport+0x3e0>
80016768:	e59d401c 	ldr	r4, [sp, #28]
8001676c:	e3a05001 	mov	r5, #1
80016770:	e58db01c 	str	fp, [sp, #28]
80016774:	e59d7024 	ldr	r7, [sp, #36]	; 0x24
80016778:	e59db020 	ldr	fp, [sp, #32]
8001677c:	e59da028 	ldr	sl, [sp, #40]	; 0x28
80016780:	e59d902c 	ldr	r9, [sp, #44]	; 0x2c
80016784:	e59d6030 	ldr	r6, [sp, #48]	; 0x30
80016788:	eaffff52 	b	800164d8 <USBGamePadDeviceDecodeReport+0x18c>
8001678c:	e58da01c 	str	sl, [sp, #28]
80016790:	e58da018 	str	sl, [sp, #24]
80016794:	eaffff35 	b	80016470 <USBGamePadDeviceDecodeReport+0x124>
80016798:	e3a05001 	mov	r5, #1
8001679c:	eaffff4d 	b	800164d8 <USBGamePadDeviceDecodeReport+0x18c>

800167a0 <USBGamePadDeviceStartRequest>:
800167a0:	e92d4030 	push	{r4, r5, lr}
800167a4:	e1a04000 	mov	r4, r0
800167a8:	e24dd00c 	sub	sp, sp, #12
800167ac:	e3a00024 	mov	r0, #36	; 0x24
800167b0:	e3a05000 	mov	r5, #0
800167b4:	ebffec8e 	bl	800119f4 <malloc>
800167b8:	e58400c8 	str	r0, [r4, #200]	; 0xc8
800167bc:	e1d43db0 	ldrh	r3, [r4, #208]	; 0xd0
800167c0:	e59420cc 	ldr	r2, [r4, #204]	; 0xcc
800167c4:	e5941044 	ldr	r1, [r4, #68]	; 0x44
800167c8:	e58d5000 	str	r5, [sp]
800167cc:	ebffeea4 	bl	80012264 <USBRequest>
800167d0:	e59400c8 	ldr	r0, [r4, #200]	; 0xc8
800167d4:	e3061c00 	movw	r1, #27648	; 0x6c00
800167d8:	e3481001 	movt	r1, #32769	; 0x8001
800167dc:	e1a03004 	mov	r3, r4
800167e0:	e1a02005 	mov	r2, r5
800167e4:	ebffeebf 	bl	800122e8 <USBRequestSetCompletionRoutine>
800167e8:	e1a00004 	mov	r0, r4
800167ec:	ebffd21a 	bl	8000b05c <USBDeviceGetHost>
800167f0:	e59410c8 	ldr	r1, [r4, #200]	; 0xc8
800167f4:	e28dd00c 	add	sp, sp, #12
800167f8:	e8bd4030 	pop	{r4, r5, lr}
800167fc:	eafff707 	b	80014420 <DWHCIDeviceSubmitAsyncRequest>

80016800 <USBGamePadDeviceConfigure>:
80016800:	e92d40f0 	push	{r4, r5, r6, r7, lr}
80016804:	e3a01002 	mov	r1, #2
80016808:	e24dd024 	sub	sp, sp, #36	; 0x24
8001680c:	e1a04000 	mov	r4, r0
80016810:	ebffd217 	bl	8000b074 <USBDeviceGetDescriptor>
80016814:	e3500000 	cmp	r0, #0
80016818:	0a000002 	beq	80016828 <USBGamePadDeviceConfigure+0x28>
8001681c:	e5d03004 	ldrb	r3, [r0, #4]
80016820:	e3530000 	cmp	r3, #0
80016824:	1a000007 	bne	80016848 <USBGamePadDeviceConfigure+0x48>
80016828:	e3091640 	movw	r1, #38464	; 0x9640
8001682c:	e1a00004 	mov	r0, r4
80016830:	e3481001 	movt	r1, #32769	; 0x8001
80016834:	e3a05000 	mov	r5, #0
80016838:	ebffd20f 	bl	8000b07c <USBDeviceConfigurationError>
8001683c:	e1a00005 	mov	r0, r5
80016840:	e28dd024 	add	sp, sp, #36	; 0x24
80016844:	e8bd80f0 	pop	{r4, r5, r6, r7, pc}
80016848:	e3a01004 	mov	r1, #4
8001684c:	e1a00004 	mov	r0, r4
80016850:	ebffd207 	bl	8000b074 <USBDeviceGetDescriptor>
80016854:	e2503000 	subs	r3, r0, #0
80016858:	0afffff2 	beq	80016828 <USBGamePadDeviceConfigure+0x28>
8001685c:	e5d32004 	ldrb	r2, [r3, #4]
80016860:	e3520000 	cmp	r2, #0
80016864:	0affffef 	beq	80016828 <USBGamePadDeviceConfigure+0x28>
80016868:	e5d32005 	ldrb	r2, [r3, #5]
8001686c:	e3520003 	cmp	r2, #3
80016870:	1affffec 	bne	80016828 <USBGamePadDeviceConfigure+0x28>
80016874:	e5d32006 	ldrb	r2, [r3, #6]
80016878:	e3520000 	cmp	r2, #0
8001687c:	1affffe9 	bne	80016828 <USBGamePadDeviceConfigure+0x28>
80016880:	e5d32007 	ldrb	r2, [r3, #7]
80016884:	e3520000 	cmp	r2, #0
80016888:	1affffe6 	bne	80016828 <USBGamePadDeviceConfigure+0x28>
8001688c:	e5d32002 	ldrb	r2, [r3, #2]
80016890:	e3a01021 	mov	r1, #33	; 0x21
80016894:	e1a00004 	mov	r0, r4
80016898:	e5c42040 	strb	r2, [r4, #64]	; 0x40
8001689c:	e5d33003 	ldrb	r3, [r3, #3]
800168a0:	e5c43041 	strb	r3, [r4, #65]	; 0x41
800168a4:	ebffd1f2 	bl	8000b074 <USBDeviceGetDescriptor>
800168a8:	e2507000 	subs	r7, r0, #0
800168ac:	0affffdd 	beq	80016828 <USBGamePadDeviceConfigure+0x28>
800168b0:	e1d730b7 	ldrh	r3, [r7, #7]
800168b4:	e3530000 	cmp	r3, #0
800168b8:	1a000004 	bne	800168d0 <USBGamePadDeviceConfigure+0xd0>
800168bc:	eaffffd9 	b	80016828 <USBGamePadDeviceConfigure+0x28>
800168c0:	e5d63003 	ldrb	r3, [r6, #3]
800168c4:	e203303f 	and	r3, r3, #63	; 0x3f
800168c8:	e3530003 	cmp	r3, #3
800168cc:	0a000029 	beq	80016978 <USBGamePadDeviceConfigure+0x178>
800168d0:	e3a01005 	mov	r1, #5
800168d4:	e1a00004 	mov	r0, r4
800168d8:	ebffd1e5 	bl	8000b074 <USBDeviceGetDescriptor>
800168dc:	e2506000 	subs	r6, r0, #0
800168e0:	1afffff6 	bne	800168c0 <USBGamePadDeviceConfigure+0xc0>
800168e4:	e5945044 	ldr	r5, [r4, #68]	; 0x44
800168e8:	e3550000 	cmp	r5, #0
800168ec:	0a000063 	beq	80016a80 <USBGamePadDeviceConfigure+0x280>
800168f0:	e1d700b7 	ldrh	r0, [r7, #7]
800168f4:	e1c40cb0 	strh	r0, [r4, #192]	; 0xc0
800168f8:	ebffec3d 	bl	800119f4 <malloc>
800168fc:	e58400c4 	str	r0, [r4, #196]	; 0xc4
80016900:	e1a00004 	mov	r0, r4
80016904:	ebffd1d4 	bl	8000b05c <USBDeviceGetHost>
80016908:	e1a05000 	mov	r5, r0
8001690c:	e1a00004 	mov	r0, r4
80016910:	ebffd1cf 	bl	8000b054 <USBDeviceGetEndpoint0>
80016914:	e1d730b7 	ldrh	r3, [r7, #7]
80016918:	e1a01000 	mov	r1, r0
8001691c:	e59420c4 	ldr	r2, [r4, #196]	; 0xc4
80016920:	e1a00005 	mov	r0, r5
80016924:	e5d4c040 	ldrb	ip, [r4, #64]	; 0x40
80016928:	e58d300c 	str	r3, [sp, #12]
8001692c:	e3a03006 	mov	r3, #6
80016930:	e58d2008 	str	r2, [sp, #8]
80016934:	e3a02081 	mov	r2, #129	; 0x81
80016938:	e58dc004 	str	ip, [sp, #4]
8001693c:	e5d7c006 	ldrb	ip, [r7, #6]
80016940:	e1a0c40c 	lsl	ip, ip, #8
80016944:	e58dc000 	str	ip, [sp]
80016948:	ebfff738 	bl	80014630 <DWHCIDeviceControlMessage>
8001694c:	e1d730b7 	ldrh	r3, [r7, #7]
80016950:	e1500003 	cmp	r0, r3
80016954:	0a000014 	beq	800169ac <USBGamePadDeviceConfigure+0x1ac>
80016958:	e3092650 	movw	r2, #38480	; 0x9650
8001695c:	e3090640 	movw	r0, #38464	; 0x9640
80016960:	e3482001 	movt	r2, #32769	; 0x8001
80016964:	e3a01001 	mov	r1, #1
80016968:	e3480001 	movt	r0, #32769	; 0x8001
8001696c:	e1a05006 	mov	r5, r6
80016970:	ebffec79 	bl	80011b5c <LogWrite>
80016974:	eaffffb0 	b	8001683c <USBGamePadDeviceConfigure+0x3c>
80016978:	e1d630d2 	ldrsb	r3, [r6, #2]
8001697c:	e3a0001c 	mov	r0, #28
80016980:	e3530000 	cmp	r3, #0
80016984:	ba000034 	blt	80016a5c <USBGamePadDeviceConfigure+0x25c>
80016988:	e5943048 	ldr	r3, [r4, #72]	; 0x48
8001698c:	e3530000 	cmp	r3, #0
80016990:	1affffa4 	bne	80016828 <USBGamePadDeviceConfigure+0x28>
80016994:	ebffec16 	bl	800119f4 <malloc>
80016998:	e5840048 	str	r0, [r4, #72]	; 0x48
8001699c:	e1a02006 	mov	r2, r6
800169a0:	e1a01004 	mov	r1, r4
800169a4:	ebffd9f4 	bl	8000d17c <USBEndpoint2>
800169a8:	eaffffc8 	b	800168d0 <USBGamePadDeviceConfigure+0xd0>
800169ac:	e59430cc 	ldr	r3, [r4, #204]	; 0xcc
800169b0:	e1a00004 	mov	r0, r4
800169b4:	e5c36000 	strb	r6, [r3]
800169b8:	ebfffe63 	bl	8001634c <USBGamePadDeviceDecodeReport>
800169bc:	e1a00004 	mov	r0, r4
800169c0:	ebffd008 	bl	8000a9e8 <USBDeviceConfigure>
800169c4:	e2505000 	subs	r5, r0, #0
800169c8:	0a000085 	beq	80016be4 <USBGamePadDeviceConfigure+0x3e4>
800169cc:	e5d43041 	ldrb	r3, [r4, #65]	; 0x41
800169d0:	e3530000 	cmp	r3, #0
800169d4:	1a000069 	bne	80016b80 <USBGamePadDeviceConfigure+0x380>
800169d8:	e5942018 	ldr	r2, [r4, #24]
800169dc:	e30a590c 	movw	r5, #43276	; 0xa90c
800169e0:	e3485009 	movt	r5, #32777	; 0x8009
800169e4:	e300154c 	movw	r1, #1356	; 0x54c
800169e8:	e5953000 	ldr	r3, [r5]
800169ec:	e584303c 	str	r3, [r4, #60]	; 0x3c
800169f0:	e2833001 	add	r3, r3, #1
800169f4:	e5853000 	str	r3, [r5]
800169f8:	e1d230b8 	ldrh	r3, [r2, #8]
800169fc:	e1530001 	cmp	r3, r1
80016a00:	0a000023 	beq	80016a94 <USBGamePadDeviceConfigure+0x294>
80016a04:	e28d0014 	add	r0, sp, #20
80016a08:	ebffc7ee 	bl	800089c8 <String>
80016a0c:	e594203c 	ldr	r2, [r4, #60]	; 0x3c
80016a10:	e30910c4 	movw	r1, #37060	; 0x90c4
80016a14:	e3481001 	movt	r1, #32769	; 0x8001
80016a18:	e28d0014 	add	r0, sp, #20
80016a1c:	ebffca22 	bl	800092ac <StringFormat>
80016a20:	ebfffe09 	bl	8001624c <DeviceNameServiceGet>
80016a24:	e1a05000 	mov	r5, r0
80016a28:	e28d0014 	add	r0, sp, #20
80016a2c:	ebffc7ff 	bl	80008a30 <StringGet>
80016a30:	e1a01000 	mov	r1, r0
80016a34:	e3a03000 	mov	r3, #0
80016a38:	e1a00005 	mov	r0, r5
80016a3c:	e1a02004 	mov	r2, r4
80016a40:	ebfffdd7 	bl	800161a4 <DeviceNameServiceAddDevice>
80016a44:	e28d0014 	add	r0, sp, #20
80016a48:	ebffc7ee 	bl	80008a08 <_String>
80016a4c:	e1a00004 	mov	r0, r4
80016a50:	ebffff52 	bl	800167a0 <USBGamePadDeviceStartRequest>
80016a54:	e1a05000 	mov	r5, r0
80016a58:	eaffff77 	b	8001683c <USBGamePadDeviceConfigure+0x3c>
80016a5c:	e5943044 	ldr	r3, [r4, #68]	; 0x44
80016a60:	e3530000 	cmp	r3, #0
80016a64:	1affff6f 	bne	80016828 <USBGamePadDeviceConfigure+0x28>
80016a68:	ebffebe1 	bl	800119f4 <malloc>
80016a6c:	e5840044 	str	r0, [r4, #68]	; 0x44
80016a70:	e1a02006 	mov	r2, r6
80016a74:	e1a01004 	mov	r1, r4
80016a78:	ebffd9bf 	bl	8000d17c <USBEndpoint2>
80016a7c:	eaffff93 	b	800168d0 <USBGamePadDeviceConfigure+0xd0>
80016a80:	e3091640 	movw	r1, #38464	; 0x9640
80016a84:	e1a00004 	mov	r0, r4
80016a88:	e3481001 	movt	r1, #32769	; 0x8001
80016a8c:	ebffd17a 	bl	8000b07c <USBDeviceConfigurationError>
80016a90:	eaffff69 	b	8001683c <USBGamePadDeviceConfigure+0x3c>
80016a94:	e1d230ba 	ldrh	r3, [r2, #10]
80016a98:	e3530f9a 	cmp	r3, #616	; 0x268
80016a9c:	1affffd8 	bne	80016a04 <USBGamePadDeviceConfigure+0x204>
80016aa0:	e59430cc 	ldr	r3, [r4, #204]	; 0xcc
80016aa4:	e3a02042 	mov	r2, #66	; 0x42
80016aa8:	e3a0100c 	mov	r1, #12
80016aac:	e1a00004 	mov	r0, r4
80016ab0:	e5c32000 	strb	r2, [r3]
80016ab4:	e3a03000 	mov	r3, #0
80016ab8:	e59420cc 	ldr	r2, [r4, #204]	; 0xcc
80016abc:	e2855004 	add	r5, r5, #4
80016ac0:	e5c21001 	strb	r1, [r2, #1]
80016ac4:	e59420cc 	ldr	r2, [r4, #204]	; 0xcc
80016ac8:	e5c23002 	strb	r3, [r2, #2]
80016acc:	e59420cc 	ldr	r2, [r4, #204]	; 0xcc
80016ad0:	e5c23003 	strb	r3, [r2, #3]
80016ad4:	ebffd160 	bl	8000b05c <USBDeviceGetHost>
80016ad8:	e1a06000 	mov	r6, r0
80016adc:	e1a00004 	mov	r0, r4
80016ae0:	ebffd15b 	bl	8000b054 <USBDeviceGetEndpoint0>
80016ae4:	e59420cc 	ldr	r2, [r4, #204]	; 0xcc
80016ae8:	e3a03004 	mov	r3, #4
80016aec:	e5d4c040 	ldrb	ip, [r4, #64]	; 0x40
80016af0:	e1a01000 	mov	r1, r0
80016af4:	e58d2008 	str	r2, [sp, #8]
80016af8:	e3a02ffd 	mov	r2, #1012	; 0x3f4
80016afc:	e58dc004 	str	ip, [sp, #4]
80016b00:	e1a00006 	mov	r0, r6
80016b04:	e58d300c 	str	r3, [sp, #12]
80016b08:	e3a03009 	mov	r3, #9
80016b0c:	e58d2000 	str	r2, [sp]
80016b10:	e3a02021 	mov	r2, #33	; 0x21
80016b14:	ebfff6c5 	bl	80014630 <DWHCIDeviceControlMessage>
80016b18:	e594203c 	ldr	r2, [r4, #60]	; 0x3c
80016b1c:	e3093640 	movw	r3, #38464	; 0x9640
80016b20:	e3483001 	movt	r3, #32769	; 0x8001
80016b24:	e1a00004 	mov	r0, r4
80016b28:	e0833002 	add	r3, r3, r2
80016b2c:	e5d52009 	ldrb	r2, [r5, #9]
80016b30:	e5d33008 	ldrb	r3, [r3, #8]
80016b34:	e1823083 	orr	r3, r2, r3, lsl #1
80016b38:	e5c53009 	strb	r3, [r5, #9]
80016b3c:	ebffd146 	bl	8000b05c <USBDeviceGetHost>
80016b40:	e1a06000 	mov	r6, r0
80016b44:	e1a00004 	mov	r0, r4
80016b48:	ebffd141 	bl	8000b054 <USBDeviceGetEndpoint0>
80016b4c:	e5d43040 	ldrb	r3, [r4, #64]	; 0x40
80016b50:	e3a02030 	mov	r2, #48	; 0x30
80016b54:	e58d200c 	str	r2, [sp, #12]
80016b58:	e1a01000 	mov	r1, r0
80016b5c:	e58d3004 	str	r3, [sp, #4]
80016b60:	e3003201 	movw	r3, #513	; 0x201
80016b64:	e58d3000 	str	r3, [sp]
80016b68:	e1a00006 	mov	r0, r6
80016b6c:	e58d5008 	str	r5, [sp, #8]
80016b70:	e3a03009 	mov	r3, #9
80016b74:	e3a02021 	mov	r2, #33	; 0x21
80016b78:	ebfff6ac 	bl	80014630 <DWHCIDeviceControlMessage>
80016b7c:	eaffffa0 	b	80016a04 <USBGamePadDeviceConfigure+0x204>
80016b80:	e1a00004 	mov	r0, r4
80016b84:	ebffd134 	bl	8000b05c <USBDeviceGetHost>
80016b88:	e1a05000 	mov	r5, r0
80016b8c:	e1a00004 	mov	r0, r4
80016b90:	ebffd12f 	bl	8000b054 <USBDeviceGetEndpoint0>
80016b94:	e5d42040 	ldrb	r2, [r4, #64]	; 0x40
80016b98:	e1a01000 	mov	r1, r0
80016b9c:	e5d4c041 	ldrb	ip, [r4, #65]	; 0x41
80016ba0:	e1a00005 	mov	r0, r5
80016ba4:	e98d0044 	stmib	sp, {r2, r6}
80016ba8:	e58d600c 	str	r6, [sp, #12]
80016bac:	e3a0300b 	mov	r3, #11
80016bb0:	e58dc000 	str	ip, [sp]
80016bb4:	e3a02001 	mov	r2, #1
80016bb8:	ebfff69c 	bl	80014630 <DWHCIDeviceControlMessage>
80016bbc:	e3500000 	cmp	r0, #0
80016bc0:	aaffff84 	bge	800169d8 <USBGamePadDeviceConfigure+0x1d8>
80016bc4:	e3082728 	movw	r2, #34600	; 0x8728
80016bc8:	e3090640 	movw	r0, #38464	; 0x9640
80016bcc:	e3482001 	movt	r2, #32769	; 0x8001
80016bd0:	e3a01001 	mov	r1, #1
80016bd4:	e3480001 	movt	r0, #32769	; 0x8001
80016bd8:	e1a05006 	mov	r5, r6
80016bdc:	ebffebde 	bl	80011b5c <LogWrite>
80016be0:	eaffff15 	b	8001683c <USBGamePadDeviceConfigure+0x3c>
80016be4:	e3072f60 	movw	r2, #32608	; 0x7f60
80016be8:	e3090640 	movw	r0, #38464	; 0x9640
80016bec:	e3482001 	movt	r2, #32769	; 0x8001
80016bf0:	e3a01001 	mov	r1, #1
80016bf4:	e3480001 	movt	r0, #32769	; 0x8001
80016bf8:	ebffebd7 	bl	80011b5c <LogWrite>
80016bfc:	eaffff0e 	b	8001683c <USBGamePadDeviceConfigure+0x3c>

80016c00 <USBGamePadDeviceCompletionRoutine>:
80016c00:	e92d4070 	push	{r4, r5, r6, lr}
80016c04:	e1a04002 	mov	r4, r2
80016c08:	e1a05000 	mov	r5, r0
80016c0c:	ebffedab 	bl	800122c0 <USBRequestGetStatus>
80016c10:	e3500000 	cmp	r0, #0
80016c14:	1a000008 	bne	80016c3c <USBGamePadDeviceCompletionRoutine+0x3c>
80016c18:	e59400c8 	ldr	r0, [r4, #200]	; 0xc8
80016c1c:	ebffed9b 	bl	80012290 <_USBRequest>
80016c20:	e59400c8 	ldr	r0, [r4, #200]	; 0xc8
80016c24:	ebffeb79 	bl	80011a10 <free>
80016c28:	e3a03000 	mov	r3, #0
80016c2c:	e1a00004 	mov	r0, r4
80016c30:	e58430c8 	str	r3, [r4, #200]	; 0xc8
80016c34:	e8bd4070 	pop	{r4, r5, r6, lr}
80016c38:	eafffed8 	b	800167a0 <USBGamePadDeviceStartRequest>
80016c3c:	e1a00005 	mov	r0, r5
80016c40:	ebffeda0 	bl	800122c8 <USBRequestGetResultLength>
80016c44:	e3500000 	cmp	r0, #0
80016c48:	0afffff2 	beq	80016c18 <USBGamePadDeviceCompletionRoutine+0x18>
80016c4c:	e59430c4 	ldr	r3, [r4, #196]	; 0xc4
80016c50:	e3530000 	cmp	r3, #0
80016c54:	0affffef 	beq	80016c18 <USBGamePadDeviceCompletionRoutine+0x18>
80016c58:	e59430bc 	ldr	r3, [r4, #188]	; 0xbc
80016c5c:	e3530000 	cmp	r3, #0
80016c60:	0affffec 	beq	80016c18 <USBGamePadDeviceCompletionRoutine+0x18>
80016c64:	e1a00004 	mov	r0, r4
80016c68:	ebfffdb7 	bl	8001634c <USBGamePadDeviceDecodeReport>
80016c6c:	e594003c 	ldr	r0, [r4, #60]	; 0x3c
80016c70:	e284104c 	add	r1, r4, #76	; 0x4c
80016c74:	e59430bc 	ldr	r3, [r4, #188]	; 0xbc
80016c78:	e2400001 	sub	r0, r0, #1
80016c7c:	e12fff33 	blx	r3
80016c80:	eaffffe4 	b	80016c18 <USBGamePadDeviceCompletionRoutine+0x18>

80016c84 <USBGamePadDevice>:
80016c84:	e92d4010 	push	{r4, lr}
80016c88:	e1a04000 	mov	r4, r0
80016c8c:	ebffcf8a 	bl	8000aabc <USBDeviceCopy>
80016c90:	e3062800 	movw	r2, #26624	; 0x6800
80016c94:	e3a01000 	mov	r1, #0
80016c98:	e3482001 	movt	r2, #32769	; 0x8001
80016c9c:	e1a03004 	mov	r3, r4
80016ca0:	e5842000 	str	r2, [r4]
80016ca4:	e2840048 	add	r0, r4, #72	; 0x48
80016ca8:	e5841044 	str	r1, [r4, #68]	; 0x44
80016cac:	e1a02001 	mov	r2, r1
80016cb0:	e5841048 	str	r1, [r4, #72]	; 0x48
80016cb4:	e58410bc 	str	r1, [r4, #188]	; 0xbc
80016cb8:	e58410c8 	str	r1, [r4, #200]	; 0xc8
80016cbc:	e58410c4 	str	r1, [r4, #196]	; 0xc4
80016cc0:	e1c41cb0 	strh	r1, [r4, #192]	; 0xc0
80016cc4:	e1c41db0 	strh	r1, [r4, #208]	; 0xd0
80016cc8:	e584104c 	str	r1, [r4, #76]	; 0x4c
80016ccc:	e5832050 	str	r2, [r3, #80]	; 0x50
80016cd0:	e283300c 	add	r3, r3, #12
80016cd4:	e5832048 	str	r2, [r3, #72]	; 0x48
80016cd8:	e583204c 	str	r2, [r3, #76]	; 0x4c
80016cdc:	e1530000 	cmp	r3, r0
80016ce0:	1afffff9 	bne	80016ccc <USBGamePadDevice+0x48>
80016ce4:	e5842098 	str	r2, [r4, #152]	; 0x98
80016ce8:	e3a00040 	mov	r0, #64	; 0x40
80016cec:	e584209c 	str	r2, [r4, #156]	; 0x9c
80016cf0:	e58420a0 	str	r2, [r4, #160]	; 0xa0
80016cf4:	e58420a4 	str	r2, [r4, #164]	; 0xa4
80016cf8:	e58420a8 	str	r2, [r4, #168]	; 0xa8
80016cfc:	e58420ac 	str	r2, [r4, #172]	; 0xac
80016d00:	e58420b0 	str	r2, [r4, #176]	; 0xb0
80016d04:	e58420b4 	str	r2, [r4, #180]	; 0xb4
80016d08:	e58420b8 	str	r2, [r4, #184]	; 0xb8
80016d0c:	ebffeb38 	bl	800119f4 <malloc>
80016d10:	e58400cc 	str	r0, [r4, #204]	; 0xcc
80016d14:	e8bd8010 	pop	{r4, pc}

80016d18 <_CUSBGamePadDevice>:
80016d18:	e92d4010 	push	{r4, lr}
80016d1c:	e1a04000 	mov	r4, r0
80016d20:	e59000c4 	ldr	r0, [r0, #196]	; 0xc4
80016d24:	e3500000 	cmp	r0, #0
80016d28:	0a000002 	beq	80016d38 <_CUSBGamePadDevice+0x20>
80016d2c:	ebffeb37 	bl	80011a10 <free>
80016d30:	e3a03000 	mov	r3, #0
80016d34:	e58430c4 	str	r3, [r4, #196]	; 0xc4
80016d38:	e59400cc 	ldr	r0, [r4, #204]	; 0xcc
80016d3c:	e3500000 	cmp	r0, #0
80016d40:	0a000002 	beq	80016d50 <_CUSBGamePadDevice+0x38>
80016d44:	ebffeb31 	bl	80011a10 <free>
80016d48:	e3a03000 	mov	r3, #0
80016d4c:	e58430cc 	str	r3, [r4, #204]	; 0xcc
80016d50:	e5940044 	ldr	r0, [r4, #68]	; 0x44
80016d54:	e3500000 	cmp	r0, #0
80016d58:	0a000004 	beq	80016d70 <_CUSBGamePadDevice+0x58>
80016d5c:	ebffd94e 	bl	8000d29c <_USBEndpoint>
80016d60:	e5940044 	ldr	r0, [r4, #68]	; 0x44
80016d64:	ebffeb29 	bl	80011a10 <free>
80016d68:	e3a03000 	mov	r3, #0
80016d6c:	e5843044 	str	r3, [r4, #68]	; 0x44
80016d70:	e5940048 	ldr	r0, [r4, #72]	; 0x48
80016d74:	e3500000 	cmp	r0, #0
80016d78:	0a000004 	beq	80016d90 <_CUSBGamePadDevice+0x78>
80016d7c:	ebffd946 	bl	8000d29c <_USBEndpoint>
80016d80:	e5940048 	ldr	r0, [r4, #72]	; 0x48
80016d84:	ebffeb21 	bl	80011a10 <free>
80016d88:	e3a03000 	mov	r3, #0
80016d8c:	e5843048 	str	r3, [r4, #72]	; 0x48
80016d90:	e1a00004 	mov	r0, r4
80016d94:	e8bd4010 	pop	{r4, lr}
80016d98:	eaffcf84 	b	8000abb0 <_USBDevice>

80016d9c <USBGamePadDeviceRegisterStatusHandler>:
80016d9c:	e58010bc 	str	r1, [r0, #188]	; 0xbc
80016da0:	e12fff1e 	bx	lr

80016da4 <USBGamePadDeviceGetReport>:
80016da4:	e92d4030 	push	{r4, r5, lr}
80016da8:	e24dd014 	sub	sp, sp, #20
80016dac:	e1a04000 	mov	r4, r0
80016db0:	ebffd0a9 	bl	8000b05c <USBDeviceGetHost>
80016db4:	e1a05000 	mov	r5, r0
80016db8:	e1a00004 	mov	r0, r4
80016dbc:	ebffd0a4 	bl	8000b054 <USBDeviceGetEndpoint0>
80016dc0:	e1d42db0 	ldrh	r2, [r4, #208]	; 0xd0
80016dc4:	e3a0cc01 	mov	ip, #256	; 0x100
80016dc8:	e59430cc 	ldr	r3, [r4, #204]	; 0xcc
80016dcc:	e1a01000 	mov	r1, r0
80016dd0:	e58d200c 	str	r2, [sp, #12]
80016dd4:	e1a00005 	mov	r0, r5
80016dd8:	e5d42040 	ldrb	r2, [r4, #64]	; 0x40
80016ddc:	e58d3008 	str	r3, [sp, #8]
80016de0:	e3a03001 	mov	r3, #1
80016de4:	e58d2004 	str	r2, [sp, #4]
80016de8:	e3a020a1 	mov	r2, #161	; 0xa1
80016dec:	e58dc000 	str	ip, [sp]
80016df0:	ebfff60e 	bl	80014630 <DWHCIDeviceControlMessage>
80016df4:	e3500000 	cmp	r0, #0
80016df8:	ca000001 	bgt	80016e04 <USBGamePadDeviceGetReport+0x60>
80016dfc:	e28dd014 	add	sp, sp, #20
80016e00:	e8bd8030 	pop	{r4, r5, pc}
80016e04:	e1a00004 	mov	r0, r4
80016e08:	e28dd014 	add	sp, sp, #20
80016e0c:	e8bd4030 	pop	{r4, r5, lr}
80016e10:	eafffd4d 	b	8001634c <USBGamePadDeviceDecodeReport>

80016e14 <iget>:
80016e14:	e92d41f0 	push	{r4, r5, r6, r7, r8, lr}
80016e18:	e1a06000 	mov	r6, r0
80016e1c:	e59f40e8 	ldr	r4, [pc, #232]	; 80016f0c <iget+0xf8>
80016e20:	e30e0ee0 	movw	r0, #61152	; 0xeee0
80016e24:	e3480009 	movt	r0, #32777	; 0x8009
80016e28:	e1a07001 	mov	r7, r1
80016e2c:	e3a05000 	mov	r5, #0
80016e30:	ebffd3ec 	bl	8000bde8 <acquire>
80016e34:	e2840efa 	add	r0, r4, #4000	; 0xfa0
80016e38:	ea000005 	b	80016e54 <iget+0x40>
80016e3c:	e5942000 	ldr	r2, [r4]
80016e40:	e1520006 	cmp	r2, r6
80016e44:	0a00001b 	beq	80016eb8 <iget+0xa4>
80016e48:	e2844050 	add	r4, r4, #80	; 0x50
80016e4c:	e1540000 	cmp	r4, r0
80016e50:	2a00000b 	bcs	80016e84 <iget+0x70>
80016e54:	e5943008 	ldr	r3, [r4, #8]
80016e58:	e3530000 	cmp	r3, #0
80016e5c:	cafffff6 	bgt	80016e3c <iget+0x28>
80016e60:	e3550000 	cmp	r5, #0
80016e64:	1afffff7 	bne	80016e48 <iget+0x34>
80016e68:	e3530000 	cmp	r3, #0
80016e6c:	e2842050 	add	r2, r4, #80	; 0x50
80016e70:	1a00001b 	bne	80016ee4 <iget+0xd0>
80016e74:	e1a05004 	mov	r5, r4
80016e78:	e1a04002 	mov	r4, r2
80016e7c:	e1540000 	cmp	r4, r0
80016e80:	3afffff3 	bcc	80016e54 <iget+0x40>
80016e84:	e3550000 	cmp	r5, #0
80016e88:	0a00001c 	beq	80016f00 <iget+0xec>
80016e8c:	e5856000 	str	r6, [r5]
80016e90:	e3a02001 	mov	r2, #1
80016e94:	e5857004 	str	r7, [r5, #4]
80016e98:	e3a03000 	mov	r3, #0
80016e9c:	e5852008 	str	r2, [r5, #8]
80016ea0:	e30e0ee0 	movw	r0, #61152	; 0xeee0
80016ea4:	e585300c 	str	r3, [r5, #12]
80016ea8:	e3480009 	movt	r0, #32777	; 0x8009
80016eac:	ebffd403 	bl	8000bec0 <release>
80016eb0:	e1a00005 	mov	r0, r5
80016eb4:	e8bd81f0 	pop	{r4, r5, r6, r7, r8, pc}
80016eb8:	e5942004 	ldr	r2, [r4, #4]
80016ebc:	e1520007 	cmp	r2, r7
80016ec0:	1affffe0 	bne	80016e48 <iget+0x34>
80016ec4:	e2833001 	add	r3, r3, #1
80016ec8:	e30e0ee0 	movw	r0, #61152	; 0xeee0
80016ecc:	e5843008 	str	r3, [r4, #8]
80016ed0:	e1a05004 	mov	r5, r4
80016ed4:	e3480009 	movt	r0, #32777	; 0x8009
80016ed8:	ebffd3f8 	bl	8000bec0 <release>
80016edc:	e1a00005 	mov	r0, r5
80016ee0:	e8bd81f0 	pop	{r4, r5, r6, r7, r8, pc}
80016ee4:	e1520000 	cmp	r2, r0
80016ee8:	2a000004 	bcs	80016f00 <iget+0xec>
80016eec:	e5923008 	ldr	r3, [r2, #8]
80016ef0:	e1a04002 	mov	r4, r2
80016ef4:	e3530000 	cmp	r3, #0
80016ef8:	caffffcf 	bgt	80016e3c <iget+0x28>
80016efc:	eaffffd9 	b	80016e68 <iget+0x54>
80016f00:	e3090674 	movw	r0, #38516	; 0x9674
80016f04:	e3480001 	movt	r0, #32769	; 0x8001
80016f08:	ebffd257 	bl	8000b86c <panic>
80016f0c:	8009ef14 	.word	0x8009ef14

80016f10 <readsb>:
80016f10:	e92d4070 	push	{r4, r5, r6, lr}
80016f14:	e1a05001 	mov	r5, r1
80016f18:	e3a01001 	mov	r1, #1
80016f1c:	ebffd78a 	bl	8000cd4c <bread>
80016f20:	e1a04000 	mov	r4, r0
80016f24:	e3a02010 	mov	r2, #16
80016f28:	e1a00005 	mov	r0, r5
80016f2c:	e2841018 	add	r1, r4, #24
80016f30:	ebffcd52 	bl	8000a480 <memmove>
80016f34:	e1a00004 	mov	r0, r4
80016f38:	e8bd4070 	pop	{r4, r5, r6, lr}
80016f3c:	eaffd7ce 	b	8000ce7c <brelse>

80016f40 <bfree>:
80016f40:	e92d4030 	push	{r4, r5, lr}
80016f44:	e24dd014 	sub	sp, sp, #20
80016f48:	e1a04001 	mov	r4, r1
80016f4c:	e1a0100d 	mov	r1, sp
80016f50:	e1a05000 	mov	r5, r0
80016f54:	ebffffed 	bl	80016f10 <readsb>
80016f58:	e59d1008 	ldr	r1, [sp, #8]
80016f5c:	e1a00005 	mov	r0, r5
80016f60:	e1a011a1 	lsr	r1, r1, #3
80016f64:	e2811003 	add	r1, r1, #3
80016f68:	e0811624 	add	r1, r1, r4, lsr #12
80016f6c:	ebffd776 	bl	8000cd4c <bread>
80016f70:	e2042007 	and	r2, r4, #7
80016f74:	e3a03001 	mov	r3, #1
80016f78:	e7e841d4 	ubfx	r4, r4, #3, #9
80016f7c:	e0804004 	add	r4, r0, r4
80016f80:	e1a03213 	lsl	r3, r3, r2
80016f84:	e5d42018 	ldrb	r2, [r4, #24]
80016f88:	e1120003 	tst	r2, r3
80016f8c:	0a000007 	beq	80016fb0 <bfree+0x70>
80016f90:	e1c23003 	bic	r3, r2, r3
80016f94:	e1a05000 	mov	r5, r0
80016f98:	e5c43018 	strb	r3, [r4, #24]
80016f9c:	ebffe1d9 	bl	8000f708 <log_write>
80016fa0:	e1a00005 	mov	r0, r5
80016fa4:	ebffd7b4 	bl	8000ce7c <brelse>
80016fa8:	e28dd014 	add	sp, sp, #20
80016fac:	e8bd8030 	pop	{r4, r5, pc}
80016fb0:	e3090684 	movw	r0, #38532	; 0x9684
80016fb4:	e3480001 	movt	r0, #32769	; 0x8001
80016fb8:	ebffd22b 	bl	8000b86c <panic>

80016fbc <balloc>:
80016fbc:	e92d43f0 	push	{r4, r5, r6, r7, r8, r9, lr}
80016fc0:	e24dd014 	sub	sp, sp, #20
80016fc4:	e1a0100d 	mov	r1, sp
80016fc8:	e1a06000 	mov	r6, r0
80016fcc:	ebffffcf 	bl	80016f10 <readsb>
80016fd0:	e59d3000 	ldr	r3, [sp]
80016fd4:	e3530000 	cmp	r3, #0
80016fd8:	0a00001e 	beq	80017058 <balloc+0x9c>
80016fdc:	e3a09000 	mov	r9, #0
80016fe0:	e3a08001 	mov	r8, #1
80016fe4:	e59d1008 	ldr	r1, [sp, #8]
80016fe8:	e1a00006 	mov	r0, r6
80016fec:	e1a04009 	mov	r4, r9
80016ff0:	e1a011a1 	lsr	r1, r1, #3
80016ff4:	e2811003 	add	r1, r1, #3
80016ff8:	e0811649 	add	r1, r1, r9, asr #12
80016ffc:	ebffd752 	bl	8000cd4c <bread>
80017000:	e1a05000 	mov	r5, r0
80017004:	e3a02000 	mov	r2, #0
80017008:	e59d0000 	ldr	r0, [sp]
8001700c:	ea000009 	b	80017038 <balloc+0x7c>
80017010:	e085c1c2 	add	ip, r5, r2, asr #3
80017014:	e2023007 	and	r3, r2, #7
80017018:	e5dc1018 	ldrb	r1, [ip, #24]
8001701c:	e1a03318 	lsl	r3, r8, r3
80017020:	e0117003 	ands	r7, r1, r3
80017024:	0a00000e 	beq	80017064 <balloc+0xa8>
80017028:	e2822001 	add	r2, r2, #1
8001702c:	e2844001 	add	r4, r4, #1
80017030:	e3520a01 	cmp	r2, #4096	; 0x1000
80017034:	0a000001 	beq	80017040 <balloc+0x84>
80017038:	e1500004 	cmp	r0, r4
8001703c:	8afffff3 	bhi	80017010 <balloc+0x54>
80017040:	e1a00005 	mov	r0, r5
80017044:	e2899a01 	add	r9, r9, #4096	; 0x1000
80017048:	ebffd78b 	bl	8000ce7c <brelse>
8001704c:	e59d3000 	ldr	r3, [sp]
80017050:	e1530009 	cmp	r3, r9
80017054:	8affffe2 	bhi	80016fe4 <balloc+0x28>
80017058:	e3090698 	movw	r0, #38552	; 0x9698
8001705c:	e3480001 	movt	r0, #32769	; 0x8001
80017060:	ebffd201 	bl	8000b86c <panic>
80017064:	e1813003 	orr	r3, r1, r3
80017068:	e1a00005 	mov	r0, r5
8001706c:	e5cc3018 	strb	r3, [ip, #24]
80017070:	ebffe1a4 	bl	8000f708 <log_write>
80017074:	e1a00005 	mov	r0, r5
80017078:	ebffd77f 	bl	8000ce7c <brelse>
8001707c:	e1a01004 	mov	r1, r4
80017080:	e1a00006 	mov	r0, r6
80017084:	ebffd730 	bl	8000cd4c <bread>
80017088:	e1a05000 	mov	r5, r0
8001708c:	e1a01007 	mov	r1, r7
80017090:	e3a02c02 	mov	r2, #512	; 0x200
80017094:	e2800018 	add	r0, r0, #24
80017098:	ebffcccb 	bl	8000a3cc <memset>
8001709c:	e1a00005 	mov	r0, r5
800170a0:	ebffe198 	bl	8000f708 <log_write>
800170a4:	e1a00005 	mov	r0, r5
800170a8:	ebffd773 	bl	8000ce7c <brelse>
800170ac:	e1a00004 	mov	r0, r4
800170b0:	e28dd014 	add	sp, sp, #20
800170b4:	e8bd83f0 	pop	{r4, r5, r6, r7, r8, r9, pc}

800170b8 <bmap>:
800170b8:	e351000b 	cmp	r1, #11
800170bc:	e92d41f0 	push	{r4, r5, r6, r7, r8, lr}
800170c0:	e1a06000 	mov	r6, r0
800170c4:	9a00001c 	bls	8001713c <bmap+0x84>
800170c8:	e241400c 	sub	r4, r1, #12
800170cc:	e354007f 	cmp	r4, #127	; 0x7f
800170d0:	8a000023 	bhi	80017164 <bmap+0xac>
800170d4:	e590104c 	ldr	r1, [r0, #76]	; 0x4c
800170d8:	e5900000 	ldr	r0, [r0]
800170dc:	e3510000 	cmp	r1, #0
800170e0:	0a000010 	beq	80017128 <bmap+0x70>
800170e4:	ebffd718 	bl	8000cd4c <bread>
800170e8:	e2808018 	add	r8, r0, #24
800170ec:	e1a07000 	mov	r7, r0
800170f0:	e7985104 	ldr	r5, [r8, r4, lsl #2]
800170f4:	e3550000 	cmp	r5, #0
800170f8:	0a000003 	beq	8001710c <bmap+0x54>
800170fc:	e1a00007 	mov	r0, r7
80017100:	ebffd75d 	bl	8000ce7c <brelse>
80017104:	e1a00005 	mov	r0, r5
80017108:	e8bd81f0 	pop	{r4, r5, r6, r7, r8, pc}
8001710c:	e5960000 	ldr	r0, [r6]
80017110:	ebffffa9 	bl	80016fbc <balloc>
80017114:	e1a05000 	mov	r5, r0
80017118:	e1a00007 	mov	r0, r7
8001711c:	e7885104 	str	r5, [r8, r4, lsl #2]
80017120:	ebffe178 	bl	8000f708 <log_write>
80017124:	eafffff4 	b	800170fc <bmap+0x44>
80017128:	ebffffa3 	bl	80016fbc <balloc>
8001712c:	e1a01000 	mov	r1, r0
80017130:	e586104c 	str	r1, [r6, #76]	; 0x4c
80017134:	e5960000 	ldr	r0, [r6]
80017138:	eaffffe9 	b	800170e4 <bmap+0x2c>
8001713c:	e0804101 	add	r4, r0, r1, lsl #2
80017140:	e594501c 	ldr	r5, [r4, #28]
80017144:	e3550000 	cmp	r5, #0
80017148:	1affffed 	bne	80017104 <bmap+0x4c>
8001714c:	e5900000 	ldr	r0, [r0]
80017150:	ebffff99 	bl	80016fbc <balloc>
80017154:	e584001c 	str	r0, [r4, #28]
80017158:	e1a05000 	mov	r5, r0
8001715c:	e1a00005 	mov	r0, r5
80017160:	e8bd81f0 	pop	{r4, r5, r6, r7, r8, pc}
80017164:	e30906b0 	movw	r0, #38576	; 0x96b0
80017168:	e3480001 	movt	r0, #32769	; 0x8001
8001716c:	ebffd1be 	bl	8000b86c <panic>

80017170 <iinit>:
80017170:	e92d4010 	push	{r4, lr}
80017174:	e30e4ee0 	movw	r4, #61152	; 0xeee0
80017178:	e3484009 	movt	r4, #32777	; 0x8009
8001717c:	e3a01000 	mov	r1, #0
80017180:	e1a00004 	mov	r0, r4
80017184:	e3002fd4 	movw	r2, #4052	; 0xfd4
80017188:	ebffcc8f 	bl	8000a3cc <memset>
8001718c:	e30916c4 	movw	r1, #38596	; 0x96c4
80017190:	e1a00004 	mov	r0, r4
80017194:	e3481001 	movt	r1, #32769	; 0x8001
80017198:	e8bd4010 	pop	{r4, lr}
8001719c:	eaffd2f3 	b	8000bd70 <initlock>

800171a0 <ialloc>:
800171a0:	e92d41f0 	push	{r4, r5, r6, r7, r8, lr}
800171a4:	e24dd010 	sub	sp, sp, #16
800171a8:	e1a06001 	mov	r6, r1
800171ac:	e1a0100d 	mov	r1, sp
800171b0:	e1a05000 	mov	r5, r0
800171b4:	ebffff55 	bl	80016f10 <readsb>
800171b8:	e59d3008 	ldr	r3, [sp, #8]
800171bc:	e3530001 	cmp	r3, #1
800171c0:	9a00001f 	bls	80017244 <ialloc+0xa4>
800171c4:	e3a04001 	mov	r4, #1
800171c8:	ea000004 	b	800171e0 <ialloc+0x40>
800171cc:	e2844001 	add	r4, r4, #1
800171d0:	ebffd729 	bl	8000ce7c <brelse>
800171d4:	e59d3008 	ldr	r3, [sp, #8]
800171d8:	e1530004 	cmp	r3, r4
800171dc:	9a000018 	bls	80017244 <ialloc+0xa4>
800171e0:	e1a011a4 	lsr	r1, r4, #3
800171e4:	e1a00005 	mov	r0, r5
800171e8:	e2811002 	add	r1, r1, #2
800171ec:	ebffd6d6 	bl	8000cd4c <bread>
800171f0:	e2043007 	and	r3, r4, #7
800171f4:	e2802018 	add	r2, r0, #24
800171f8:	e1a07000 	mov	r7, r0
800171fc:	e1a03303 	lsl	r3, r3, #6
80017200:	e0828003 	add	r8, r2, r3
80017204:	e19210f3 	ldrsh	r1, [r2, r3]
80017208:	e3510000 	cmp	r1, #0
8001720c:	1affffee 	bne	800171cc <ialloc+0x2c>
80017210:	e3a02040 	mov	r2, #64	; 0x40
80017214:	e1a00008 	mov	r0, r8
80017218:	ebffcc6b 	bl	8000a3cc <memset>
8001721c:	e1c860b0 	strh	r6, [r8]
80017220:	e1a00007 	mov	r0, r7
80017224:	ebffe137 	bl	8000f708 <log_write>
80017228:	e1a00007 	mov	r0, r7
8001722c:	ebffd712 	bl	8000ce7c <brelse>
80017230:	e1a01004 	mov	r1, r4
80017234:	e1a00005 	mov	r0, r5
80017238:	ebfffef5 	bl	80016e14 <iget>
8001723c:	e28dd010 	add	sp, sp, #16
80017240:	e8bd81f0 	pop	{r4, r5, r6, r7, r8, pc}
80017244:	e30906cc 	movw	r0, #38604	; 0x96cc
80017248:	e3480001 	movt	r0, #32769	; 0x8001
8001724c:	ebffd186 	bl	8000b86c <panic>

80017250 <iupdate>:
80017250:	e92d4070 	push	{r4, r5, r6, lr}
80017254:	e1a04000 	mov	r4, r0
80017258:	e1c000d0 	ldrd	r0, [r0]
8001725c:	e1a011a1 	lsr	r1, r1, #3
80017260:	e2811002 	add	r1, r1, #2
80017264:	ebffd6b8 	bl	8000cd4c <bread>
80017268:	e1d4e1b0 	ldrh	lr, [r4, #16]
8001726c:	e1a05000 	mov	r5, r0
80017270:	e5940004 	ldr	r0, [r4, #4]
80017274:	e2853018 	add	r3, r5, #24
80017278:	e1d4c1b2 	ldrh	ip, [r4, #18]
8001727c:	e284101c 	add	r1, r4, #28
80017280:	e2000007 	and	r0, r0, #7
80017284:	e3a02034 	mov	r2, #52	; 0x34
80017288:	e1a00300 	lsl	r0, r0, #6
8001728c:	e183e0b0 	strh	lr, [r3, r0]
80017290:	e0833000 	add	r3, r3, r0
80017294:	e1d401b4 	ldrh	r0, [r4, #20]
80017298:	e1c3c0b2 	strh	ip, [r3, #2]
8001729c:	e1c300b4 	strh	r0, [r3, #4]
800172a0:	e594c018 	ldr	ip, [r4, #24]
800172a4:	e1d401b6 	ldrh	r0, [r4, #22]
800172a8:	e583c008 	str	ip, [r3, #8]
800172ac:	e1c300b6 	strh	r0, [r3, #6]
800172b0:	e283000c 	add	r0, r3, #12
800172b4:	ebffcc71 	bl	8000a480 <memmove>
800172b8:	e1a00005 	mov	r0, r5
800172bc:	ebffe111 	bl	8000f708 <log_write>
800172c0:	e1a00005 	mov	r0, r5
800172c4:	e8bd4070 	pop	{r4, r5, r6, lr}
800172c8:	eaffd6eb 	b	8000ce7c <brelse>

800172cc <idup>:
800172cc:	e92d4070 	push	{r4, r5, r6, lr}
800172d0:	e30e4ee0 	movw	r4, #61152	; 0xeee0
800172d4:	e3484009 	movt	r4, #32777	; 0x8009
800172d8:	e1a05000 	mov	r5, r0
800172dc:	e1a00004 	mov	r0, r4
800172e0:	ebffd2c0 	bl	8000bde8 <acquire>
800172e4:	e5953008 	ldr	r3, [r5, #8]
800172e8:	e1a00004 	mov	r0, r4
800172ec:	e2833001 	add	r3, r3, #1
800172f0:	e5853008 	str	r3, [r5, #8]
800172f4:	ebffd2f1 	bl	8000bec0 <release>
800172f8:	e1a00005 	mov	r0, r5
800172fc:	e8bd8070 	pop	{r4, r5, r6, pc}

80017300 <ilock>:
80017300:	e92d4070 	push	{r4, r5, r6, lr}
80017304:	e2504000 	subs	r4, r0, #0
80017308:	0a00003b 	beq	800173fc <ilock+0xfc>
8001730c:	e5943008 	ldr	r3, [r4, #8]
80017310:	e3530000 	cmp	r3, #0
80017314:	da000038 	ble	800173fc <ilock+0xfc>
80017318:	e30e0ee0 	movw	r0, #61152	; 0xeee0
8001731c:	e3480009 	movt	r0, #32777	; 0x8009
80017320:	ebffd2b0 	bl	8000bde8 <acquire>
80017324:	e594300c 	ldr	r3, [r4, #12]
80017328:	e3130001 	tst	r3, #1
8001732c:	0a000007 	beq	80017350 <ilock+0x50>
80017330:	e30e5ee0 	movw	r5, #61152	; 0xeee0
80017334:	e3485009 	movt	r5, #32777	; 0x8009
80017338:	e1a01005 	mov	r1, r5
8001733c:	e1a00004 	mov	r0, r4
80017340:	ebfff94b 	bl	80015874 <sleep>
80017344:	e594300c 	ldr	r3, [r4, #12]
80017348:	e3130001 	tst	r3, #1
8001734c:	1afffff9 	bne	80017338 <ilock+0x38>
80017350:	e3833001 	orr	r3, r3, #1
80017354:	e30e0ee0 	movw	r0, #61152	; 0xeee0
80017358:	e584300c 	str	r3, [r4, #12]
8001735c:	e3480009 	movt	r0, #32777	; 0x8009
80017360:	ebffd2d6 	bl	8000bec0 <release>
80017364:	e594300c 	ldr	r3, [r4, #12]
80017368:	e3130002 	tst	r3, #2
8001736c:	18bd8070 	popne	{r4, r5, r6, pc}
80017370:	e1c400d0 	ldrd	r0, [r4]
80017374:	e1a011a1 	lsr	r1, r1, #3
80017378:	e2811002 	add	r1, r1, #2
8001737c:	ebffd672 	bl	8000cd4c <bread>
80017380:	e5943004 	ldr	r3, [r4, #4]
80017384:	e2801018 	add	r1, r0, #24
80017388:	e3a02034 	mov	r2, #52	; 0x34
8001738c:	e1a05000 	mov	r5, r0
80017390:	e2033007 	and	r3, r3, #7
80017394:	e284001c 	add	r0, r4, #28
80017398:	e1a03303 	lsl	r3, r3, #6
8001739c:	e081c003 	add	ip, r1, r3
800173a0:	e191e0b3 	ldrh	lr, [r1, r3]
800173a4:	e28c100c 	add	r1, ip, #12
800173a8:	e1dc30b2 	ldrh	r3, [ip, #2]
800173ac:	e1dc60b4 	ldrh	r6, [ip, #4]
800173b0:	e1c4e1b0 	strh	lr, [r4, #16]
800173b4:	e1c431b2 	strh	r3, [r4, #18]
800173b8:	e1dce0b6 	ldrh	lr, [ip, #6]
800173bc:	e59c3008 	ldr	r3, [ip, #8]
800173c0:	e1c4e1b6 	strh	lr, [r4, #22]
800173c4:	e5843018 	str	r3, [r4, #24]
800173c8:	e1c461b4 	strh	r6, [r4, #20]
800173cc:	ebffcc2b 	bl	8000a480 <memmove>
800173d0:	e1a00005 	mov	r0, r5
800173d4:	ebffd6a8 	bl	8000ce7c <brelse>
800173d8:	e1d421f0 	ldrsh	r2, [r4, #16]
800173dc:	e594300c 	ldr	r3, [r4, #12]
800173e0:	e3520000 	cmp	r2, #0
800173e4:	e3833002 	orr	r3, r3, #2
800173e8:	e584300c 	str	r3, [r4, #12]
800173ec:	18bd8070 	popne	{r4, r5, r6, pc}
800173f0:	e30906e8 	movw	r0, #38632	; 0x96e8
800173f4:	e3480001 	movt	r0, #32769	; 0x8001
800173f8:	ebffd11b 	bl	8000b86c <panic>
800173fc:	e30906e0 	movw	r0, #38624	; 0x96e0
80017400:	e3480001 	movt	r0, #32769	; 0x8001
80017404:	ebffd118 	bl	8000b86c <panic>

80017408 <iunlock>:
80017408:	e92d4010 	push	{r4, lr}
8001740c:	e2504000 	subs	r4, r0, #0
80017410:	0a000011 	beq	8001745c <iunlock+0x54>
80017414:	e594300c 	ldr	r3, [r4, #12]
80017418:	e3130001 	tst	r3, #1
8001741c:	0a00000e 	beq	8001745c <iunlock+0x54>
80017420:	e5943008 	ldr	r3, [r4, #8]
80017424:	e3530000 	cmp	r3, #0
80017428:	da00000b 	ble	8001745c <iunlock+0x54>
8001742c:	e30e0ee0 	movw	r0, #61152	; 0xeee0
80017430:	e3480009 	movt	r0, #32777	; 0x8009
80017434:	ebffd26b 	bl	8000bde8 <acquire>
80017438:	e594300c 	ldr	r3, [r4, #12]
8001743c:	e1a00004 	mov	r0, r4
80017440:	e3c33001 	bic	r3, r3, #1
80017444:	e584300c 	str	r3, [r4, #12]
80017448:	ebfff96c 	bl	80015a00 <wakeup>
8001744c:	e30e0ee0 	movw	r0, #61152	; 0xeee0
80017450:	e3480009 	movt	r0, #32777	; 0x8009
80017454:	e8bd4010 	pop	{r4, lr}
80017458:	eaffd298 	b	8000bec0 <release>
8001745c:	e30906f8 	movw	r0, #38648	; 0x96f8
80017460:	e3480001 	movt	r0, #32769	; 0x8001
80017464:	ebffd100 	bl	8000b86c <panic>

80017468 <iput>:
80017468:	e92d41f0 	push	{r4, r5, r6, r7, r8, lr}
8001746c:	e1a04000 	mov	r4, r0
80017470:	e30e0ee0 	movw	r0, #61152	; 0xeee0
80017474:	e3480009 	movt	r0, #32777	; 0x8009
80017478:	ebffd25a 	bl	8000bde8 <acquire>
8001747c:	e5943008 	ldr	r3, [r4, #8]
80017480:	e3530001 	cmp	r3, #1
80017484:	1a00002a 	bne	80017534 <iput+0xcc>
80017488:	e594200c 	ldr	r2, [r4, #12]
8001748c:	e3120002 	tst	r2, #2
80017490:	0a000027 	beq	80017534 <iput+0xcc>
80017494:	e1d411f6 	ldrsh	r1, [r4, #22]
80017498:	e3510000 	cmp	r1, #0
8001749c:	1a000024 	bne	80017534 <iput+0xcc>
800174a0:	e2127001 	ands	r7, r2, #1
800174a4:	1a00003e 	bne	800175a4 <iput+0x13c>
800174a8:	e3822001 	orr	r2, r2, #1
800174ac:	e30e0ee0 	movw	r0, #61152	; 0xeee0
800174b0:	e584200c 	str	r2, [r4, #12]
800174b4:	e2845018 	add	r5, r4, #24
800174b8:	e3480009 	movt	r0, #32777	; 0x8009
800174bc:	e2846048 	add	r6, r4, #72	; 0x48
800174c0:	ebffd27e 	bl	8000bec0 <release>
800174c4:	ea000001 	b	800174d0 <iput+0x68>
800174c8:	e1550006 	cmp	r5, r6
800174cc:	0a000007 	beq	800174f0 <iput+0x88>
800174d0:	e5b51004 	ldr	r1, [r5, #4]!
800174d4:	e3510000 	cmp	r1, #0
800174d8:	0afffffa 	beq	800174c8 <iput+0x60>
800174dc:	e5940000 	ldr	r0, [r4]
800174e0:	ebfffe96 	bl	80016f40 <bfree>
800174e4:	e1550006 	cmp	r5, r6
800174e8:	e5857000 	str	r7, [r5]
800174ec:	1afffff7 	bne	800174d0 <iput+0x68>
800174f0:	e594104c 	ldr	r1, [r4, #76]	; 0x4c
800174f4:	e3510000 	cmp	r1, #0
800174f8:	1a000013 	bne	8001754c <iput+0xe4>
800174fc:	e3a05000 	mov	r5, #0
80017500:	e1a00004 	mov	r0, r4
80017504:	e5845018 	str	r5, [r4, #24]
80017508:	ebffff50 	bl	80017250 <iupdate>
8001750c:	e1c451b0 	strh	r5, [r4, #16]
80017510:	e1a00004 	mov	r0, r4
80017514:	ebffff4d 	bl	80017250 <iupdate>
80017518:	e30e0ee0 	movw	r0, #61152	; 0xeee0
8001751c:	e3480009 	movt	r0, #32777	; 0x8009
80017520:	ebffd230 	bl	8000bde8 <acquire>
80017524:	e584500c 	str	r5, [r4, #12]
80017528:	e1a00004 	mov	r0, r4
8001752c:	ebfff933 	bl	80015a00 <wakeup>
80017530:	e5943008 	ldr	r3, [r4, #8]
80017534:	e2433001 	sub	r3, r3, #1
80017538:	e30e0ee0 	movw	r0, #61152	; 0xeee0
8001753c:	e5843008 	str	r3, [r4, #8]
80017540:	e3480009 	movt	r0, #32777	; 0x8009
80017544:	e8bd41f0 	pop	{r4, r5, r6, r7, r8, lr}
80017548:	eaffd25c 	b	8000bec0 <release>
8001754c:	e5940000 	ldr	r0, [r4]
80017550:	ebffd5fd 	bl	8000cd4c <bread>
80017554:	e1a07000 	mov	r7, r0
80017558:	e2805014 	add	r5, r0, #20
8001755c:	e2806f85 	add	r6, r0, #532	; 0x214
80017560:	ea000001 	b	8001756c <iput+0x104>
80017564:	e1550006 	cmp	r5, r6
80017568:	0a000005 	beq	80017584 <iput+0x11c>
8001756c:	e5b51004 	ldr	r1, [r5, #4]!
80017570:	e3510000 	cmp	r1, #0
80017574:	0afffffa 	beq	80017564 <iput+0xfc>
80017578:	e5940000 	ldr	r0, [r4]
8001757c:	ebfffe6f 	bl	80016f40 <bfree>
80017580:	eafffff7 	b	80017564 <iput+0xfc>
80017584:	e1a00007 	mov	r0, r7
80017588:	ebffd63b 	bl	8000ce7c <brelse>
8001758c:	e594104c 	ldr	r1, [r4, #76]	; 0x4c
80017590:	e5940000 	ldr	r0, [r4]
80017594:	ebfffe69 	bl	80016f40 <bfree>
80017598:	e3a03000 	mov	r3, #0
8001759c:	e584304c 	str	r3, [r4, #76]	; 0x4c
800175a0:	eaffffd5 	b	800174fc <iput+0x94>
800175a4:	e3090700 	movw	r0, #38656	; 0x9700
800175a8:	e3480001 	movt	r0, #32769	; 0x8001
800175ac:	ebffd0ae 	bl	8000b86c <panic>

800175b0 <iunlockput>:
800175b0:	e92d4010 	push	{r4, lr}
800175b4:	e1a04000 	mov	r4, r0
800175b8:	ebffff92 	bl	80017408 <iunlock>
800175bc:	e1a00004 	mov	r0, r4
800175c0:	e8bd4010 	pop	{r4, lr}
800175c4:	eaffffa7 	b	80017468 <iput>

800175c8 <stati>:
800175c8:	e1d0c1b0 	ldrh	ip, [r0, #16]
800175cc:	e1d021b6 	ldrh	r2, [r0, #22]
800175d0:	e5903018 	ldr	r3, [r0, #24]
800175d4:	e92d4010 	push	{r4, lr}
800175d8:	e8904010 	ldm	r0, {r4, lr}
800175dc:	e1c1c0b0 	strh	ip, [r1]
800175e0:	e9814010 	stmib	r1, {r4, lr}
800175e4:	e1c120bc 	strh	r2, [r1, #12]
800175e8:	e5813010 	str	r3, [r1, #16]
800175ec:	e8bd8010 	pop	{r4, pc}

800175f0 <readi>:
800175f0:	e92d47f0 	push	{r4, r5, r6, r7, r8, r9, sl, lr}
800175f4:	e1a05002 	mov	r5, r2
800175f8:	e1d021f0 	ldrsh	r2, [r0, #16]
800175fc:	e1a0a000 	mov	sl, r0
80017600:	e1a07003 	mov	r7, r3
80017604:	e3520003 	cmp	r2, #3
80017608:	0a000026 	beq	800176a8 <readi+0xb8>
8001760c:	e5903018 	ldr	r3, [r0, #24]
80017610:	e1550003 	cmp	r5, r3
80017614:	8a00002f 	bhi	800176d8 <readi+0xe8>
80017618:	e0972005 	adds	r2, r7, r5
8001761c:	23a06001 	movcs	r6, #1
80017620:	33a06000 	movcc	r6, #0
80017624:	2a00002b 	bcs	800176d8 <readi+0xe8>
80017628:	e1530002 	cmp	r3, r2
8001762c:	e1a08001 	mov	r8, r1
80017630:	30437005 	subcc	r7, r3, r5
80017634:	e3570000 	cmp	r7, #0
80017638:	0a000018 	beq	800176a0 <readi+0xb0>
8001763c:	e59a4000 	ldr	r4, [sl]
80017640:	e1a0000a 	mov	r0, sl
80017644:	e1a014a5 	lsr	r1, r5, #9
80017648:	ebfffe9a 	bl	800170b8 <bmap>
8001764c:	e1a01000 	mov	r1, r0
80017650:	e1a00004 	mov	r0, r4
80017654:	ebffd5bc 	bl	8000cd4c <bread>
80017658:	e7e82055 	ubfx	r2, r5, #0, #9
8001765c:	e1a09000 	mov	r9, r0
80017660:	e0473006 	sub	r3, r7, r6
80017664:	e2624c02 	rsb	r4, r2, #512	; 0x200
80017668:	e1540003 	cmp	r4, r3
8001766c:	e2891018 	add	r1, r9, #24
80017670:	e0811002 	add	r1, r1, r2
80017674:	21a04003 	movcs	r4, r3
80017678:	e0866004 	add	r6, r6, r4
8001767c:	e1a00008 	mov	r0, r8
80017680:	e0855004 	add	r5, r5, r4
80017684:	e1a02004 	mov	r2, r4
80017688:	e0888004 	add	r8, r8, r4
8001768c:	ebffcb7b 	bl	8000a480 <memmove>
80017690:	e1a00009 	mov	r0, r9
80017694:	ebffd5f8 	bl	8000ce7c <brelse>
80017698:	e1570006 	cmp	r7, r6
8001769c:	8affffe6 	bhi	8001763c <readi+0x4c>
800176a0:	e1a00007 	mov	r0, r7
800176a4:	e8bd87f0 	pop	{r4, r5, r6, r7, r8, r9, sl, pc}
800176a8:	e1d021f2 	ldrsh	r2, [r0, #18]
800176ac:	e6ff3072 	uxth	r3, r2
800176b0:	e3530009 	cmp	r3, #9
800176b4:	8a000007 	bhi	800176d8 <readi+0xe8>
800176b8:	e30c3f1c 	movw	r3, #53020	; 0xcf1c
800176bc:	e3483009 	movt	r3, #32777	; 0x8009
800176c0:	e7933182 	ldr	r3, [r3, r2, lsl #3]
800176c4:	e3530000 	cmp	r3, #0
800176c8:	0a000002 	beq	800176d8 <readi+0xe8>
800176cc:	e1a02007 	mov	r2, r7
800176d0:	e8bd47f0 	pop	{r4, r5, r6, r7, r8, r9, sl, lr}
800176d4:	e12fff13 	bx	r3
800176d8:	e3e00000 	mvn	r0, #0
800176dc:	e8bd87f0 	pop	{r4, r5, r6, r7, r8, r9, sl, pc}

800176e0 <writei>:
800176e0:	e92d47f0 	push	{r4, r5, r6, r7, r8, r9, sl, lr}
800176e4:	e1a05002 	mov	r5, r2
800176e8:	e1d021f0 	ldrsh	r2, [r0, #16]
800176ec:	e1a0a000 	mov	sl, r0
800176f0:	e1a09003 	mov	r9, r3
800176f4:	e3520003 	cmp	r2, #3
800176f8:	0a00002c 	beq	800177b0 <writei+0xd0>
800176fc:	e5903018 	ldr	r3, [r0, #24]
80017700:	e1530005 	cmp	r3, r5
80017704:	3a00003b 	bcc	800177f8 <writei+0x118>
80017708:	e0993005 	adds	r3, r9, r5
8001770c:	23a06001 	movcs	r6, #1
80017710:	33a06000 	movcc	r6, #0
80017714:	e3530b46 	cmp	r3, #71680	; 0x11800
80017718:	83866001 	orrhi	r6, r6, #1
8001771c:	e3560000 	cmp	r6, #0
80017720:	1a000034 	bne	800177f8 <writei+0x118>
80017724:	e3590000 	cmp	r9, #0
80017728:	e1a08001 	mov	r8, r1
8001772c:	0a00001d 	beq	800177a8 <writei+0xc8>
80017730:	e59a4000 	ldr	r4, [sl]
80017734:	e1a0000a 	mov	r0, sl
80017738:	e1a014a5 	lsr	r1, r5, #9
8001773c:	ebfffe5d 	bl	800170b8 <bmap>
80017740:	e1a01000 	mov	r1, r0
80017744:	e1a00004 	mov	r0, r4
80017748:	ebffd57f 	bl	8000cd4c <bread>
8001774c:	e7e82055 	ubfx	r2, r5, #0, #9
80017750:	e1a07000 	mov	r7, r0
80017754:	e0493006 	sub	r3, r9, r6
80017758:	e2624c02 	rsb	r4, r2, #512	; 0x200
8001775c:	e1540003 	cmp	r4, r3
80017760:	e2800018 	add	r0, r0, #24
80017764:	e0800002 	add	r0, r0, r2
80017768:	21a04003 	movcs	r4, r3
8001776c:	e0866004 	add	r6, r6, r4
80017770:	e1a01008 	mov	r1, r8
80017774:	e0855004 	add	r5, r5, r4
80017778:	e1a02004 	mov	r2, r4
8001777c:	e0888004 	add	r8, r8, r4
80017780:	ebffcb3e 	bl	8000a480 <memmove>
80017784:	e1a00007 	mov	r0, r7
80017788:	ebffdfde 	bl	8000f708 <log_write>
8001778c:	e1a00007 	mov	r0, r7
80017790:	ebffd5b9 	bl	8000ce7c <brelse>
80017794:	e1590006 	cmp	r9, r6
80017798:	8affffe4 	bhi	80017730 <writei+0x50>
8001779c:	e59a3018 	ldr	r3, [sl, #24]
800177a0:	e1550003 	cmp	r5, r3
800177a4:	8a00000e 	bhi	800177e4 <writei+0x104>
800177a8:	e1a00009 	mov	r0, r9
800177ac:	e8bd87f0 	pop	{r4, r5, r6, r7, r8, r9, sl, pc}
800177b0:	e1d021f2 	ldrsh	r2, [r0, #18]
800177b4:	e6ff3072 	uxth	r3, r2
800177b8:	e3530009 	cmp	r3, #9
800177bc:	8a00000d 	bhi	800177f8 <writei+0x118>
800177c0:	e30c3f1c 	movw	r3, #53020	; 0xcf1c
800177c4:	e3483009 	movt	r3, #32777	; 0x8009
800177c8:	e0833182 	add	r3, r3, r2, lsl #3
800177cc:	e5933004 	ldr	r3, [r3, #4]
800177d0:	e3530000 	cmp	r3, #0
800177d4:	0a000007 	beq	800177f8 <writei+0x118>
800177d8:	e1a02009 	mov	r2, r9
800177dc:	e8bd47f0 	pop	{r4, r5, r6, r7, r8, r9, sl, lr}
800177e0:	e12fff13 	bx	r3
800177e4:	e58a5018 	str	r5, [sl, #24]
800177e8:	e1a0000a 	mov	r0, sl
800177ec:	ebfffe97 	bl	80017250 <iupdate>
800177f0:	e1a00009 	mov	r0, r9
800177f4:	e8bd87f0 	pop	{r4, r5, r6, r7, r8, r9, sl, pc}
800177f8:	e3e00000 	mvn	r0, #0
800177fc:	e8bd87f0 	pop	{r4, r5, r6, r7, r8, r9, sl, pc}

80017800 <namecmp>:
80017800:	e3a0200e 	mov	r2, #14
80017804:	eaffcb35 	b	8000a4e0 <strncmp>

80017808 <dirlookup>:
80017808:	e1d031f0 	ldrsh	r3, [r0, #16]
8001780c:	e92d40f0 	push	{r4, r5, r6, r7, lr}
80017810:	e3530001 	cmp	r3, #1
80017814:	e24dd014 	sub	sp, sp, #20
80017818:	1a000027 	bne	800178bc <dirlookup+0xb4>
8001781c:	e5903018 	ldr	r3, [r0, #24]
80017820:	e1a05000 	mov	r5, r0
80017824:	e3530000 	cmp	r3, #0
80017828:	11a06001 	movne	r6, r1
8001782c:	11a07002 	movne	r7, r2
80017830:	13a04000 	movne	r4, #0
80017834:	0a000013 	beq	80017888 <dirlookup+0x80>
80017838:	e3a03010 	mov	r3, #16
8001783c:	e1a02004 	mov	r2, r4
80017840:	e1a0100d 	mov	r1, sp
80017844:	e1a00005 	mov	r0, r5
80017848:	ebffff68 	bl	800175f0 <readi>
8001784c:	e3500010 	cmp	r0, #16
80017850:	1a000016 	bne	800178b0 <dirlookup+0xa8>
80017854:	e1dd30b0 	ldrh	r3, [sp]
80017858:	e3530000 	cmp	r3, #0
8001785c:	0a000005 	beq	80017878 <dirlookup+0x70>
80017860:	e3a0200e 	mov	r2, #14
80017864:	e28d1002 	add	r1, sp, #2
80017868:	e1a00006 	mov	r0, r6
8001786c:	ebffcb1b 	bl	8000a4e0 <strncmp>
80017870:	e3500000 	cmp	r0, #0
80017874:	0a000006 	beq	80017894 <dirlookup+0x8c>
80017878:	e5953018 	ldr	r3, [r5, #24]
8001787c:	e2844010 	add	r4, r4, #16
80017880:	e1540003 	cmp	r4, r3
80017884:	3affffeb 	bcc	80017838 <dirlookup+0x30>
80017888:	e3a00000 	mov	r0, #0
8001788c:	e28dd014 	add	sp, sp, #20
80017890:	e8bd80f0 	pop	{r4, r5, r6, r7, pc}
80017894:	e1dd10b0 	ldrh	r1, [sp]
80017898:	e3570000 	cmp	r7, #0
8001789c:	15874000 	strne	r4, [r7]
800178a0:	e5950000 	ldr	r0, [r5]
800178a4:	ebfffd5a 	bl	80016e14 <iget>
800178a8:	e28dd014 	add	sp, sp, #20
800178ac:	e8bd80f0 	pop	{r4, r5, r6, r7, pc}
800178b0:	e3090720 	movw	r0, #38688	; 0x9720
800178b4:	e3480001 	movt	r0, #32769	; 0x8001
800178b8:	ebffcfeb 	bl	8000b86c <panic>
800178bc:	e309070c 	movw	r0, #38668	; 0x970c
800178c0:	e3480001 	movt	r0, #32769	; 0x8001
800178c4:	ebffcfe8 	bl	8000b86c <panic>

800178c8 <namex>:
800178c8:	e92d47f0 	push	{r4, r5, r6, r7, r8, r9, sl, lr}
800178cc:	e1a04000 	mov	r4, r0
800178d0:	e5d03000 	ldrb	r3, [r0]
800178d4:	e1a07001 	mov	r7, r1
800178d8:	e1a06002 	mov	r6, r2
800178dc:	e353002f 	cmp	r3, #47	; 0x2f
800178e0:	0a000052 	beq	80017a30 <namex+0x168>
800178e4:	e30a3b14 	movw	r3, #43796	; 0xab14
800178e8:	e30e0ee0 	movw	r0, #61152	; 0xeee0
800178ec:	e3483009 	movt	r3, #32777	; 0x8009
800178f0:	e3480009 	movt	r0, #32777	; 0x8009
800178f4:	e5933018 	ldr	r3, [r3, #24]
800178f8:	e5935068 	ldr	r5, [r3, #104]	; 0x68
800178fc:	ebffd139 	bl	8000bde8 <acquire>
80017900:	e30e0ee0 	movw	r0, #61152	; 0xeee0
80017904:	e5953008 	ldr	r3, [r5, #8]
80017908:	e3480009 	movt	r0, #32777	; 0x8009
8001790c:	e2833001 	add	r3, r3, #1
80017910:	e5853008 	str	r3, [r5, #8]
80017914:	ebffd169 	bl	8000bec0 <release>
80017918:	e3a08000 	mov	r8, #0
8001791c:	e5d43000 	ldrb	r3, [r4]
80017920:	e353002f 	cmp	r3, #47	; 0x2f
80017924:	1a000002 	bne	80017934 <namex+0x6c>
80017928:	e5f43001 	ldrb	r3, [r4, #1]!
8001792c:	e353002f 	cmp	r3, #47	; 0x2f
80017930:	0afffffc 	beq	80017928 <namex+0x60>
80017934:	e3530000 	cmp	r3, #0
80017938:	0a000038 	beq	80017a20 <namex+0x158>
8001793c:	e5d43000 	ldrb	r3, [r4]
80017940:	e253202f 	subs	r2, r3, #47	; 0x2f
80017944:	13a02001 	movne	r2, #1
80017948:	e3530000 	cmp	r3, #0
8001794c:	03a02000 	moveq	r2, #0
80017950:	e3520000 	cmp	r2, #0
80017954:	01a0a006 	moveq	sl, r6
80017958:	01a09004 	moveq	r9, r4
8001795c:	0a000029 	beq	80017a08 <namex+0x140>
80017960:	e1a09004 	mov	r9, r4
80017964:	e5f93001 	ldrb	r3, [r9, #1]!
80017968:	e353002f 	cmp	r3, #47	; 0x2f
8001796c:	13530000 	cmpne	r3, #0
80017970:	1afffffb 	bne	80017964 <namex+0x9c>
80017974:	e0492004 	sub	r2, r9, r4
80017978:	e352000d 	cmp	r2, #13
8001797c:	d086a002 	addle	sl, r6, r2
80017980:	da000020 	ble	80017a08 <namex+0x140>
80017984:	e1a01004 	mov	r1, r4
80017988:	e3a0200e 	mov	r2, #14
8001798c:	e1a00006 	mov	r0, r6
80017990:	e1a04009 	mov	r4, r9
80017994:	ebffcab9 	bl	8000a480 <memmove>
80017998:	e5d93000 	ldrb	r3, [r9]
8001799c:	e353002f 	cmp	r3, #47	; 0x2f
800179a0:	1a000002 	bne	800179b0 <namex+0xe8>
800179a4:	e5f43001 	ldrb	r3, [r4, #1]!
800179a8:	e353002f 	cmp	r3, #47	; 0x2f
800179ac:	0afffffc 	beq	800179a4 <namex+0xdc>
800179b0:	e1a00005 	mov	r0, r5
800179b4:	ebfffe51 	bl	80017300 <ilock>
800179b8:	e1d531f0 	ldrsh	r3, [r5, #16]
800179bc:	e3530001 	cmp	r3, #1
800179c0:	1a00001f 	bne	80017a44 <namex+0x17c>
800179c4:	e3570000 	cmp	r7, #0
800179c8:	0a000002 	beq	800179d8 <namex+0x110>
800179cc:	e5d43000 	ldrb	r3, [r4]
800179d0:	e3530000 	cmp	r3, #0
800179d4:	0a000027 	beq	80017a78 <namex+0x1b0>
800179d8:	e3a02000 	mov	r2, #0
800179dc:	e1a01006 	mov	r1, r6
800179e0:	e1a00005 	mov	r0, r5
800179e4:	ebffff87 	bl	80017808 <dirlookup>
800179e8:	e2509000 	subs	r9, r0, #0
800179ec:	e1a00005 	mov	r0, r5
800179f0:	0a00001a 	beq	80017a60 <namex+0x198>
800179f4:	ebfffe83 	bl	80017408 <iunlock>
800179f8:	e1a00005 	mov	r0, r5
800179fc:	e1a05009 	mov	r5, r9
80017a00:	ebfffe98 	bl	80017468 <iput>
80017a04:	eaffffc4 	b	8001791c <namex+0x54>
80017a08:	e1a01004 	mov	r1, r4
80017a0c:	e1a00006 	mov	r0, r6
80017a10:	e1a04009 	mov	r4, r9
80017a14:	ebffca99 	bl	8000a480 <memmove>
80017a18:	e5ca8000 	strb	r8, [sl]
80017a1c:	eaffffdd 	b	80017998 <namex+0xd0>
80017a20:	e3570000 	cmp	r7, #0
80017a24:	1a000017 	bne	80017a88 <namex+0x1c0>
80017a28:	e1a00005 	mov	r0, r5
80017a2c:	e8bd87f0 	pop	{r4, r5, r6, r7, r8, r9, sl, pc}
80017a30:	e3a01001 	mov	r1, #1
80017a34:	e1a00001 	mov	r0, r1
80017a38:	ebfffcf5 	bl	80016e14 <iget>
80017a3c:	e1a05000 	mov	r5, r0
80017a40:	eaffffb4 	b	80017918 <namex+0x50>
80017a44:	e1a00005 	mov	r0, r5
80017a48:	ebfffe6e 	bl	80017408 <iunlock>
80017a4c:	e1a00005 	mov	r0, r5
80017a50:	e3a05000 	mov	r5, #0
80017a54:	ebfffe83 	bl	80017468 <iput>
80017a58:	e1a00005 	mov	r0, r5
80017a5c:	e8bd87f0 	pop	{r4, r5, r6, r7, r8, r9, sl, pc}
80017a60:	ebfffe68 	bl	80017408 <iunlock>
80017a64:	e1a00005 	mov	r0, r5
80017a68:	e1a05009 	mov	r5, r9
80017a6c:	ebfffe7d 	bl	80017468 <iput>
80017a70:	e1a00005 	mov	r0, r5
80017a74:	e8bd87f0 	pop	{r4, r5, r6, r7, r8, r9, sl, pc}
80017a78:	e1a00005 	mov	r0, r5
80017a7c:	ebfffe61 	bl	80017408 <iunlock>
80017a80:	e1a00005 	mov	r0, r5
80017a84:	e8bd87f0 	pop	{r4, r5, r6, r7, r8, r9, sl, pc}
80017a88:	e1a00005 	mov	r0, r5
80017a8c:	e1a05003 	mov	r5, r3
80017a90:	ebfffe74 	bl	80017468 <iput>
80017a94:	eaffffe3 	b	80017a28 <namex+0x160>

80017a98 <dirlink>:
80017a98:	e92d41f0 	push	{r4, r5, r6, r7, r8, lr}
80017a9c:	e1a07002 	mov	r7, r2
80017aa0:	e24dd010 	sub	sp, sp, #16
80017aa4:	e3a02000 	mov	r2, #0
80017aa8:	e1a05000 	mov	r5, r0
80017aac:	e1a08001 	mov	r8, r1
80017ab0:	ebffff54 	bl	80017808 <dirlookup>
80017ab4:	e2503000 	subs	r3, r0, #0
80017ab8:	1a000023 	bne	80017b4c <dirlink+0xb4>
80017abc:	e5954018 	ldr	r4, [r5, #24]
80017ac0:	e3540000 	cmp	r4, #0
80017ac4:	01a0600d 	moveq	r6, sp
80017ac8:	0a000010 	beq	80017b10 <dirlink+0x78>
80017acc:	e1a04003 	mov	r4, r3
80017ad0:	e1a0600d 	mov	r6, sp
80017ad4:	ea000003 	b	80017ae8 <dirlink+0x50>
80017ad8:	e5953018 	ldr	r3, [r5, #24]
80017adc:	e2844010 	add	r4, r4, #16
80017ae0:	e1540003 	cmp	r4, r3
80017ae4:	2a000009 	bcs	80017b10 <dirlink+0x78>
80017ae8:	e3a03010 	mov	r3, #16
80017aec:	e1a02004 	mov	r2, r4
80017af0:	e1a01006 	mov	r1, r6
80017af4:	e1a00005 	mov	r0, r5
80017af8:	ebfffebc 	bl	800175f0 <readi>
80017afc:	e3500010 	cmp	r0, #16
80017b00:	1a000014 	bne	80017b58 <dirlink+0xc0>
80017b04:	e1dd30b0 	ldrh	r3, [sp]
80017b08:	e3530000 	cmp	r3, #0
80017b0c:	1afffff1 	bne	80017ad8 <dirlink+0x40>
80017b10:	e1a01008 	mov	r1, r8
80017b14:	e3a0200e 	mov	r2, #14
80017b18:	e28d0002 	add	r0, sp, #2
80017b1c:	ebffca87 	bl	8000a540 <strncpy>
80017b20:	e1cd70b0 	strh	r7, [sp]
80017b24:	e1a02004 	mov	r2, r4
80017b28:	e1a01006 	mov	r1, r6
80017b2c:	e1a00005 	mov	r0, r5
80017b30:	e3a03010 	mov	r3, #16
80017b34:	ebfffee9 	bl	800176e0 <writei>
80017b38:	e3500010 	cmp	r0, #16
80017b3c:	03a00000 	moveq	r0, #0
80017b40:	1a000007 	bne	80017b64 <dirlink+0xcc>
80017b44:	e28dd010 	add	sp, sp, #16
80017b48:	e8bd81f0 	pop	{r4, r5, r6, r7, r8, pc}
80017b4c:	ebfffe45 	bl	80017468 <iput>
80017b50:	e3e00000 	mvn	r0, #0
80017b54:	eafffffa 	b	80017b44 <dirlink+0xac>
80017b58:	e3090720 	movw	r0, #38688	; 0x9720
80017b5c:	e3480001 	movt	r0, #32769	; 0x8001
80017b60:	ebffcf41 	bl	8000b86c <panic>
80017b64:	e3070ed8 	movw	r0, #32472	; 0x7ed8
80017b68:	e3480001 	movt	r0, #32769	; 0x8001
80017b6c:	ebffcf3e 	bl	8000b86c <panic>

80017b70 <namei>:
80017b70:	e52de004 	push	{lr}		; (str lr, [sp, #-4]!)
80017b74:	e24dd014 	sub	sp, sp, #20
80017b78:	e1a0200d 	mov	r2, sp
80017b7c:	e3a01000 	mov	r1, #0
80017b80:	ebffff50 	bl	800178c8 <namex>
80017b84:	e28dd014 	add	sp, sp, #20
80017b88:	e49df004 	pop	{pc}		; (ldr pc, [sp], #4)

80017b8c <nameiparent>:
80017b8c:	e1a02001 	mov	r2, r1
80017b90:	e3a01001 	mov	r1, #1
80017b94:	eaffff4b 	b	800178c8 <namex>

80017b98 <DWHCIRootPort>:
80017b98:	e3a03000 	mov	r3, #0
80017b9c:	e880000a 	stm	r0, {r1, r3}
80017ba0:	e12fff1e 	bx	lr

80017ba4 <_DWHCIRootPort>:
80017ba4:	e92d4010 	push	{r4, lr}
80017ba8:	e1a04000 	mov	r4, r0
80017bac:	e5900004 	ldr	r0, [r0, #4]
80017bb0:	e3500000 	cmp	r0, #0
80017bb4:	0a000004 	beq	80017bcc <_DWHCIRootPort+0x28>
80017bb8:	ebffcbfc 	bl	8000abb0 <_USBDevice>
80017bbc:	e5940004 	ldr	r0, [r4, #4]
80017bc0:	ebffe792 	bl	80011a10 <free>
80017bc4:	e3a03000 	mov	r3, #0
80017bc8:	e5843004 	str	r3, [r4, #4]
80017bcc:	e3a03000 	mov	r3, #0
80017bd0:	e5843000 	str	r3, [r4]
80017bd4:	e8bd8010 	pop	{r4, pc}

80017bd8 <DWHCIRootPortInitialize>:
80017bd8:	e92d40f0 	push	{r4, r5, r6, r7, lr}
80017bdc:	e1a04000 	mov	r4, r0
80017be0:	e5900000 	ldr	r0, [r0]
80017be4:	e24dd00c 	sub	sp, sp, #12
80017be8:	ebfff529 	bl	80015094 <DWHCIDeviceGetPortSpeed>
80017bec:	e3500003 	cmp	r0, #3
80017bf0:	0a000046 	beq	80017d10 <DWHCIRootPortInitialize+0x138>
80017bf4:	e1a05000 	mov	r5, r0
80017bf8:	e3a0003c 	mov	r0, #60	; 0x3c
80017bfc:	e3a06001 	mov	r6, #1
80017c00:	ebffe77b 	bl	800119f4 <malloc>
80017c04:	e5840004 	str	r0, [r4, #4]
80017c08:	e1a02005 	mov	r2, r5
80017c0c:	e58d6000 	str	r6, [sp]
80017c10:	e3a03000 	mov	r3, #0
80017c14:	e5941000 	ldr	r1, [r4]
80017c18:	ebffcb8b 	bl	8000aa4c <USBDevice>
80017c1c:	e5940004 	ldr	r0, [r4, #4]
80017c20:	ebffcc08 	bl	8000ac48 <USBDeviceInitialize>
80017c24:	e2505000 	subs	r5, r0, #0
80017c28:	e5940004 	ldr	r0, [r4, #4]
80017c2c:	0a000030 	beq	80017cf4 <DWHCIRootPortInitialize+0x11c>
80017c30:	ebffd6bc 	bl	8000d728 <USBStandardHubGetDeviceNames>
80017c34:	e1a05000 	mov	r5, r0
80017c38:	ebffc37c 	bl	80008a30 <StringGet>
80017c3c:	e1a03000 	mov	r3, r0
80017c40:	e3092754 	movw	r2, #38740	; 0x9754
80017c44:	e3482001 	movt	r2, #32769	; 0x8001
80017c48:	e3090730 	movw	r0, #38704	; 0x9730
80017c4c:	e3480001 	movt	r0, #32769	; 0x8001
80017c50:	e3a01003 	mov	r1, #3
80017c54:	ebffe7c0 	bl	80011b5c <LogWrite>
80017c58:	e1a00005 	mov	r0, r5
80017c5c:	ebffc369 	bl	80008a08 <_String>
80017c60:	e1a00005 	mov	r0, r5
80017c64:	ebffe769 	bl	80011a10 <free>
80017c68:	e5940004 	ldr	r0, [r4, #4]
80017c6c:	ebffcd7a 	bl	8000b25c <USBDeviceFactoryGetDevice>
80017c70:	e2507000 	subs	r7, r0, #0
80017c74:	0a00002f 	beq	80017d38 <DWHCIRootPortInitialize+0x160>
80017c78:	e5940004 	ldr	r0, [r4, #4]
80017c7c:	ebffcbcb 	bl	8000abb0 <_USBDevice>
80017c80:	e5940004 	ldr	r0, [r4, #4]
80017c84:	ebffe761 	bl	80011a10 <free>
80017c88:	e5847004 	str	r7, [r4, #4]
80017c8c:	e1a00007 	mov	r0, r7
80017c90:	e5973000 	ldr	r3, [r7]
80017c94:	e12fff33 	blx	r3
80017c98:	e2505000 	subs	r5, r0, #0
80017c9c:	0a00000d 	beq	80017cd8 <DWHCIRootPortInitialize+0x100>
80017ca0:	e309277c 	movw	r2, #38780	; 0x977c
80017ca4:	e3090730 	movw	r0, #38704	; 0x9730
80017ca8:	e3482001 	movt	r2, #32769	; 0x8001
80017cac:	e3a01004 	mov	r1, #4
80017cb0:	e3480001 	movt	r0, #32769	; 0x8001
80017cb4:	ebffe7a8 	bl	80011b5c <LogWrite>
80017cb8:	e5940000 	ldr	r0, [r4]
80017cbc:	ebfff507 	bl	800150e0 <DWHCIDeviceOvercurrentDetected>
80017cc0:	e3500000 	cmp	r0, #0
80017cc4:	01a05006 	moveq	r5, r6
80017cc8:	1a000027 	bne	80017d6c <DWHCIRootPortInitialize+0x194>
80017ccc:	e1a00005 	mov	r0, r5
80017cd0:	e28dd00c 	add	sp, sp, #12
80017cd4:	e8bd80f0 	pop	{r4, r5, r6, r7, pc}
80017cd8:	e3092764 	movw	r2, #38756	; 0x9764
80017cdc:	e3090730 	movw	r0, #38704	; 0x9730
80017ce0:	e3480001 	movt	r0, #32769	; 0x8001
80017ce4:	e1a01006 	mov	r1, r6
80017ce8:	e3482001 	movt	r2, #32769	; 0x8001
80017cec:	ebffe79a 	bl	80011b5c <LogWrite>
80017cf0:	e5940004 	ldr	r0, [r4, #4]
80017cf4:	ebffcbad 	bl	8000abb0 <_USBDevice>
80017cf8:	e5940004 	ldr	r0, [r4, #4]
80017cfc:	ebffe743 	bl	80011a10 <free>
80017d00:	e5845004 	str	r5, [r4, #4]
80017d04:	e1a00005 	mov	r0, r5
80017d08:	e28dd00c 	add	sp, sp, #12
80017d0c:	e8bd80f0 	pop	{r4, r5, r6, r7, pc}
80017d10:	e3092738 	movw	r2, #38712	; 0x9738
80017d14:	e3090730 	movw	r0, #38704	; 0x9730
80017d18:	e3482001 	movt	r2, #32769	; 0x8001
80017d1c:	e3a01001 	mov	r1, #1
80017d20:	e3480001 	movt	r0, #32769	; 0x8001
80017d24:	e3a05000 	mov	r5, #0
80017d28:	ebffe78b 	bl	80011b5c <LogWrite>
80017d2c:	e1a00005 	mov	r0, r5
80017d30:	e28dd00c 	add	sp, sp, #12
80017d34:	e8bd80f0 	pop	{r4, r5, r6, r7, pc}
80017d38:	e3092790 	movw	r2, #38800	; 0x9790
80017d3c:	e3090730 	movw	r0, #38704	; 0x9730
80017d40:	e3482001 	movt	r2, #32769	; 0x8001
80017d44:	e3a01003 	mov	r1, #3
80017d48:	e3480001 	movt	r0, #32769	; 0x8001
80017d4c:	e1a05007 	mov	r5, r7
80017d50:	ebffe781 	bl	80011b5c <LogWrite>
80017d54:	e5940004 	ldr	r0, [r4, #4]
80017d58:	ebffcb94 	bl	8000abb0 <_USBDevice>
80017d5c:	e5940004 	ldr	r0, [r4, #4]
80017d60:	ebffe72a 	bl	80011a10 <free>
80017d64:	e5847004 	str	r7, [r4, #4]
80017d68:	eaffffd7 	b	80017ccc <DWHCIRootPortInitialize+0xf4>
80017d6c:	e30927a8 	movw	r2, #38824	; 0x97a8
80017d70:	e3090730 	movw	r0, #38704	; 0x9730
80017d74:	e3482001 	movt	r2, #32769	; 0x8001
80017d78:	e1a01006 	mov	r1, r6
80017d7c:	e3480001 	movt	r0, #32769	; 0x8001
80017d80:	e3a05000 	mov	r5, #0
80017d84:	ebffe774 	bl	80011b5c <LogWrite>
80017d88:	e5940000 	ldr	r0, [r4]
80017d8c:	ebfff4e6 	bl	8001512c <DWHCIDeviceDisableRootPort>
80017d90:	e5940004 	ldr	r0, [r4, #4]
80017d94:	ebffcb85 	bl	8000abb0 <_USBDevice>
80017d98:	e5940004 	ldr	r0, [r4, #4]
80017d9c:	ebffe71b 	bl	80011a10 <free>
80017da0:	e5845004 	str	r5, [r4, #4]
80017da4:	eaffffc8 	b	80017ccc <DWHCIRootPortInitialize+0xf4>
